
./build/firmware.elf:     file format elf32-littlearm

SYMBOL TABLE:
60000000 l    d  .text.headers	00000000 .text.headers
60001400 l    d  .text.code	00000000 .text.code
600028f8 l    d  .text.progmem	00000000 .text.progmem
00000000 l    d  .text.itcm	00000000 .text.itcm
0001f760 l    d  .fini	00000000 .fini
0001f764 l    d  .ARM.exidx	00000000 .ARM.exidx
20000000 l    d  .data	00000000 .data
20005ec0 l    d  .bss	00000000 .bss
20200000 l    d  .bss.dma	00000000 .bss.dma
70000000 l    d  .bss.extram	00000000 .bss.extram
60028814 l    d  .text.csf	00000000 .text.csf
00000000 l    d  .ARM.attributes	00000000 .ARM.attributes
00000000 l    d  .comment	00000000 .comment
00000000 l    df *ABS*	00000000 bootdata.c
00000000 l    df *ABS*	00000000 startup.c
60001400 l     F .text.code	00000012 memory_copy
60001414 l     F .text.code	0000001c memory_clear.constprop.0
60001430 l     F .text.code	0000021c ResetHandler2
00000000 l    df *ABS*	00000000 FlexIO_t4.cpp
60001674 l     F .text.code	00000070 _ZL14pll_fractionalmmmm
600016e4 l     F .text.code	000001a0 _ZL15best_pll_configfRhRmS0_S_S_
000008c0 l     F .text.itcm	0000007c _GLOBAL__sub_I_flex1_Handler_callbacks
20009d50 l     O .bss	00000014 _ZL7flexIO1
20009d64 l     O .bss	00000014 _ZL7flexIO2
20009d78 l     O .bss	00000014 _ZL7flexIO3
600028f8 l     O .text.progmem	00000040 _ZL22flexio_t4_pins_flexio1
60002938 l     O .text.progmem	00000080 _ZL22flexio_t4_pins_flexio2
600029b8 l     O .text.progmem	00000080 _ZL22flexio_t4_pins_flexio3
20002648 l     O .data	0000001e _ZZL15best_flexio_divfPfE9uniquediv
00000000 l    df *ABS*	00000000 QNMDNS.cpp
00001a74 l     F .text.itcm	0000004c _GLOBAL__sub_I__ZN10StaticInitIN9qindesign7network9MDNSClassEE13nifty_counterE
2000b3f9 l     O .bss	00000001 _ZN9qindesign7networkL10netifAddedE
20009f34 l     O .bss	00000001 _ZN9qindesign7networkL8MDNSInitE
00000000 l    df *ABS*	00000000 entropy.c
2000b26c l     O .bss	00000004 s_entropySizeBytes
20200000 l     O .bss.dma	00000040 s_entropy
00000000 l    df *ABS*	00000000 RandomDevice.cpp
00001c9c l     F .text.itcm	00000048 _GLOBAL__sub_I__ZN10StaticInitIN9qindesign8security12RandomDeviceEE13nifty_counterE
20009f50 l     O .bss	00000001 _ZN9qindesign8securityL16randomDeviceInitE
00000000 l    df *ABS*	00000000 QNEthernet.cpp
000055d4 l     F .text.itcm	000000dc _GLOBAL__sub_I__ZN10StaticInitIN9qindesign7network13EthernetClassEE13nifty_counterE
20009d1c l     O .bss	00000008 _ZL11INADDR_NONE
20009f30 l     O .bss	00000001 _ZN9qindesign7networkL12EthernetInitE
2000b3fa l     O .bss	00000001 _ZN9qindesign7networkL12loopAttachedE
20009f48 l     O .bss	00000001 _ZN9qindesign7networkL8MDNSInitE
20009f64 l     O .bss	00000001 _ZN9qindesign8securityL16randomDeviceInitE
20005228 l     O .data	00000020 _ZN9qindesign7networkL7ethLoopE
00000000 l    df *ABS*	00000000 WireIMXRT.cpp
00012df4 l     F .text.itcm	00000048 _GLOBAL__sub_I__ZN7TwoWire5beginEv
00000000 l    df *ABS*	00000000 usb.c
00012f24 l     F .text.itcm	00000088 schedule_transfer
00012fac l     F .text.itcm	00000036 run_callbacks
00012fe4 l     F .text.itcm	00000098 endpoint0_transmit.constprop.0
2000a5ec l     O .bss	00000008 endpoint0_buffer
2000a5f4 l     O .bss	00000004 endpoint0_notify_mask
20009360 l     O .bss	00000008 endpoint0_setupdata
2000a5f8 l     O .bss	00000004 endpointN_notify_mask
2000b1fc l     O .bss	00000008 reply_buffer
2000b409 l     O .bss	00000001 sof_usage
2000b415 l     O .bss	00000001 usb_reboot_timer
00000000 l    df *ABS*	00000000 analog.c
2000b3fe l     O .bss	00000001 calibrating
00000000 l    df *ABS*	00000000 tempmon.c
2000b270 l     O .bss	00000004 s_hotCount
2000b274 l     O .bss	00000004 s_hotTemp
2000b278 l     O .bss	00000004 s_hot_ROOM
2000b284 l     O .bss	00000004 s_roomC_hotC
00000000 l    df *ABS*	00000000 crti.o
00000000 l    df *ABS*	00000000 crtn.o
00000000 l    df *ABS*	00000000 crtstuff.c
000000e0 l     F .text.itcm	00000000 register_tm_clones
00000104 l     F .text.itcm	00000000 frame_dummy
2000b1e4 l     O .bss	00000000 object.0
60002890 l     O .text.code	00000000 __frame_dummy_init_array_entry
00000000 l    df *ABS*	00000000 SPI.cpp
00000140 l     F .text.itcm	00000060 _ZN8SPIClass8transferEPKvPvj.part.0
00000608 l     F .text.itcm	00000048 _GLOBAL__sub_I__ZN8SPIClass5beginEv
00000000 l    df *ABS*	00000000 SD.cpp
00001800 l     F .text.itcm	00000080 _GLOBAL__sub_I_SD
00000000 l    df *ABS*	00000000 TeensyDebug.cpp
000018c4 l     F .text.itcm	00000014 _GLOBAL__sub_I_sw_breakpoint_addr
00000000 l    df *ABS*	00000000 gdbstub.cpp
00001980 l     F .text.itcm	00000018 _GLOBAL__sub_I_dev
00000000 l    df *ABS*	00000000 QNDNSClient.cpp
00001aec l     F .text.itcm	00000014 _GLOBAL__sub_I__ZN9qindesign7network9DNSClient12dnsFoundFuncEPKcPK8ip4_addrPv
20009d04 l     O .bss	00000008 _ZL11INADDR_NONE
00000000 l    df *ABS*	00000000 QNEthernetUDP.cpp
00001d0c l     F .text.itcm	000000c0 _GLOBAL__sub_I__ZN9qindesign7network11EthernetUDP8recvFuncEPvP7udp_pcbP4pbufPK8ip4_addrt
20009d0c l     O .bss	00000008 _ZL11INADDR_NONE
20009f20 l     O .bss	00000001 _ZN9qindesign7networkL12EthernetInitE
20009f38 l     O .bss	00000001 _ZN9qindesign7networkL8MDNSInitE
20009f54 l     O .bss	00000001 _ZN9qindesign8securityL16randomDeviceInitE
00000000 l    df *ABS*	00000000 QNEthernetServer.cpp
00001dcc l     F .text.itcm	000000ac _GLOBAL__sub_I__ZN9qindesign7network14EthernetServerC2Ev
20009f24 l     O .bss	00000001 _ZN9qindesign7networkL12EthernetInitE
20009f3c l     O .bss	00000001 _ZN9qindesign7networkL8MDNSInitE
20009f58 l     O .bss	00000001 _ZN9qindesign8securityL16randomDeviceInitE
00000000 l    df *ABS*	00000000 ConnectionManager.cpp
000053b8 l     F .text.itcm	000000ac _GLOBAL__sub_I__ZN9qindesign7network8internal17ConnectionManager8instanceEv
20009f28 l     O .bss	00000001 _ZN9qindesign7networkL12EthernetInitE
20009f40 l     O .bss	00000001 _ZN9qindesign7networkL8MDNSInitE
20009f5c l     O .bss	00000001 _ZN9qindesign8securityL16randomDeviceInitE
00000000 l    df *ABS*	00000000 QNEthernetClient.cpp
00005468 l     F .text.itcm	000000c0 _GLOBAL__sub_I__ZN9qindesign7network14EthernetClientC2Ev
20009d14 l     O .bss	00000008 _ZL11INADDR_NONE
20009f2c l     O .bss	00000001 _ZN9qindesign7networkL12EthernetInitE
20009f44 l     O .bss	00000001 _ZN9qindesign7networkL8MDNSInitE
20009f60 l     O .bss	00000001 _ZN9qindesign8securityL16randomDeviceInitE
00000000 l    df *ABS*	00000000 OV5640.cpp
00006c40 l     F .text.itcm	0000062c _ZN6OV564012setFramesizeEii.part.0
00007eb4 l     F .text.itcm	00000038 _GLOBAL__sub_I__ZN6OV5640C2Ev
2000b3dc l     O .bss	00000002 _ZL10hts_target
2000b3de l     O .bss	00000002 _ZL9readout_x
2000b3e0 l     O .bss	00000002 _ZL9readout_y
20004228 l     O .data	00000fed _ZL16af_firmware_regs
20005a42 l     O .data	00000002 _ZL9readout_h
20005a44 l     O .data	00000002 _ZL9readout_w
60002a38 l     O .text.progmem	00000248 _ZL21OV5640_reg_name_table
20000950 l     O .data	000000d8 _ZL10resolution
20000b54 l     O .data	00000357 _ZL12default_regs
20000eac l     O .data	00000007 _ZL13contrast_regs
20000eb4 l     O .data	00000012 _ZL15saturation_regs
20000ec8 l     O .data	00000024 _ZL8hue_regs
00000000 l    df *ABS*	00000000 ImageSensor.cpp
0000a2bc l     F .text.itcm	00000038 _GLOBAL__sub_I__ZN11ImageSensor17active_dma_cameraE
2000b3fc l     O .bss	00000001 _ZZN11ImageSensor9call_backEP13FlexIOHandlerE19count_SHIFSIEN_ints
00000000 l    df *ABS*	00000000 OV2640.cpp
0000a450 l     F .text.itcm	00000038 _GLOBAL__sub_I__ZN6OV2640C2Ev
00000000 l    df *ABS*	00000000 FastLED.cpp
0000a48c l     F .text.itcm	00000018 _GLOBAL__sub_I_pSmartMatrix
00000000 l    df *ABS*	00000000 IntervalTimer.cpp
00013c14 l     F .text.itcm	00000020 __tcf_0
00013ca4 l     F .text.itcm	0000002c _GLOBAL__sub_I__ZN13IntervalTimer14nvic_prioritesE
20005ec0 l     O .bss	00000060 _ZL11funct_table
00000000 l    df *ABS*	00000000 Tone.cpp
00013cf4 l     F .text.itcm	00000018 _GLOBAL__sub_I__Z4tonehtm
20004220 l     O .data	00000008 _ZL10tone_timer
00000000 l    df *ABS*	00000000 buff_encoder.cpp
000169b4 l     F .text.itcm	00000018 _GLOBAL__sub_I__ZN11BuffEncoder10m_settingsE
00000000 l    df *ABS*	00000000 IMU.cpp
00016aa8 l     F .text.itcm	00000024 _GLOBAL__sub_I_icm
00000000 l    df *ABS*	00000000 ServoController.cpp
00016b58 l     F .text.itcm	00000030 _GLOBAL__sub_I_fin1
00000000 l    df *ABS*	00000000 main.cpp
00016c14 l     F .text.itcm	000000b0 _GLOBAL__sub_I_servoCont
00000000 l    df *ABS*	00000000 eh_alloc.o
00016cd0 l     F .text.itcm	00000028 _GLOBAL__sub_I__ZN9__gnu_cxx9__freeresEv
00000000 l    df *ABS*	00000000 teensy_csi_support.cpp
60002c80 l     O .text.progmem	000002d8 _ZL21csi_pin_mapping_table
00000000 l    df *ABS*	00000000 usb_desc.c
200057e0 l     O .data	00000012 device_descriptor
20005a0c l     O .data	0000001e rawhid_report_desc
600031dc l     O .text.progmem	0000000a qualifier_descriptor
00000000 l    df *ABS*	00000000 interrupt.c
00014af8 l     F .text.itcm	00000002 dummy_isr
20000748 l     O .data	00000014 CSWTCH.6
00000000 l    df *ABS*	00000000 platform.cpp
00000000 l    df *ABS*	00000000 driver_teensy41.c
00000000 l    df *ABS*	00000000 sys_arch.cpp
00000000 l    df *ABS*	00000000 qnethernet_hal.cpp
00000000 l    df *ABS*	00000000 dns.c
2000a5e4 l     O .bss	00000008 dns_servers
00000000 l    df *ABS*	00000000 inet_chksum.c
00000000 l    df *ABS*	00000000 udp.c
20005a46 l     O .data	00000002 udp_port
20002708 l     O .data	0000000b __FUNCTION__.2
20002770 l     O .data	00000009 __FUNCTION__.7
2000278c l     O .data	00000012 __FUNCTION__.8
00000000 l    df *ABS*	00000000 err.c
20002fac l     O .data	00000044 err_to_errno_table
00000000 l    df *ABS*	00000000 mdns_out.c
000022a8 l     F .text.itcm	0000009a mdns_add_question.constprop.0
00002344 l     F .text.itcm	000000e2 mdns_add_answer.constprop.0
00002428 l     F .text.itcm	0000001c mdns_add_any_host_question.constprop.0
00002444 l     F .text.itcm	0000001e mdns_add_any_service_question.constprop.0
00002464 l     F .text.itcm	0000005c mdns_add_servicetype_ptr_answer
000024c0 l     F .text.itcm	00000058 mdns_add_a_answer
00002518 l     F .text.itcm	00000076 mdns_add_srv_answer
00002590 l     F .text.itcm	00000060 mdns_add_servicename_ptr_answer
000025f0 l     F .text.itcm	00000064 mdns_add_hostv4_ptr_answer
00002654 l     F .text.itcm	00000032 mdns_add_query_question_to_outpacket.isra.0
00002688 l     F .text.itcm	00000070 mdns_add_txt_answer
00000000 l    df *ABS*	00000000 mdns_domain.c
00002ac0 l     F .text.itcm	00000100 mdns_readname_loop
00002bc0 l     F .text.itcm	000000be mdns_compress_domain.part.0
20002f38 l     O .data	00000008 dnssd_protos
00000000 l    df *ABS*	00000000 mdns.c
00003144 l     F .text.itcm	0000006c mdns_define_probe_rrs_to_send
00003310 l     F .text.itcm	000000e8 mdns_probe_and_announce
2000b1ac l     O .bss	00000004 mdns_name_result_cb
2000b401 l     O .bss	00000001 mdns_netif_client_id
2000b1b0 l     O .bss	00000004 mdns_pcb
200026d8 l     O .data	00000013 __FUNCTION__.1
20002758 l     O .data	00000017 __FUNCTION__.6
200040b4 l     O .data	00000004 v4group
00000000 l    df *ABS*	00000000 pbuf.c
000033f8 l     F .text.itcm	0000002c pbuf_ref.part.0
00000000 l    df *ABS*	00000000 netif.c
00003a4c l     F .text.itcm	00000088 netif_do_set_ipaddr
2000a600 l     O .bss	00000004 ext_callback
200026ec l     O .data	0000000f __FUNCTION__.11
20002724 l     O .data	00000013 __FUNCTION__.3
20002744 l     O .data	00000014 __FUNCTION__.5
2000277c l     O .data	0000000f __FUNCTION__.7
00000000 l    df *ABS*	00000000 tcp.c
00003cec l     F .text.itcm	0000002c tcp_free.part.0
00003d18 l     F .text.itcm	0000002c tcp_eff_send_mss_netif.part.0
200026fc l     O .data	0000000c __FUNCTION__.15
00000000 l    df *ABS*	00000000 mem.c
00000000 l    df *ABS*	00000000 timeouts.c
0000418c l     F .text.itcm	00000064 sys_timeout_abs
2000b1e0 l     O .bss	00000004 next_timeout
20002714 l     O .data	0000000e __FUNCTION__.2
20002738 l     O .data	0000000c __FUNCTION__.3
00000000 l    df *ABS*	00000000 tcp_out.c
000042a0 l     F .text.itcm	000000a0 tcp_output_alloc_header.constprop.0
00004340 l     F .text.itcm	00000034 tcp_output_fill_options.constprop.0
00004374 l     F .text.itcm	0000009c tcp_output_control_segment
00004410 l     F .text.itcm	000000ac tcp_rst_common.isra.0
20002678 l     O .data	0000000b __FUNCTION__.0
00000000 l    df *ABS*	00000000 acd.c
00000000 l    df *ABS*	00000000 igmp.c
0000494c l     F .text.itcm	000000c0 igmp_send
2000a278 l     O .bss	00000004 allrouters
2000a27c l     O .bss	00000004 allsystems
20002684 l     O .data	00000016 __FUNCTION__.0
00000000 l    df *ABS*	00000000 dhcp.c
00004afc l     F .text.itcm	00000150 dhcp_create_msg
00004c4c l     F .text.itcm	0000002c dhcp_option.part.0
00004c78 l     F .text.itcm	00000060 dhcp_option_long
00004cd8 l     F .text.itcm	00000050 dhcp_dec_pcb_refcount
2000a5e0 l     O .bss	00000004 dhcp_pcb
2000b3ff l     O .bss	00000001 dhcp_pcb_refcount
2000b3d8 l     O .bss	00000004 xid.6
2000269c l     O .data	00000016 __FUNCTION__.0
00000000 l    df *ABS*	00000000 ip4.c
2000b3e4 l     O .bss	00000002 ip_id
200026b4 l     O .data	00000016 __FUNCTION__.0
00000000 l    df *ABS*	00000000 autoip.c
200026cc l     O .data	0000000c __FUNCTION__.0
00000000 l    df *ABS*	00000000 ip4_frag.c
000050b8 l     F .text.itcm	00000044 ipfrag_free_pbuf_custom
00000000 l    df *ABS*	00000000 etharp.c
2000a280 l     O .bss	000000f0 arp_table
00000000 l    df *ABS*	00000000 memp.c
00005300 l     F .text.itcm	0000002c do_memp_malloc_pool.part.0
0000532c l     F .text.itcm	0000002c do_memp_free_pool.part.0
2000b1b4 l     O .bss	00000004 memp_tab_FRAG_PBUF
2000b1b8 l     O .bss	00000004 memp_tab_IGMP_GROUP
2000b1bc l     O .bss	00000004 memp_tab_PBUF
2000b1c0 l     O .bss	00000004 memp_tab_PBUF_POOL
2000b1c4 l     O .bss	00000004 memp_tab_REASSDATA
2000b1c8 l     O .bss	00000004 memp_tab_SYS_TIMEOUT
2000b1cc l     O .bss	00000004 memp_tab_TCP_PCB
2000b1d0 l     O .bss	00000004 memp_tab_TCP_PCB_LISTEN
2000b1d4 l     O .bss	00000004 memp_tab_TCP_SEG
2000b1d8 l     O .bss	00000004 memp_tab_UDP_PCB
00000000 l    df *ABS*	00000000 lwip_driver.c
2000b27c l     O .bss	00000006 s_mac
00000000 l    df *ABS*	00000000 ip_tools.cpp
00000000 l    df *ABS*	00000000 Teensy_Camera.cpp
00000000 l    df *ABS*	00000000 Adafruit_LSM6DS.cpp
00000000 l    df *ABS*	00000000 Adafruit_I2CDevice.cpp
00000000 l    df *ABS*	00000000 Adafruit_SPIDevice.cpp
0000a620 l     F .text.itcm	000001b4 _ZN18Adafruit_SPIDevice8transferEPhj.part.0
00000000 l    df *ABS*	00000000 Adafruit_BusIO_Register.cpp
00000000 l    df *ABS*	00000000 FsUtf.cpp
00000000 l    df *ABS*	00000000 FsName.cpp
00000000 l    df *ABS*	00000000 upcase.cpp
20000a28 l     O .data	0000012c _ZL11lookupTable
20000eec l     O .data	000000d4 _ZL8mapTable
00000000 l    df *ABS*	00000000 FsCache.cpp
00000000 l    df *ABS*	00000000 FsStructs.cpp
00000000 l    df *ABS*	00000000 FsNew.cpp
00000000 l    df *ABS*	00000000 FsFile.cpp
00000000 l    df *ABS*	00000000 FsVolume.cpp
00000000 l    df *ABS*	00000000 FatName.cpp
00000000 l    df *ABS*	00000000 FatFormatter.cpp
0000b58c l     F .text.itcm	00000030 _ZL18initFatDirCallbackmPv
00000000 l    df *ABS*	00000000 FatPartition.cpp
0000bbd0 l     F .text.itcm	000000fa _ZN12FatPartition6fatGetEmPm.part.0
0000bccc l     F .text.itcm	0000010c _ZN12FatPartition6fatPutEmm.part.0
00000000 l    df *ABS*	00000000 FatFileLFN.cpp
00000000 l    df *ABS*	00000000 FatFile.cpp
0000ca78 l     F .text.itcm	000000b4 _ZN7FatFile4syncEv.part.0
00000000 l    df *ABS*	00000000 SdSpiTeensy3.cpp
00000000 l    df *ABS*	00000000 SdSpiChipSelect.cpp
00000000 l    df *ABS*	00000000 SdioTeensy.cpp
0000dbfc l     F .text.itcm	00000030 _ZL5sdIrsv
0000dc2c l     F .text.itcm	00000014 _ZL9isBusyDatv
0000dc40 l     F .text.itcm	0000000c _ZL9isBusyDMAv
0000dc4c l     F .text.itcm	000000cc _ZL8setSdclkm
0000de20 l     F .text.itcm	00000088 _ZL20waitTransferCompletev.part.0
0000df5c l     F .text.itcm	00000098 _ZL11cardCommandmm
0000dff4 l     F .text.itcm	00000060 _ZL9readReg16mPv
0000e0f0 l     F .text.itcm	0000002c _ZL11isBusyCMD13v
0000e2a8 l     F .text.itcm	0000011c _ZL8cardCMD6mPh
0000e4c0 l     F .text.itcm	0000015c _ZL11rdWrSectorsmmPhj
2000b3f2 l     O .bss	00000001 _ZL10m_initDone
20009d00 l     O .bss	00000004 _ZL10m_sdClkKhz
2000b3f3 l     O .bss	00000001 _ZL10m_version2
20009d24 l     O .bss	00000004 _ZL11m_errorLine
2000b3f4 l     O .bss	00000001 _ZL14m_highCapacity
2000b3f5 l     O .bss	00000001 _ZL16m_transferActive
20009d28 l     O .bss	00000010 _ZL5m_cid
20009d38 l     O .bss	00000010 _ZL5m_csd
20009d48 l     O .bss	00000004 _ZL5m_ocr
20009d4c l     O .bss	00000004 _ZL5m_rca
20009d8c l     O .bss	00000004 _ZL9m_busyFcn
2000b3f6 l     O .bss	00000001 _ZL9m_dmaBusy
20009d90 l     O .bss	00000004 _ZL9m_irqstat
20005a48 l     O .data	00000001 _ZL11m_errorCode
00000000 l    df *ABS*	00000000 SdSpiCard.cpp
00000000 l    df *ABS*	00000000 ExFatFile.cpp
00000000 l    df *ABS*	00000000 ExFatName.cpp
00000000 l    df *ABS*	00000000 ExFatFileWrite.cpp
00000000 l    df *ABS*	00000000 ExFatFormatter.cpp
00011238 l     F .text.itcm	00000020 _ZN5Print5writeEPKc.isra.0
00000000 l    df *ABS*	00000000 ExFatPartition.cpp
00000000 l    df *ABS*	00000000 PWMServo.cpp
00000000 l    df *ABS*	00000000 Adafruit_ICM20649.cpp
00000000 l    df *ABS*	00000000 Adafruit_ICM20X.cpp
00000000 l    df *ABS*	00000000 DMAChannel.cpp
00000000 l    df *ABS*	00000000 clockspeed.c
00000000 l    df *ABS*	00000000 digital.c
00000000 l    df *ABS*	00000000 rtc.c
00000000 l    df *ABS*	00000000 usb_rawhid.c
00013d0c l     F .text.itcm	00000034 rx_event
00013d40 l     F .text.itcm	0000005c rx_queue_transfer
2000b403 l     O .bss	00000001 rx_head
2000b24c l     O .bss	00000005 rx_list
2000b406 l     O .bss	00000001 rx_tail
20008f60 l     O .bss	00000080 rx_transfer
2000b40c l     O .bss	00000001 tx_head
200091e0 l     O .bss	00000080 tx_transfer
20206ca0 l     O .bss.dma	00000ffc rx_buffer
20207c9c l     O .bss.dma	00000ffc txbuffer
00000000 l    df *ABS*	00000000 EventResponder.cpp
00000000 l    df *ABS*	00000000 nonstd.c
00000000 l    df *ABS*	00000000 sm_pool.c
00000000 l    df *ABS*	00000000 pwm.c
00000000 l    df *ABS*	00000000 usb_serial2.c
000147f0 l     F .text.itcm	00000060 rx_queue_transfer
20208ca0 l     O .bss.dma	00001000 rx_buffer
00014850 l     F .text.itcm	000000b4 rx_event
00014904 l     F .text.itcm	00000090 usb_serial2_flush_callback
20209ca0 l     O .bss.dma	00002000 txbuffer
2000b204 l     O .bss	00000004 rx_available
2000b20c l     O .bss	00000010 rx_count
2000b404 l     O .bss	00000001 rx_head
2000b22c l     O .bss	00000010 rx_index
2000b254 l     O .bss	00000009 rx_list
2000b3e6 l     O .bss	00000002 rx_packet_size
2000b407 l     O .bss	00000001 rx_tail
20008fe0 l     O .bss	00000100 rx_transfer
2000b3ea l     O .bss	00000002 tx_available
2000b40d l     O .bss	00000001 tx_head
2000b40f l     O .bss	00000001 tx_noautoflush
2000b3ee l     O .bss	00000002 tx_packet_size
20009260 l     O .bss	00000080 tx_transfer
00000000 l    df *ABS*	00000000 yield.cpp
2000b3fb l     O .bss	00000001 _ZZ5yieldE7running
00000000 l    df *ABS*	00000000 usb_serial.c
00014d50 l     F .text.itcm	00000060 rx_queue_transfer
2020bd60 l     O .bss.dma	00001000 rx_buffer
00014db0 l     F .text.itcm	000000b4 rx_event
00014e64 l     F .text.itcm	00000090 usb_serial_flush_callback
2020cd60 l     O .bss.dma	00002000 txbuffer
00014ef4 l     F .text.itcm	000001b8 usb_serial_write.part.0
2000b208 l     O .bss	00000004 rx_available
2000b21c l     O .bss	00000010 rx_count
2000b405 l     O .bss	00000001 rx_head
2000b23c l     O .bss	00000010 rx_index
2000b260 l     O .bss	00000009 rx_list
2000b3e8 l     O .bss	00000002 rx_packet_size
2000b408 l     O .bss	00000001 rx_tail
200090e0 l     O .bss	00000100 rx_transfer
2000b40b l     O .bss	00000001 transmit_previous_timeout
2000b3ec l     O .bss	00000002 tx_available
2000b40e l     O .bss	00000001 tx_head
2000b410 l     O .bss	00000001 tx_noautoflush
2000b3f0 l     O .bss	00000002 tx_packet_size
200092e0 l     O .bss	00000080 tx_transfer
00000000 l    df *ABS*	00000000 WString.cpp
00000000 l    df *ABS*	00000000 new.cpp
00000000 l    df *ABS*	00000000 Print.cpp
000155b4 l     F .text.itcm	0000007e _ZN5Print11printNumberEmhh.part.0
00000000 l    df *ABS*	00000000 IPAddress.cpp
00000000 l    df *ABS*	00000000 printf.c
000156f8 l     F .text.itcm	00000008 _out_buffer
00015700 l     F .text.itcm	00000002 _out_null
00015704 l     F .text.itcm	00000088 _out_rev
0001578c l     F .text.itcm	000001de _ntoa_format
0001596c l     F .text.itcm	00000098 _ntoa_long
00015a04 l     F .text.itcm	000000c6 _ntoa_long_long
00015ad0 l     F .text.itcm	00000338 _etoa
00015e08 l     F .text.itcm	0000037c _ftoa
200006d8 l     O .data	00000050 pow10.0
00000000 l    df *ABS*	00000000 usb_inst.cpp
00000000 l    df *ABS*	00000000 delay.c
00000000 l    df *ABS*	00000000 ICM20649.cpp
00000000 l    df *ABS*	00000000 Dartcam.cpp
00000000 l    df *ABS*	00000000 PIDController.cpp
00000000 l    df *ABS*	00000000 FlightController.cpp
00000000 l    df *ABS*	00000000 atexit_arm.o
00000000 l    df *ABS*	00000000 libm_a-wf_log10.o
00000000 l    df *ABS*	00000000 libm_a-sf_exp.o
00000000 l    df *ABS*	00000000 libm_a-sf_nan.o
00000000 l    df *ABS*	00000000 libm_a-sf_log.o
00000000 l    df *ABS*	00000000 libm_a-sf_modf.o
00000000 l    df *ABS*	00000000 libm_a-sf_fpclassify.o
00000000 l    df *ABS*	00000000 libm_a-math_errf.o
00016fb4 l     F .text.itcm	00000018 with_errnof
00016fcc l     F .text.itcm	0000001e xflowf
00000000 l    df *ABS*	00000000 libm_a-ef_log10.o
00000000 l    df *ABS*	00000000 _aeabi_uldivmod.o
00000000 l    df *ABS*	00000000 _udivmoddi4.o
00000000 l    df *ABS*	00000000 _dvmd_tls.o
00000000 l    df *ABS*	00000000 libc_a-strncmp.o
00000000 l    df *ABS*	00000000 libc_a-strncpy.o
00000000 l    df *ABS*	00000000 libc_a-fvwrite.o
00000000 l    df *ABS*	00000000 libc_a-errno.o
00000000 l    df *ABS*	00000000 libc_a-svfprintf.o
00000000 l    df *ABS*	00000000 libc_a-malloc.o
00000000 l    df *ABS*	00000000 libc_a-mallocr.o
00000000 l    df *ABS*	00000000 libc_a-memcmp.o
00000000 l    df *ABS*	00000000 libc_a-memmove.o
00000000 l    df *ABS*	00000000 libc_a-assert.o
00000000 l    df *ABS*	00000000 libc_a-memset.o
00000000 l    df *ABS*	00000000 libc_a-cxa_atexit.o
00000000 l    df *ABS*	00000000 libc_a-wcrtomb.o
00000000 l    df *ABS*	00000000 libc_a-init.o
00000000 l    df *ABS*	00000000 libc_a-lock.o
00000000 l    df *ABS*	00000000 libc_a-locale.o
00000000 l    df *ABS*	00000000 libc_a-localeconv.o
00000000 l    df *ABS*	00000000 libc_a-wsetup.o
00000000 l    df *ABS*	00000000 libc_a-makebuf.o
00000000 l    df *ABS*	00000000 libc_a-strcpy.o
00000000 l    df *ABS*	00000000 libc_a-printf.o
00000000 l    df *ABS*	00000000 libc_a-mlock.o
00000000 l    df *ABS*	00000000 libc_a-mprec.o
00000000 l    df *ABS*	00000000 libc_a-callocr.o
00000000 l    df *ABS*	00000000 libc_a-realloc.o
00000000 l    df *ABS*	00000000 libc_a-wcsrtombs.o
00000000 l    df *ABS*	00000000 libc_a-dtoa.o
0001a684 l     F .text.itcm	00000126 quorem
00000000 l    df *ABS*	00000000 libc_a-closer.o
00000000 l    df *ABS*	00000000 libc_a-fflush.o
00000000 l    df *ABS*	00000000 libc_a-findfp.o
0001b6b8 l     F .text.itcm	00000018 stdio_exit_handler
0001b6d0 l     F .text.itcm	00000040 cleanup_stdio
0001b710 l     F .text.itcm	000000d4 global_stdio_init.part.0
00000000 l    df *ABS*	00000000 libc_a-memchr.o
00000000 l    df *ABS*	00000000 libc_a-memcpy.o
00000000 l    df *ABS*	00000000 libc_a-strlen.o
00000000 l    df *ABS*	00000000 libc_a-snprintf.o
00000000 l    df *ABS*	00000000 libm_a-s_frexp.o
00000000 l    df *ABS*	00000000 libc_a-reallocr.o
00000000 l    df *ABS*	00000000 libc_a-freer.o
00000000 l    df *ABS*	00000000 libc_a-fstatr.o
00000000 l    df *ABS*	00000000 libc_a-isattyr.o
00000000 l    df *ABS*	00000000 libc_a-fiprintf.o
00000000 l    df *ABS*	00000000 libc_a-stdio.o
00000000 l    df *ABS*	00000000 libc_a-wctomb_r.o
00000000 l    df *ABS*	00000000 libc_a-sbrkr.o
00000000 l    df *ABS*	00000000 libc_a-fwalk.o
00000000 l    df *ABS*	00000000 libc_a-writer.o
00000000 l    df *ABS*	00000000 libc_a-svfiprintf.o
00000000 l    df *ABS*	00000000 libc_a-vfprintf.o
0001e134 l     F .text.itcm	00000080 __sbprintf
00000000 l    df *ABS*	00000000 libc_a-vfiprintf.o
0001e1b4 l     F .text.itcm	00000076 __sprint_r.part.0
0001f1d0 l     F .text.itcm	00000080 __sbprintf
00000000 l    df *ABS*	00000000 libc_a-wbuf.o
00000000 l    df *ABS*	00000000 libc_a-__atexit.o
00000000 l    df *ABS*	00000000 libc_a-mbtowc_r.o
00000000 l    df *ABS*	00000000 libc_a-fclose.o
00000000 l    df *ABS*	00000000 libc_a-wcsnrtombs.o
00000000 l    df *ABS*	00000000 libc_a-lseekr.o
00000000 l    df *ABS*	00000000 libc_a-readr.o
00000000 l    df *ABS*	00000000 libc_a-fputwc.o
00000000 l    df *ABS*	00000000 libm_a-sf_exp2_data.o
00000000 l    df *ABS*	00000000 libm_a-sf_log_data.o
00000000 l    df *ABS*	00000000 libc_a-ctype_.o
00000000 l    df *ABS*	00000000 ip4_addr.c
00000000 l    df *ABS*	00000000 libc_a-impure.o
00000000 l    df *ABS*	00000000 libc_a-__call_atexit.o
60002808 l     F .text.code	00000008 __usb_init_serialnumber_veneer
60002810 l     F .text.code	00000008 ___ZN6StringD1Ev_veneer
60002818 l     F .text.code	00000008 __mdns_resp_remove_netif_veneer
60002820 l     F .text.code	00000008 __modff_veneer
60002828 l     F .text.code	00000008 __err_to_errno_veneer
60002830 l     F .text.code	00000008 ____libc_init_array_veneer
60002838 l     F .text.code	00000008 ____errno_veneer
60002840 l     F .text.code	00000008 __main_veneer
60002848 l     F .text.code	00000008 ___ZN9qindesign7network13EthernetClass3endEv_veneer
60002850 l     F .text.code	00000008 __sm_set_pool_veneer
60002858 l     F .text.code	00000008 __set_arm_clock_veneer
60002860 l     F .text.code	00000008 __memset_veneer
60002868 l     F .text.code	00000008 __pwm_init_veneer
60002870 l     F .text.code	00000008 __qnethernet_hal_init_rand_veneer
60002878 l     F .text.code	00000008 ___ZN6StringC1EPKc_veneer
60002880 l     F .text.code	00000008 ___ZN6StringaSEPKc_veneer
60002888 l     F .text.code	00000008 __delay_veneer
0001f718 l     F .text.itcm	00000008 ___ZN9qindesign7network9MDNSClassC1Ev_veneer
0001f720 l     F .text.itcm	00000008 ___ZN13FlexIOHandler16setClockSettingsEhhh_veneer
0001f728 l     F .text.itcm	00000008 ___ZN9qindesign7network13EthernetClassC1Ev_veneer
0001f730 l     F .text.itcm	00000008 __trng_init_veneer
0001f738 l     F .text.itcm	00000008 ___ZN9qindesign7network13EthernetClassD1Ev_veneer
0001f740 l     F .text.itcm	00000008 ___ZN7TwoWire5beginEv_veneer
0001f748 l     F .text.itcm	00000008 ___ZN9qindesign8security12RandomDeviceC1Ev_veneer
0001f750 l     F .text.itcm	00000008 ___reboot_Teensyduino__veneer
0001f758 l     F .text.itcm	00000008 ___init_veneer
60001dfc g     F .text.code	00000028 trng_deinit
000056f8  w    F .text.itcm	00000006 _ZN11ImageSensor10frameWidthEv
00000d60  w    F .text.itcm	0000003a _ZN7SDClass5mkdirEPKc
0000c548 g     F .text.itcm	000000b4 _ZN7FatFile13makeUniqueSfnEP8FatLfn_t
00016bac g     F .text.itcm	00000068 main
00001b28  w    F .text.itcm	00000040 qnethernet_hal_check_core_locking
0000efc0  w    F .text.itcm	00000004 _ZN16DedicatedSpiCard14isDedicatedSpiEv
00011e0c g     F .text.itcm	00000008 _ZN8PWMServoC1Ev
000150ac g     F .text.itcm	00000002 usb_serial_reset
00010ad0 g     F .text.itcm	000000ae _ZN9ExFatFile13addDirClusterEv
0001c3c4 g     F .text.itcm	00000024 _sbrk_r
0000bdd8 g     F .text.itcm	0000009a _ZN12FatPartition15allocateClusterEmPm
0001f584 g     F .text.itcm	00000024 _wcsnrtombs_r
0001c430 g     F .text.itcm	0000002c _write_r
00016b88  w    F .text.itcm	00000002 _ZN7DartcamD2Ev
200004c8 g     O .data	00000120 .hidden __logf_data
000198c4 g     F .text.itcm	00000060 memcmp
00001888  w    F .text.itcm	00000008 _ZN5Debug5writeEPKhj
20009ed0 g     O .bss	00000004 _ZN14EventResponder10firstYieldE
00003d44 g     F .text.itcm	0000001c tcp_seg_free
0001f5d4 g     F .text.itcm	0000002c _read_r
00017004 g     F .text.itcm	0000000c .hidden __math_oflowf
2000937c g     O .bss	000004d4 SD
000177f4 g     F .text.itcm	0000000c __errno
0001a3b4 g     F .text.itcm	00000154 __mdiff
0001060c g     F .text.itcm	0000004c _ZN9ExFatFile7cmpNameEPK9DirName_tP8ExName_t
0000027c g     F .text.itcm	000000dc _Z15_spi_dma_rxISR0v
2000b3f8 g     O .bss	00000001 _ZN19HardwareSerialIMXRT34s_count_serials_with_serial_eventsE
0001a7b0 g     F .text.itcm	00000cec _dtoa_r
000126fc g     F .text.itcm	00000076 _ZN15Adafruit_ICM20X18setGyroRateDivisorEh
00011d14 g     F .text.itcm	000000e0 _ZN14ExFatPartition4initEP22FsBlockDeviceInterfaceh
0000e1f0 g     F .text.itcm	000000b8 _ZN8SdioCard9writeStopEv
00001c84  w    F .text.itcm	00000018 _ZN10StaticInitIN9qindesign8security12RandomDeviceEED2Ev
0000b0a0 g     F .text.itcm	00000084 _ZN10FsBaseFileC2ERKS_
00005048 g     F .text.itcm	0000002c ip4_output_if
000147ec  w    F .text.itcm	00000004 abort
2000a5fc g     O .bss	00000004 errno
00003c48 g     F .text.itcm	00000054 netif_set_down
20002668  w    O .data	00000010 _ZZN8SPIClass16beginTransactionE11SPISettingsE7clk_sel
200057f4 g     O .data	00000008 gdb_timer
00011fc8  w    F .text.itcm	00000002 _ZN29Adafruit_ICM20X_AccelerometerD1Ev
00001ac4 g     F .text.itcm	00000026 _ZN9qindesign7network9DNSClient9setServerEiRK9IPAddress
20002364  w    O .data	00000024 _ZTV6FsFile
0001a370 g     F .text.itcm	00000042 __mcmp
00017800 g     F .text.itcm	00001b44 _svfprintf_r
00006060 g     F .text.itcm	000000ec _ZN6OV564018cameraReadRegisterEtRh
00010030 g     F .text.itcm	0000002c _ZN9ExFatFile4peekEv
0001a654 g     F .text.itcm	00000018 realloc
0000cbf8 g     F .text.itcm	0000001e _ZN7FatFile5closeEv
600028f8 g       .text.code	00000000 __init_array_end
0001c2a4 g     F .text.itcm	0000002c _fstat_r
00002fc8 g     F .text.itcm	000000ac mdns_build_request_domain
00011aa8 g     F .text.itcm	00000036 _ZN14ExFatPartition8dirCacheEP8DirPos_th
000039c0 g     F .text.itcm	0000006e pbuf_take_at
0000b43c g     F .text.itcm	00000110 _ZN7FatFile8getName8EPcj
0000f24c g     F .text.itcm	0000006e _ZN13SharedSpiCard8readStopEv
0000fd84 g     F .text.itcm	00000022 _ZN9ExFatFile17getCreateDateTimeEPtS0_
0000dac0 g     F .text.itcm	00000028 _ZN18SdSpiArduinoDriver5beginE11SdSpiConfig
00002d20 g     F .text.itcm	000000d0 mdns_build_reverse_v4_domain
200022b0 g     O .data	0000001c _ZTV20Adafruit_ICM20X_Gyro
00011be8 g     F .text.itcm	000000be _ZN14ExFatPartition9freeChainEm
20002150 g     O .data	00000070 _ZN8SPIClass24spiclass_lpspi4_hardwareE
20009d94 g     O .bss	00000004 _ZN10FsDateTime8callbackE
00002184 g     F .text.itcm	00000058 udp_sendto_if
20005224 g     O .data	00000004 _ZN13IntervalTimer14nvic_prioritesE
00019b0c g     F .text.itcm	0000004c _wcrtomb_r
00011f0c  w    F .text.itcm	00000014 _ZN17Adafruit_ICM20649D1Ev
000124d8 g     F .text.itcm	00000040 _ZN28Adafruit_ICM20X_Magnetometer8getEventEP15sensors_event_t
00013b94 g     F .text.itcm	00000070 pinMode
0000a400 g     F .text.itcm	00000004 _ZN6CameraC2ER11ImageSensor
0000695c g     F .text.itcm	00000050 _ZN6OV564013calculate_htsEt
2000af98 g     O .bss	00000130 imu
00005d74 g     F .text.itcm	00000220 _ZN6OV564019processDMAInterruptEv
2000256c g     O .data	00000030 _ZTV7SDClass
00000358  w    F .text.itcm	0000002c _ZN8SPIClassC2Ejj
2000b440 g       .bss	00000000 _ebss
0000ad14 g     F .text.itcm	000000a4 _ZN5FsUtf6cpToMbEmPcS0_
00000824 g     F .text.itcm	00000010 _ZN13FlexIOHandler18shiftersDMAChannelEh
00019bac g     F .text.itcm	00000002 __retarget_lock_release_recursive
600021c8 g     F .text.code	00000002 startup_default_early_hook
000057d8  w    F .text.itcm	0000000c _ZN10DMAChannelD2Ev
00011f3c g     F .text.itcm	00000064 _ZN17Adafruit_ICM206499begin_I2CEhP7TwoWirel
000121f0 g     F .text.itcm	000000f0 _ZN15Adafruit_ICM20X5_readEv
00003dec g     F .text.itcm	000000d4 tcp_pcb_remove
00010724 g     F .text.itcm	0000006a _ZN9ExFatFile8hashNameEP8ExName_t
00005784  w    F .text.itcm	00000004 _ZN6OV56405getAEEP8ae_cfg_t
2000a6ec g     O .bss	00000848 fstatOmni40
00011fa0 g     F .text.itcm	00000014 _ZN17Adafruit_ICM20649C2Ev
000018d8  w    F .text.itcm	0000000c _ZN13IntervalTimerD2Ev
00010fb8 g     F .text.itcm	00000280 _ZN9ExFatFile5writeEPKvj
00016acc g     F .text.itcm	00000088 _ZN16FlightControllerC1ER15ServoControllerR8ICM20649R10IMU_filterR7Dartcam
00019bbc g     F .text.itcm	00000008 _localeconv_r
000143f0 g     F .text.itcm	00000070 analogWriteFrequency
0000c968 g     F .text.itcm	00000110 _ZN7FatFile6removeEv
0001bba8 g     F .text.itcm	00000078 frexp
00002928 g     F .text.itcm	00000090 mdns_send_outpacket
00007910 g     F .text.itcm	0000005c _ZN6OV564016setAutoFocusModeEv
00016b54 g     F .text.itcm	00000002 _ZN15ServoControllerC2Ev
60001ebc g     F .text.code	00000034 _ZN7TwoWire12configSDApinEh
00005760  w    F .text.itcm	00000004 _ZN6OV564013writeRegisterEhh
00005754  w    F .text.itcm	00000002 _ZN6OV56407setGainEi
00000358  w    F .text.itcm	0000002c _ZN8SPIClassC1Ejj
00004038 g     F .text.itcm	00000022 tcp_eff_send_mss_netif
00016a8c g     F .text.itcm	0000001c _ZN13PIDControllerC1Efffff
00013e94 g     F .text.itcm	00000044 _ZN14EventResponder16runFromInterruptEv
00006560 g     F .text.itcm	00000064 _ZN6OV56406setHueEi
0000614c g     F .text.itcm	00000060 _ZN6OV564010getModelidEv
00029800 g       *ABS*	00000000 _flashimagelen
00005750  w    F .text.itcm	00000004 _ZN6OV564013setZoomWindowEtttt
0000db40 g     F .text.itcm	00000016 _ZN18SdSpiArduinoDriver7receiveEv
00005024 g     F .text.itcm	00000022 ip4_output_if_src
00007eec g     F .text.itcm	000000ba _ZN11ImageSensor7setPinsEhhhhhhhhhhhhhhR7TwoWire
0000570c  w    F .text.itcm	00000004 _ZN11ImageSensor16supports4BitModeEv
000065c8 g     F .text.itcm	000001bc _ZN6OV564011setAutoGainEiff
202065d8 g     O .bss.dma	00000100 memp_memory_TCP_SEG_base
2000936c g     O .bss	00000010 FastLED
00012518 g     F .text.itcm	0000005c _ZN20Adafruit_ICM20X_Temp8getEventEP15sensors_event_t
00012de8 g     F .text.itcm	0000000c _Z10lpi2c4_isrv
0001bb1c g     F .text.itcm	00000088 snprintf
00005770  w    F .text.itcm	00000004 _ZN6OV564012setFramerateEi
0001f760 g     F .fini	00000000 _fini
00012930  w    F .text.itcm	0000006c _ZN7TwoWireC1EP13IMXRT_LPI2C_tRKNS_14I2C_Hardware_tE
000128f4 g     F .text.itcm	0000003c _ZN7TwoWire5writeEPKhj
000006dc g     F .text.itcm	00000030 _Z18IRQHandler_FlexIO3v
0000a4b8 g     F .text.itcm	00000036 _ZN18Adafruit_I2CDevice5beginEb
00003ad4 g     F .text.itcm	00000038 netif_get_by_index
0001380c g     F .text.itcm	0000001c usb_receive
0000d7a0 g     F .text.itcm	0000000c _ZN7FatFile4syncEv
00000958  w    F .text.itcm	00000002 _ZN7SDClassD1Ev
0000fa98  w    F .text.itcm	00000076 _ZN13SharedSpiCard7readCSDEP5csd_t
00012680 g     F .text.itcm	0000007a _ZN15Adafruit_ICM20X19setAccelRateDivisorEt
00008d34 g     F .text.itcm	00000074 _ZN11ImageSensor18hardware_configureEv
0000f314 g     F .text.itcm	000000e8 _ZN13SharedSpiCard11cardCommandEhm
00010938 g     F .text.itcm	00000138 _ZN9ExFatFile7syncDirEv
20009f08 g     O .bss	00000008 _ZN6OV564011_dmachannelE
0000e72c g     F .text.itcm	000003e0 _ZN8SdioCard5beginE10SdioConfig
20009df8 g     O .bss	00000004 _ZN10StaticInitIN9qindesign7network9MDNSClassEE2pTE
600021c8  w    F .text.code	00000002 startup_early_hook
200025cc g     O .data	00000070 _ZTV8SdioCard
60002ff8  w    O .text.progmem	00000050 _ZN7TwoWire13i2c1_hardwareE
200057cc g     O .data	00000004 __malloc_trim_threshold
0000be74 g     F .text.itcm	00000024 _ZN12FatPartition6fatGetEmPm
00012ef0 g     F .text.itcm	00000034 _ZN10DMAChannel7releaseEv
2000a370 g     O .bss	00000168 dartcam
200021c0  w    O .data	00000024 _ZTV10StreamFileI10FsBaseFileyE
2000a664 g     O .bss	00000020 flex3_Handler_callbacks
00014a98 g     F .text.itcm	00000060 tempmonGetTemp
2000b411 g     O .bss	00000001 usb_cdc2_line_rtsdtr
00000834 g     F .text.itcm	00000020 _ZN13FlexIOHandler12claimShifterEh
0000f2bc g     F .text.itcm	00000018 _ZN13SharedSpiCard10syncDeviceEv
0000aaec g     F .text.itcm	00000096 _ZN23Adafruit_BusIO_Register5writeEPhh
0001f250 g     F .text.itcm	000000b0 __swbuf_r
200057dc g     O .data	00000004 _impure_ptr
00001508  w    F .text.itcm	000000b0 _ZN4FileD0Ev
000050fc g     F .text.itcm	000001d4 ip4_frag
00012ae8 g     F .text.itcm	000000fc _ZN7TwoWire15endTransmissionEh
20009e9c g     O .bss	00000004 _ZN10StaticInitIN9qindesign8security12RandomDeviceEE13nifty_counterE
0000726c g     F .text.itcm	0000000c _ZN6OV564012setFramesizeEii
0001f764 g       .ARM.exidx	00000000 __exidx_start
0001f6ac g     F .text.itcm	00000066 _fputwc_r
00016b88  w    F .text.itcm	00000002 _ZN7DartcamD1Ev
0000eeb4 g     F .text.itcm	000000f4 _ZN8SdioCard11writeSectorEmPKh
00003b60 g     F .text.itcm	000000e8 netif_set_addr
0000a4a4 g     F .text.itcm	00000012 _ZN18Adafruit_I2CDeviceC1EhP7TwoWire
0000b3a8 g     F .text.itcm	00000094 _ZN7FatFile6getSFNEPcj
0000576c  w    F .text.itcm	00000004 _ZN6OV56407setModeEhh
00000000 g       .text.itcm	00000000 _stext
00013d9c g     F .text.itcm	00000074 usb_rawhid_configure
00011ffc  w    F .text.itcm	0000000e _ZN20Adafruit_ICM20X_TempD0Ev
00008e94 g     F .text.itcm	000004ac _ZN11ImageSensor16flexio_configureEv
000167fc  w    F .text.itcm	00000004 _ZN16usb_serial_class5flushEv
00019a5c g     F .text.itcm	000000a4 memset
000026f8 g     F .text.itcm	00000230 mdns_create_outpacket
0000347c g     F .text.itcm	00000036 pbuf_alloced_custom
60001000 g     O .text.headers	00000020 ImageVectorTable
00005794 g     F .text.itcm	00000010 _ZN6OV564012dmaInterruptEv
20280000 g       .text.csf	00000000 _heap_end
20002304 g     O .data	0000001c _ZTV29Adafruit_ICM20X_Accelerometer
20206240 g     O .bss.dma	00000100 memp_memory_SYS_TIMEOUT_base
000012f4  w    F .text.itcm	00000014 _ZN6SDFile5writeEPKvj
00012098 g     F .text.itcm	00000048 _ZN28Adafruit_ICM20X_Magnetometer9getSensorEP8sensor_t
00011314 g     F .text.itcm	000000b0 _ZN14ExFatFormatter11writeUpcaseEm
0000aa00 g     F .text.itcm	000000c8 _ZN18Adafruit_SPIDevice15write_then_readEPKhjPhjh
00016d58 g     F .text.itcm	000000e4 expf
00005790  w    F .text.itcm	00000002 _ZN6OV56408autoGainEiff
70000000 g       .bss.extram	00000000 _extram_end
00011f20  w    F .text.itcm	0000001c _ZN17Adafruit_ICM20649D0Ev
00016950 g     F .text.itcm	00000064 _ZN8ICM20649C1Ev
00013750 g     F .text.itcm	00000064 usb_config_tx
00000384 g     F .text.itcm	00000234 _ZN8SPIClass5beginEv
0001382c g     F .text.itcm	000002f0 set_arm_clock
00003424 g     F .text.itcm	00000058 pbuf_alloc_reference
2000524c g     O .data	00000004 __brkval
00009b78 g     F .text.itcm	000000f0 _Z19print_csi_registersv
2000b414 g     O .bss	00000001 usb_high_speed
00016910 g     F .text.itcm	00000040 _ZN8ICM206494readEv
000056b4  w    F .text.itcm	00000004 _ZN11ImageSensor5debugEv
00013c34 g     F .text.itcm	00000070 _ZN13IntervalTimer3endEv
20009ea8 g     O .bss	00000008 _ZN11BuffEncoder10m_settingsE
600021d4 g     F .text.code	00000004 startup_debug_reset
0000f778 g     F .text.itcm	00000068 _ZN13SharedSpiCard9readStartEm
000057a4  w    F .text.itcm	00000002 _ZN6OV5640D2Ev
000147dc  w    F .text.itcm	00000004 _isatty
000011a0  w    F .text.itcm	00000018 _ZN6SDFile4readEPvj
000125fc g     F .text.itcm	00000084 _ZN15Adafruit_ICM20X14writeGyroRangeEh
00003d60 g     F .text.itcm	0000008a tcp_pcb_purge
00013828 g     F .text.itcm	00000004 usb_transfer_status
2020ed60 g     O .bss.dma	00025800 frame_buffer2
0001bff8 g     F .text.itcm	000000a0 _malloc_trim_r
00016b8c  w    F .text.itcm	00000020 _ZN8ICM20649D2Ev
0000cc18 g     F .text.itcm	00000052 _ZN7FatFile8dirEntryEP8DirFat_t
000167ec  w    F .text.itcm	00000004 _ZN16usb_serial_class5clearEv
00011fa0 g     F .text.itcm	00000014 _ZN17Adafruit_ICM20649C1Ev
00019344 g     F .text.itcm	00000010 malloc
00002cd8 g     F .text.itcm	00000046 mdns_domain_add_domain
000072c4 g     F .text.itcm	00000054 _Z14print_pin_infoPKch
0001a280 g     F .text.itcm	000000f0 __lshift
0000ce18 g     F .text.itcm	000000ea _ZN7FatFile5mkdirEPS_PKcb
000061ac g     F .text.itcm	00000062 _ZN6OV564010getGain_dbEPf
200040e8 g     O .data	00000120 _impure_data
00000020 g     F .text.itcm	000000c0 irq_gpio6789
20005a2c  w    O .data	00000016 usb_string_serial_number
600021d8 g     F .text.code	00000110 configure_cache
0000628c g     F .text.itcm	00000068 _ZN6OV564019cameraWriteRegisterEth
0000efa8  w    F .text.itcm	00000006 _ZN15SdCardInterface6statusEv
00011fb8 g     F .text.itcm	00000002 _ZN15Adafruit_ICM20X11scaleValuesEv
000005b8 g     F .text.itcm	00000008 _ZN8SPIClass8transferEPKvPvj
2000259c g     O .data	00000024 _ZTV7TwoWire
00005f94 g     F .text.itcm	000000cc _ZN6OV5640C1Ev
000056c0  w    F .text.itcm	00000006 _ZN11ImageSensor21readFrameReturnBufferEv
00008728 g     F .text.itcm	00000524 _ZN11ImageSensor15startReadFlexIOEPFbPvES0_jS0_j
0001a66c g     F .text.itcm	00000016 _wcsrtombs_r
00019924 g     F .text.itcm	000000f8 memmove
20009f4c g     O .bss	00000004 _ZN9qindesign8security12randomDeviceE
00011b64 g     F .text.itcm	00000042 _ZN14ExFatPartition6fatGetEmPm
000044fc g     F .text.itcm	00000070 tcp_send_empty_ack
00013c0c  w    F .text.itcm	00000002 _ZZN6teensy23inplace_function_detail6vtableIvJEEC4EvENUlPvS3_E1_4_FUNES3_S3_
0001557c g     F .text.itcm	00000004 _Znwj
00001f14 g     F .text.itcm	0000000c inet_chksum
2000b3b0 g     O .bss	00000004 tcp_tw_pcbs
00013e10 g     F .text.itcm	00000084 _ZN14EventResponder24triggerEventNotImmediateEv
000011b8  w    F .text.itcm	00000038 _ZN10StreamFileI10FsBaseFileyE4readEv
0001b644 g     F .text.itcm	00000074 fflush
000086bc g     F .text.itcm	0000006c _ZN11ImageSensor18stopReadContinuousEv
70000000 g       .bss.extram	00000000 _extram_start
60029800 g       .text.csf	00000000 __text_csf_end
20009f14 g     O .bss	00000004 _ZN9FatVolume5m_cwvE
0000a438 g     F .text.itcm	00000016 _ZN6Camera5beginE11framesize_t11pixformat_tiib
00017410 g     F .text.itcm	0000008a strncmp
2000a100 g     O .bss	00000001 __lock___malloc_recursive_mutex
0000ae9c g     F .text.itcm	000000b8 _Z8toUpcaset
2000b3ac g     O .bss	00000004 tcp_ticks
20009eb4 g     O .bss	00000008 _ZN11ImageSensor11_dmachannelE
00010b80 g     F .text.itcm	000000a2 _ZN9ExFatFile6renameEPS_PKc
0000093c  w    F .text.itcm	00000004 _ZN5Print17availableForWriteEv
00009c68 g     F .text.itcm	00000200 _ZN11ImageSensor12readFrameCSIEPvjS0_j
0001537c g     F .text.itcm	0000002c usb_serial_putchar
000056f0  w    F .text.itcm	00000006 _ZN11ImageSensor6heightEv
000080a0 g     F .text.itcm	0000001c _ZN11ImageSensor11stopReadCSIEv
00004140 g     F .text.itcm	0000004c mem_free
60002890 g       .text.code	00000000 __preinit_array_end
0000af54 g     F .text.itcm	00000056 _ZN7FsCache4syncEv
000012e0  w    F .text.itcm	00000014 _ZN10StreamFileI10FsBaseFileyE5flushEv
2000b3fd  w    O .bss	00000001 _ZZN6SDFile4nameEvE8zeroterm
00019d68 g     F .text.itcm	000000ba strcpy
00013b1c g     F .text.itcm	00000054 digitalWrite
0000e054 g     F .text.itcm	0000007c _ZN8SdioCard6isBusyEv
0000cc8c g     F .text.itcm	00000020 _ZN7FatFile17getModifyDateTimeEPtS0_
00001c58 g     F .text.itcm	0000002a entropy_random
20002270  w    O .data	00000028 _ZTV16usb_serial_class
00005528  w    F .text.itcm	00000020 _ZN14EventResponderD2Ev
0001680c  w    F .text.itcm	00000006 _ZN16usb_serial_class5writeEh
00012140 g     F .text.itcm	00000038 _ZN15Adafruit_ICM20XD2Ev
000031c0 g     F .text.itcm	0000000c get_mdns_pcb
00000c54  w    F .text.itcm	00000052 _ZN7SDClass5rmdirEPKc
0000fbf0 g     F .text.itcm	00000068 _ZN13SharedSpiCard9writeDataEPKh
20009df4 g     O .bss	00000004 _ZN10StaticInitIN9qindesign7network9MDNSClassEE13nifty_counterE
000075a4 g     F .text.itcm	00000178 _ZN6OV564014getExposure_usEPi
00014c00 g     F .text.itcm	00000020 detachInterrupt
000120e0 g     F .text.itcm	00000048 _ZN20Adafruit_ICM20X_Temp9getSensorEP8sensor_t
0000efb4  w    F .text.itcm	00000004 _ZNK13SharedSpiCard9errorDataEv
2000b398 g     O .bss	00000004 systick_safe_read
00016cf8 g     F .text.itcm	00000060 log10f
0000bb24  w    F .text.itcm	00000044 _ZN22FsBlockDeviceInterface19readSectorsCallbackEmPhjPFvmS0_PvES1_
000057c8  w    F .text.itcm	00000010 _ZN6OV5640D0Ev
00012128 g     F .text.itcm	00000018 _ZN15Adafruit_ICM20XC1Ev
0000f038  w    F .text.itcm	00000006 _ZN13SharedSpiCard3endEv
0000f6dc g     F .text.itcm	0000009c _ZN13SharedSpiCard11sectorCountEv
00019b00 g     F .text.itcm	0000000c __cxa_atexit
00015558 g     F .text.itcm	00000022 _ZN6StringaSEPKc
0000fda8 g     F .text.itcm	00000022 _ZN9ExFatFile17getModifyDateTimeEPtS0_
000147c4  w    F .text.itcm	00000004 _read
0000dd78 g     F .text.itcm	00000010 _ZN8SdioCard7readOCREPm
2000588c g     O .data	00000080 isr_table_gpio2
60002f58  w    O .text.progmem	00000050 _ZN7TwoWire13i2c4_hardwareE
2000b3b4 g     O .bss	00000004 udp_pcbs
2000b38c g     O .bss	00000001 servoCont
00014c20 g     F .text.itcm	00000058 usb_init_serialnumber
00000025 g       *ABS*	00000000 _teensy_model_identifier
2000590c g     O .data	00000080 isr_table_gpio3
0000771c g     F .text.itcm	000001f4 _ZN6OV564015setAutoExposureEii
00019c90 g     F .text.itcm	000000d8 __smakebuf_r
0000dbf8  w    F .text.itcm	00000002 _ZN8SdioCard3endEv
0000f83c g     F .text.itcm	00000074 _ZN16DedicatedSpiCard19readSectorsCallbackEmPhjPFvmS0_PvES1_
2000580c g     O .data	00000080 isr_table_gpio1
00019eb0 g     F .text.itcm	00000012 _Bfree
0000b14c g     F .text.itcm	000000ae _ZN10FsBaseFile4openEP8FsVolumePKci
00019ba4 g     F .text.itcm	00000002 __retarget_lock_close_recursive
00012774 g     F .text.itcm	00000138 _ZN15Adafruit_ICM20X5_initEl
2000598c g     O .data	00000080 isr_table_gpio4
00019364 g     F .text.itcm	00000560 _malloc_r
0001307c g     F .text.itcm	0000002c usb_stop_sof_interrupts
000119b0 g     F .text.itcm	000000aa _ZN14ExFatPartition12bitmapModifyEmmb
00011fc8  w    F .text.itcm	00000002 _ZN29Adafruit_ICM20X_AccelerometerD2Ev
000168bc g     F .text.itcm	00000054 micros
000147d0  w    F .text.itcm	0000000a _fstat
20002320  w    O .data	0000002c _ZTV4File
00005380 g     F .text.itcm	00000028 memp_free
00002288 g     F .text.itcm	0000000e mdns_multicast_timeout_reset_ipv4
20005f20 g     O .bss	00000280 _ZN11ImageSensor12_dmasettingsE
200005e8 g     O .data	00000028 __mprec_bigtens
0001241c g     F .text.itcm	0000005c _ZN29Adafruit_ICM20X_Accelerometer8getEventEP15sensors_event_t
0001bc20 g     F .text.itcm	000003d8 _realloc_r
2000b400 g     O .bss	00000001 external_psram_size
000108d8 g     F .text.itcm	0000005e _ZN9ExFatFile5rmdirEv
0000e11c g     F .text.itcm	000000d4 _ZN8SdioCard10writeStartEm
00006434 g     F .text.itcm	0000005c _ZN6OV564014setGainceilingE13gainceiling_t
0001f388 g     F .text.itcm	0000002a __ascii_mbtowc
2000a0fc g     O .bss	00000001 __lock___atexit_recursive_mutex
2000b3a8 g     O .bss	00000004 tcp_listen_pcbs
600027f8 g     F .text.code	00000000 _init
000001a0 g     F .text.itcm	000000dc _Z15_spi_dma_rxISR1v
0000dd88  w    F .text.itcm	00000002 _ZN8SdioCardD2Ev
0000e3c4 g     F .text.itcm	000000fc _ZN8SdioCard5eraseEmm
00014324 g     F .text.itcm	000000cc analogWrite
00016fec g     F .text.itcm	0000000c .hidden __math_uflowf
60001ef0 g     F .text.code	00000054 _ZN7TwoWire6setSDAEh
00007fd8 g     F .text.itcm	000000c8 _ZN11ImageSensor13csi_reset_dmaEv
200017b8 g     O .data	0000001c _ZN13FlexIOHandler14flex1_hardwareE
20009ea4 g     O .bss	00000001 _ZN10StaticInitIN9qindesign8security12RandomDeviceEE3bufE
000167f4  w    F .text.itcm	00000004 _ZN16usb_serial_class4readEv
20005a2c g     O .data	00000016 usb_string_serial_number_default
00001ba0 g     F .text.itcm	000000b8 trng_data
00019bb0 g     F .text.itcm	0000000c __locale_mb_cur_max
0000fe90 g     F .text.itcm	0000019e _ZN9ExFatFile4readEPvj
00016f10 g     F .text.itcm	0000006c modff
200057fc g     O .data	00000010 int2hex
20009f00 g     O .bss	00000008 _ZN6OV264011_dmachannelE
20009d9c g     O .bss	00000004 _ZN10StaticInitIN9qindesign7network13EthernetClassEE2pTE
00005708  w    F .text.itcm	00000002 _ZN11ImageSensor26processFrameStartInterruptEv
0000d280 g     F .text.itcm	00000044 _ZN7FatFile12readDirCacheEb
000056d0  w    F .text.itcm	00000004 _ZN11ImageSensor6useDMAEb
00000a9c  w    F .text.itcm	0000003c _ZN6SDFile8truncateEy
0000f668 g     F .text.itcm	00000074 _ZN13SharedSpiCard12readRegisterEhPv
00001480  w    F .text.itcm	00000040 _ZN6SDFileD2Ev
00011df4 g     F .text.itcm	00000018 _ZN14ExFatPartition10rootLengthEv
00006788 g     F .text.itcm	000001d4 _ZN6OV564015setAutoWhitebalEifff
00001164  w    F .text.itcm	0000003c _ZN7SDClass9totalSizeEv
2000b1dc g     O .bss	00000004 netif_default
2020bca0 g     O .bss.dma	000000ad usb_descriptor_buffer
00010a70 g     F .text.itcm	0000005e _ZN9ExFatFile4syncEv
2000b39c g     O .bss	00000004 tcp_active_pcbs
200017f0 g     O .data	0000001c _ZN13FlexIOHandler14flex3_hardwareE
00017010 g     F .text.itcm	00000024 .hidden __math_divzerof
0000577c  w    F .text.itcm	00000004 _ZN6OV56409cmdUpdateEv
00019bc4 g     F .text.itcm	000000cc __swsetup_r
2000b3f7 g     O .bss	00000001 _ZN14EventResponder16runningFromYieldE
60001e38 g     F .text.code	00000044 _ZN9qindesign7network13EthernetClassC1Ev
20003334 g     O .data	0000000c memp_TCP_SEG
0000ccac g     F .text.itcm	0000016a _ZN7FatFile5mkdirEPS_P8FatLfn_t
00002f0c g     F .text.itcm	000000bc mdns_build_service_domain
0000dd9c g     F .text.itcm	0000001c _ZNK8SdioCard4typeEv
0000ed74 g     F .text.itcm	00000030 _ZN8SdioCard10syncDeviceEv
000147e0  w    F .text.itcm	00000006 _lseek
0000abdc g     F .text.itcm	0000009e _ZN23Adafruit_BusIO_Register4readEPhh
00001a34 g     F .text.itcm	00000040 _ZN9qindesign7network9MDNSClass3endEv
0000070c g     F .text.itcm	00000054 _ZN13FlexIOHandler17mapIOPinToFlexPinEh
00011ae0 g     F .text.itcm	00000082 _ZN14ExFatPartition7dirSeekEP8DirPos_tm
00004e50 g     F .text.itcm	00000034 ip4_route
0000d8f8 g     F .text.itcm	000001b4 _ZN7FatFile5writeEPKvj
0000d7ac g     F .text.itcm	000000d8 _ZN7FatFile9timestampEhthhhhh
60001020 g     O .text.headers	0000000c BootData
2000b390 g     O .bss	00000004 systick_cycle_count
00019ec4 g     F .text.itcm	000000a4 __multadd
000137b4 g     F .text.itcm	00000030 usb_prepare_transfer
0000a558 g     F .text.itcm	00000070 _ZN18Adafruit_I2CDevice5_readEPhjb
0000d5f0 g     F .text.itcm	000000e2 _ZN7FatFile15openCachedEntryEPS_tih
000056d4  w    F .text.itcm	00000004 _ZN11ImageSensor6useDMAEv
0001f768 g       .text.itcm	00000000 _etext
0001b49c g     F .text.itcm	00000024 _close_r
200035a0 g     O .data	000000dc pwm_pin_info
20002040  w    O .data	00000010 _ZN6teensy23inplace_function_detail12empty_vtableIvJEEE
2000334c g     O .data	00000028 memp_pools
000081bc g     F .text.itcm	00000060 _ZN11ImageSensor14readContinuousEPFbPvES0_jS0_j
000016f0 g     F .text.itcm	00000110 _ZN7SDClass12mediaPresentEv
000063b8 g     F .text.itcm	0000007c _ZN6OV564013setSaturationEi
0001566c g     F .text.itcm	00000040 _ZN5Print6printfEPKcz
200032e0 g     O .data	0000000c memp_IGMP_GROUP
00014298 g     F .text.itcm	0000008c quadtimerFrequency
0000b270 g     F .text.itcm	000000e4 _ZN8FsVolume5beginEP22FsBlockDeviceInterfacebh
00019a1c g     F .text.itcm	00000040 __assert_func
200021e4  w    O .data	0000000c _ZTV14EventResponder
60001f44 g     F .text.code	00000034 _ZN7TwoWire12configSCLpinEh
00013fd4 g     F .text.itcm	00000062 ultoa
0000ba70 g     F .text.itcm	000000b4 _ZN12FatFormatter6formatEP22FsBlockDeviceInterfacePhP5Print
00001998  w    F .text.itcm	0000009c _ZN10StaticInitIN9qindesign7network9MDNSClassEED2Ev
00002234 g     F .text.itcm	00000038 udp_netif_ip_addr_changed
00004ff0 g     F .text.itcm	00000032 ip4_output_if_opt
20002070 g     O .data	00000070 _ZN8SPIClass24spiclass_lpspi1_hardwareE
0000f2d4 g     F .text.itcm	00000040 _ZN16DedicatedSpiCard15setDedicatedSpiEb
20009ee0 g     O .bss	00000020 _ZN19HardwareSerialIMXRT28s_serials_with_serial_eventsE
00007318 g     F .text.itcm	00000078 _ZN6OV564016checkAFCmdStatusEth
00000650  w    F .text.itcm	0000000c _ZN7TwoWire9availableEv
00013fb4 g     F .text.itcm	00000020 systick_isr
60001e24 g     F .text.code	00000012 _ZN9qindesign8security12RandomDeviceC1Ev
00006490 g     F .text.itcm	00000040 _ZN6OV564011setColorbarEi
20009da0 g     O .bss	00000054 _ZN10StaticInitIN9qindesign7network13EthernetClassEE3bufE
20005218 g     O .data	0000000c _ZN13FlexIOHandler18flexIOHandler_listE
000057a8 g     F .text.itcm	00000020 _ZN6OV56403endEv
60002038 g     F .text.code	000000e8 usb_init
00017034 g     F .text.itcm	0000001e .hidden __math_invalidf
00001b68  w    F .text.itcm	00000012 qnethernet_hal_init_rand
6000307c g     O .text.progmem	000000ad usb_config_descriptor_12
00011258 g     F .text.itcm	0000002e _ZN14ExFatFormatter10syncUpcaseEv
000041f0 g     F .text.itcm	0000005c sys_timeout
20000000 g       .data	00000000 _sdata
00006518 g     F .text.itcm	00000048 _ZN6OV56408setVflipEi
00007278 g     F .text.itcm	0000004c _ZN6OV564012setFramesizeE11framesize_t
0000ec08 g     F .text.itcm	000000d4 _ZN8SdioCard9readStartEm
0000f7e0 g     F .text.itcm	0000005c _ZN16DedicatedSpiCard11readSectorsEmPhj
2000b394 g     O .bss	00000004 systick_millis_count
0000dbec  w    F .text.itcm	00000004 _ZN15SdCardInterface15hasDedicatedSpiEv
aaaaaaff g       *ABS*	00000000 _flexram_bank_config
0000aac8 g     F .text.itcm	00000024 _ZN23Adafruit_BusIO_RegisterC1EP18Adafruit_I2CDeviceP18Adafruit_SPIDevice26_Adafruit_BusIO_SPIRegTypethhh
000062f4 g     F .text.itcm	00000060 _ZN6OV564011setContrastEi
00016814 g     F .text.itcm	000000a8 delay
20005248 g     O .data	00000004 __atexit_recursive_mutex
0001f300 g     F .text.itcm	00000088 __register_exitproc
0001c098 g     F .text.itcm	0000020c _free_r
20005c00 g     O .data	000002c0 _VectorsRam
200061a0 g     O .bss	00000280 _ZN6OV264012_dmasettingsE
000005c0 g     F .text.itcm	00000048 _ZN8SPIClass3endEv
60001d38 g     F .text.code	000000c4 trng_init
000128c8 g     F .text.itcm	0000002a _ZN7TwoWire5writeEh
00001b04  w    F .text.itcm	0000000c qnethernet_hal_millis
0000dbf4  w    F .text.itcm	00000004 _ZN15SdCardInterface15setDedicatedSpiEb
000029b8 g     F .text.itcm	000000bc mdns_start_multicast_timeouts_ipv4
0000f8b0 g     F .text.itcm	00000068 _ZN16DedicatedSpiCard10readSectorEmPh
000037f0 g     F .text.itcm	00000016 pbuf_ref
2000b3a0 g     O .bss	00000004 tcp_bound_pcbs
20005a49 g     O .data	00000001 analog_write_res
20004030 g     O .data	00000084 usb_descriptor_list
0000fc58 g     F .text.itcm	00000098 _ZN13SharedSpiCard11writeSectorEmPKh
000006ac g     F .text.itcm	00000030 _Z18IRQHandler_FlexIO2v
0000850c g     F .text.itcm	00000030 _ZN11ImageSensor14stopReadFlexIOEv
0000a5c8 g     F .text.itcm	00000056 _ZN18Adafruit_I2CDevice15write_then_readEPKhjPhjb
00008e6c  w    F .text.itcm	00000026 _ZN5Print7printlnEPKc
20000000 g     O .data	00000380 endpoint_queue_head
000080cc g     F .text.itcm	000000f0 _ZN11ImageSensor19processCSIInterruptEv
00006354 g     F .text.itcm	00000062 _ZN6OV564013setBrightnessEi
000129a0 g     F .text.itcm	00000108 _ZN7TwoWire11force_clockEv
200032ec g     O .data	0000000c memp_PBUF
00005cac g     F .text.itcm	000000c8 _ZN6OV564016stopReadFrameDMAEv
000153c0 g     F .text.itcm	00000050 usb_serial_write_buffer_free
000151b0 g     F .text.itcm	000000e0 usb_serial_read
00011fcc  w    F .text.itcm	0000000e _ZN29Adafruit_ICM20X_AccelerometerD0Ev
0000dd18 g     F .text.itcm	0000000c _ZNK8SdioCard9errorCodeEv
00001ea0 g     F .text.itcm	00000074 lwip_standard_chksum
0000d074 g     F .text.itcm	0000003a _ZN7FatFile8openRootEP9FatVolume
2000a134 g     O .bss	00000004 __malloc_max_total_mem
0001740c  w    F .text.itcm	00000002 .hidden __aeabi_ldiv0
00001880  w    F .text.itcm	00000004 _ZN5Debug17availableForWriteEv
20200040 g     O .bss.dma	00000140 memp_memory_UDP_PCB_base
00005074 g     F .text.itcm	00000044 autoip_network_changed_link_down
200057d0 g     O .data	0000000c __sglue
000154e0 g     F .text.itcm	0000000e _ZN6StringD2Ev
2000b28c g     O .bss	00000100 send_message
00005764  w    F .text.itcm	00000002 _ZN6OV564011setExposureEi
00001ce4  w    F .text.itcm	00000028 _ZN10StaticInitIN9qindesign7network13EthernetClassEED2Ev
00013edc g     F .text.itcm	00000074 _ZN14EventResponder10clearEventEv
0000ac7c g     F .text.itcm	00000042 _ZN23Adafruit_BusIO_Register4readEv
20002850 g     O .data	00000101 _ctype_
0001b4c0 g     F .text.itcm	00000130 __sflush_r
0000c894 g     F .text.itcm	000000d4 _ZN7FatFile13parsePathNameEPKcP8FatLfn_tPS1_
20002298 g     O .data	00000018 _ZTV17Adafruit_ICM20649
00019e24 g     F .text.itcm	00000028 printf
000056e8  w    F .text.itcm	00000006 _ZN11ImageSensor5widthEv
0000e0d0 g     F .text.itcm	00000020 _ZN8SdioCard6statusEv
0000d540 g     F .text.itcm	000000ae _ZN7FatFile7seekSetEm
00017114 g     F .text.itcm	00000000 .hidden __aeabi_uldivmod
0000dd8c  w    F .text.itcm	0000000e _ZN8SdioCardD0Ev
60000000 g     O .text.headers	00000200 FlexSPI_NOR_Config
00011fc4  w    F .text.itcm	00000002 _ZN20Adafruit_ICM20X_GyroD2Ev
600021cc  w    F .text.code	00000002 startup_middle_hook
00016acc g     F .text.itcm	00000088 _ZN16FlightControllerC2ER15ServoControllerR8ICM20649R10IMU_filterR7Dartcam
0000b790 g     F .text.itcm	0000011c _ZN12FatFormatter9makeFat16Ev
20009ed4 g     O .bss	00000004 _ZN14EventResponder13lastInterruptE
20008f40 g     O .bss	00000020 endpoint0_transfer_data
0001b82c g     F .text.itcm	0000000c __sfp_lock_release
2000b416 g     O .bss	00000001 yield_active_check_flags
60001b44 g     F .text.code	000000a4 _ZN13FlexIOHandler21setClockUsingAudioPLLEf
00002c80 g     F .text.itcm	00000058 mdns_domain_add_label
6000266c g     F .text.code	0000005c usb_pll_start
00000dd4  w    F .text.itcm	00000060 _ZN4File9availableEv
202063d0 g     O .bss.dma	00000168 memp_memory_FRAG_PBUF_base
00000984  w    F .text.itcm	000000c8 _ZN7SDClass4openEPKch
0000d2c4 g     F .text.itcm	000001ea _ZN7FatFile6renameEPS_PKc
0001b7e4 g     F .text.itcm	0000003c __sinit
0001005c g     F .text.itcm	000000ea _ZN9ExFatFile7seekSetEy
00003ec0 g     F .text.itcm	00000178 tcp_abandon
20000610 g     O .data	000000c8 __mprec_tens
000105e8 g     F .text.itcm	00000024 _ZN9ExFatFile8openNextEPS_i
00007390 g     F .text.itcm	0000018c _ZN6OV56405resetEv
00007fa8 g     F .text.itcm	00000010 _ZN11ImageSensor9readFrameEPvjS0_j
0001c560 g     F .text.itcm	00001bd4 _vfprintf_r
00012aa8 g     F .text.itcm	00000040 _ZN7TwoWire9wait_idleEv
0000a7d4  w    F .text.itcm	00000110 _ZN8SPIClass16beginTransactionE11SPISettings
200053c0 g     O .data	00000408 __malloc_av_
000053a8 g     F .text.itcm	00000010 enet_deinit
00014460 g     F .text.itcm	0000007a flexpwm_init
00012478 g     F .text.itcm	00000060 _ZN20Adafruit_ICM20X_Gyro8getEventEP15sensors_event_t
60003078 g     O .text.progmem	00000004 string0
0000e1f0 g     F .text.itcm	000000b8 _ZN8SdioCard8readStopEv
60001e7c g     F .text.code	0000003e _ZN9qindesign7network13EthernetClassD1Ev
00005780  w    F .text.itcm	00000004 _ZN6OV564012loadSettingsE21camera_reg_settings_t
20002388 g     O .data	00000164 _ZTV6OV5640
0001740c  w    F .text.itcm	00000002 .hidden __aeabi_idiv0
0001f600 g     F .text.itcm	000000aa __fputwc
00000f50  w    F .text.itcm	0000001a _ZN6SDFile4sizeEv
200032f8 g     O .data	0000000c memp_PBUF_POOL
00016a3c g     F .text.itcm	00000024 _ZN7Dartcam4readEv
600022e8 g     F .text.code	00000384 configure_external_ram
2000a138 g     O .bss	00000004 __malloc_top_pad
0001749c g     F .text.itcm	00000064 strncpy
2000af34 g     O .bss	00000064 icm
00005758  w    F .text.itcm	00000002 _ZN6OV564012autoExposureEi
60001cc8 g     F .text.code	00000070 _ZN9qindesign7network9MDNSClassD2Ev
2000a274 g     O .bss	00000004 __stdio_exit_handler
20008f20 g     O .bss	00000020 endpoint0_transfer_ack
0000a4f0 g     F .text.itcm	00000068 _ZN18Adafruit_I2CDevice5writeEPKhjbS1_j
0000d6d4 g     F .text.itcm	000000ca _ZN7FatFile8openNextEPS_i
00003c9c g     F .text.itcm	00000050 netif_set_link_down
0000cbd8 g     F .text.itcm	0000001e _ZN7FatFile13cacheDirEntryEh
00016804  w    F .text.itcm	00000008 _ZN16usb_serial_class5writeEPKhj
0000b550  w    F .text.itcm	0000003a _ZN22FsBlockDeviceInterface20writeSectorsCallbackEmjPFPKhmPvES2_
2000b412 g     O .bss	00000001 usb_cdc_line_rtsdtr
000056b0  w    F .text.itcm	00000004 _ZN11ImageSensor5debugEb
00019ba0 g     F .text.itcm	00000002 __retarget_lock_init_recursive
000154a4 g     F .text.itcm	0000003a _ZN6StringC1EPKc
20009368 g     O .bss	00000004 CSIRxFIFOFullISRCount
00005710  w    F .text.itcm	00000014 _ZN6OV564017changeFrameBufferEPhS0_
00001884  w    F .text.itcm	00000002 _ZN5Debug5flushEv
00000e34  w    F .text.itcm	0000002c _ZN4File4peekEv
0000456c g     F .text.itcm	00000360 tcp_output
00000794 g     F .text.itcm	00000050 _ZN13FlexIOHandler18setIOPinToFlexModeEh
600026c8 g     F .text.code	00000130 tempmon_init
00000128  w    F .text.itcm	00000016 _ZN14EventResponder12triggerEventEiPv
2000331c g     O .data	0000000c memp_TCP_PCB
0000acc8 g     F .text.itcm	0000001a _ZN27Adafruit_BusIO_RegisterBits4readEv
00014604 g     F .text.itcm	0000018c unused_interrupt_vector
0000101c  w    F .text.itcm	000000f0 _ZN7SDClass8usedSizeEv
00013cd0 g     F .text.itcm	00000024 rtc_get
200020e0 g     O .data	00000070 _ZN8SPIClass24spiclass_lpspi3_hardwareE
2000a108 g     O .bss	00000028 __malloc_current_mallinfo
00000944  w    F .text.itcm	00000012 _ZN6SDFile6isOpenEv
00006210 g     F .text.itcm	0000007c _ZN6OV564013showRegistersEv
0000f3fc g     F .text.itcm	000001f4 _ZN13SharedSpiCard5beginE11SdSpiConfig
2000a13c g     O .bss	00000138 __sf
00005724  w    F .text.itcm	00000006 _ZN6OV564010frameCountEv
000156ac g     F .text.itcm	00000014 _ZN5Print11printNumberEmhh
00008da8 g     F .text.itcm	000000c4 _ZN11ImageSensor12startReadCSIEPFbPvES0_jS0_j
00004e84 g     F .text.itcm	0000016c ip4_output_if_opt_src
0000c3e0 g     F .text.itcm	00000168 _ZN7FatFile7makeSFNEP8FatLfn_t
0000d018 g     F .text.itcm	0000005a _ZN7FatFile11openClusterEPS_
000048dc g     F .text.itcm	0000006e acd_netif_ip_addr_changed
20009f18 g     O .bss	00000004 _ZN9qindesign7network4MDNSE
000013a4  w    F .text.itcm	0000004c _ZN10StreamFileI10FsBaseFileyE9availableEv
0000572c  w    F .text.itcm	0000000c _ZN6OV564019setVSyncISRPriorityEh
20009f6c g     O .bss	00000190 __atexit0
000152d4 g     F .text.itcm	00000018 usb_serial_available
000035f8 g     F .text.itcm	0000011c pbuf_alloc
0001f76c g       .ARM.exidx	00000000 __exidx_end
2000b3d0 g     O .bss	00000004 usb_timer0_callback
00013c10  w    F .text.itcm	00000002 _ZZN6teensy23inplace_function_detail6vtableIvJEEC4EvENUlPvE2_4_FUNES3_
00005358 g     F .text.itcm	00000028 memp_malloc
0000853c g     F .text.itcm	00000020 _ZN11ImageSensor7endXClkEv
00003524 g     F .text.itcm	000000d4 pbuf_free
00016cc4 g     F .text.itcm	0000000a __aeabi_atexit
00000b2c  w    F .text.itcm	00000046 _ZN6SDFile15rewindDirectoryEv
0000dbf0  w    F .text.itcm	00000004 _ZN15SdCardInterface14isDedicatedSpiEv
000083fc g     F .text.itcm	00000110 _ZN11ImageSensor25processDMAInterruptFlexIOEv
00007fc8 g     F .text.itcm	00000010 _ZN11ImageSensor18dmaInterruptFlexIOEv
0000d258 g     F .text.itcm	00000028 _ZN7FatFile4peekEv
2000b3e2 g     O .bss	00000002 dma_channel_allocated_mask
00010c24 g     F .text.itcm	0000005e _ZN9ExFatFile5mkdirEPS_P8ExName_t
0001e22c g     F .text.itcm	00000018 __sprint_r
00001480  w    F .text.itcm	00000040 _ZN6SDFileD1Ev
20259d60 g       .bss.dma	00000000 _heap_start
0001c3e8 g     F .text.itcm	00000046 _fwalk_sglue
0000b734 g     F .text.itcm	0000005c _ZN12FatFormatter8writeMbrEv
0000d008 g     F .text.itcm	0000000e _ZN7FatFile4openEP9FatVolumePKci
60003048  w    O .text.progmem	00000016 usb_string_product_name
0000f034  w    F .text.itcm	00000002 _ZN16DedicatedSpiCardD2Ev
000167f8  w    F .text.itcm	00000004 _ZN16usb_serial_class9availableEv
0001a508 g     F .text.itcm	000000d4 __d2b
00005788  w    F .text.itcm	00000004 _ZN6OV56405calAEEhPhmP8ae_cfg_t
0000acc0 g     F .text.itcm	00000008 _ZN27Adafruit_BusIO_RegisterBitsC1EP23Adafruit_BusIO_Registerhh
00000f34  w    F .text.itcm	0000001a _ZN6SDFile8positionEv
0000dbe0 g     F .text.itcm	00000006 _Z8sdCsInith
0000c200 g     F .text.itcm	000000bc _ZN7FatFile7cmpNameEtP8FatLfn_th
2000b3cc g     O .bss	00000004 usb_cdc_line_rtsdtr_millis
000169cc g     F .text.itcm	00000026 _ZN7DartcamC2Ev
00011288 g     F .text.itcm	00000040 _ZN14ExFatFormatter15writeUpcaseByteEh
0000dd24 g     F .text.itcm	0000000c _ZNK8SdioCard9errorDataEv
00001648  w    F .text.itcm	000000a8 _ZN4FileD2Ev
00007fb8 g     F .text.itcm	00000010 _ZN11ImageSensor25frameStartInterruptFlexIOEv
2000420c g     O .data	00000004 F_CPU_ACTUAL
0000405c g     F .text.itcm	000000a4 tcp_netif_ip_addr_changed
00001308  w    F .text.itcm	00000014 _ZN10StreamFileI10FsBaseFileyE5writeEPKhj
00001b00 g     F .text.itcm	00000004 sys_now
60003060 g     O .text.progmem	00000018 usb_string_manufacturer_name_default
20005250 g     O .data	00000000 .hidden __dso_handle
0001a008 g     F .text.itcm	0000005c __i2b
000147c8  w    F .text.itcm	00000006 _close
0001b820 g     F .text.itcm	0000000c __sfp_lock_acquire
00011fb4 g     F .text.itcm	00000004 _ZN15Adafruit_ICM20X9begin_I2CEhP7TwoWirel
00011e0c g     F .text.itcm	00000008 _ZN8PWMServoC2Ev
00001e78 g     F .text.itcm	00000028 dns_setserver
0000a8e4 g     F .text.itcm	00000064 _ZN18Adafruit_SPIDevice31endTransactionWithDeassertingCSEv
00012574 g     F .text.itcm	00000086 _ZN15Adafruit_ICM20X15writeAccelRangeEh
0000b54c g     F .text.itcm	00000004 _ZN7FatFile7getNameEPcj
000080bc g     F .text.itcm	00000010 _ZN11ImageSensor12CSIInterruptEv
202067b8 g     O .bss.dma	000004e0 memp_memory_TCP_PCB_base
00011fdc  w    F .text.itcm	0000000e _ZN20Adafruit_ICM20X_GyroD0Ev
00000e60  w    F .text.itcm	00000028 _ZN4File5flushEv
000144dc g     F .text.itcm	000000f4 pwm_init
00016ff8 g     F .text.itcm	0000000c .hidden __math_may_uflowf
200057c8 g     O .data	00000004 __malloc_sbrk_base
20009ebc g     O .bss	00000004 _ZN11ImageSensor17active_dma_cameraE
0001c340 g     F .text.itcm	0000003e __swrite
00003b0c g     F .text.itcm	00000054 netif_invoke_ext_callback
60001a34 g     F .text.code	00000110 _ZN13FlexIOHandler8setClockEf
60002120 g     F .text.code	00000054 _reboot_Teensyduino_
0001f3b4 g     F .text.itcm	000000c6 _fclose_r
60001f78 g     F .text.code	00000058 _ZN7TwoWire6setSCLEh
00001890  w    F .text.itcm	00000034 _ZN5Debug5writeEh
00009b34 g     F .text.itcm	00000042 _ZN11ImageSensor13csi_configureEv
0001c45c g     F .text.itcm	00000100 __ssprint_r
000141bc g     F .text.itcm	000000dc flexpwmFrequency
2000b3d4 g     O .bss	00000004 usb_timer1_callback
0000fd34 g     F .text.itcm	0000003c _ZN9ExFatFile8dirCacheEhh
60001958 g     F .text.code	0000002c _ZN13FlexIOHandler13usesSameClockEPKS_
0000b0a0 g     F .text.itcm	00000084 _ZN10FsBaseFileC1ERKS_
200022e8 g     O .data	0000001c _ZTV28Adafruit_ICM20X_Magnetometer
20009eb0 g     O .bss	00000004 _ZN11ExFatVolume5m_cwvE
00019e64 g     F .text.itcm	0000004c _Balloc
0000eda4 g     F .text.itcm	00000110 _ZN8SdioCard10readSectorEmPh
0000f050 g     F .text.itcm	00000064 _ZN16DedicatedSpiCard12writeSectorsEmPKhj
60002890 g       .text.code	00000000 __preinit_array_start
000021dc g     F .text.itcm	00000058 udp_remove
0000dd30 g     F .text.itcm	00000024 _ZN8SdioCard7readCIDEP3CID
2000a130 g     O .bss	00000004 __malloc_max_sbrked_mem
0000dd54 g     F .text.itcm	00000024 _ZN8SdioCard7readCSDEP5csd_t
0000b8ac g     F .text.itcm	000001c4 _ZN12FatFormatter9makeFat32Ev
20009f10 g     O .bss	00000004 _ZN8FsVolume5m_cwvE
000147e8  w    F .text.itcm	00000004 __cxa_pure_virtual
00012dd0 g     F .text.itcm	0000000c _Z10lpi2c1_isrv
0000ae50 g     F .text.itcm	0000004c _ZN6FsName5get16Ev
0000067c g     F .text.itcm	00000030 _Z18IRQHandler_FlexIO1v
000056c8  w    F .text.itcm	00000006 _ZN11ImageSensor18readImageSizeBytesEv
00001b7c  w    F .text.itcm	00000004 qnethernet_hal_rand
000122e0 g     F .text.itcm	0000013c _ZN15Adafruit_ICM20X8getEventEP15sensors_event_tS1_S1_S1_
00010658 g     F .text.itcm	000000cc _ZN9ExFatFile8getName8EPcj
20006420 g     O .bss	00001440 _ZN6OV564011_dmaBuffer1E
20008ca0 g     O .bss	00000280 _ZN6OV564012_dmasettingsE
60028c00 g     O .text.csf	00000c00 hab_csf
00012be4 g     F .text.itcm	00000140 _ZN7TwoWire11requestFromEhhh
00003270 g     F .text.itcm	000000a0 mdns_resp_announce
000057d8  w    F .text.itcm	0000000c _ZN10DMAChannelD1Ev
00011f0c  w    F .text.itcm	00000014 _ZN17Adafruit_ICM20649D2Ev
00016e3c g     F .text.itcm	0000000c nanf
20004210 g     O .data	00000010 Serial
00000854 g     F .text.itcm	0000006c _ZN13FlexIOHandler20addIOHandlerCallbackEP21FlexIOHandlerCallback
20009dfc g     O .bss	000000a0 _ZN10StaticInitIN9qindesign7network9MDNSClassEE3bufE
000128ac  w    F .text.itcm	00000018 _ZN7TwoWire4peekEv
0001c380 g     F .text.itcm	00000020 __sseek
0001c2f4 g     F .text.itcm	00000028 fiprintf
60002fa8  w    O .text.progmem	00000050 _ZN7TwoWire13i2c3_hardwareE
20206140 g     O .bss.dma	00000100 memp_memory_PBUF_base
20005ec0 g       .bss	00000000 _sbss
000052d0 g     F .text.itcm	00000030 etharp_cleanup_netif
0000578c  w    F .text.itcm	00000004 _ZN6OV56404modeEv
00015650  w    F .text.itcm	0000001c _write
0000c0dc g     F .text.itcm	00000124 _ZN12FatPartition4initEP22FsBlockDeviceInterfaceh
0000b5bc g     F .text.itcm	00000120 _ZN12FatFormatter10initFatDirEhm
00013ed8 g     F .text.itcm	00000004 pendablesrvreq_isr
2000b40a g     O .bss	00000001 tcp_active_pcbs_changed
00002298 g     F .text.itcm	0000000e mdns_multicast_timeout_25ttl_reset_ipv4
00005c90  w    F .text.itcm	0000001c _ZN6OV564017readFrame4BitGPIOEPv
2000a684 g     O .bss	00000068 flightController
0000bb9c g     F .text.itcm	00000032 _ZN12FatPartition25freeClusterCount_cb_fat32EmPhPv
00000ca8  w    F .text.itcm	00000064 _ZN7SDClass6renameEPKcS1_
0000afac g     F .text.itcm	0000004e _ZN7FsCache7prepareEmh
20009f68 g     O .bss	00000004 __atexit
0000dae8 g     F .text.itcm	0000004e _ZN18SdSpiArduinoDriver10deactivateEv
000064d0 g     F .text.itcm	00000048 _ZN6OV564010setHmirrorEi
200017d4 g     O .data	0000001c _ZN13FlexIOHandler14flex2_hardwareE
00016b54 g     F .text.itcm	00000002 _ZN15ServoControllerC1Ev
2000b3a4 g     O .bss	00000004 tcp_input_pcb
60003060  w    O .text.progmem	00000018 usb_string_manufacturer_name
0000d4b0 g     F .text.itcm	00000090 _ZN7FatFile5rmdirEv
20003304 g     O .data	0000000c memp_REASSDATA
00011fbc  w    F .text.itcm	00000002 _ZN20Adafruit_ICM20X_TempD2Ev
00017500 g     F .text.itcm	000002f4 __sfvwrite_r
00014a94 g     F .text.itcm	00000004 Panic_Temp_isr
00004a0c g     F .text.itcm	00000054 igmp_report_groups
60001fd0 g     F .text.code	00000068 _ZN7TwoWire5beginEv
2000a614 g     O .bss	00000004 fin1
00005464 g     F .text.itcm	00000004 _ZN9qindesign7network10get_uint32ERK9IPAddress
0000fdf4 g     F .text.itcm	0000009c _ZN9ExFatFile13parsePathNameEPKcP8ExName_tPS1_
00005528  w    F .text.itcm	00000020 _ZN14EventResponderD1Ev
2000a61c g     O .bss	00000004 fin3
00015634 g     F .text.itcm	0000001c _ZN5Print7printlnEv
2000a618 g     O .bss	00000004 fin2
0000ddb8 g     F .text.itcm	00000068 _ZN8SdioCard11sectorCountEv
0000b1fc g     F .text.itcm	00000072 _ZN10FsBaseFile8openNextEPS_i
000154a4 g     F .text.itcm	0000003a _ZN6StringC2EPKc
0000b37c g     F .text.itcm	0000002a _ZN7FatFile10getLfnCharEP8DirLfn_th
00010824 g     F .text.itcm	000000b4 _ZN9ExFatFile6removeEv
00011e14 g     F .text.itcm	000000f8 _ZN17Adafruit_ICM2064911scaleValuesEv
00012140 g     F .text.itcm	00000038 _ZN15Adafruit_ICM20XD1Ev
0000cb2c g     F .text.itcm	00000034 _ZN7FatFile10addClusterEv
00000958  w    F .text.itcm	00000002 _ZN7SDClassD2Ev
00014038 g     F .text.itcm	0000004c sm_align_pool
0000efbc  w    F .text.itcm	00000004 _ZN16DedicatedSpiCard15hasDedicatedSpiEv
0001e244 g     F .text.itcm	00000f8c _vfiprintf_r
00015410 g     F .text.itcm	00000094 usb_serial_flush_output
20234560 g     O .bss.dma	00025800 frame_buffer
0000fb10  w    F .text.itcm	00000076 _ZN13SharedSpiCard7readCIDEP3CID
00001ac0 g     F .text.itcm	00000002 driver_deinit
00010d5c g     F .text.itcm	00000176 _ZN9ExFatFile9timestampEhthhhhh
0000cb60 g     F .text.itcm	00000078 _ZN7FatFile13addDirClusterEv
00005700  w    F .text.itcm	00000006 _ZN11ImageSensor11frameHeightEv
000137e4 g     F .text.itcm	00000028 usb_transmit
600021d0  w    F .text.code	00000002 startup_late_hook
0000b09c g     F .text.itcm	00000004 _ZnwjPm
00012d24 g     F .text.itcm	000000ac _ZN7TwoWire3isrEv
20002200 g     O .data	00000070 _ZTV16DedicatedSpiCard
2000a620 g     O .bss	00000004 fin4
00005778  w    F .text.itcm	00000004 _ZN6OV564014getCameraClockEPm
0000dea8 g     F .text.itcm	000000b4 _ZN8SdioCard9writeDataEPKh
60001be8 g     F .text.code	0000009c _ZN13FlexIOHandler21setClockUsingVideoPLLEf
0000bb68 g     F .text.itcm	00000034 _ZN12FatPartition25freeClusterCount_cb_fat16EmPhPv
0000f1c0 g     F .text.itcm	0000008c _ZN13SharedSpiCard8readDataEPhj
00008390 g     F .text.itcm	0000006c _ZN11ImageSensor32processFrameStartInterruptFlexIOEv
0001c3a8 g     F .text.itcm	0000001a __ascii_wctomb
00017054 g     F .text.itcm	000000c0 __ieee754_log10f
0000095c  w    F .text.itcm	00000028 _ZN6SDFile5closeEv
00016f7c g     F .text.itcm	00000038 __fpclassifyf
00010148 g     F .text.itcm	00000398 _ZN9ExFatFile11openPrivateEPS_P8ExName_ti
00016184 g     F .text.itcm	00000668 vsnprintf_
2000b413 g     O .bss	00000001 usb_configuration
2000b402 g     O .bss	00000001 pbuf_free_ooseq_pending
20009850 g     O .bss	00000050 SPI
200021f0 g     O .data	00000010 _ZTV15Adafruit_ICM20X
000136ec g     F .text.itcm	00000064 usb_config_rx
000056d8  w    F .text.itcm	00000004 _ZN11ImageSensor12data4BitModeEb
0000fdcc g     F .text.itcm	00000028 _ZN9ExFatFile8openRootEP11ExFatVolume
2000b3c4 g     O .bss	00000008 usb_cdc_line_coding
00004d28 g     F .text.itcm	00000128 dhcp_release_and_stop
00001940 g     F .text.itcm	00000040 _Z13gdb_out_writePKhj
00002df0 g     F .text.itcm	00000074 mdns_build_host_domain
0001200c g     F .text.itcm	00000044 _ZN29Adafruit_ICM20X_Accelerometer9getSensorEP8sensor_t
00001350  w    F .text.itcm	00000054 _ZN6SDFile13setModifyTimeERK14DateTimeFields
000013f0  w    F .text.itcm	0000004c _ZN6SDFile9availableEv
2000a104 g     O .bss	00000001 __lock___sfp_recursive_mutex
0000efb8  w    F .text.itcm	00000004 _ZNK13SharedSpiCard4typeEv
20002548  w    O .data	00000024 _ZTV6Stream
0000db90 g     F .text.itcm	0000004e _ZN18SdSpiArduinoDriver4sendEPKhj
200098a0 g     O .bss	00000050 SPI1
0000bf14 g     F .text.itcm	000001c8 _ZN12FatPartition16freeClusterCountEv
00015584 g     F .text.itcm	0000002e _ZN5Print5writeEPKhj
200098f0 g     O .bss	00000050 SPI2
20003328 g     O .data	0000000c memp_TCP_PCB_LISTEN
00001f20 g     F .text.itcm	0000010c udp_bind
00011ba8 g     F .text.itcm	00000040 _ZN14ExFatPartition6fatPutEmm
00013c04  w    F .text.itcm	00000002 _ZZN6teensy23inplace_function_detail6vtableIvJEEC4EvENUlPvE_4_FUNES3_
0001299c g     F .text.itcm	00000002 _ZN7TwoWire3endEv
0001c3a0 g     F .text.itcm	00000008 __sclose
00000b74  w    F .text.itcm	0000006e _ZN6SDFile13getModifyTimeER14DateTimeFields
00003074 g     F .text.itcm	000000d0 mdns_write_domain
0000a088 g     F .text.itcm	00000234 _ZN11ImageSensor23readFrameCSI_use_FlexIOEPvjS0_j
0000065c  w    F .text.itcm	0000001e _ZN7TwoWire4readEv
00016950 g     F .text.itcm	00000064 _ZN8ICM20649C2Ev
0000d884 g     F .text.itcm	00000074 _ZN7FatFile8truncateEv
0000131c  w    F .text.itcm	00000034 _ZN10StreamFileI10FsBaseFileyE5writeEh
00015290 g     F .text.itcm	00000044 usb_serial_peekchar
000018d8  w    F .text.itcm	0000000c _ZN13IntervalTimerD1Ev
0000751c g     F .text.itcm	00000088 _ZN6OV564014calc_pclk_freqEhhhhh
0000a2f4 g     F .text.itcm	00000094 _Z12verifyCSIPinhh
000113c4 g     F .text.itcm	0000052c _ZN14ExFatFormatter6formatEP22FsBlockDeviceInterfacePhP5Print
2000234c  w    O .data	00000018 _ZTV5Debug
000145d0 g     F .text.itcm	00000034 xbar_connect
00009a40 g     F .text.itcm	00000088 _ZN11ImageSensor11dumpDMA_TCDEP12DMABaseClassPKc
00011ca8 g     F .text.itcm	0000006a _ZN14ExFatPartition16freeClusterCountEv
20005254 g     O .data	0000016c __global_locale
000056dc  w    F .text.itcm	00000004 _ZN11ImageSensor12data4BitModeEv
60001e38 g     F .text.code	00000044 _ZN9qindesign7network13EthernetClassC2Ev
20206340 g     O .bss.dma	00000090 memp_memory_IGMP_GROUP_base
00005adc g     F .text.itcm	000001b4 _ZN6OV564022captureFrameStatisticsEv
00004a60 g     F .text.itcm	0000009c igmp_leavegroup_netif
00003918 g     F .text.itcm	000000a8 pbuf_take
00019ba8 g     F .text.itcm	00000002 __retarget_lock_acquire_recursive
00016800  w    F .text.itcm	00000004 _ZN16usb_serial_class17availableForWriteEv
0000eb0c g     F .text.itcm	000000fc _ZN8SdioCard8readDataEPh
000014c0  w    F .text.itcm	00000048 _ZN6SDFileD0Ev
20009940 g     O .bss	00000140 Wire
60002890 g       .text.code	00000000 __init_array_start
000015b8  w    F .text.itcm	0000008e _ZN6SDFile4seekEyi
0000a404 g     F .text.itcm	00000020 _ZN6Camera5debugEb
0001a5dc g     F .text.itcm	00000078 _calloc_r
00012178 g     F .text.itcm	00000078 _ZN15Adafruit_ICM20X5resetEv
00005774  w    F .text.itcm	00000004 _ZN6OV564014get_vt_pix_clkEPm
0000f918 g     F .text.itcm	00000068 _ZN13SharedSpiCard10writeStartEm
20009f1c g     O .bss	00000004 _ZN9qindesign7network8EthernetE
0000ab84 g     F .text.itcm	00000058 _ZN23Adafruit_BusIO_Register5writeEmh
0000beb8 g     F .text.itcm	0000005a _ZN12FatPartition9freeChainEm
0000a948 g     F .text.itcm	000000b6 _ZN18Adafruit_SPIDevice5writeEPKhjS1_j
00012930  w    F .text.itcm	0000006c _ZN7TwoWireC2EP13IMXRT_LPI2C_tRKNS_14I2C_Hardware_tE
20005ec0 g     O .data	00000000 .hidden __TMC_END__
0000d0b0 g     F .text.itcm	000001a8 _ZN7FatFile4readEPvj
00001b80 g     F .text.itcm	00000020 trng_is_started
00002a74 g     F .text.itcm	0000004c mdns_multicast_probe_timeout_reset_ipv4
0000be98 g     F .text.itcm	00000020 _ZN12FatPartition6fatPutEmm
00000760 g     F .text.itcm	00000034 _ZN13FlexIOHandler23mapIOPinToFlexIOHandlerEhRh
00003808 g     F .text.itcm	00000088 pbuf_cat
200032d4 g     O .data	0000000c memp_FRAG_PBUF
20009ea0 g     O .bss	00000004 _ZN10StaticInitIN9qindesign8security12RandomDeviceEE2pTE
0000821c g     F .text.itcm	00000174 _ZN11ImageSensor13readFrameGPIOEPvjS0_j
0000855c g     F .text.itcm	00000160 _ZN11ImageSensor9call_backEP13FlexIOHandler
00004100 g     F .text.itcm	00000002 mem_trim
200024ec  w    O .data	0000005c _ZTV6SDFile
0001a064 g     F .text.itcm	0000015c __multiply
0001a1c0 g     F .text.itcm	000000c0 __pow5mult
00000d9c  w    F .text.itcm	00000036 _ZN7SDClass6existsEPKc
000150b0 g     F .text.itcm	00000100 usb_serial_configure
00012050 g     F .text.itcm	00000048 _ZN20Adafruit_ICM20X_Gyro9getSensorEP8sensor_t
0000db58 g     F .text.itcm	00000024 _ZN18SdSpiArduinoDriver7receiveEPhj
20009ed8 g     O .bss	00000004 _ZN14EventResponder14firstInterruptE
000153a8 g     F .text.itcm	00000018 usb_serial_write
0000f140 g     F .text.itcm	0000007e _ZN13SharedSpiCard6isBusyEv
2000b3b8 g     O .bss	00000008 usb_cdc2_line_coding
00000004 g       *ABS*	00000000 _itcm_block_count
0000424c g     F .text.itcm	00000054 sys_untimeout
00001998  w    F .text.itcm	0000009c _ZN10StaticInitIN9qindesign7network9MDNSClassEED1Ev
00019e4c g     F .text.itcm	0000000c __malloc_lock
000112c8 g     F .text.itcm	0000004c _ZN14ExFatFormatter18writeUpcaseUnicodeEt
20000380 g     O .data	00000148 .hidden __exp2f_data
00010c84 g     F .text.itcm	000000d6 _ZN9ExFatFile5mkdirEPS_PKcb
20002bc8 g     O .data	00000370 digital_pin_to_info_PGM
0000efb0  w    F .text.itcm	00000004 _ZNK13SharedSpiCard9errorCodeEv
2000263c g     O .data	0000000c _ZTV9IPAddress
00013b70 g     F .text.itcm	00000024 digitalRead
00000a4c  w    F .text.itcm	00000050 _ZN6SDFile4nameEv
20003310 g     O .data	0000000c memp_SYS_TIMEOUT
00017144 g     F .text.itcm	000002c8 .hidden __udivmoddi4
600031e8 g       *ABS*	00000000 _stextload
0000fcf0 g     F .text.itcm	0000001c _ZN16DedicatedSpiCard11writeSectorEmPKh
0000b6dc g     F .text.itcm	00000056 _ZN12FatFormatter7initPbsEv
000156c0 g     F .text.itcm	00000036 _ZNK9IPAddress7printToER5Print
00001b10 g     F .text.itcm	00000018 qnethernet_hal_stdio_flush
00019354 g     F .text.itcm	00000010 free
0000db38 g     F .text.itcm	00000006 _ZN18SdSpiArduinoDriver3endEv
0000226c g     F .text.itcm	0000001c err_to_errno
00000940  w    F .text.itcm	00000002 _ZN5Print5flushEv
000007e4 g     F .text.itcm	00000040 _ZN13FlexIOHandler13requestTimersEh
2000b0c8 g     O .bss	000000e4 imuF
200022cc g     O .data	0000001c _ZTV20Adafruit_ICM20X_Temp
0000fd70 g     F .text.itcm	00000014 _ZN9ExFatFile5closeEv
0000110c  w    F .text.itcm	00000018 _ZN6SDFile4peekEv
00019fa8 g     F .text.itcm	00000060 __lo0bits
0000113c  w    F .text.itcm	00000026 _ZN6SDFile11isDirectoryEv
20200180 g     O .bss.dma	00005fc0 memp_memory_PBUF_POOL_base
0000b354 g     F .text.itcm	00000028 _ZN8FsVolume4openEPKci
0000fd0c g     F .text.itcm	00000026 _ZN16DedicatedSpiCard5beginE11SdSpiConfig
6000312c g     O .text.progmem	000000ad usb_config_descriptor_480
000105d8 g     F .text.itcm	0000000e _ZN9ExFatFile4openEP11ExFatVolumePKci
000057a4  w    F .text.itcm	00000002 _ZN6OV5640D1Ev
20009a80 g     O .bss	00000140 Wire1
0001b5f0 g     F .text.itcm	00000054 _fflush_r
00009e68 g     F .text.itcm	00000220 _ZN11ImageSensor25changeCSIReadToFlexIOModeEb
0000f034  w    F .text.itcm	00000002 _ZN16DedicatedSpiCardD1Ev
00016a60 g     F .text.itcm	0000002c _ZN7Dartcam17send_frame_serialEv
00014c78  w    F .text.itcm	000000d8 yield
000154e0 g     F .text.itcm	0000000e _ZN6StringD1Ev
20009bc0 g     O .bss	00000140 Wire2
0001b840 g     F .text.itcm	00000000 memchr
20004208 g     O .data	00000004 F_BUS_ACTUAL
00003714 g     F .text.itcm	000000dc pbuf_realloc
00009ac8 g     F .text.itcm	0000006c _ZN11ImageSensor15checkForCSIPinsEv
60003048 g     O .text.progmem	00000016 usb_string_product_name_default
0000fb88 g     F .text.itcm	00000066 _ZN13SharedSpiCard9writeDataEhPKh
00015580 g     F .text.itcm	00000004 _ZdlPvj
0001c31c g     F .text.itcm	00000022 __sread
600021cc g     F .text.code	00000002 startup_default_middle_hook
000057e4 g     F .text.itcm	000002f8 _ZN6OV564017startReadFrameDMAEPFbPvEPhS3_
0000a4a4 g     F .text.itcm	00000012 _ZN18Adafruit_I2CDeviceC2EhP7TwoWire
000069ac g     F .text.itcm	00000294 _ZN6OV564012setPixformatE11pixformat_t
20005ec0 g       .data	00000000 _edata
00014afc g     F .text.itcm	00000104 attachInterrupt
000044bc g     F .text.itcm	0000003e tcp_rst
00001c84  w    F .text.itcm	00000018 _ZN10StaticInitIN9qindesign8security12RandomDeviceEED1Ev
200025c0 g     O .data	0000000c _ZTV8ICM20649
000048cc g     F .text.itcm	00000010 acd_network_changed_link_down
0000a388 g     F .text.itcm	00000078 _Z15configureCSIPinh
2000b288 g     O .bss	00000004 scale_cpu_cycles_to_microseconds
0000acc0 g     F .text.itcm	00000008 _ZN27Adafruit_BusIO_RegisterBitsC2EP23Adafruit_BusIO_Registerhh
00019b58 g     F .text.itcm	00000048 __libc_init_array
00011a5c g     F .text.itcm	0000004c _ZN14ExFatPartition9chainSizeEm
00014790  w    F .text.itcm	00000034 _sbrk
20007860 g     O .bss	00001440 _ZN6OV564011_dmaBuffer2E
0000a424 g     F .text.itcm	00000012 _ZN6Camera9readFrameEPvjS0_j
00000ad8  w    F .text.itcm	00000054 _ZN6SDFile13setCreateTimeERK14DateTimeFields
00011fc0  w    F .text.itcm	00000002 _ZN28Adafruit_ICM20X_MagnetometerD1Ev
00010ed4 g     F .text.itcm	000000e4 _ZN9ExFatFile8truncateEv
0000dbe8 g     F .text.itcm	00000004 _Z9sdCsWritehb
0001f5a8 g     F .text.itcm	0000002c _lseek_r
000034b4 g     F .text.itcm	00000070 pbuf_add_header
0000cf04 g     F .text.itcm	00000104 _ZN7FatFile4openEPS_PKci
00003a30 g     F .text.itcm	0000001c pbuf_get_at
00000d0c  w    F .text.itcm	00000054 _ZN7SDClass6removeEPKc
0000f5f0 g     F .text.itcm	00000076 _ZN13SharedSpiCard7readOCREPm
00016e48 g     F .text.itcm	000000c8 logf
00012128 g     F .text.itcm	00000018 _ZN15Adafruit_ICM20XC2Ev
000056b8  w    F .text.itcm	00000006 _ZN11ImageSensor12getPixformatEv
2000b3c0 g     O .bss	00000004 usb_cdc2_line_rtsdtr_millis
00008c4c g     F .text.itcm	000000e8 _ZN11ImageSensor9beginXClkEv
000130a8 g     F .text.itcm	00000644 usb_isr
60001884 g     F .text.code	000000d4 _ZN13FlexIOHandler16computeClockRateEv
00016a8c g     F .text.itcm	0000001c _ZN13PIDControllerC2Efffff
0000f040  w    F .text.itcm	0000000e _ZN16DedicatedSpiCardD0Ev
00011fc0  w    F .text.itcm	00000002 _ZN28Adafruit_ICM20X_MagnetometerD2Ev
000128c4  w    F .text.itcm	00000002 _ZN7TwoWire5flushEv
0000aac8 g     F .text.itcm	00000024 _ZN23Adafruit_BusIO_RegisterC2EP18Adafruit_I2CDeviceP18Adafruit_SPIDevice26_Adafruit_BusIO_SPIRegTypethhh
20009d98 g     O .bss	00000004 _ZN10StaticInitIN9qindesign7network13EthernetClassEE13nifty_counterE
00014084 g     F .text.itcm	00000084 sm_set_pool
6000164c g     F .text.code	00000028 ResetHandler
00003890 g     F .text.itcm	0000001a pbuf_chain
000011f0 g     F .text.itcm	000000dc _ZN7SDClass6formatEicR5Print
60022954 g       *ABS*	00000000 _sdataload
0001535c g     F .text.itcm	00000020 usb_serial_getchar
60001e7c g     F .text.code	0000003e _ZN9qindesign7network13EthernetClassD2Ev
000056e0  w    F .text.itcm	00000006 _ZN11ImageSensor16dataPinsReversedEv
20009edc g     O .bss	00000004 _ZN14EventResponder9lastYieldE
60001c84 g     F .text.code	00000042 _ZN9qindesign7network9MDNSClassC1Ev
0000cc6c g     F .text.itcm	00000020 _ZN7FatFile17getCreateDateTimeEPtS0_
0000b124 g     F .text.itcm	00000028 _ZN10FsBaseFile5closeEv
00000be4  w    F .text.itcm	0000006e _ZN6SDFile13getCreateTimeER14DateTimeFields
000012cc  w    F .text.itcm	00000014 _ZN6SDFile5flushEv
0000f980 g     F .text.itcm	00000118 _ZN13SharedSpiCard5eraseEmm
0000c5fc g     F .text.itcm	00000298 _ZN7FatFile4openEPS_P8FatLfn_ti
000038ac g     F .text.itcm	0000006c pbuf_copy_partial
0000c2bc g     F .text.itcm	00000122 _ZN7FatFile9createLFNEtP8FatLfn_th
0001b8e0 g     F .text.itcm	00000134 memcpy
00011fec  w    F .text.itcm	0000000e _ZN28Adafruit_ICM20X_MagnetometerD0Ev
00010790 g     F .text.itcm	00000092 _ZN9ExFatFile10addClusterEv
000167f0  w    F .text.itcm	00000004 _ZN16usb_serial_class4peekEv
00014994 g     F .text.itcm	00000100 usb_serial2_configure
00013c08  w    F .text.itcm	00000002 _ZZN6teensy23inplace_function_detail6vtableIvJEEC4EvENUlPvS3_E0_4_FUNES3_S3_
60001e24 g     F .text.code	00000012 _ZN9qindesign8security12RandomDeviceC2Ev
000154f0 g     F .text.itcm	00000066 _ZN6String4copyEPKcj
2000a644 g     O .bss	00000020 flex2_Handler_callbacks
00009340 g     F .text.itcm	00000700 _ZN11ImageSensor15readFrameFlexIOEPvjS0_j
0000db7c g     F .text.itcm	00000012 _ZN18SdSpiArduinoDriver4sendEh
0000143c  w    F .text.itcm	00000044 _ZN4File5writeEPKhj
000118f0 g     F .text.itcm	000000c0 _ZN14ExFatPartition10bitmapFindEmm
00019e58 g     F .text.itcm	0000000c __malloc_unlock
00005738  w    F .text.itcm	00000018 _ZN6OV564025setDMACompleteISRPriorityEh
202066d8 g     O .bss.dma	000000e0 memp_memory_TCP_PCB_LISTEN_base
00001124  w    F .text.itcm	00000018 _ZN10StreamFileI10FsBaseFileyE4peekEv
0000ecdc g     F .text.itcm	00000098 _ZN8SdioCard16stopTransmissionEb
000169f4 g     F .text.itcm	00000048 _ZN7Dartcam4initEv
0000e61c g     F .text.itcm	00000088 _ZN8SdioCard11readSectorsEmPhj
0001ba40 g     F .text.itcm	000000dc strlen
60002174 g     F .text.code	00000054 analog_init
0000affc g     F .text.itcm	000000a0 _Z11lbaToMbrChsPhmm
000018e4 g     F .text.itcm	0000005c _Z7mem2hexPcPKvi
000031cc g     F .text.itcm	000000a4 mdns_resp_remove_netif
0000575c  w    F .text.itcm	00000004 _ZN6OV564012readRegisterEh
00019f68 g     F .text.itcm	00000040 __hi0bits
20003168 g     O .data	00000004 ip_addr_any
00005f94 g     F .text.itcm	000000cc _ZN6OV5640C2Ev
0001f47c g     F .text.itcm	00000106 _wcsnrtombs_l
600021d0 g     F .text.code	00000002 startup_default_late_hook
0000796c g     F .text.itcm	00000548 _ZN6OV564016begin_omnivisionE11framesize_t11pixformat_tiib
20206538 g     O .bss.dma	000000a0 memp_memory_REASSDATA_base
00001648  w    F .text.itcm	000000a8 _ZN4FileD1Ev
0000a488  w    F .text.itcm	00000002 _ZN15Adafruit_Sensor15enableAutoRangeEb
0000a400 g     F .text.itcm	00000004 _ZN6CameraC1ER11ImageSensor
00012e3c g     F .text.itcm	000000b4 _ZN10DMAChannel5beginEb
00005768  w    F .text.itcm	00000004 _ZN6OV56405beginE11framesize_tib
00011fbc  w    F .text.itcm	00000002 _ZN20Adafruit_ICM20X_TempD1Ev
00013f50 g     F .text.itcm	00000064 _ZN14EventResponder18detachNoInterruptsEv
60001cc8 g     F .text.code	00000070 _ZN9qindesign7network9MDNSClassD1Ev
00016b8c  w    F .text.itcm	00000020 _ZN8ICM20649D1Ev
00000edc  w    F .text.itcm	00000058 _ZN4File4readEv
00005548 g     F .text.itcm	0000008c _ZN9qindesign7network13EthernetClass3endEv
20003340 g     O .data	0000000c memp_UDP_PCB
0000e6a4 g     F .text.itcm	00000088 _ZN8SdioCard12writeSectorsEmPKhj
00014108 g     F .text.itcm	000000b4 flexpwmWrite
00000e88  w    F .text.itcm	00000054 _ZN4File5writeEh
0000ace4 g     F .text.itcm	00000030 _ZN27Adafruit_BusIO_RegisterBits5writeEm
0000dd88  w    F .text.itcm	00000002 _ZN8SdioCardD1Ev
60001c84 g     F .text.code	00000042 _ZN9qindesign7network9MDNSClassC2Ev
000031b0 g     F .text.itcm	00000010 netif_mdns_data
0000efc4 g     F .text.itcm	0000006e _ZN16DedicatedSpiCard20writeSectorsCallbackEmjPFPKhmPvES2_
00002e64 g     F .text.itcm	000000a8 mdns_build_dnssd_domain
60001984 g     F .text.code	000000b0 _ZN13FlexIOHandler16setClockSettingsEhhh
2000a624 g     O .bss	00000020 flex1_Handler_callbacks
2000a604 g     O .bss	00000010 extmem_smalloc_pool
0000daac g     F .text.itcm	00000012 _ZN18SdSpiArduinoDriver8activateEv
20060000 g       .text.csf	00000000 _estack
000152ec g     F .text.itcm	00000070 usb_serial_flush_input
0001c2d0 g     F .text.itcm	00000024 _isatty_r
000169cc g     F .text.itcm	00000026 _ZN7DartcamC1Ev
0000adb8 g     F .text.itcm	00000098 _ZN5FsUtf6mbToCpEPKcS1_Pm
0000f0b4 g     F .text.itcm	0000008c _ZN13SharedSpiCard9writeStopEv
00001ce4  w    F .text.itcm	00000028 _ZN10StaticInitIN9qindesign7network13EthernetClassEED1Ev
00011fc4  w    F .text.itcm	00000002 _ZN20Adafruit_ICM20X_GyroD1Ev
00012ddc g     F .text.itcm	0000000c _Z10lpi2c3_isrv
00004104 g     F .text.itcm	0000003c mem_malloc
00000f6c  w    F .text.itcm	000000b0 _ZN6SDFile12openNextFileEh
2000a4d8 g     O .bss	00000108 debug
000104e0 g     F .text.itcm	000000f8 _ZN9ExFatFile4openEPS_PKci
0000202c g     F .text.itcm	00000158 udp_sendto_if_src


Contents of section .text.headers:
 60000000 46434642 00000156 00000000 01030300  FCFB...V........
 60000010 00000000 00000000 00000000 00000000  ................
 60000020 00000000 00000000 00000000 00000000  ................
 60000030 00000000 00000000 00000000 00000000  ................
 60000040 00000000 01040800 00000000 00000000  ................
 60000050 00008000 00000000 00000000 00000000  ................
 60000060 00000000 00000000 00000000 00000000  ................
 60000070 00000000 00000000 00000000 00000000  ................
 60000080 eb04180a 06320426 00000000 00000000  .....2.&........
 60000090 05040424 00000000 00000000 00000000  ...$............
 600000a0 00000000 00000000 00000000 00000000  ................
 600000b0 06040000 00000000 00000000 00000000  ................
 600000c0 00000000 00000000 00000000 00000000  ................
 600000d0 20041808 00000000 00000000 00000000   ...............
 600000e0 00000000 00000000 00000000 00000000  ................
 600000f0 00000000 00000000 00000000 00000000  ................
 60000100 d8041808 00000000 00000000 00000000  ................
 60000110 02041808 04200000 00000000 00000000  ..... ..........
 60000120 00000000 00000000 00000000 00000000  ................
 60000130 60040000 00000000 00000000 00000000  `...............
 60000140 00000000 00000000 00000000 00000000  ................
 60000150 00000000 00000000 00000000 00000000  ................
 60000160 00000000 00000000 00000000 00000000  ................
 60000170 00000000 00000000 00000000 00000000  ................
 60000180 00000000 00000000 00000000 00000000  ................
 60000190 00000000 00000000 00000000 00000000  ................
 600001a0 00000000 00000000 00000000 00000000  ................
 600001b0 00000000 00000000 00000000 00000000  ................
 600001c0 00010000 00100000 01000000 00000000  ................
 600001d0 00000100 00000000 00000000 00000000  ................
 600001e0 00000000 00000000 00000000 00000000  ................
 600001f0 00000000 00000000 00000000 00000000  ................
 60000200 ffffffff ffffffff ffffffff ffffffff  ................
 60000210 ffffffff ffffffff ffffffff ffffffff  ................
 60000220 ffffffff ffffffff ffffffff ffffffff  ................
 60000230 ffffffff ffffffff ffffffff ffffffff  ................
 60000240 ffffffff ffffffff ffffffff ffffffff  ................
 60000250 ffffffff ffffffff ffffffff ffffffff  ................
 60000260 ffffffff ffffffff ffffffff ffffffff  ................
 60000270 ffffffff ffffffff ffffffff ffffffff  ................
 60000280 ffffffff ffffffff ffffffff ffffffff  ................
 60000290 ffffffff ffffffff ffffffff ffffffff  ................
 600002a0 ffffffff ffffffff ffffffff ffffffff  ................
 600002b0 ffffffff ffffffff ffffffff ffffffff  ................
 600002c0 ffffffff ffffffff ffffffff ffffffff  ................
 600002d0 ffffffff ffffffff ffffffff ffffffff  ................
 600002e0 ffffffff ffffffff ffffffff ffffffff  ................
 600002f0 ffffffff ffffffff ffffffff ffffffff  ................
 60000300 ffffffff ffffffff ffffffff ffffffff  ................
 60000310 ffffffff ffffffff ffffffff ffffffff  ................
 60000320 ffffffff ffffffff ffffffff ffffffff  ................
 60000330 ffffffff ffffffff ffffffff ffffffff  ................
 60000340 ffffffff ffffffff ffffffff ffffffff  ................
 60000350 ffffffff ffffffff ffffffff ffffffff  ................
 60000360 ffffffff ffffffff ffffffff ffffffff  ................
 60000370 ffffffff ffffffff ffffffff ffffffff  ................
 60000380 ffffffff ffffffff ffffffff ffffffff  ................
 60000390 ffffffff ffffffff ffffffff ffffffff  ................
 600003a0 ffffffff ffffffff ffffffff ffffffff  ................
 600003b0 ffffffff ffffffff ffffffff ffffffff  ................
 600003c0 ffffffff ffffffff ffffffff ffffffff  ................
 600003d0 ffffffff ffffffff ffffffff ffffffff  ................
 600003e0 ffffffff ffffffff ffffffff ffffffff  ................
 600003f0 ffffffff ffffffff ffffffff ffffffff  ................
 60000400 ffffffff ffffffff ffffffff ffffffff  ................
 60000410 ffffffff ffffffff ffffffff ffffffff  ................
 60000420 ffffffff ffffffff ffffffff ffffffff  ................
 60000430 ffffffff ffffffff ffffffff ffffffff  ................
 60000440 ffffffff ffffffff ffffffff ffffffff  ................
 60000450 ffffffff ffffffff ffffffff ffffffff  ................
 60000460 ffffffff ffffffff ffffffff ffffffff  ................
 60000470 ffffffff ffffffff ffffffff ffffffff  ................
 60000480 ffffffff ffffffff ffffffff ffffffff  ................
 60000490 ffffffff ffffffff ffffffff ffffffff  ................
 600004a0 ffffffff ffffffff ffffffff ffffffff  ................
 600004b0 ffffffff ffffffff ffffffff ffffffff  ................
 600004c0 ffffffff ffffffff ffffffff ffffffff  ................
 600004d0 ffffffff ffffffff ffffffff ffffffff  ................
 600004e0 ffffffff ffffffff ffffffff ffffffff  ................
 600004f0 ffffffff ffffffff ffffffff ffffffff  ................
 60000500 ffffffff ffffffff ffffffff ffffffff  ................
 60000510 ffffffff ffffffff ffffffff ffffffff  ................
 60000520 ffffffff ffffffff ffffffff ffffffff  ................
 60000530 ffffffff ffffffff ffffffff ffffffff  ................
 60000540 ffffffff ffffffff ffffffff ffffffff  ................
 60000550 ffffffff ffffffff ffffffff ffffffff  ................
 60000560 ffffffff ffffffff ffffffff ffffffff  ................
 60000570 ffffffff ffffffff ffffffff ffffffff  ................
 60000580 ffffffff ffffffff ffffffff ffffffff  ................
 60000590 ffffffff ffffffff ffffffff ffffffff  ................
 600005a0 ffffffff ffffffff ffffffff ffffffff  ................
 600005b0 ffffffff ffffffff ffffffff ffffffff  ................
 600005c0 ffffffff ffffffff ffffffff ffffffff  ................
 600005d0 ffffffff ffffffff ffffffff ffffffff  ................
 600005e0 ffffffff ffffffff ffffffff ffffffff  ................
 600005f0 ffffffff ffffffff ffffffff ffffffff  ................
 60000600 ffffffff ffffffff ffffffff ffffffff  ................
 60000610 ffffffff ffffffff ffffffff ffffffff  ................
 60000620 ffffffff ffffffff ffffffff ffffffff  ................
 60000630 ffffffff ffffffff ffffffff ffffffff  ................
 60000640 ffffffff ffffffff ffffffff ffffffff  ................
 60000650 ffffffff ffffffff ffffffff ffffffff  ................
 60000660 ffffffff ffffffff ffffffff ffffffff  ................
 60000670 ffffffff ffffffff ffffffff ffffffff  ................
 60000680 ffffffff ffffffff ffffffff ffffffff  ................
 60000690 ffffffff ffffffff ffffffff ffffffff  ................
 600006a0 ffffffff ffffffff ffffffff ffffffff  ................
 600006b0 ffffffff ffffffff ffffffff ffffffff  ................
 600006c0 ffffffff ffffffff ffffffff ffffffff  ................
 600006d0 ffffffff ffffffff ffffffff ffffffff  ................
 600006e0 ffffffff ffffffff ffffffff ffffffff  ................
 600006f0 ffffffff ffffffff ffffffff ffffffff  ................
 60000700 ffffffff ffffffff ffffffff ffffffff  ................
 60000710 ffffffff ffffffff ffffffff ffffffff  ................
 60000720 ffffffff ffffffff ffffffff ffffffff  ................
 60000730 ffffffff ffffffff ffffffff ffffffff  ................
 60000740 ffffffff ffffffff ffffffff ffffffff  ................
 60000750 ffffffff ffffffff ffffffff ffffffff  ................
 60000760 ffffffff ffffffff ffffffff ffffffff  ................
 60000770 ffffffff ffffffff ffffffff ffffffff  ................
 60000780 ffffffff ffffffff ffffffff ffffffff  ................
 60000790 ffffffff ffffffff ffffffff ffffffff  ................
 600007a0 ffffffff ffffffff ffffffff ffffffff  ................
 600007b0 ffffffff ffffffff ffffffff ffffffff  ................
 600007c0 ffffffff ffffffff ffffffff ffffffff  ................
 600007d0 ffffffff ffffffff ffffffff ffffffff  ................
 600007e0 ffffffff ffffffff ffffffff ffffffff  ................
 600007f0 ffffffff ffffffff ffffffff ffffffff  ................
 60000800 ffffffff ffffffff ffffffff ffffffff  ................
 60000810 ffffffff ffffffff ffffffff ffffffff  ................
 60000820 ffffffff ffffffff ffffffff ffffffff  ................
 60000830 ffffffff ffffffff ffffffff ffffffff  ................
 60000840 ffffffff ffffffff ffffffff ffffffff  ................
 60000850 ffffffff ffffffff ffffffff ffffffff  ................
 60000860 ffffffff ffffffff ffffffff ffffffff  ................
 60000870 ffffffff ffffffff ffffffff ffffffff  ................
 60000880 ffffffff ffffffff ffffffff ffffffff  ................
 60000890 ffffffff ffffffff ffffffff ffffffff  ................
 600008a0 ffffffff ffffffff ffffffff ffffffff  ................
 600008b0 ffffffff ffffffff ffffffff ffffffff  ................
 600008c0 ffffffff ffffffff ffffffff ffffffff  ................
 600008d0 ffffffff ffffffff ffffffff ffffffff  ................
 600008e0 ffffffff ffffffff ffffffff ffffffff  ................
 600008f0 ffffffff ffffffff ffffffff ffffffff  ................
 60000900 ffffffff ffffffff ffffffff ffffffff  ................
 60000910 ffffffff ffffffff ffffffff ffffffff  ................
 60000920 ffffffff ffffffff ffffffff ffffffff  ................
 60000930 ffffffff ffffffff ffffffff ffffffff  ................
 60000940 ffffffff ffffffff ffffffff ffffffff  ................
 60000950 ffffffff ffffffff ffffffff ffffffff  ................
 60000960 ffffffff ffffffff ffffffff ffffffff  ................
 60000970 ffffffff ffffffff ffffffff ffffffff  ................
 60000980 ffffffff ffffffff ffffffff ffffffff  ................
 60000990 ffffffff ffffffff ffffffff ffffffff  ................
 600009a0 ffffffff ffffffff ffffffff ffffffff  ................
 600009b0 ffffffff ffffffff ffffffff ffffffff  ................
 600009c0 ffffffff ffffffff ffffffff ffffffff  ................
 600009d0 ffffffff ffffffff ffffffff ffffffff  ................
 600009e0 ffffffff ffffffff ffffffff ffffffff  ................
 600009f0 ffffffff ffffffff ffffffff ffffffff  ................
 60000a00 ffffffff ffffffff ffffffff ffffffff  ................
 60000a10 ffffffff ffffffff ffffffff ffffffff  ................
 60000a20 ffffffff ffffffff ffffffff ffffffff  ................
 60000a30 ffffffff ffffffff ffffffff ffffffff  ................
 60000a40 ffffffff ffffffff ffffffff ffffffff  ................
 60000a50 ffffffff ffffffff ffffffff ffffffff  ................
 60000a60 ffffffff ffffffff ffffffff ffffffff  ................
 60000a70 ffffffff ffffffff ffffffff ffffffff  ................
 60000a80 ffffffff ffffffff ffffffff ffffffff  ................
 60000a90 ffffffff ffffffff ffffffff ffffffff  ................
 60000aa0 ffffffff ffffffff ffffffff ffffffff  ................
 60000ab0 ffffffff ffffffff ffffffff ffffffff  ................
 60000ac0 ffffffff ffffffff ffffffff ffffffff  ................
 60000ad0 ffffffff ffffffff ffffffff ffffffff  ................
 60000ae0 ffffffff ffffffff ffffffff ffffffff  ................
 60000af0 ffffffff ffffffff ffffffff ffffffff  ................
 60000b00 ffffffff ffffffff ffffffff ffffffff  ................
 60000b10 ffffffff ffffffff ffffffff ffffffff  ................
 60000b20 ffffffff ffffffff ffffffff ffffffff  ................
 60000b30 ffffffff ffffffff ffffffff ffffffff  ................
 60000b40 ffffffff ffffffff ffffffff ffffffff  ................
 60000b50 ffffffff ffffffff ffffffff ffffffff  ................
 60000b60 ffffffff ffffffff ffffffff ffffffff  ................
 60000b70 ffffffff ffffffff ffffffff ffffffff  ................
 60000b80 ffffffff ffffffff ffffffff ffffffff  ................
 60000b90 ffffffff ffffffff ffffffff ffffffff  ................
 60000ba0 ffffffff ffffffff ffffffff ffffffff  ................
 60000bb0 ffffffff ffffffff ffffffff ffffffff  ................
 60000bc0 ffffffff ffffffff ffffffff ffffffff  ................
 60000bd0 ffffffff ffffffff ffffffff ffffffff  ................
 60000be0 ffffffff ffffffff ffffffff ffffffff  ................
 60000bf0 ffffffff ffffffff ffffffff ffffffff  ................
 60000c00 ffffffff ffffffff ffffffff ffffffff  ................
 60000c10 ffffffff ffffffff ffffffff ffffffff  ................
 60000c20 ffffffff ffffffff ffffffff ffffffff  ................
 60000c30 ffffffff ffffffff ffffffff ffffffff  ................
 60000c40 ffffffff ffffffff ffffffff ffffffff  ................
 60000c50 ffffffff ffffffff ffffffff ffffffff  ................
 60000c60 ffffffff ffffffff ffffffff ffffffff  ................
 60000c70 ffffffff ffffffff ffffffff ffffffff  ................
 60000c80 ffffffff ffffffff ffffffff ffffffff  ................
 60000c90 ffffffff ffffffff ffffffff ffffffff  ................
 60000ca0 ffffffff ffffffff ffffffff ffffffff  ................
 60000cb0 ffffffff ffffffff ffffffff ffffffff  ................
 60000cc0 ffffffff ffffffff ffffffff ffffffff  ................
 60000cd0 ffffffff ffffffff ffffffff ffffffff  ................
 60000ce0 ffffffff ffffffff ffffffff ffffffff  ................
 60000cf0 ffffffff ffffffff ffffffff ffffffff  ................
 60000d00 ffffffff ffffffff ffffffff ffffffff  ................
 60000d10 ffffffff ffffffff ffffffff ffffffff  ................
 60000d20 ffffffff ffffffff ffffffff ffffffff  ................
 60000d30 ffffffff ffffffff ffffffff ffffffff  ................
 60000d40 ffffffff ffffffff ffffffff ffffffff  ................
 60000d50 ffffffff ffffffff ffffffff ffffffff  ................
 60000d60 ffffffff ffffffff ffffffff ffffffff  ................
 60000d70 ffffffff ffffffff ffffffff ffffffff  ................
 60000d80 ffffffff ffffffff ffffffff ffffffff  ................
 60000d90 ffffffff ffffffff ffffffff ffffffff  ................
 60000da0 ffffffff ffffffff ffffffff ffffffff  ................
 60000db0 ffffffff ffffffff ffffffff ffffffff  ................
 60000dc0 ffffffff ffffffff ffffffff ffffffff  ................
 60000dd0 ffffffff ffffffff ffffffff ffffffff  ................
 60000de0 ffffffff ffffffff ffffffff ffffffff  ................
 60000df0 ffffffff ffffffff ffffffff ffffffff  ................
 60000e00 ffffffff ffffffff ffffffff ffffffff  ................
 60000e10 ffffffff ffffffff ffffffff ffffffff  ................
 60000e20 ffffffff ffffffff ffffffff ffffffff  ................
 60000e30 ffffffff ffffffff ffffffff ffffffff  ................
 60000e40 ffffffff ffffffff ffffffff ffffffff  ................
 60000e50 ffffffff ffffffff ffffffff ffffffff  ................
 60000e60 ffffffff ffffffff ffffffff ffffffff  ................
 60000e70 ffffffff ffffffff ffffffff ffffffff  ................
 60000e80 ffffffff ffffffff ffffffff ffffffff  ................
 60000e90 ffffffff ffffffff ffffffff ffffffff  ................
 60000ea0 ffffffff ffffffff ffffffff ffffffff  ................
 60000eb0 ffffffff ffffffff ffffffff ffffffff  ................
 60000ec0 ffffffff ffffffff ffffffff ffffffff  ................
 60000ed0 ffffffff ffffffff ffffffff ffffffff  ................
 60000ee0 ffffffff ffffffff ffffffff ffffffff  ................
 60000ef0 ffffffff ffffffff ffffffff ffffffff  ................
 60000f00 ffffffff ffffffff ffffffff ffffffff  ................
 60000f10 ffffffff ffffffff ffffffff ffffffff  ................
 60000f20 ffffffff ffffffff ffffffff ffffffff  ................
 60000f30 ffffffff ffffffff ffffffff ffffffff  ................
 60000f40 ffffffff ffffffff ffffffff ffffffff  ................
 60000f50 ffffffff ffffffff ffffffff ffffffff  ................
 60000f60 ffffffff ffffffff ffffffff ffffffff  ................
 60000f70 ffffffff ffffffff ffffffff ffffffff  ................
 60000f80 ffffffff ffffffff ffffffff ffffffff  ................
 60000f90 ffffffff ffffffff ffffffff ffffffff  ................
 60000fa0 ffffffff ffffffff ffffffff ffffffff  ................
 60000fb0 ffffffff ffffffff ffffffff ffffffff  ................
 60000fc0 ffffffff ffffffff ffffffff ffffffff  ................
 60000fd0 ffffffff ffffffff ffffffff ffffffff  ................
 60000fe0 ffffffff ffffffff ffffffff ffffffff  ................
 60000ff0 ffffffff ffffffff ffffffff ffffffff  ................
 60001000 d1002043 4d160060 00000000 00000000  .. CM..`........
 60001010 20100060 00100060 008c0260 00000000   ..`...`...`....
 60001020 00000060 00980200 00000000 ffffffff  ...`............
 60001030 ffffffff ffffffff ffffffff ffffffff  ................
 60001040 ffffffff ffffffff ffffffff ffffffff  ................
 60001050 ffffffff ffffffff ffffffff ffffffff  ................
 60001060 ffffffff ffffffff ffffffff ffffffff  ................
 60001070 ffffffff ffffffff ffffffff ffffffff  ................
 60001080 ffffffff ffffffff ffffffff ffffffff  ................
 60001090 ffffffff ffffffff ffffffff ffffffff  ................
 600010a0 ffffffff ffffffff ffffffff ffffffff  ................
 600010b0 ffffffff ffffffff ffffffff ffffffff  ................
 600010c0 ffffffff ffffffff ffffffff ffffffff  ................
 600010d0 ffffffff ffffffff ffffffff ffffffff  ................
 600010e0 ffffffff ffffffff ffffffff ffffffff  ................
 600010f0 ffffffff ffffffff ffffffff ffffffff  ................
 60001100 ffffffff ffffffff ffffffff ffffffff  ................
 60001110 ffffffff ffffffff ffffffff ffffffff  ................
 60001120 ffffffff ffffffff ffffffff ffffffff  ................
 60001130 ffffffff ffffffff ffffffff ffffffff  ................
 60001140 ffffffff ffffffff ffffffff ffffffff  ................
 60001150 ffffffff ffffffff ffffffff ffffffff  ................
 60001160 ffffffff ffffffff ffffffff ffffffff  ................
 60001170 ffffffff ffffffff ffffffff ffffffff  ................
 60001180 ffffffff ffffffff ffffffff ffffffff  ................
 60001190 ffffffff ffffffff ffffffff ffffffff  ................
 600011a0 ffffffff ffffffff ffffffff ffffffff  ................
 600011b0 ffffffff ffffffff ffffffff ffffffff  ................
 600011c0 ffffffff ffffffff ffffffff ffffffff  ................
 600011d0 ffffffff ffffffff ffffffff ffffffff  ................
 600011e0 ffffffff ffffffff ffffffff ffffffff  ................
 600011f0 ffffffff ffffffff ffffffff ffffffff  ................
 60001200 ffffffff ffffffff ffffffff ffffffff  ................
 60001210 ffffffff ffffffff ffffffff ffffffff  ................
 60001220 ffffffff ffffffff ffffffff ffffffff  ................
 60001230 ffffffff ffffffff ffffffff ffffffff  ................
 60001240 ffffffff ffffffff ffffffff ffffffff  ................
 60001250 ffffffff ffffffff ffffffff ffffffff  ................
 60001260 ffffffff ffffffff ffffffff ffffffff  ................
 60001270 ffffffff ffffffff ffffffff ffffffff  ................
 60001280 ffffffff ffffffff ffffffff ffffffff  ................
 60001290 ffffffff ffffffff ffffffff ffffffff  ................
 600012a0 ffffffff ffffffff ffffffff ffffffff  ................
 600012b0 ffffffff ffffffff ffffffff ffffffff  ................
 600012c0 ffffffff ffffffff ffffffff ffffffff  ................
 600012d0 ffffffff ffffffff ffffffff ffffffff  ................
 600012e0 ffffffff ffffffff ffffffff ffffffff  ................
 600012f0 ffffffff ffffffff ffffffff ffffffff  ................
 60001300 ffffffff ffffffff ffffffff ffffffff  ................
 60001310 ffffffff ffffffff ffffffff ffffffff  ................
 60001320 ffffffff ffffffff ffffffff ffffffff  ................
 60001330 ffffffff ffffffff ffffffff ffffffff  ................
 60001340 ffffffff ffffffff ffffffff ffffffff  ................
 60001350 ffffffff ffffffff ffffffff ffffffff  ................
 60001360 ffffffff ffffffff ffffffff ffffffff  ................
 60001370 ffffffff ffffffff ffffffff ffffffff  ................
 60001380 ffffffff ffffffff ffffffff ffffffff  ................
 60001390 ffffffff ffffffff ffffffff ffffffff  ................
 600013a0 ffffffff ffffffff ffffffff ffffffff  ................
 600013b0 ffffffff ffffffff ffffffff ffffffff  ................
 600013c0 ffffffff ffffffff ffffffff ffffffff  ................
 600013d0 ffffffff ffffffff ffffffff ffffffff  ................
 600013e0 ffffffff ffffffff ffffffff ffffffff  ................
 600013f0 ffffffff ffffffff ffffffff ffffffff  ................
Contents of section .text.code:
 60001400 814205d0 51f8043b 40f8043b 8242f9d8  .B..Q..;@..;.B..
 60001410 704700bf 044a0549 4ff00003 42f8043b  pG...J.IO...B..;
 60001420 9142fbd8 704700bf c05e0020 40b40020  .B..pG...^. @.. 
 60001430 2de98848 bff34f8f 00bf00bf 00bf00bf  -..H..O.........
 60001440 00f0c2fe 684b0822 c3f85421 00bf00bf  ....hK."..T!....
 60001450 00bf00bf 00bf00bf 00bf00bf 00bf00bf  ................
 60001460 00bf00bf 00bf00bf 00bf00bf 5f4a6049  ............_J`I
 60001470 6048fff7 c5ff604a 60496148 fff7c0ff  `H....`J`IaH....
 60001480 604cfff7 c7ff4ff4 70004ff0 e0210023  `L....O.p.O..!.#
 60001490 5d4ac1f8 880d44f8 23200133 b02bfad1  ]J....D.# .3.+..
 600014a0 5a4b8021 5a4a03f8 011b9342 fbd14ff0  ZK.!ZJ.....B..O.
 600014b0 e0254d4e 4ff08039 dff884b1 dff884a1  .%MNO..9........
 600014c0 4ff0ff31 c5f8084d 0027c6f8 0491c6f8  O..1...M.'......
 600014d0 00b1c6f8 f490c6f8 f0a0d5f8 243ddff8  ............$=..
 600014e0 688143f4 e0234b4a c5f8243d d8f81c30  h.C..#KJ..$=...0
 600014f0 23f07f03 43f04003 c8f81c30 d8f82430  #...C.@....0..$0
 60001500 23f07f03 43f04003 c8f82430 9166d166  #...C.@...$0.f.f
 60001510 11675167 00f060fe 3f4b4049 a363404b  .gQg..`.?K@I.c@K
 60001520 e3636323 6b610323 af612b61 3d4bc5f8  .cc#ka.#.a+a=K..
 60001530 203dd5f8 fc3d43f0 8073c5f8 fc3d3a4b   =...=C..s...=:K
 60001540 1a6842f0 01021a60 5b680b60 01f08ef8  .hB....`[h.`....
 60001550 c6f80491 3548c6f8 00b1c6f8 f490c6f8  ....5H..........
 60001560 f0a001f0 79f9d8f8 6c10314b 314a41f4  ....y...l.1K1JA.
 60001570 4051c8f8 6c101f60 c3f80871 c3f81871  @Q..l..`...q...q
 60001580 c3f82871 c3f83871 936bdb07 08d442f6  ..(q..8q.k....B.
 60001590 15632949 51651365 936b43f0 01039363  .c)IQe.e.kC....c
 600015a0 244a264c 936843f0 01139360 00f09cfe  $J&L.hC....`....
 600015b0 00f0e0fd 01f058f9 01f086f8 00f006fe  ......X.........
 600015c0 2368132b fcd900f0 37fd2368 b3f5967f  #h.+....7.#h....
 600015d0 fbd300f0 fffd00f0 fbfd01f0 29f901f0  ............)...
 600015e0 2ff930bf fde700bf 00800d40 68f70100  /.0........@h...
 600015f0 e8310060 00000000 c05e0020 54290260  .1.`.....^. T).`
 60001600 00000020 005c0020 05460100 00e400e0  ... .\. .F......
 60001610 a0e400e0 00c00a40 d93e0100 90b30020  .......@.>..... 
 60001620 b53f0100 00002020 001000e0 0046c323  .?....  .....F.#
 60001630 00400840 00400d40 0000c056 94b30020  .@.@.@.@...V... 
 60001640 1b101820 0c0d1113 00c00f40 054b4ff4  ... .......@.KO.
 60001650 2a01054a 05485a64 1864054a 99639546  *..J.HZd.d.J.c.F
 60001660 fff7e6fe 00c00a40 ffaaaaaa 07002000  .......@...... .
 60001670 00000620 07ee901a dfed196a 10f4c01f  ... .......j....
 60001680 b8ee677a 07ee902a 00f07f02 f8ee677a  ..gz...*......gz
 60001690 87ee270a 07ee902a c0f3c142 f8eee77a  ..'....*...B...z
 600016a0 30ee270a 20ee260a 08d1f5ee 007a20ee  0.'. .&......z .
 600016b0 270a012b 0ad0032b 0dd07047 012af8d1  '..+...+..pG.*..
 600016c0 f6ee007a 012b20ee 270af4d1 f6ee007a  ...z.+ .'......z
 600016d0 20ee270a 7047f5ee 007a20ee 270a7047   .'.pG...z .'.pG
 600016e0 001bb74b dfed5d7a b4eee70a 2de9f043  ...K..]z....-..C
 600016f0 f1ee10fa 83b00446 0e461546 0a980cdc  .......F.F.F....
 60001700 dfed577a b4eee70a f1ee10fa 40f39480  ..Wz........@...
 60001710 b1ee006a 41220427 03e0b0ee 006a2122  ...jA".'.....j!"
 60001720 0227dfed 506a4ff0 880c1a70 4ff00008  .'..PjO....pO...
 60001730 c6ee807a 4c4a9fed 4d7a02f1 010e02f1  ...zLJ..Mz......
 60001740 1e01c7ee 866a01e0 1ef801cb 4fea1c13  .....j......O...
 60001750 0cf00f09 aeeb020c 13fb09f3 07ee903a  ...............:
 60001760 0cf1ff33 f8eee77a 77eee67a f0eee77a  ...3...zw..z...z
 60001770 f4eec77a f1ee10fa 02d5b0ee 677a9846  ...z........gz.F
 60001780 8e45e1d1 12f80830 20ee060a dfed386a  .E.....0 .....8j
 60001790 4fea1318 037003f0 0f039fed 367a18fb  O....p......6z..
 600017a0 03f807ee 908af8ee e77a60ee 277a87ee  .........z`.'z..
 600017b0 a60ab4ee c70af1ee 10fa3ad4 dfed2e7a  ..........:....z
 600017c0 b4ee670a f1ee10fa 37fe800a 01a807fb  ..g.....7.......
 600017d0 08f801f0 25f8dfed 297added 016a6ff0  ....%...)z...jo.
 600017e0 604220ee 270a9fed 226afcee e66a07ee  `B .'..."j...j..
 600017f0 908abcee c07a16ee 903af8ee e77a2370  .....z...:...z#p
 60001800 f8ee475a 2a6086ed 007ad5ed 006a2378  ..GZ*`...z...j#x
 60001810 f8ee666a 07ee103a 85eea60a b8ee477a  ..fj...:......Gz
 60001820 30ee070a 20ee060a 80ee270a 03b0bde8  0... .....'.....
 60001830 f083b0ee 470ac9e7 9fed117a b2ee006a  ....G......z...j
 60001840 f3ee007a b4eec70a f1ee10fa cbbf4222  ...z..........B"
 60001850 44220827 102736fe 276a62e7 daf81a4d  D".'.'6.'jb....M
 60001860 daf89a4c 4775684e 48260020 0000807f  ...LGuhNH&. ....
 60001870 001bb74b fca9d841 02ab5842 0000004e  ...K...A..XB...N
 60001880 daf81a4c 026838b5 2e4b9a42 15d02e4b  ...L.h8..K.B...K
 60001890 1a6a9d6a c2f3c142 9c6ac5f3 4225012a  .j.j...B.j..B%.*
 600018a0 c4f34264 16d0022a 35d0d2b1 631c2748  ..Bd...*5...c.'H
 600018b0 05fb0333 b0fbf3f0 38bda3f5 30231a6b  ...3....8...0#.k
 600018c0 1d6bc2f3 c1121c6b c5f30235 012ac4f3  .k.....k...5.*..
 600018d0 4224e8d1 631c1e48 05fb0333 b0fbf3f0  B$..c..H...3....
 600018e0 38bd1c4a d2f87031 106f990d c3f3c033  8..J..p1.o.....3
 600018f0 01f00201 0b43d2f8 8010d2f8 9020fff7  .....C....... ..
 60001900 b9fefcee c07a631c 17ee900a 05fb0333  .....zc........3
 60001910 b0fbf3f0 38bd0f4b d3f8a000 d3f8b010  ....8..K........
 60001920 d3f8c020 d3f87031 9b0ffff7 a3fefcee  ... ..p1........
 60001930 c07a631c 17ee900a 05fb0333 b0fbf3f0  .zc........3....
 60001940 38bd00bf 00c01a40 00c00f40 00389c1c  8......@...@.8..
 60001950 80204b1e 00800d40 094b0a68 10b40468  . K....@.K.h...h
 60001960 9c4208bf 9a420cbf 01200020 05d09c42  .B...B... . ...B
 60001970 18bf9a42 14bf0120 00205df8 044b7047  ...B... . ]..KpG
 60001980 00c01a40 022970b4 08d1274c 4ff48835  ...@.)p...'LO..5
 60001990 c4f8a850 4ff40055 c4f8a450 234c0568  ...PO..U...P#L.h
 600019a0 a54222d0 4568c904 5b062868 01f4c011  .B".Eh..[.(h....
 600019b0 6e685202 046803f0 606302f4 606224ea  nhR..h..`c..`b$.
 600019c0 06040460 1a4c266a 26f4c01c 41ea0c01  ...`.L&j&...A...
 600019d0 2162a16a 21f00e21 0b431a43 a2626a68  !b.j!..!.C.C.bjh
 600019e0 03681343 70bc0360 70474068 5b021203  .h.Cp..`pG@h[...
 600019f0 046803f4 60634668 02f4e042 2568c901  .h..`cFh...B%h..
 60001a00 25ea0605 0a4e01f4 c0712560 356b25f4  %....N...q%`5k%.
 60001a10 ff452b43 13430b43 33632368 42681343  .E+C.C.C3c#hBh.C
 60001a20 236070bc 704700bf 00800d40 00c01a40  #`p.pG.....@...@
 60001a30 00c00f40 70b53f4c 8822dfed 3f7a0026  ...@p.?L."..?z.&
 60001a40 611c9fed 3e7ac7ee 806a04f1 1e0c0d46  a...>z...j.....F
 60001a50 01e015f8 012b1309 02f00f0e 2a1b13fb  .....+......*...
 60001a60 0ef307ee 903a531e f8eee77a 77eee67a  .....:S....zw..z
 60001a70 f0eee77a b4eee77a f1ee10fa 02ddb0ee  ...z...z........
 60001a80 677a1e46 6545e4d1 dfed2d7a 8822a65d  gz.FeE....-z.".]
 60001a90 002587ee 806adfed 296a01e0 11f8012b  .%...j..)j.....+
 60001aa0 130902f0 0f0e0a1b 13fb0ef3 07ee903a  ...............:
 60001ab0 531ef8ee e77a77ee c67af0ee e77af4ee  S....zw..z...z..
 60001ac0 e76af1ee 10fa02dd f0ee676a 1d466145  .j........gj.FaE
 60001ad0 e4d1f4ee c76a635d f1ee10fa 14db3409  .....jc]......4.
 60001ae0 06f00f06 03219fed 147a621e 731e14fb  .....!...zb.s...
 60001af0 06f4dbb2 07ee904a d2b2fff7 43fff8ee  .......J....C...
 60001b00 e77a87ee 270a70bd 1c0903f0 0f050121  .z..'.p........!
 60001b10 9fed0b7a 621e6b1e 14fb05f4 dbb207ee  ...zb.k.........
 60001b20 904ad2b2 fff72eff f8eee77a 87ee270a  .J.........z..'.
 60001b30 70bd00bf 48260020 c0e1e44d 0000807f  p...H&. ...M....
 60001b40 0459f24d 30b587b0 0df10f04 0df10e03  .Y.M0...........
 60001b50 05aa04a9 00940446 0df10d00 fff7c2fd  .......F........
 60001b60 9df80e20 9df80d30 10091d49 03f03f03  ... ...0...I..?.
 60001b70 02f00f02 a0f10200 022ab0fa 80f04fea  .........*....O.
 60001b80 501043ea c0430b67 049bc1f8 8030059b  P.C..C.g.....0..
 60001b90 c1f89030 20d0042a 18d1124b 1d46c1f8  ...0 ..*...K.F..
 60001ba0 78310f4b 4ff40052 20460021 c3f87451  x1.KO..R F.!..tQ
 60001bb0 5a679df8 0f2002f0 0f031209 013b013a  Zg... .......;.:
 60001bc0 dbb2d2b2 fff7defe 07b030bd 0025044b  ..........0..%.K
 60001bd0 044ac3f8 7821e4e7 4ff40045 f7e700bf  .J..x!..O..E....
 60001be0 00800d40 00808000 10b586b0 0df10f04  ...@............
 60001bf0 0df10e03 05aa04a9 00940446 0df10d00  ...........F....
 60001c00 fff770fd 9df80e20 9df80d30 10091c49  ..p.... ...0...I
 60001c10 03f07f03 02f00f02 a0f10200 022ab0fa  .............*..
 60001c20 80f04fea 501043ea c043c1f8 a030049b  ..O.P.C..C...0..
 60001c30 c1f8b030 059bc1f8 c0301ed0 042a14bf  ...0.....0...*..
 60001c40 00214ff0 40410e4b 4ff04042 2046c3f8  .!O.@A.KO.@B F..
 60001c50 78214ff4 0052c3f8 74110221 c3f8a420  x!O..R..t..!... 
 60001c60 9df80f20 02f00f03 1209013b 013adbb2  ... .......;.:..
 60001c70 d2b2fff7 87fe06b0 10bd4ff0 8041e2e7  ..........O..A..
 60001c80 00800d40 f8b50546 002605f1 140405f1  ...@...F.&......
 60001c90 a4073146 40f8046b 00f0eefd 04f8046c  ..1F@..k.......l
 60001ca0 00212046 00f0e8fd 002104f1 0c0000f0  .! F.....!......
 60001cb0 e3fd04f1 18003034 002100f0 ddfdbc42  ......04.!.....B
 60001cc0 ecd12846 f8bd00bf f8b5194c 05462378  ..(F.......L.F#x
 60001cd0 bbb9071d 05f17004 a5f12006 04f11c00  ......p... .....
 60001ce0 00f096fd 04f11000 00f092fd 201d303c  ............ .0<
 60001cf0 00f08efd b442f1d1 384600f0 89fd2846  .....B..8F....(F
 60001d00 f8bd0068 2f4600f0 87fd0023 06460949  ...h/F.....#.F.I
 60001d10 47f8043b 38462370 00f0b2fd 002ed9d0  G..;8F#p........
 60001d20 304600f0 81fd0446 00f086fd 0460d1e7  0F.....F.....`..
 60001d30 f9b30020 a01e0020 2448254b d0f88020  ... ... $H%K... 
 60001d40 244942f4 405210b4 c0f88020 224c234a  $IB.@R..... "L#J
 60001d50 1c602348 5a60234a 1862234c 5a622348  .`#HZ`#J.b#LZb#H
 60001d60 234a9c62 46f62014 d86240f6 a3101a63  #J.bF. ..b@....c
 60001d70 4ff4c862 59635963 4ff4c841 dc603f24  O..bYcYcO..A.`?$
 60001d80 9860d961 9a611a68 1a4822f0 80021a49  .`.a.a.h.H"....I
 60001d90 1a601a68 22f00c02 1a601a68 22f00302  .`.h"....`.h"...
 60001da0 42f00202 1a605c61 18610020 d3f8a020  B....`\a.a. ... 
 60001db0 5df8044b 22f00202 c3f8a020 1a6822f4  ]..K"...... .h".
 60001dc0 80321a60 da6f1b6c 08607047 00c00f40  .2.`.o.l.`pG...@
 60001dd0 00c00c40 2f002e00 40100100 22000100  ...@/...@..."...
 60001de0 68050c01 9501b200 dc007a00 7d005800  h.........z.}.X.
 60001df0 4b004000 c409800c 6cb20020 074a1368  K.@.....l.. .J.h
 60001e00 43f48033 13601368 9b04fcd5 044ad2f8  C..3.`.h.....J..
 60001e10 803023f4 4053c2f8 80307047 00c00c40  .0#.@S...0pG...@
 60001e20 00c00f40 00b583b0 019000f0 21fd0198  ...@........!...
 60001e30 03b05df8 04fb00bf 38b50446 00254ff0  ..].....8..F.%O.
 60001e40 ff330d49 25721030 c4e90035 00f014fd  .3.I%r.0...5....
 60001e50 0120e561 20842046 84f82250 e5622565  . .a . F.."P.b%e
 60001e60 c4e90955 c4e90c55 c4e90e55 c4e91055  ...U...U...U...U
 60001e70 c4e91255 38bd00bf 10370020 10b50446  ...U8....7. ...F
 60001e80 00f0e2fc e36c23b1 04f14401 03220846  .....l#...D..".F
 60001e90 9847e36b 23b104f1 34010322 08469847  .G.k#...4..".F.G
 60001ea0 e36a23b1 04f12401 03220846 984704f1  .j#...$..".F.G..
 60001eb0 100000f0 adfc2046 10bd00bf 43690a4a  ...... F....Ci.J
 60001ec0 03eb0110 10b4037a 084c02eb 0313d3e9  .......z.L......
 60001ed0 01321460 c2681a60 03690bb1 42691a60  .2.`.h.`.i..Bi.`
 60001ee0 5df8044b 704700bf c82b0020 61f80100  ]..KpG...+. a...
 60001ef0 4369027e 03eb0212 92f808c0 8c451cd0  Ci.~.........E..
 60001f00 1a7aff2a 19d09142 10b50446 16d01a7e  .z.*...B...F...~
 60001f10 ff2a06d0 0121d3e9 00231268 1a4201d1  .*...!...#.h.B..
 60001f20 217610bd 064b0522 204603eb 0c135b68  !v...K." F....[h
 60001f30 1a60fff7 c3ff2176 f3e77047 0021eae7  .`....!v..pG.!..
 60001f40 c82b0020 43690a4a 03eb0110 10b490f8  .+. Ci.J........
 60001f50 2830084c 02eb0313 d3e90132 1460c26a  (0.L.......2.`.j
 60001f60 1a60036b 0bb1426b 1a605df8 044b7047  .`.k..Bk.`]..KpG
 60001f70 c82b0020 61f80100 4369427e 03eb0212  .+. a...CiB~....
 60001f80 92f828c0 8c451ed0 93f82820 ff2a1ad0  ..(..E....( .*..
 60001f90 914210b5 044617d0 93f83820 ff2a06d0  .B...F....8 .*..
 60001fa0 0121d3e9 00231268 1a4201d1 617610bd  .!...#.h.B..av..
 60001fb0 064b0522 204603eb 0c135b68 1a60fff7  .K." F....[h.`..
 60001fc0 c1ff6176 f3e77047 0021eae7 c82b0020  ..av..pG.!...+. 
 60001fd0 16494269 8b6b23f4 7c0343f4 802370b5  .IBi.k#.|.C..#p.
 60001fe0 8b630446 124dd2e9 00130a68 1a430369  .c.F.M.....h.C.i
 60001ff0 0a600222 00211a61 0e4a1961 9a640122  .`.".!.a.J.a.d."
 60002000 5a629d62 4ff43035 dd624ff0 01159e6c  Zb.bO.05.bO....l
 60002010 1e651962 9d651a61 017efff7 4fff617e  .e.b.e.a.~..O.a~
 60002020 2046bde8 7040fff7 8dbf00bf 00c00f40   F..p@.........@
 60002030 b80b0505 3b372819 314b40f6 617210b5  ....;7(.1K@.ar..
 60002040 c3f82021 40f20444 00f0defb 2d4a2e49  .. !@..D....-J.I
 60002050 d2f88030 2d4843f0 0303c2f8 80302c4b  ...0-HC......0,K
 60002060 c1f86041 02681a42 03d1d1f8 a8319a07  ..`A.h.B.....1..
 60002070 1bd0254a 4ff00041 244b5963 d2f84031  ..%JO..A$KYc..@1
 60002080 43f00203 c2f84031 d2f84031 9b07fbd4  C.....@1..@1....
 60002090 4ff40030 4ff0e021 1c4b4ff0 0042c1f8  O..0O..!.KO..B..
 600020a0 8c021920 9a6300f0 effb184a 4ff08040  ... .c.....JO..@
 600020b0 154c0021 90630a20 164b1160 4ff46072  .L.!.c. .K.`O.`r
 600020c0 c4f8a801 184600f0 cbfb4ff4 80020346  .....F....O....F
 600020d0 4ff48100 40f24311 1860c4f8 58311a64  O...@.C..`..X1.d
 600020e0 0d4b0e4a c4f84811 c3f80422 4ff0e022  .K.J..H...."O.."
 600020f0 4ff40031 0123c2f8 0c11c4f8 403110bd  O..1.#......@1..
 60002100 00800d40 00c00f40 00002e40 00900d40  ...@...@...@...@
 60002110 001c1e00 00000020 005c0020 a9300100  ....... .\. .0..
 60002120 08b50e4b 1b6e9b07 00d4fbbe 72b60c4b  ...K.n......r..K
 60002130 00200c4a c3f84001 03f16043 0a49a3f5  . .J..@...`C.I..
 60002140 5f231164 9d46bff3 4f8f4ff4 00130748  _#.d.F..O.O....H
 60002150 074adb69 02609b68 984700bf 00441f40  .J.i.`.h.G...D.@
 60002160 00002e40 00c00a40 03002000 00802020  ...@...@.. ...  
 60002170 000012eb 104ba020 104ad96e 41f44031  .....K. .J.nA.@1
 60002180 10b4d966 40f23764 d96e41f4 4071d966  ...f@.7d.nA.@q.f
 60002190 54649064 936c1b06 fcd4094a 40f23761  Td.d.l.....J@.7a
 600021a0 a0235164 9364936c 13f08003 fbd1054a  .#Qd.d.l.......J
 600021b0 13705df8 044b7047 00c00f40 00400c40  .p]..KpG...@.@.@
 600021c0 00800c40 feb30020 704700bf 704700bf  ...@... pG..pG..
 600021d0 704700bf 00bf7047 10b44ff0 e0230021  pG....pG..O..#.!
 600021e0 10243148 c3f8941d c3f89c4d 1124c3f8  .$1H.......M.$..
 600021f0 a00d2e48 c3f89c4d 1224c3f8 a00d2c48  ...H...M.$....,H
 60002200 c3f89c4d 2b4ac3f8 a00d2b4c 42f01502  ...M+J....+LB...
 60002210 2a48c3f8 9c4dc3f8 a00d294c 2948c3f8  *H...M....)L)H..
 60002220 9c4dc3f8 a00d284c c3f89c2d 2748284a  .M....(L...-'H(J
 60002230 c3f8a04d c3f89c0d c3f8a02d 02f5a022  ...M.......-..."
 60002240 244c0c32 2448c3f8 9c4dc3f8 a02d234a  $L.2$H...M...-#J
 60002250 c3f89c0d 224cc3f8 a02d02f1 4062c3f8  ...."L...-..@b..
 60002260 9c4d2048 c3f8a02d 0c32c3f8 9c0dc3f8  .M H...-.2......
 60002270 a02d00bf 00bf00bf 00bf00bf 0122c3f8  .-..........."..
 60002280 942dbff3 4f8fbff3 6f8fc3f8 501fbff3  .-..O...o...P...
 60002290 4f8fbff3 6f8fd3f8 142d5df8 044b42f4  O...o....-]..KB.
 600022a0 4032c3f8 142d7047 3f000010 25000807  @2...-pG?...%...
 600022b0 09001000 40b40020 13002000 21000207  ....@.. .. .!...
 600022c0 14000020 25000813 09000010 16002020  ... %.........  
 600022d0 27000b13 17000040 18000060 2f000b07  '......@...`/...
 600022e0 19000070 1a000080 f0b5b84b 1822b84e  ...p.......K.".N
 600022f0 0120b84f 83b0c3f8 5c62b749 c3f86072  . .O....\b.I..`r
 60002300 b64dc3f8 6462a6f5 3046b54c c3f86862  .M..db..0F.L..hb
 60002310 c3f86c52 c3f87052 c3f87452 c3f87852  ..lR..pR..tR..xR
 60002320 48f20c75 da661a67 5a679a67 da67c3f8  H..u.f.gZg.g.g..
 60002330 8020c3f8 8420c3f8 8820c1f8 2c03a94a  . ... ... ..,..J
 60002340 c1f83003 c1f83403 c1f83803 c1f83c03  ..0...4...8...<.
 60002350 c1f85003 a169a44b 0a40a448 a4491343  ..P..i.K.@.H.I.C
 60002360 a44aa361 d4f88430 43f00c03 c4f88430  .J.a...0C......0
 60002370 4ff0ff34 036843f0 02030360 03682b40  O..4.hC....`.h+@
 60002380 4ff40055 1a439c4b 02604460 8a689b4c  O..U.C.K.`D`.h.L
 60002390 13409b4a 43f00053 8360c368 23f07803  .@.JC..S.`.h#.x.
 600023a0 c360036a 13402343 0362036a 1340954a  .`.j.@#C.b.j.@.J
 600023b0 2343954c 43628262 c2620022 d1f8b830  #C.LCb.b.b."...0
 600023c0 23f03f03 43f00103 c0f8b830 d1f8bc30  #.?.C......0...0
 600023d0 8e4923f0 3f0343f0 0103c0f8 bc3040f2  .I#.?.C......0@.
 600023e0 05630261 05660467 c0f88030 45664467  .c.a.f.g...0EfDg
 600023f0 0224c0f8 84300368 23f00203 03608161  .$...0.h#....`.a
 60002400 834b8449 c46143f8 042b8b42 fbd1774a  .K.I.aC..+.B..wJ
 60002410 136843f0 01031360 136813f0 0103fbd1  .hC....`.h......
 60002420 7a480221 40f2f564 906140f2 9940d161  zH.!@..d.a@..@.a
 60002430 40f26641 c2f80042 42f20144 c2f81012  @.fA...BB..D....
 60002440 7549c2f8 2002c2f8 301240f2 35417348  uI.. ...0.@.5AsH
 60002450 c2f83442 c2f84012 714cc2f8 500242f2  ..4B..@.qL..P.B.
 60002460 01207049 c2f85412 0121c2f8 6042c2f8  . pI..T..!..`B..
 60002470 64025e48 c2f8a030 c2f8a430 c2f8b010  d.^H...0...0....
 60002480 4369da07 fcd50123 00244ff4 80325749  Ci.....#.$O..2WI
 60002490 4361c0f8 a040c0f8 a420c0f8 b0304b69  Ca...@... ...0Ki
 600024a0 db07fcd5 01230024 4ff40030 4f4a4b61  .....#.$O..0OJKa
 600024b0 c1f8a040 c1f8a400 c1f8b030 5369df07  ...@.......0Si..
 600024c0 fcd50123 00245848 48495361 c2f8a040  ...#.$XHHISa...@
 600024d0 c2f8a400 c2f8b030 4b69de07 fcd5d1f8  .......0Ki......
 600024e0 003145f6 0d522120 9bb24861 934265d1  .1E..R! ..Ha.Be.
 600024f0 00244ff4 80220123 3c48c1f8 a040c1f8  .$O..".#<H...@..
 60002500 a420c1f8 b0304369 dd07fcd5 01234ff4  . ...0Ci.....#O.
 60002510 00040021 354a4361 c0f8a040 c0f8a410  ...!5JCa...@....
 60002520 c0f8b030 5369dc07 fcd50123 4ff40004  ...0Si.....#O...
 60002530 4ff48030 2d495361 c2f8a040 c2f8a400  O..0-ISa...@....
 60002540 c2f8b030 4b69d807 fcd50123 4ff40004  ...0Ki.....#O...
 60002550 4ff40030 254a4b61 c1f8a040 c1f8a400  O..0%JKa...@....
 60002560 c1f8b030 5369d907 fcd50123 4ff40004  ...0Si.....#O...
 60002570 2d481e49 5361c2f8 a040c2f8 a400c2f8  -H.ISa...@......
 60002580 b0304b69 da07fcd5 d1f80031 45f60d52  .0Ki.......1E..R
 60002590 21209bb2 48619342 50d00825 4ff40004  ! ..Ha.BP..%O...
 600025a0 22490020 224b234a 00901570 5a1a0123  "I. "K#J...pZ..#
 600025b0 21482244 00f04cf9 03b0f0bd 1e4b0022  !H"D..L......K."
 600025c0 c3e90022 c3e90222 03b0f0bd 00801f40  ..."...".......@
 600025d0 f9b00100 f9100100 00841f40 f9700100  ...........@.p..
 600025e0 00c00f40 fffcff1f 000300a0 00402a40  ...@.........@*@
 600025f0 00802a40 1200ffff ff37f700 40000080  ..*@.....7..@...
 60002600 00fff07c ff000f83 63000200 f05af05a  ...|....c....Z.Z
 60002610 00422a40 00432a40 9f041830 eb06180a  .B*@.C*@...0....
 60002620 3806180a 06320126 04000300 00000070  8....2.&.......p
 60002630 00000070 00b40020 04a60020 4ff40004  ...p... ... O...
 60002640 4ff48022 01230848 c1f8a040 c1f8a420  O..".#.H...@... 
 60002650 c1f8b030 4369db07 fcd50123 10254ff0  ...0Ci.....#.%O.
 60002660 80744361 9ce700bf 00402a40 f0b4154a  .tCa.....@*@...J
 60002670 40274ff4 80314ff4 80564ff4 00554ff4  @'O..1O..VO..UO.
 60002680 404443f2 42001369 13f0020f 0ed113f4  @DC.B..i........
 60002690 005f0fd0 13f4805f 0ed0002b f3da13f4  ._....._...+....
 600026a0 803f0bd1 5b060bd5 f0bc7047 94615161  .?..[.....pG.aQa
 600026b0 9061e8e7 5561e6e7 5661e4e7 9161e2e7  .a..Ua..Va...a..
 600026c0 5761e0e7 00800d40 3f4a0320 3f49f3ee  Wa.....@?J. ?I..
 600026d0 095ad2f8 80304ff0 000c9fed 3d6a23f0  .Z...0O.....=j#.
 600026e0 01039fed 3c5a30b4 c2f88030 c2f89000  ....<Z0....0....
 600026f0 d1f8e010 384dcbb2 384c3948 2b6007ee  ....8M..8L9H+`..
 60002700 903a0b0d c1f30b21 f8eee77a 06ee903a  .:.....!...z...:
 60002710 07ee101a 334bb8ee c77a2160 f8eee66a  ....3K...z!`...j
 60002720 314937ee c66a37ee c55a76ee c76a77ee  1I7..j7..Zv..jw.
 60002730 e57a26ee 266ac3ed 006a25ee 265ad2f8  .z&.&j...j%.&Z..
 60002740 803067ee a64ac0ed 007ac6ee 275a2748  .0g..J...z..'Z'H
 60002750 85ee276a c4eea76a 75ee875a fceee55a  ..'j...ju..Z...Z
 60002760 36ee076a 15ee904a bceec66a 43ea0453  6..j...J...jC..S
 60002770 76ee877a c2f88030 16ee103a d2f89041  v..z...0...:...A
 60002780 fceee77a 01ea0341 214317ee 903ac2f8  ...z...A!C...:..
 60002790 9011c3f3 0b03d2f8 90110b43 1449c2f8  ...........C.I..
 600027a0 9031d2f8 803043f0 0203c2f8 8030114b  .1...0C......0.K
 600027b0 80f840c0 c1f84031 4ff0e023 012230bc  ..@...@1O..#."0.
 600027c0 c3f80821 704700bf 00810d40 00441f40  ...!pG.....@.D.@
 600027d0 0000aa42 0000b442 74b20020 70b20020  ...B...Bt.. p.. 
 600027e0 78b20020 84b20020 0000ff0f 00e400e0  x.. ... ........
 600027f0 005c0020 954a0100 f8b500bf f8bc08bc  .\. .J..........
 60002800 9e467047 00000000 5ff800f0 214c0100  .FpG...._...!L..
 60002810 5ff800f0 e1540100 5ff800f0 cd310000  _....T.._....1..
 60002820 5ff800f0 116f0100 5ff800f0 6d220000  _....o.._...m"..
 60002830 5ff800f0 599b0100 5ff800f0 f5770100  _...Y..._....w..
 60002840 5ff800f0 ad6b0100 5ff800f0 49550000  _....k.._...IU..
 60002850 5ff800f0 85400100 5ff800f0 2d380100  _....@.._...-8..
 60002860 5ff800f0 5d9a0100 5ff800f0 dd440100  _...]..._....D..
 60002870 5ff800f0 691b0000 5ff800f0 a5540100  _...i..._....T..
 60002880 5ff800f0 59550100 5ff800f0 15680100  _...YU.._....h..
 60002890 05010000 09060000 c1080000 01180000  ................
 600028a0 c5180000 81190000 751a0000 ed1a0000  ........u.......
 600028b0 9d1c0000 0d1d0000 cd1d0000 b9530000  .............S..
 600028c0 69540000 d5550000 b57e0000 bda20000  iT...U...~......
 600028d0 51a40000 8da40000 f52d0100 a53c0100  Q........-...<..
 600028e0 f53c0100 b5690100 a96a0100 596b0100  .<...i...j..Yk..
 600028f0 156c0100 d16c0100                    .l...l..        
Contents of section .text.progmem:
 600028f8 14801f40 18801f40 1c801f40 20801f40  ...@...@...@ ..@
 60002908 24801f40 28801f40 2c801f40 30801f40  $..@(..@,..@0..@
 60002918 34801f40 38801f40 3c801f40 40801f40  4..@8..@<..@@..@
 60002928 7c801f40 80801f40 84801f40 88801f40  |..@...@...@...@
 60002938 3c811f40 40811f40 44811f40 48811f40  <..@@..@D..@H..@
 60002948 4c811f40 50811f40 54811f40 58811f40  L..@P..@T..@X..@
 60002958 5c811f40 60811f40 64811f40 68811f40  \..@`..@d..@h..@
 60002968 6c811f40 70811f40 74811f40 78811f40  l..@p..@t..@x..@
 60002978 7c811f40 80811f40 84811f40 88811f40  |..@...@...@...@
 60002988 8c811f40 90811f40 94811f40 98811f40  ...@...@...@...@
 60002998 9c811f40 a0811f40 a4811f40 a8811f40  ...@...@...@...@
 600029a8 ac811f40 b0811f40 b4811f40 b8811f40  ...@...@...@...@
 600029b8 fc801f40 00811f40 04811f40 08811f40  ...@...@...@...@
 600029c8 0c811f40 10811f40 14811f40 18811f40  ...@...@...@...@
 600029d8 1c811f40 20811f40 24811f40 28811f40  ...@ ..@$..@(..@
 600029e8 2c811f40 30811f40 34811f40 38811f40  ,..@0..@4..@8..@
 600029f8 7c811f40 80811f40 84811f40 88811f40  |..@...@...@...@
 60002a08 8c811f40 90811f40 94811f40 98811f40  ...@...@...@...@
 60002a18 9c811f40 a0811f40 a4811f40 a8811f40  ...@...@...@...@
 60002a28 ac811f40 b0811f40 b4811f40 b8811f40  ...@...@...@...@
 60002a38 20370020 08300000 30370020 2c300000   7. .0..07. ,0..
 60002a48 44370020 3a300000 54370020 3b300000  D7. :0..T7. ;0..
 60002a58 64370020 3c300000 74370020 3d300000  d7. <0..t7. =0..
 60002a68 84370020 03350000 94370020 00380000  .7. .5...7. .8..
 60002a78 a0370020 01380000 ac370020 02380000  .7. .8...7. .8..
 60002a88 b8370020 03380000 c4370020 04380000  .7. .8...7. .8..
 60002a98 d4370020 05380000 e4370020 06380000  .7. .8...7. .8..
 60002aa8 f4370020 07380000 04380020 08380000  .7. .8...8. .8..
 60002ab8 14380020 09380000 24380020 0a380000  .8. .8..$8. .8..
 60002ac8 34380020 0b380000 44380020 0c380000  48. .8..D8. .8..
 60002ad8 54380020 0d380000 64380020 0e380000  T8. .8..d8. .8..
 60002ae8 74380020 0f380000 84380020 10380000  t8. .8...8. .8..
 60002af8 90380020 11380000 9c380020 12380000  .8. .8...8. .8..
 60002b08 a8380020 13380000 b4380020 14380000  .8. .8...8. .8..
 60002b18 c0380020 15380000 cc380020 20380000  .8. .8...8.  8..
 60002b28 dc380020 21380000 ec380020 24380000  .8. !8...8. $8..
 60002b38 f8380020 01420000 08390020 02420000  .8. .B...9. .B..
 60002b48 18390020 00430000 28390020 40470000  .9. .C..(9. @G..
 60002b58 3c390020 01500000 4c390020 1f500000  <9. .P..L9. .P..
 60002b68 58390020 3d500000 70390020 01560000  X9. =P..p9. .V..
 60002b78 80390020 02560000 90390020 03560000  .9. .V...9. .V..
 60002b88 a0390020 04560000 b0390020 05560000  .9. .V...9. .V..
 60002b98 c0390020 06560000 d0390020 80560000  .9. .V...9. .V..
 60002ba8 dc390020 81560000 e8390020 82560000  .9. .V...9. .V..
 60002bb8 f4390020 83560000 003a0020 84560000  .9. .V...:. .V..
 60002bc8 0c3a0020 85560000 183a0020 86560000  .:. .V...:. .V..
 60002bd8 243a0020 87560000 303a0020 0c460000  $:. .V..0:. .F..
 60002be8 403a0020 02460000 503a0020 03460000  @:. .F..P:. .F..
 60002bf8 603a0020 04460000 703a0020 05460000  `:. .F..p:. .F..
 60002c08 803a0020 00440000 943a0020 01440000  .:. .D...:. .D..
 60002c18 a83a0020 02440000 bc3a0020 03440000  .:. .D...:. .D..
 60002c28 d03a0020 04440000 e43a0020 05440000  .:. .D...:. .D..
 60002c38 f83a0020 06440000 0c3b0020 07440000  .:. .D...;. .D..
 60002c48 203b0020 08440000 383b0020 09440000   ;. .D..8;. .D..
 60002c58 4c3b0020 0a440000 603b0020 0b440000  L;. .D..`;. .D..
 60002c68 743b0020 0c440000 883b0020 0d440000  t;. .D...;. .D..
 60002c78 9c3b0020 0e440000 64000000 14811f40  .;. .D..d......@
 60002c88 04000000 28841f40 01000000 04831f40  ....(..@.......@
 60002c98 38300100 64000000 b0811f40 02000000  80..d......@....
 60002ca8 28841f40 02000000 a0831f40 38300100  (..@.......@80..
 60002cb8 64000000 f4801f40 04000000 28841f40  d......@....(..@
 60002cc8 00000000 e4821f40 38300100 65000000  .......@80..e...
 60002cd8 18811f40 04000000 20841f40 01000000  ...@.... ..@....
 60002ce8 08831f40 38000000 65000000 b4811f40  ...@8...e......@
 60002cf8 02000000 20841f40 02000000 a4831f40  .... ..@.......@
 60002d08 38000000 65000000 f8801f40 04000000  8...e......@....
 60002d18 20841f40 00000000 e8821f40 38000000   ..@.......@8...
 60002d28 66000000 0c811f40 04000000 24841f40  f......@....$..@
 60002d38 00000000 fc821f40 38300100 66000000  .......@80..f...
 60002d48 ac811f40 02000000 24841f40 01000000  ...@....$..@....
 60002d58 9c831f40 38300100 67000000 10811f40  ...@80..g......@
 60002d68 04000000 00000000 00000000 00831f40  ...............@
 60002d78 38000000 67000000 b8811f40 02000000  8...g......@....
 60002d88 00000000 00000000 a8831f40 38000000  ...........@8...
 60002d98 02000000 38811f40 04000000 00841f40  ....8..@.......@
 60002da8 00000000 28831f40 38000000 02000000  ....(..@8.......
 60002db8 e8801f40 04000000 00841f40 01000000  ...@.......@....
 60002dc8 d8821f40 38000000 03000000 34811f40  ...@8.......4..@
 60002dd8 04000000 04841f40 00000000 24831f40  .......@....$..@
 60002de8 38000000 03000000 e4801f40 04000000  8..........@....
 60002df8 04841f40 01000000 d4821f40 38000000  ...@.......@8...
 60002e08 04000000 30811f40 04000000 08841f40  ....0..@.......@
 60002e18 00000000 20831f40 38000000 04000000  .... ..@8.......
 60002e28 e0801f40 04000000 08841f40 01000000  ...@.......@....
 60002e38 d0821f40 38000000 05000000 2c811f40  ...@8.......,..@
 60002e48 04000000 0c841f40 00000000 1c831f40  .......@.......@
 60002e58 38000000 05000000 dc801f40 04000000  8..........@....
 60002e68 0c841f40 01000000 cc821f40 38000000  ...@.......@8...
 60002e78 06000000 28811f40 04000000 10841f40  ....(..@.......@
 60002e88 00000000 18831f40 38000000 06000000  .......@8.......
 60002e98 d8801f40 04000000 10841f40 01000000  ...@.......@....
 60002ea8 08831f40 38000000 07000000 24811f40  ...@8.......$..@
 60002eb8 04000000 14841f40 00000000 14831f40  .......@.......@
 60002ec8 38000000 07000000 d4801f40 04000000  8..........@....
 60002ed8 14841f40 01000000 c4821f40 38000000  ...@.......@8...
 60002ee8 08000000 20811f40 04000000 18841f40  .... ..@.......@
 60002ef8 00000000 10831f40 38000000 08000000  .......@8.......
 60002f08 d0801f40 04000000 18841f40 01000000  ...@.......@....
 60002f18 c0821f40 38000000 09000000 1c811f40  ...@8..........@
 60002f28 04000000 1c841f40 00000000 0c831f40  .......@.......@
 60002f38 38000000 09000000 cc801f40 04000000  8..........@....
 60002f48 1c841f40 01000000 bc821f40 38000000  ...@.......@8...
 60002f58 80c00f40 00000003 19000000 10000000  ...@............
 60002f68 e8841f40 01000000 ff000000 ff000000  ...@............
 60002f78 00000000 00000000 18000000 10000000  ................
 60002f88 e4841f40 01000000 ff000000 ff000000  ...@............
 60002f98 00000000 00000000 1f000000 e92d0100  .............-..
 60002fa8 70c00f40 000c0000 11000000 11000000  p..@............
 60002fb8 e0841f40 02000000 2c000000 12000000  ...@....,.......
 60002fc8 e0841f40 01000000 10000000 11000000  ...@............
 60002fd8 dc841f40 02000000 2d000000 12000000  ...@....-.......
 60002fe8 dc841f40 01000000 1e000000 dd2d0100  ...@.........-..
 60002ff8 70c00f40 c0000000 12000000 13000000  p..@............
 60003008 d0841f40 01000000 ff000000 ff000000  ...@............
 60003018 00000000 00000000 13000000 13000000  ................
 60003028 cc841f40 01000000 ff000000 ff000000  ...@............
 60003038 00000000 00000000 1c000000 d12d0100  .............-..
 60003048 16035500 53004200 20004300 75007300  ..U.S.B. .C.u.s.
 60003058 74006f00 6d000000 18035400 65006500  t.o.m.....T.e.e.
 60003068 6e007300 79006400 75006900 6e006f00  n.s.y.d.u.i.n.o.
 60003078 04030904 0902ad00 050100c0 32080b00  ............2...
 60003088 02020201 00090400 00010202 01000524  ...............$
 60003098 00100105 24010101 04240206 05240600  ....$....$...$..
 600030a8 01070581 03100010 09040100 020a0000  ................
 600030b8 00070502 02400000 07058202 40000008  .....@......@...
 600030c8 0b020202 02010009 04020001 02020100  ................
 600030d8 05240010 01052401 01010424 02060524  .$....$....$...$
 600030e8 06020307 05830310 00400904 0300020a  .........@......
 600030f8 00000007 05040240 00000705 84024000  .......@......@.
 60003108 00090404 00020300 00000921 11010001  ...........!....
 60003118 221e0007 058503ff 03010705 0603ff03  "...............
 60003128 01000000 0902ad00 050100c0 32080b00  ............2...
 60003138 02020201 00090400 00010202 01000524  ...............$
 60003148 00100105 24010101 04240206 05240600  ....$....$...$..
 60003158 01070581 03100005 09040100 020a0000  ................
 60003168 00070502 02000200 07058202 00020008  ................
 60003178 0b020202 02010009 04020001 02020100  ................
 60003188 05240010 01052401 01010424 02060524  .$....$....$...$
 60003198 06020307 05830310 00050904 0300020a  ................
 600031a8 00000007 05040200 02000705 84020002  ................
 600031b8 00090404 00020300 00000921 11010001  ...........!....
 600031c8 221e0007 058503ff 03010705 0603ff03  "...............
 600031d8 01000000 0a060002 ef020140 01000000  ...........@....
Contents of section .text.itcm:
 00000 00000000 00000000 00000000 00000000  ................
 00010 00000000 00000000 00000000 00000000  ................
 00020 f8b54ff0 84439d69 5a691540 0dd0254f  ..O..C.iZi.@..%O
 00030 01269d61 95faa5f4 b4fa84f4 57f82430  .&.a........W.$0
 00040 06fa04f4 9847a543 f4d11f4b 9d695a69  .....G.C...K.iZi
 00050 15400dd0 1d4f0126 9d6195fa a5f4b4fa  .@...O.&.a......
 00060 84f457f8 243006fa 04f49847 a543f4d1  ..W.$0.....G.C..
 00070 174b9d69 5a691540 0dd0164f 01269d61  .K.iZi.@...O.&.a
 00080 95faa5f4 b4fa84f4 57f82430 06fa04f4  ........W.$0....
 00090 9847a543 f4d1104b 9d695a69 15400dd0  .G.C...K.iZi.@..
 000a0 0e4f0126 9d6195fa a5f4b4fa 84f457f8  .O.&.a........W.
 000b0 243006fa 04f49847 a543f4d1 bff34f8f  $0.....G.C....O.
 000c0 f8bd00bf 0c580020 00400042 8c580020  .....X. .@.B.X. 
 000d0 00800042 0c590020 00c00042 8c590020  ...B.Y. ...B.Y. 
 000e0 0548064b 1b1ad90f 01eba301 491002d0  .H.K........I...
 000f0 034b03b1 18477047 c05e0020 c05e0020  .K...GpG.^. .^. 
 00100 00000000 08b5054b 1bb10549 0548aff3  .......K...I.H..
 00110 0080bde8 0840fff7 e3bf00bf 00000000  .....@..........
 00120 e4b10020 00980260 90f81cc0 4160bcf1  ... ...`....A`..
 00130 020fc260 01d18368 184713f0 69be00bf  ...`...h.G..i...
 00140 f0b40468 40f20125 1e462561 a3b121b3  ...h@..%.F%a..!.
 00150 11f8015b 013b6566 256faf07 07d41546  ...[.;ef%o.....F
 00160 013e676f 1ab105f8 017b2a46 04686569  .>go.....{*F.hei
 00170 ed07f1d5 002bead1 6eb10368 196f8907  .....+..n..h.o..
 00180 fad41146 013e5b6f 002af5d0 01f8013b  ...F.>[o.*.....;
 00190 0a46002e f1d1f0bc 704790f8 3c50d9e7  .F......pG..<P..
 001a0 324b3349 30b5d3e9 11542079 c8771a6c  2K3I0....T y.w.l
 001b0 95f804c0 81f81cc0 087752b1 b2f5004f  .........wR....O
 001c0 23d32c49 11442a4a 1964d076 82f81bc0  #.,I.D*J.d.v....
 001d0 30bd1968 0f24d86c 8c6540f2 0134ca61  0..h.$.l.e@..4.a
 001e0 0c614ff4 7c544c61 03210468 246883f8  .aO.|TLa.!.h$h..
 001f0 3d10214b 9c4226d1 037f4260 022bc260  =.!K.B&...B`.+.`
 00200 26d18368 bde83040 18472d68 e98b0904  &..h..0@.G-h....
 00210 22d492b2 ea832168 ec8ba4b2 ec82cc8b  ".....!h........
 00220 240405d5 cc8bc2f3 080204f4 7e442243  $...........~D"C
 00230 ca83ca8b 92b2ca82 00210d4a 1964d076  .........!.J.d.v
 00240 82f81bc0 30bd2346 1146bde8 30401847  ....0.#F.F..0@.G
 00250 bde83040 13f0dcbd e98bc2f3 080e92b2  ..0@............
 00260 01f47e41 41ea0e01 e983d4e7 a0980020  ..~AA.......... 
 00270 00800e40 0180ffff 29010000 324b3349  ...@....)...2K3I
 00280 30b5d3e9 11542079 c8771a6c 95f804c0  0....T y.w.l....
 00290 81f81cc0 087752b1 b2f5004f 23d32c49  .....wR....O#.,I
 002a0 11442a4a 1964d076 82f81bc0 30bd1968  .D*J.d.v....0..h
 002b0 0f24d86c 8c6540f2 0134ca61 0c614ff4  .$.l.e@..4.a.aO.
 002c0 7c544c61 03210468 246883f8 3d10214b  |TLa.!.h$h..=.!K
 002d0 9c4226d1 037f4260 022bc260 26d18368  .B&...B`.+.`&..h
 002e0 bde83040 18472d68 e98b0904 22d492b2  ..0@.G-h...."...
 002f0 ea832168 ec8ba4b2 ec82cc8b 240405d5  ..!h........$...
 00300 cc8bc2f3 080204f4 7e442243 ca83ca8b  ........~D"C....
 00310 92b2ca82 00210d4a 1964d076 82f81bc0  .....!.J.d.v....
 00320 30bd2346 1146bde8 30401847 bde83040  0.#F.F..0@.G..0@
 00330 13f06ebd e98bc2f3 080e92b2 01f47e41  ..n...........~A
 00340 41ea0e01 e983d4e7 50980020 00800e40  A.......P.. ...@
 00350 0180ffff 29010000 0023c0e9 0012c0e9  ....)....#......
 00360 0233c0e9 0433c0e9 0633c0e9 0833c0e9  .3...3...3...3..
 00370 0a33c0e9 0c338363 8387c0e9 1033c0e9  .3...3.c.....3..
 00380 12337047 43682de9 f04fd3e9 0041814d  .3pGCh-..O...A.M
 00390 4ff0b80a 22684ff0 020822ea 01027e49  O..."hO..."...~I
 003a0 2260aa69 11407d4a 0a43aa61 90f810e0  "`.i.@}J.C.a....
 003b0 7b4a03eb 0e0603eb 8e0e317c 02eb0111  {J........1|....
 003c0 8968c1f8 00a090f8 11c003eb 0c050cf1  .h..............
 003d0 0a0c95f8 241002eb 01118968 c1f800a0  ....$......h....
 003e0 817c03eb 010903eb 810199f8 38b002eb  .|..........8...
 003f0 0b1bdbf8 08b0cbf8 00a0d4f8 00a05f68  .............._h
 00400 4aea070a c4f800a0 347cdef8 14e002eb  J.......4|......
 00410 04146468 c4f800e0 95f82440 53f82cc0  ..dh......$@S.,.
 00420 02eb0414 6468c4f8 00c0c96b 99f83840  ....dh.....k..8@
 00430 02eb0412 52681160 9a6c99f8 44101160  ....Rh.`.l..D..`
 00440 1a6a317f 5b6b1160 95f83020 1a600f22  .j1.[k.`..0 .`."
 00450 0368c3f8 10809a65 c27c002a 31d072b6  .h.....e.|.*1.r.
 00460 c37cdc07 08d54ff0 e0214469 d1f88021  .|....O..!Di...!
 00470 22408262 c1f88021 990708d5 4ff0e021  "@.b...!....O..!
 00480 8469d1f8 84212240 c262c1f8 84215a07  .i...!"@.b...!Z.
 00490 08d54ff0 e021c469 d1f88821 22400263  ..O..!.i...!"@.c
 004a0 c1f88821 1f0708d5 4ff0e021 046ad1f8  ...!....O..!.j..
 004b0 8c212240 4263c1f8 8c21de06 55d462b6  .!"@Bc...!..U.b.
 004c0 0368384c 8268a242 59d0324a 84609269  .h8L.h.BY.2J.`.i
 004d0 3549c2f3 0116c2f3 8262344d 51f82610  5I.......b4MQ.&.
 004e0 0132b1fb f2f2aa42 31d80022 c2600024  .2.....B1..".`.$
 004f0 03211c61 07245962 01211a64 1c661961  .!.a.$Yb.!.d.f.a
 00500 c37c13b3 dd0704d5 816a4ff0 e022c2f8  .|.......jO.."..
 00510 00119c07 04d5c16a 4ff0e022 c2f80411  .......jO.."....
 00520 590704d5 016b4ff0 e022c2f8 08111a07  Y....kO.."......
 00530 04d5416b 4ff0e022 c2f80c11 db0604d5  ..AkO.."........
 00540 826b4ff0 e023c3f8 1021bde8 f08f1849  .kO..#...!.....I
 00550 a1fb0251 090db2fb f1f2a242 88bf0131  ...Q.......B...1
 00560 b1f5817f 0dd3134a c0e74ff0 e022416a  .......J..O.."Aj
 00570 d2f89031 0b408363 c2f89031 9fe7c268  ...1.@.c...1...h
 00580 b5e70229 b1d90239 4c082202 42ea0442  ...)...9L.".B..B
 00590 0a43abe7 00c00f40 cfffffe3 10000008  .C.....@........
 005a0 c82b0020 00093d00 68260020 ff083d00  .+. ..=.h&. ..=.
 005b0 83de1b43 ff7f7f00 0bb1fff7 c1bd7047  ...C..........pG
 005c0 4368d3e9 00120968 114200d1 704710b5  Ch.....h.B..pG..
 005d0 02680446 00200521 1061227c 1344187c  .h.F. .!.a"|.D.|
 005e0 13f0d8fa 627c6368 05211344 93f82400  ....b|ch.!.D..$.
 005f0 13f0d0fa 6368a27c 05211344 bde81040  ....ch.|.!.D...@
 00600 93f83800 13f0c6ba 08b5084a 08490948  ..8........J.I.H
 00610 fff7a2fe 084a0949 0948fff7 9dfe094a  .....J.I.H.....J
 00620 09490a48 fff798fe 08bd00bf 50210020  .I.H........P!. 
 00630 00003a40 50980020 e0200020 00c03940  ..:@P.. . . ..9@
 00640 a0980020 70200020 00403940 f0980020  ... p . .@9@... 
 00650 90f8a320 90f8a200 101a7047 90f8a230  ... ......pG...0
 00660 90f8a320 9a4205d9 5a1c0344 80f8a220  ... .B..Z..D... 
 00670 987e7047 4ff0ff30 704700bf 70b5094c  .~pGO..0pG..p..L
 00680 094d04f1 200654f8 043f2946 18461bb1  .M.. .T..?)F.F..
 00690 1b681b68 984718b9 b442f4d1 bff34f8f  .h.h.G...B....O.
 006a0 70bd00bf 20a60020 509d0020 70b5094c  p... .. P.. p..L
 006b0 094d04f1 200654f8 043f2946 18461bb1  .M.. .T..?)F.F..
 006c0 1b681b68 984718b9 b442f4d1 bff34f8f  .h.h.G...B....O.
 006d0 70bd00bf 40a60020 649d0020 70b5094c  p...@.. d.. p..L
 006e0 094d04f1 200654f8 043f2946 18461bb1  .M.. .T..?)F.F..
 006f0 1b681b68 984718b9 b442f4d1 bff34f8f  .h.h.G...B....O.
 00700 70bd00bf 60a60020 789d0020 362921d8  p...`.. x.. 6)!.
 00710 124bc268 03eb0113 70b4057c 5e68a5b1  .K.h....p..|^h..
 00720 00231946 01e08d42 0fd91468 01338c46  .#.F...B...h.3.F
 00730 0432b442 d9b2f6d1 43686046 d3e90021  .2.B....Ch`F...!
 00740 70bc1368 0b431360 70474ff0 ff0c70bc  p..h.C.`pGO...p.
 00750 60467047 4ff0ff0c 60467047 c82b0020  `FpGO...`FpG.+. 
 00760 ff282de9 f0410fd0 094c0646 0f4604f1  .(-..A...L.F.F..
 00770 0c0854f8 045b3146 2846fff7 c7ffff28  ..T..[1F(F.....(
 00780 387002d1 4445f4d1 00252846 bde8f081  8p..DE...%(F....
 00790 18520020 36291ad8 c36810b4 104c027c  .R. 6)...h...L.|
 007a0 04eb0111 4c68c2b1 013a191d d2b201eb  ....Lh...:......
 007b0 820101e0 8b420cd0 1a680433 a242f9d1  .....B...h.3.B..
 007c0 43680120 1b7c2360 5df8044b 70470020  Ch. .|#`]..KpG. 
 007d0 70470020 5df8044b 70471046 f4e700bf  pG. ]..KpG.F....
 007e0 c82b0020 01291ad0 c1f1090c bcf1000f  .+. .)..........
 007f0 0edd0321 427c12ea 01030cd0 002301e0  ...!B|.......#..
 00800 114208d0 01334900 dbb2c9b2 6345f7db  .B...3I.....cE..
 00810 ff231846 70470a43 42741846 70474ff0  .#.FpG.CBt.FpGO.
 00820 080ce7e7 032903d8 43680b44 587c7047  .....)..Ch.DX|pG
 00830 ff207047 01230246 807c03fa 01f10142  . pG.#.F.|.....B
 00840 5ffa81fc 01d00020 704740ea 0c011846  _...... pG@....F
 00850 91747047 836800b5 03f1200c 86461a68  .tpG.h.... ..F.h
 00860 5ab18a42 03f10403 04d09c45 f7d10020  Z..B.......E... 
 00870 5df804fb 01205df8 04fb9ef8 13201960  ].... ]...... .`
 00880 002af7d1 def80420 0b49137a d2681033  .*..... .I.z.h.3
 00890 41f82320 def80410 0122084b 91f808c0  A.# .....".K....
 008a0 10460cf0 1f0103eb 5c1302fa 01f19b00  .F......\.......
 008b0 19608ef8 1320dbe7 005c0020 40380038  .`... ...\. @8.8
 008c0 30b41149 2024114b 11480c61 1c61114c  0..I $.K.H.a.a.L
 008d0 114a4460 114c124d 84601024 05600461  .JD`.L.M.`.$.`.a
 008e0 c260104c 1048c1e9 004002f1 40000f4c  .`.L.H...@..@..L
 008f0 c032c1e9 02400e4c 0e480f49 1c60da60  .2...@.L.H.I.`.`
 00900 30bcc3e9 01017047 649d0020 789d0020  0.....pGd.. x.. 
 00910 509d0020 b8170020 f8280060 24a60020  P.. ... .(.`$.. 
 00920 00c01a40 00001b40 d4170020 44a60020  ...@...@... D.. 
 00930 00000242 f0170020 64a60020 00207047  ...B... d.. . pG
 00940 704700bf 036d0bb1 01207047 406d0038  pG...m... pG@m.8
 00950 18bf0120 704700bf 704700bf 10b50446  ... pG..pG.....F
 00960 806d18b1 18f0f6fc 0023a365 236d2bb1  .m.......#.e#m+.
 00970 04f11800 bde81040 0af0d4bb 636d002b  .......@....cm.+
 00980 f6d110bd 012bf0b5 054695b0 3dd0022b  .....+...F..=..+
 00990 40f20a20 01f10401 0cbf0346 00236846  @.. .......F.#hF
 009a0 0af0d8fc 129b002b 38d05c20 002614f0  .......+8.\ .&..
 009b0 e5fd214b 04af0446 c0e90036 019b3946  ..!K...F...6..9F
 009c0 183040f8 0c3c1d4b 40f8103c 029b40f8  .0@..<.K@..<..@.
 009d0 083c9df8 0c3000f8 043c0af0 61fb184b  .<...0...<..a..K
 009e0 4ff47a72 a665a360 164b6e60 2b606368  O.zr.e.`.Kn`+`ch
 009f0 2e730133 aa602c61 6360134b 38460093  .s.3.`,ac`.K8F..
 00a00 0af090fb 284615b0 f0bd40f2 02630431  ....(F....@..c.1
 00a10 68460af0 9ffc129b 002bc6d1 139b002b  hF.......+.....+
 00a20 c3d14ff4 7a71074a 04af2b73 2a602b61  ..O.zq.J..+s*`+a
 00a30 c5e90131 e1e700bf f4240020 50250020  ...1.....$. P%. 
 00a40 6c230020 28230020 c8210020 10b50446  l#. (#. .!. ...F
 00a50 806d00b1 10bd4ff4 807018f0 73fca065  .m....O..p..s..e
 00a60 b0b10022 236d0270 3bb10146 4ff48072  ..."#m.p;..FO..r
 00a70 18460af0 6bfda06d 10bd636d 002be9d0  .F..k..m..cm.+..
 00a80 01464ff4 80721846 0ff0e6fd a06d10bd  .FO..r.F.....m..
 00a90 014b1846 a36510bd fdb30020 38b5056d  .K.F.e..... 8..m
 00aa0 6db10bb1 002038bd 11462846 0cf048fd  m.... 8..F(F..H.
 00ab0 0028f7d0 2846bde8 38400cf0 e3be446d  .(..(F..8@....Dm
 00ac0 002cefd0 20460ff0 c9fa0028 ead02046  .,.. F.....(.. F
 00ad0 bde83840 10f0feb9 8a79a2f1 50031b06  ..8@.....y..P...
 00ae0 22d402f2 6c72f0b5 4b7985b0 046d0133  "...lr..Ky...m.3
 00af0 0d798e78 4f78dbb2 09784cb1 20460196  .y.xOx...xL. F..
 00b00 0095cde9 02710221 0cf050fe 05b0f0bd  .....q.!..P.....
 00b10 406d0028 fad00196 0095cde9 02710221  @m.(.........q.!
 00b20 10f01cf9 05b0f0bd 00207047 10b50446  ......... pG...F
 00b30 006d80b1 037813f0 700f00d1 10bd0021  .m...x..p......!
 00b40 0cf0fefc 606d0028 f8d00022 0023bde8  ....`m.(...".#..
 00b50 10400ff0 83ba606d 0028efd0 90f83130  .@....`m.(....10
 00b60 13f0500f ead00022 0023bde8 10400ff0  ..P....".#...@..
 00b70 75ba00bf 036d10b5 0c4682b0 2bb30df1  u....m...F..+...
 00b80 060201a9 18460cf0 81f838b3 bdf80430  .....F....8....0
 00b90 bdf80620 53ea0201 20d0c2f3 451c02f0  ... S... ...E...
 00ba0 1f00d20a c3f34311 400084f8 01c0a270  ......C.@......p
 00bb0 5a0a0139 03f01f03 02f5ea62 20700120  Z..9.......b p. 
 00bc0 61712371 a27102b0 10bd406d 30b10df1  aq#q.q....@m0...
 00bd0 060201a9 0ff0e8f8 0028d7d1 002002b0  .........(... ..
 00be0 10bd00bf 036d10b5 0c4682b0 2bb30df1  .....m...F..+...
 00bf0 060201a9 18460cf0 39f838b3 bdf80430  .....F..9.8....0
 00c00 bdf80620 53ea0201 20d0c2f3 451c02f0  ... S... ...E...
 00c10 1f00d20a c3f34311 400084f8 01c0a270  ......C.@......p
 00c20 5a0a0139 03f01f03 02f5ea62 20700120  Z..9.......b p. 
 00c30 61712371 a27102b0 10bd406d 30b10df1  aq#q.q....@m0...
 00c40 060201a9 0ff09ef8 0028d7d1 002002b0  .........(... ..
 00c50 10bd00bf 10b5d0f8 84448eb0 0a4644b1  .........D...FD.
 00c60 00232146 68460093 0cf0cef9 80b90eb0  .#!FhF..........
 00c70 10bdd0f8 881441b1 23466846 0c940ff0  ......A.#FhF....
 00c80 abfc50b9 00200eb0 10bd0846 0eb010bd  ..P.. .....F....
 00c90 68460cf0 0dfc0eb0 10bd6846 0ff01cfe  hF........hF....
 00ca0 0028efd0 e3e700bf 70b5d0f8 84548eb0  .(......p....T..
 00cb0 16465db1 05f58965 00230a46 68462946  .F]....e.#.FhF)F
 00cc0 00930cf0 1ff990b9 0eb070bd d0f88804  ..........p.....
 00cd0 0028f9d0 00f58964 0a462b46 68462146  .(.....d.F+FhF!F
 00ce0 0c950ff0 fdfb48b9 00200eb0 70bd3246  ......H.. ..p.2F
 00cf0 29466846 0cf0e6fa 0eb070bd 32462146  )FhF......p.2F!F
 00d00 68460ff0 3dff0028 eed0dde7 10b5d0f8  hF..=..(........
 00d10 84448eb0 0a464cb1 00200123 21460090  .D...FL.. .#!F..
 00d20 68460cf0 71f980b9 0eb010bd d0f88814  hF..q...........
 00d30 41b10123 68460c94 0ff04efc 50b90020  A..#hF....N.P.. 
 00d40 0eb010bd 08460eb0 10bd6846 0bf00cfe  .....F....hF....
 00d50 0eb010bd 68460ff0 65fd0028 efd0e3e7  ....hF..e..(....
 00d60 30b5d0f8 84448fb0 0a464cb1 00250123  0....D...FL..%.#
 00d70 04f58961 68460095 0cf04ef8 0fb030bd  ...ahF....N...0.
 00d80 d0f88804 0028f9d0 00f58961 01236846  .....(.....a.#hF
 00d90 0c940ff0 77ff0fb0 30bd00bf 10b5d0f8  ....w...0.......
 00da0 84448eb0 0a463cb1 00232146 68460093  .D...F<..#!FhF..
 00db0 0cf02af9 0eb010bd d0f88814 31b12346  ..*.........1.#F
 00dc0 68460c94 0ff008fc 0eb010bd 08460eb0  hF...........F..
 00dd0 10bd00bf 006990b1 0368154a 1b699342  .....i...h.J.i.B
 00de0 25d1036d 63b11878 10f00800 07d0d869  %..mc..x.......i
 00df0 5b69c01a 48bf6ff0 00407047 18467047  [i..H.o..@pG.FpG
 00e00 436d002b fad093f8 310010f0 0800f6d0  Cm.+....1.......
 00e10 18691968 5a69401a 5b6862eb 0303b0f1  .i.hZi@.[hb.....
 00e20 004f73f1 0003ead3 6ff00040 70471847  .Os.....o..@pG.G
 00e30 f1130000 036973b1 1a680849 52698a42  .....is..h.IRi.B
 00e40 07d1186d 08b10cf0 07ba586d 18b10ff0  ...m......Xm....
 00e50 efb81846 10474ff0 ff307047 0d110000  ...F.GO..0pG....
 00e60 036963b1 1a680749 92698a42 08d1186d  .ic..h.I.i.B...m
 00e70 08b10cf0 95bc586d 08b10ff0 f9bd7047  ......Xm......pG
 00e80 18461047 cd120000 00b50069 83b08df8  .F.G.......i....
 00e90 071060b1 0368104a db689342 15d1036d  ..`..h.J.h.B...m
 00ea0 43b10122 0df10701 18460cf0 25fd03b0  C..".....F..%...
 00eb0 5df804fb 406d0028 f9d00122 0df10701  ]...@m.(..."....
 00ec0 10f07af8 03b05df8 04fb0122 0df10701  ..z...]...."....
 00ed0 984703b0 5df804fb f5120000 036923b3  .G..]........i#.
 00ee0 1968134a 10b58c68 82b09442 14d1186d  .h.J...h...B...m
 00ef0 48b10122 0df10701 0cf0daf8 90b19df8  H.."............
 00f00 070002b0 10bd586d 0028f8d0 01220df1  ......Xm.(..."..
 00f10 07010ef0 bdfff1e7 01220df1 07011846  .........".....F
 00f20 a047ebe7 4ff0ff30 ebe74ff0 ff307047  .G..O..0..O..0pG
 00f30 a1110000 036d13b1 58690021 7047436d  .....m..Xi.!pGCm
 00f40 13b1d3e9 00017047 18461946 704700bf  ......pG.F.FpG..
 00f50 036d13b1 d8690021 7047436d 13b1d3e9  .m...i.!pGCm....
 00f60 04017047 18461946 704700bf f0b595b0  ..pG.F.FpG......
 00f70 00224ff4 7a74244f 18310546 04a88df8  ."O.zt$O.1.F....
 00f80 0c200097 cde90124 cde91222 0af036f9  . .....$..."..6.
 00f90 129b002b 2dd05c20 002614f0 effa019b  ...+-.\ .&......
 00fa0 04464660 c36004a9 029b1830 40f8083c  .FF`.`.....0@..<
 00fb0 9df80c30 00f8043c 144b40f8 183c144b  ...0...<.K@..<.K
 00fc0 40f8103c 0af06cf8 124b4ff4 7a72a760  @..<..l..KO.zr.`
 00fd0 2b606368 a6650133 6e602e73 aa602c61  +`ch.e.3n`.s.`,a
 00fe0 63600d4b 04a80093 0af09cf8 284615b0  c`.K........(F..
 00ff0 f0bd139b 002bced1 064a2b73 2a602b61  .....+...J+s*`+a
 01000 c5e90134 ede700bf 6c230020 f4240020  ...4....l#. .$. 
 01010 50250020 28230020 c8210020 f8b50546  P%. (#. .!. ...F
 01020 90f8d004 08b90146 f8bdd5f8 8434002b  .......F.....4.+
 01030 4cd0dc69 d5f89004 013c0028 54d00368  L..i.....<.(T..h
 01040 db6b9847 e0b1d5f8 900478b3 03681b6c  .k.G......x..h.l
 01050 9847a8b9 d5f89004 40b30368 01215b6c  .G......@..h.![l
 01060 98470746 10b3d5f8 840458bb d5f88864  .G.F......X....d
 01070 33466eb9 d5f89004 90b90020 0146d3e7  3Fn........ .F..
 01080 d5f88404 e8b9d5f8 8834002b f5d00746  .........4.+...F
 01090 184610f0 09fe0646 3fb1d5f8 900428b1  .F.....F?.....(.
 010a0 03680021 5b6c9847 00b1a41b d5f88434  .h.![l.G.......4
 010b0 fbb19b79 4ff40071 994089b2 a1fb0401  ...yO..q.@......
 010c0 f8bd0027 0af026ff 0646e5e7 d5f88834  ...'..&..F.....4
 010d0 d5f89004 b3b1d3f8 30440028 afd11846  ........0D.(...F
 010e0 10f0e2fd 0646e0e7 18460af0 13ff0646  .....F...F.....F
 010f0 dbe7d5f8 8864002e bfd0d6f8 3c14a1fb  .....d......<...
 01100 0401f8bd 0028b8d0 1c4698e7 036d13b1  .....(...F...m..
 01110 18460cf0 a1b8406d 08b10ef0 89bf4ff0  .F....@m......O.
 01120 ff307047 836c13b1 18460cf0 95b8c06c  .0pG.l...F.....l
 01130 08b10ef0 7dbf4ff0 ff307047 036d33b1  ....}.O..0pG.m3.
 01140 1b7813f0 700f14bf 01200020 7047406d  .x..p.... . pG@m
 01150 30b190f8 313013f0 500f14bf 01200020  0...10..P.... . 
 01160 704700bf 90f8d034 63b1d0f8 843463b1  pG.....4c....4c.
 01170 9a794ff4 0070d969 90400139 80b2a0fb  .yO..p.i.@.9....
 01180 01017047 18460146 7047d0f8 88040028  ..pG.F.FpG.....(
 01190 f9d0d0f8 3c14d0f8 3004a1fb 00017047  ....<...0.....pG
 011a0 036d13b1 18460bf0 83bf406d 08b10ef0  .m...F....@m....
 011b0 6fbe4ff0 ff307047 836c00b5 83b063b1  o.O..0pG.l....c.
 011c0 01220df1 07011846 0bf072ff 01280cd1  .".....F..r..(..
 011d0 9df80700 03b05df8 04fbc06c 28b10122  ......]....l(.."
 011e0 0df10701 0ef054fe f0e74ff0 ff30f1e7  ......T...O..0..
 011f0 2de9f043 d0f89054 8db04db1 98462b68  -..C...T..M..F+h
 01200 04462846 db699847 b0f5405f 064604d8  .F(F.i.G..@_.F..
 01210 00263046 0db0bde8 f0834ff4 007018f0  .&0F......O..p..
 01220 91f80746 0028f3d0 0df10409 b6f1806f  ...F.(.........o
 01230 02464346 29464846 2ed910f0 c3f80646  .FCF)FHF.......F
 01240 384618f0 87f8002e e2d02b68 2846271d  8F........+h(F'.
 01250 1b6a9847 94f8c034 ff2b21d0 d4f8c434  .j.G...4.+!....4
 01260 04f59465 02932846 d4f8c834 0393b4f8  ...e..(F...4....
 01270 c034adf8 043099e8 0e000ef0 47fd94f8  .4...0......G...
 01280 b134c4f8 9054002b c3d10123 29463846  .4...T.+...#)F8F
 01290 1a4609f0 edffbce7 0af0eafb 0646cfe7  .F...........F..
 012a0 04f29445 94f8cc14 28460df0 3ffa2846  ...E....(F..?.(F
 012b0 c4f89054 0cf030fd 0028aad1 0123d4f8  ...T..0..(...#..
 012c0 90143846 1a4609f0 d3ffa2e7 036d13b1  ..8F.F.......m..
 012d0 18460cf0 65ba406d 08b10ff0 c9bb7047  .F..e.@m......pG
 012e0 836c13b1 18460cf0 5bbac06c 08b10ff0  .l...F..[..l....
 012f0 bfbb7047 036d13b1 18460cf0 fdba406d  ..pG.m...F....@m
 01300 08b10ff0 59be7047 836c13b1 18460cf0  ....Y.pG.l...F..
 01310 f3bac06c 08b10ff0 4fbe7047 00b5836c  ...l....O.pG...l
 01320 83b08df8 071043b1 01220df1 07011846  ......C..".....F
 01330 0cf0e2fa 03b05df8 04fbc06c 0028f9d0  ......]....l.(..
 01340 01220df1 07010ff0 37fe03b0 5df804fb  ."......7...]...
 01350 8a79a2f1 50031b06 22d402f2 6c72f0b5  .y..P..."...lr..
 01360 4b7985b0 046d0133 0d798e78 4f78dbb2  Ky...m.3.y.xOx..
 01370 09784cb1 20460196 0095cde9 02710421  .xL. F.......q.!
 01380 0cf014fa 05b0f0bd 406d0028 fad00196  ........@m.(....
 01390 0095cde9 02710421 0ff0e0fc 05b0f0bd  .....q.!........
 013a0 00207047 836c53b1 187810f0 08000dd0  . pG.lS..x......
 013b0 d8695b69 c01a48bf 6ff00040 7047c36c  .i[i..H.o..@pG.l
 013c0 a3b193f8 310010f0 080000d1 70471869  ....1.......pG.i
 013d0 19685a69 401a5b68 62eb0303 b0f1004f  .hZi@.[hb......O
 013e0 73f10003 f2d36ff0 00407047 1846ede7  s.....o..@pG.F..
 013f0 036d53b1 187810f0 08000dd0 d8695b69  .mS..x.......i[i
 01400 c01a48bf 6ff00040 7047436d a3b193f8  ..H.o..@pGCm....
 01410 310010f0 080000d1 70471869 19685a69  1.......pG.i.hZi
 01420 401a5b68 62eb0303 b0f1004f 73f10003  @.[hb......Os...
 01430 f2d36ff0 00407047 1846ede7 0369d3b1  ..o..@pG.F...i..
 01440 0e4810b4 1c68e468 84420fd1 186d18b1  .H...h.h.B...m..
 01450 5df8044b 0cf050ba 586d18b1 5df8044b  ]..K..P.Xm..]..K
 01460 0ff0aabd 00205df8 044b7047 18462346  ..... ]..KpG.F#F
 01470 5df8044b 18470020 704700bf f5120000  ]..K.G. pG......
 01480 38b50446 0c4b806d 236018b1 17f062ff  8..F.K.m#`....b.
 01490 0023a365 236d04f1 18054bb1 284609f0  .#.e#m....K.(F..
 014a0 41fe064b 2846a360 09f03cfe 204638bd  A..K(F.`..<. F8.
 014b0 636d002b f2d1f4e7 f4240020 c8210020  cm.+.....$. .!. 
 014c0 38b50446 0e4b806d 236018b1 17f042ff  8..F.K.m#`....B.
 014d0 0023a365 236d04f1 18056bb1 284609f0  .#.e#m....k.(F..
 014e0 21fe084b 2846a360 09f01cfe 20465c21  !..K(F.`.... F\!
 014f0 14f046f8 204638bd 636d002b eed1f0e7  ..F. F8.cm.+....
 01500 f4240020 c8210020 70b5264b 04460569  .$. .!. p.&K.F.i
 01510 0360002d 32d06e68 013e6e60 76bb2b68  .`.-2.nh.>n`v.+h
 01520 214adb6a 934233d1 a86d10b1 17f012ff  !J.j.B3..m......
 01530 ae652b6d 43b305f1 180009f0 f3fd2569  .e+mC.........%i
 01540 e5b12b68 194a5b68 934228d1 184ba86d  ..+h.J[h.B(..K.m
 01550 2b6018b1 17f0fefe 0023ab65 2b6d05f1  +`.......#.e+m..
 01560 1806c3b1 304609f0 ddfd124b 3046ab60  ....0F.....K0F.`
 01570 09f0d8fd 5c212846 14f002f8 20461421  ....\!(F.... F.!
 01580 13f0feff 204670bd 6b6d002b d3d1d6e7  .... Fp.km.+....
 01590 28469847 d3e76b6d 002be3d1 e5e72846  (F.G..km.+....(F
 015a0 9847ebe7 28230020 5d090000 c1140000  .G..(#. ].......
 015b0 f4240020 c8210020 30b4029c 11469c46  .$. .!. 0....F.F
 015c0 34b1012c 1cd0022c 0ed00020 30bc7047  4..,...,... 0.pG
 015d0 056df5b1 4ff0ff33 934274eb 0c04f4d3  .m..O..3.Bt.....
 015e0 284630bc 0bf0acbf 026d0ab3 d3695918  (F0......m...iY.
 015f0 4cf10003 002be8d1 104630bc 0bf0a0bf  L....+...F0.....
 01600 026d62b1 53695918 4cf10003 002bdcd1  .mb.SiY.L....+..
 01610 f2e7406d 0028d8d0 30bc0ef0 1fbd406d  ..@m.(..0.....@m
 01620 0028d2d0 d0e90023 8a184ceb 0303f3e7  .(.....#..L.....
 01630 406d0028 c9d0d0e9 042330bc 8a184ceb  @m.(.....#0...L.
 01640 03030ef0 0bbd00bf 70b5244b 04460569  ........p.$K.F.i
 01650 0360002d 32d06e68 013e6e60 76bb2b68  .`.-2.nh.>n`v.+h
 01660 1f4adb6a 93422fd1 a86d10b1 17f072fe  .J.j.B/..m....r.
 01670 ae652b6d 23b305f1 180009f0 53fd2569  .e+m#.......S.%i
 01680 e5b12b68 174a5b68 934224d1 164ba86d  ..+h.J[h.B$..K.m
 01690 2b6018b1 17f05efe 0023ab65 2b6d05f1  +`....^..#.e+m..
 016a0 1806a3b1 304609f0 3dfd104b 3046ab60  ....0F..=..K0F.`
 016b0 09f038fd 5c212846 13f062ff 204670bd  ..8.\!(F..b. Fp.
 016c0 6b6d002b d7d1dae7 28469847 d7e76b6d  km.+....(F.G..km
 016d0 002be7d1 e9e72846 9847efe7 28230020  .+....(F.G..(#. 
 016e0 5d090000 c1140000 f4240020 c8210020  ]........$. .!. 
 016f0 f0b5d0f8 906485b0 0446002e 42d090f8  .....d...F..B...
 01700 d05490f8 d13485b1 fe2b63d0 94f8d204  .T...4...+c.....
 01710 36283dd9 33686946 30469b6c 98470546  6(=.3hiF0F.l.G.F
 01720 284684f8 d05405b0 f0bdfe2b 26d090f8  (F...T.....+&...
 01730 d2043628 49d994f8 c034271d ff2b2dd0  ..6(I....4'..+-.
 01740 d4f8c434 04f59466 d4f8c824 01933046  ...4...f...$..0F
 01750 b4f8c034 0292adf8 00306b46 0ecb0ef0  ...4.....0kF....
 01760 d5fa94f8 b134c4f8 906463b9 01233146  .....4...dc..#1F
 01770 38461a46 09f07cfd 054604e0 1f4b9b68  8F.F..|..F...K.h
 01780 9b03d8d4 00252846 84f8d054 05b0f0bd  .....%(F...T....
 01790 12f0eef9 051e18bf 0125f4e7 04f29446  .........%.....F
 017a0 94f8cc14 30460cf0 c1ff3046 c4f89064  ....0F....0F...d
 017b0 0cf0b2fa 0028e6d1 0123d4f8 90143846  .....(...#....8F
 017c0 1a4609f0 55fd0546 dde712f0 d1f90028  .F..U..F.......(
 017d0 b1d1d7e7 33683046 5b6d9847 421c0346  ....3h0F[m.GB..F
 017e0 94d00028 cfd194f8 d124fe2a cad10321  ...(.....$.*...!
 017f0 2e201d46 12f0cef9 c5e700bf 00800042  . .F...........B
 01800 18484ff0 290c184a 00231849 10b4c0f8  .HO.)..J.#.I....
 01810 94240722 80f8b1c4 4ff0ff0c c0f8a814  .$."....O.......
 01820 4ff47f41 124cc0f8 ac24124a a0f8d014  O..A.L...$.J....
 01830 a0f89c34 80f8b534 80f8cc34 80f8d2c4  ...4...4...4....
 01840 0460c0f8 a0240c49 0c4a5df8 044bc0f8  .`...$.I.J]..K..
 01850 8434c0f8 8834c0f8 903480f8 bc3415f0  .4...4...4...4..
 01860 31ba00bf 7c930020 d4250020 00093d00  1...|.. .%. ..=.
 01870 74250020 08220020 59090000 50520020  t%. .". Y...PR. 
 01880 80207047 704700bf 08461146 00f058b8  . pGpG...F.F..X.
 01890 03680b4a 5b6800b5 934283b0 8df80710  .h.J[h...B......
 018a0 07d10121 0df10700 00f04af8 03b05df8  ...!......J...].
 018b0 04fb0122 0df10701 984703b0 5df804fb  ...".....G..]...
 018c0 89180000 024b0021 024ac3e9 00217047  .....K.!.J...!pG
 018d0 d8a40020 54230020 10b50446 12f0aaf9  ... T#. ...F....
 018e0 204610bd 002a38b5 05460c46 1bdb02b3   F...*8..F.F....
 018f0 ab1c611e 5000114c 03eb4202 11f801cf  ..a.P..L..B.....
 01900 02334fea 1c1e0cf0 0f0c9342 14f80ee0  .3O........B....
 01910 03f804ec 14f80cc0 03f803cc eed12844  ..............(D
 01920 00230370 38bd0846 1af08af8 0246002a  .#.p8..F.....F.*
 01930 ded12846 00230370 38bd00bf fc570020  ..(F.#.p8....W. 
 01940 30b50e4d 0c4683b0 01462b78 5bb10190  0..M.F...F+x[...
 01950 28461af0 75f82246 01992844 fff7c2ff  (F..u."F..(D....
 01960 204603b0 30bd4f23 28462246 00f8013b   F..0.O#(F"F...;
 01970 fff7b8ff 204603b0 30bd00bf 8cb20020  .... F..0...... 
 01980 024a0349 034815f0 9db900bf 50520020  .J.I.H......PR. 
 01990 d9180000 f4570020 2de9f843 214b0546  .....W. -..C!K.F
 019a0 1c68013c 1c6014b1 2846bde8 f883dff8  .h.<.`..(F......
 019b0 80801d4f 98f80030 3e68d3b9 06f10408  ...O...0>h......
 019c0 06f17004 203e04f1 1c0013f0 89fd04f1  ..p. >..........
 019d0 100013f0 85fd201d 303c13f0 81fdb442  ...... .0<.....B
 019e0 f1d14046 13f07cfd 00232846 3b60bde8  ..@F..|..#(F;`..
 019f0 f8833068 01f0eafb 88f80040 b0468146  ..0h.......@.F.F
 01a00 0a4948f8 044b4046 13f0a6fd b9f1000f  .IH..K@F........
 01a10 d6d04846 00f02afc 044615f0 ebfe0460  ..HF..*..F.....`
 01a20 cee700bf f49d0020 f89d0020 a01e0020  ....... ... ... 
 01a30 f9b30020 70b50d4d 2b7803b9 70bd0446  ... p..M+x..p..F
 01a40 006801f0 c3fb0023 06460949 44f8043b  .h.....#.F.ID..;
 01a50 20462b70 13f080fd 002eefd0 304600f0   F+p........0F..
 01a60 05fc0446 15f0c6fe 046070bd f9b30020  ...F.....`p.... 
 01a70 a01e0020 0b4a38b5 1368591c 11604bb1  ... .J8..hY..`K.
 01a80 094c0a4a 0a490b48 15f01cf9 0a4b2268  .L.J.I.H.....K"h
 01a90 1a6038bd 094d044c 28461df0 3dfe2560  .`8..M.L(F..=.%`
 01aa0 efe700bf f49d0020 f89d0020 50520020  ....... ... PR. 
 01ab0 99190000 349f0020 189f0020 fc9d0020  ....4.. ... ... 
 01ac0 704700bf 012801d9 00207047 10b50446  pG...(... pG...F
 01ad0 82b00846 03f0c6fc 034601a9 e0b20193  ...F.....F......
 01ae0 00f0caf9 012002b0 10bd00bf 024b0022  ..... .......K."
 01af0 0249c3e9 00127047 049d0020 44260020  .I....pG... D&. 
 01b00 00f000b8 014b1868 704700bf 94b30020  .....K.hpG..... 
 01b10 38b1044b 421e012a 98bf1846 0368db68  8..KB..*...F.h.h
 01b20 18477047 10420020 08b5eff3 058303b9  .GpG.B. ........
 01b30 08bd1346 0a460146 074818f0 73f9074b  ...F.F.F.H..s..K
 01b40 91220749 074818f0 6df90020 19f07afd  .".I.H..m.. ..z.
 01b50 13f05efc 12f04afe 7c360020 8c360020  ..^...J.|6. .6. 
 01b60 b8360020 e0360020 08b500f0 09f800b1  .6. .6. ........
 01b70 08bdbde8 08401df0 dbbd00bf 00f06cb8  .....@........l.
 01b80 064bd3f8 800010f4 405006d0 a3f54033  .K......@P....@3
 01b90 186880f4 0050c0f3 40307047 00c00f40  .h...P..@0pG...@
 01ba0 284b1a68 2de9f04f d20483b0 82460191  (K.h-..O.....F..
 01bb0 07d54ff4 8051244a 1960d96f 1b6c0023  ..O..Q$J.`.o.l.#
 01bc0 1360019e 66b3dff8 8080dff8 88901f4d  .`..f..........M
 01bd0 d8f80070 a5eb0905 1a4c2fbb 236813f4  ...p.....L/.#h..
 01be0 a05ffbd0 2368db04 22d4194b 03f14001  ._..#h.."..K..@.
 01bf0 ea5843f8 042f8b42 fad1236c 49464027  .XC../.B..#lIF@'
 01c00 b742bb46 504628bf b3465a46 a7eb0b07  .B.FPF(..FZF....
 01c10 19f066fe b6eb0b06 da44c8f8 0070dcd1  ..f......D...p..
 01c20 019803b0 bde8f08f c7f14001 4944e7e7  ..........@.ID..
 01c30 019a4ff4 8053921b 01920198 236003b0  ..O..S......#`..
 01c40 bde8f08f 00c00c40 6cb20020 44c00c40  .......@l.. D..@
 01c50 fcff1f20 00002020 042100b5 83b00deb  ... ..  .!......
 01c60 0100fff7 9dff0328 03d90198 03b05df8  .......(......].
 01c70 04fb15f0 bffd0b23 03600198 03b05df8  .......#.`....].
 01c80 04fb00bf 034a1368 013b1360 0bb9024a  .....J.h.;.`...J
 01c90 13607047 9c9e0020 a09e0020 0a4a1368  .`pG... ... .J.h
 01ca0 591c10b5 11604bb1 084c094a 09490a48  Y....`K..L.J.I.H
 01cb0 15f008f8 094b2268 1a6010bd fff754ff  .....K"h.`....T.
 01cc0 024c074b 2360f0e7 9c9e0020 a09e0020  .L.K#`..... ... 
 01cd0 50520020 851c0000 509f0020 4c9f0020  PR. ....P.. L.. 
 01ce0 a49e0020 074b70b5 1c680546 013c1c60  ... .Kp..h.F.<.`
 01cf0 0cb12846 70bd044e 30681df0 1dfd2846  ..(Fp..N0h....(F
 01d00 346070bd 989d0020 9c9d0020 1d4a0020  4`p.... ... .J. 
 01d10 1d491368 10b51d4c c1e90040 591c1160  .I.h...L...@Y..`
 01d20 d3b11b4a 1b491c48 14f0ccff 1b4a1368  ...J.I.H.....J.h
 01d30 591c1160 f3b1164a 19491a48 14f0c2ff  Y..`...J.I.H....
 01d40 194a1368 591c1160 6bb1114a 17491848  .J.hY..`k..J.I.H
 01d50 bde81040 14f0b6bf 164c2046 1df0dcfc  ...@.....L F....
 01d60 154b1c60 dde7154c 20461df0 ddfc144b  .K.`...L F.....K
 01d70 1c60eae7 134c2046 1df0e6fc 124b1c60  .`...L F.....K.`
 01d80 d9e700bf f49d0020 0c9d0020 44260020  ....... ... D&. 
 01d90 50520020 99190000 389f0020 9c9e0020  PR. ....8.. ... 
 01da0 851c0000 549f0020 989d0020 e51c0000  ....T.. ... ....
 01db0 209f0020 fc9d0020 f89d0020 a09d0020   .. ... ... ... 
 01dc0 9c9d0020 a49e0020 a09e0020 1a4a1368  ... ... ... .J.h
 01dd0 591c10b5 1160d3b1 184a1949 194814f0  Y....`...J.I.H..
 01de0 71ff194a 1368591c 1160f3b1 134a1749  q..J.hY..`...J.I
 01df0 174814f0 67ff174a 1368591c 11606bb1  .H..g..J.hY..`k.
 01e00 0e4a1549 1548bde8 104014f0 5bbf144c  .J.I.H...@..[..L
 01e10 20461df0 81fc134b 1c60dde7 124c2046   F.....K.`...L F
 01e20 1df082fc 114b1c60 eae7114c 20461df0  .....K.`...L F..
 01e30 8bfc104b 1c60d9e7 f49d0020 50520020  ...K.`..... PR. 
 01e40 99190000 3c9f0020 9c9e0020 851c0000  ....<.. ... ....
 01e50 589f0020 989d0020 e51c0000 249f0020  X.. ... ....$.. 
 01e60 fc9d0020 f89d0020 a09d0020 9c9d0020  ... ... ... ... 
 01e70 a49e0020 a09e0020 012800d9 704721b1  ... ... .(..pG!.
 01e80 054b0a68 43f82020 7047044a 024b1268  .K.hC.  pG.J.K.h
 01e90 43f82020 704700bf e4a50020 68310020  C.  pG..... h1. 
 01ea0 30b54ff0 000e00f0 01057145 05dd25b1  0.O.......qE..%.
 01eb0 10f8013b 013963f3 1f2e0129 27dd0239  ...;.9c....)'..9
 01ec0 00234c08 04f1010c 00eb4c0c 30f8022b  .#L.......L.0..+
 01ed0 84451344 fad1c4eb c47401eb 44010129  .E.D.....t..D..)
 01ee0 05d19cf8 002062f3 070e1ffa 8efe9e44  ..... b........D
 01ef0 1ffa8ef3 03eb1e43 98b200eb 134025b1  .......C.....@%.
 01f00 0302c0f3 07209bb2 184380b2 30bd8446  ..... ...C..0..F
 01f10 0023e4e7 08b5fff7 c3ffc043 80b208bd  .#.........C....
 01f20 2de9f041 0e461546 04464ff4 6b713a4a  -..A.F.F.FO.kq:J
 01f30 3a48fff7 f9fd002e 41d0002c 68d0dff8  :H......A..,h...
 01f40 e4c0dcf8 0070002f 2ed0bc42 39d03846  .....p./...B9.8F
 01f50 01e08442 35d0c068 0028fad1 002d33d0  ...B5..h.(...-3.
 01f60 36683b46 01e0db68 c3b19c42 fbd0617a  6h;F...h...B..az
 01f70 490702d5 5a7a5207 f5d45a8a aa42f2d1  I...ZzR...Z..B..
 01f80 1a68b242 18bf002a 01d0002e ebd16ff0  .h.B...*......o.
 01f90 0700bde8 f0813668 aef80050 26606582  ......6h...P&`e.
 01fa0 38b10020 bde8f081 002d2fd0 33686582  8.. .....-/.3he.
 01fb0 23600020 e760ccf8 0040bde8 f081184e  #`. .`...@.....N
 01fc0 bbe70120 002dcbd1 dff85ce0 4ff48041  ... .-....\.O..A
 01fd0 4ff6ff78 bef80050 454514d0 0135adb2  O..x...PEE...5..
 01fe0 002fd8d0 3b4602e0 db68002b d3d05a8a  ./..;F...h.+..Z.
 01ff0 aa42f9d1 013989b2 0029edd1 6ff00700  .B...9...)..o...
 02000 aef80050 cee74ff4 4045e9e7 3846dbe7  ...P..O.@E..8F..
 02010 6ff00f00 c6e700bf 70270020 8c3f0020  o.......p'. .?. 
 02020 68310020 b4b30020 465a0020 2de9f04f  h1. ... FZ. -..O
 02030 85b00d46 174640f2 cf21ddf8 38900446  ...F.F@..!..8..F
 02040 ddf83ca0 98464b4a 4b48fff7 6dfdb9f1  ..<..FKJKH..m...
 02050 000f18bf baf1000f 0cbf0121 0021002f  ...........!.!./
 02060 08bf41f0 0101002d 08bf41f0 01010029  ..A....-..A....)
 02070 6bd1002c 69d0628a 002a43d0 2a894ff6  k..,i.b..*C.*.O.
 02080 f7739a42 64d80821 284601f0 13fa0028  .s.Bd..!(F.....(
 02090 4cd12e46 7389072b 5dd9628a 98fa98f8  L..Fs..+].b.....
 020a0 736852ba a3f80280 1a800022 9a71da71  shR........".q.q
 020b0 227c1207 1dd43289 52ba9a80 3b6803f0  "|....2.R...;h..
 020c0 f003e02b 30d0e37a 1120cdf8 0890a27a  ...+0..z. .....z
 020d0 51460190 30460092 3a4602f0 a3ffae42  QF..0F..:F.....B
 020e0 834602d0 304601f0 1dfa5846 05b0bde8  .F..0F....XF....
 020f0 f08f3a68 02f0f002 e02a0ed0 328952ba  ..:h.....*..2.R.
 02100 9a80e0e7 21462046 fff70aff 83460028  ....!F F.....F.(
 02110 b4d05846 05b0bde8 f08f727b 42f00402  ..XF......r{B...
 02120 72733289 52ba9a80 637fcde7 4ff42072  rs2.R...c...O. r
 02130 08212420 01f060fa 064648b1 2b89002b  .!$ ..`..FH.+..+
 02140 a8d02946 01f0a4fb a4e76ff0 0f0bcce7  ..)F......o.....
 02150 4ff0ff3b c9e7084b 40f20d32 07490848  O..;...K@..2.I.H
 02160 17f060fe 002019f0 6dfa0120 fff7d0fc  ..`.. ..m.. ....
 02170 12f03cfb 8c270020 8c3f0020 00400020  ..<..'. .?. .@. 
 02180 e0360020 70b582b0 069c002c 18bf002a  .6. p......,...*
 02190 0cbf4ff0 010c4ff0 000c0029 08bf4cf0  ..O...O....)..L.
 021a0 010cbcf1 000f13d1 90b10568 35b92546  ...........h5.%F
 021b0 cde90045 fff73aff 02b070bd 05f0f00c  ...E..:...p.....
 021c0 bcf1e00f f3d02668 b54204d1 0546efe7  ......&h.B...F..
 021d0 6ff00f00 f0e76ff0 0300ede7 10b50446  o.....o........F
 021e0 114a40f2 a3411148 fff79efc d4b1104b  .J@..A.H.......K
 021f0 1a68a242 06d03ab1 d3682bb1 a34209d0  .h.B..:..h+..B..
 02200 1a46f8e7 e2681a60 21460020 bde81040  .F...h.`!F. ...@
 02210 03f0b6b8 e3682146 0020d360 bde81040  .....h!F. .`...@
 02220 03f0aeb8 10bd00bf 08270020 8c3f0020  .........'. .?. 
 02230 b4b30020 10b10268 01b102b9 70470b68  ... ...h....pG.h
 02240 002bfbd0 084b1b68 002bf7d0 10b400e0  .+...K.h.+......
 02250 02681c68 944201d1 0a681a60 db68002b  .h.h.B...h.`.h.+
 02260 f6d15df8 044b7047 b4b30020 00f11003  ..]..KpG... ....
 02270 dbb2102b 04d8034b 404253f8 20007047  ...+...K@BS. .pG
 02280 05207047 ac2f0020 08b500f0 91ff0023  . pG./. .......#
 02290 80f85130 08bd00bf 08b500f0 89ff0023  ..Q0...........#
 022a0 80f87030 08bd00bf f0b50446 006883b0  ..p0.......F.h..
 022b0 0f461646 1d460028 34d0a388 0289b7f8  .F.F.F.(4.......
 022c0 00010430 13fa80f0 904237dc 39462046  ...0.....B7.9F F
 022d0 00f0d0fe 08b103b0 f0bd76ba a3880222  ..........v...."
 022e0 0df10601 2068adf8 066001f0 69fb0028  .... h...`..i..(
 022f0 f1d1a388 0222002d 0df10601 13440cbf  .....".-.....D..
 02300 4ff48070 4ff4c070 9bb2adf8 0600a380  O..pO..p........
 02310 206801f0 55fb0028 ddd1a388 0233a380   h..U..(.....3..
 02320 03b0f0bd 4ff42072 40f2aa51 382001f0  ....O. r@..Q8 ..
 02330 63f92060 10b10c23 a380bfe7 4ff0ff30  c. `...#....O..0
 02340 c9e700bf 2de9f043 044685b0 00680d46  ....-..C.F...h.F
 02350 1646ddf8 34800f9f 002853d0 a288b5f8  .F..4....(S.....
 02360 00c10cf1 0a0c1ffa 8cfcb8f1 000f03d0  ................
 02370 0e998c44 1ffa8cfc 27b1b7f8 00118c44  ...D....'......D
 02380 1ffa8cfc 94440289 944549dc 32462946  .....D...EI.2F)F
 02390 2046fff7 89ff0c9b 03a92068 1abaa388   F........ h....
 023a0 03920422 01f00cfb 48bba688 06f10609  ..."....H.......
 023b0 1ffa89f9 a4f80490 b8f1000f 0bd00e9b  ................
 023c0 41462068 9db24b46 2a4601f0 f9fab0b9  AF h..KF*F......
 023d0 a3881d44 a58027b1 39462046 00f04afe  ...D..'.9F F..J.
 023e0 68b9a188 331d0222 2068a1eb 09019bb2  h...3.." h......
 023f0 49baadf8 0a100df1 0a0101f0 e1fa05b0  I...............
 02400 bde8f083 4ff42072 40f2aa51 38200193  ....O. r@..Q8 ..
 02410 01f0f2f8 019b2060 10b10c22 a2809ee7  ...... `..."....
 02420 4ff0ff30 ebe700bf 10b5c2b0 044601a8  O..0.........F..
 02430 00f0defc 0123ff22 01a92046 fff734ff  .....#.".. F..4.
 02440 42b010bd 10b5c2b0 04460122 01a800f0  B........F."....
 02450 5dfd0123 ff2201a9 2046fff7 25ff42b0  ]..#.".. F..%.B.
 02460 10bd00bf 30b5adf5 077d0d46 04461146  ....0....}.F.F.F
 02470 04a80022 00f04afd 45a800f0 f3fc2b7b  ..."..J.E.....+{
 02480 dbb1e388 73b10a22 00232046 04ac45a9  ....s..".# F..E.
 02490 cde90023 cde90234 0c22fff7 53ff0df5  ...#...4."..S...
 024a0 077d30bd 0c2245a9 2046fff7 fdfe0028  .}0.."E. F.....(
 024b0 f5d10123 0a22e380 e6e741f2 9412e3e7  ...#."....A.....
 024c0 f0b5c7b0 0d460446 10461646 00f070fe  .....F.F.F.F..p.
 024d0 014605a8 00f08cfc 2b7bdbb1 e38873b1  .F......+{....s.
 024e0 0a272046 01960424 ab7a0025 012205a9  .' F...$.z.%."..
 024f0 0097cde9 0245fff7 25ff47b0 f0bd0122  .....E..%.G...."
 02500 05a92046 fff7d0fe 0028f6d1 01230a27  .. F.....(...#.'
 02510 e380e6e7 7827e4e7 f0b5adf5 097d1746  ....x'.......}.F
 02520 0d460122 19460446 06a81e46 00f0eefc  .F.".F.F...F....
 02530 394647a8 00f05cfc 2b7b33b3 0127e388  9FG...\.+{3..'..
 02540 8df81e72 bbb10a23 47aa0093 06a90392  ...r...#G.......
 02550 2122b6f8 8e01ab7a 45ba2046 04acadf8  !".....zE. F....
 02560 14500625 01940295 00250495 fff7eafe  .P.%.....%......
 02570 0df5097d f0bd2122 06a92046 fff794fe  ...}..!".. F....
 02580 0028f5d1 0a23e780 dee77823 dce700bf  .(...#....x#....
 02590 70b51446 adf5067d 0e460022 21460546  p..F...}.F."!F.F
 025a0 04a800f0 b3fc2146 012245a8 00f0aefc  ......!F."E.....
 025b0 337bdbb1 eb8873b1 0a220023 45ac04a9  3{....s..".#E...
 025c0 2846cde9 0023cde9 02340c22 fff7bafe  (F...#...4."....
 025d0 0df5067d 70bd0c22 04a92846 fff764fe  ...}p.."..(F..d.
 025e0 0028f5d1 01230a22 eb80e6e7 7822e4e7  .(...#."....x"..
 025f0 70b5adf5 067d1446 05461046 0e4600f0  p....}.F.F.F.F..
 02600 d7fd0146 04a800f0 f3fb2146 45a800f0  ...F......!FE...
 02610 87fb337b e3b1eb88 7bb10a22 04acb37a  ..3{....{.."...z
 02620 45a90092 03940024 28460c22 cde90144  E......$(F."...D
 02630 fff788fe 0df5067d 70bd0c22 45a92846  .......}p.."E.(F
 02640 fff732fe 0028f5d1 01230a22 eb80e5e7  ..2..(...#."....
 02650 7822e3e7 30b50c46 c3b089b1 05460a78  x"..0..F.....F.x
 02660 01a800f0 b1fc0023 94f84e21 01a92846  .......#..N!..(F
 02670 fff71afe 10b9eb88 0133eb80 43b030bd  .........3..C.0.
 02680 084643b0 30bd00bf 70b51446 c6b00122  .FC.0...p..F..."
 02690 05460e46 05a82146 00f038fc 4ff48272  .F.F..!F..8.O..r
 026a0 00212046 17f0daf9 d4f88431 1bb1d4f8  .! F.......1....
 026b0 88112046 9847337b e3b1eb88 7bb10a23  .. F.G3{....{..#
 026c0 00931022 b37a05a9 01942846 b4f80041  ...".z....(F...A
 026d0 02940024 0394fff7 35fe46b0 70bd1022  ...$....5.F.p.."
 026e0 05a92846 fff7e0fd 0028f6d1 0123eb80  ..(F.....(...#..
 026f0 0a23e5e7 7823e3e7 2de9f04f 154687b0  .#..x#..-..O.F..
 02700 0c460746 00f054fd 0190a169 2846fff7  .F.F..T....i(F..
 02710 a1ff0646 18b13046 07b0bde8 f08f3846  ...F..0F......8F
 02720 00f046fd a37b8046 db0600f1 c38008f1  ..F..{.F........
 02730 3c0a04f1 0f0908f1 48085af8 041f19b1  <.......H.Z.....
 02740 99f80030 d8065dd4 c24509f1 0109f4d1  ...0..]..E......
 02750 a37c13f0 010240f0 c4800392 9a0762d4  .|....@.......b.
 02760 019b04f1 1409ddf8 0c8003f1 3c0acb46  ............<..F
 02770 4833cde9 04672646 54460293 54f8047f  H3...g&FTF..T...
 02780 4fb19bf8 0020d306 59d49006 65d45106  O.... ..Y...e.Q.
 02790 71d41206 7ed4029b 0bf1010b 9c42edd1  q...~........B..
 027a0 3446059f 049e94f9 0230cdf8 0c80002b  4F.......0.....+
 027b0 31db6b89 a346039a ddf80880 1a446a81  1.k..F.......Dj.
 027c0 5af8044f b4b199f8 00209306 04d55006  Z..O..... ....P.
 027d0 40f19180 110677d5 12f0600f 9bf81230  @.....w...`....0
 027e0 02d113f0 050f05d0 db0703d4 3b68002b  ............;h.+
 027f0 40f08f80 c24509f1 0109e1d1 304607b0  @....E......0F..
 02800 bde8f08f 2846fff7 1dfe0028 4dd1eb88  ....(F.....(M...
 02810 0133eb80 98e72b89 4246a346 ddf80880  .3....+.BF.F....
 02820 1a442a81 cce73a46 21462846 fff7e0fe  .D*...:F!F(F....
 02830 00283ad1 039b0133 9bb20393 90e73a46  .(:....3......:F
 02840 31462846 fff70efe 78bb9bf8 002008f1  1F(F....x.... ..
 02850 01089006 1ffa88f8 99d53a46 31462846  ..........:F1F(F
 02860 fff796fe 08bb9bf8 002008f1 01085106  ......... ....Q.
 02870 1ffa88f8 8dd53b46 019a3146 2846fff7  ......;F..1F(F..
 02880 4bfe90b9 9bf80020 08f10108 12061ffa  K...... ........
 02890 88f880d5 3a463146 2846fff7 f5fe20b9  ....:F1F(F.... .
 028a0 08f10108 1ffa88f8 75e70646 304607b0  ........u..F0F..
 028b0 bde8f08f 01462846 fff7b6fd 0028f4d1  .....F(F.....(..
 028c0 eb880133 eb8032e7 22465946 2846fff7  ...3..2."FYF(F..
 028d0 dbfe0028 e9d1ab89 0133ab81 99f80020  ...(.....3..... 
 028e0 7ae73a46 21462846 fff7eafd 0028dcd1  z.:F!F(F.....(..
 028f0 a37c0122 31e72346 019a5946 2846fff7  .|."1.#F..YF(F..
 02900 0bfe0028 d1d1ab89 0133ab81 99f80020  ...(.....3..... 
 02910 60e73a46 59462846 fff7d2fd 0028c4d1  `.:FYF(F.....(..
 02920 ab890133 ab8165e7 70b58eb0 05460e46  ...3..e.p....F.F
 02930 24220021 05a817f0 91f805aa 29463046  $".!........)F0F
 02940 fff7dafe 044680bb 059890b3 bdf81a30  .....F.........0
 02950 02a9aa78 5bba8df8 0b408df8 0a20bdf8  ...x[....@... ..
 02960 1c20adf8 0c30bdf8 1e3052ba 5bbaadf8  . ...0...0R.[...
 02970 0e20bdf8 2020adf8 10302b88 52ba5bba  . ..  ...0+.R.[.
 02980 adf81220 0c22adf8 083000f0 c5ffbdf8  ... ."...0......
 02990 18100598 00f0befe 00f012fc 2b892a1d  ............+.*.
 029a0 05990096 fff7eefb 04460598 08b100f0  .........F......
 029b0 b9fd2046 0eb070bd 38b50546 00f0f8fb  .. F..p.8..F....
 029c0 90f85130 044663b3 29462748 01f03efc  ..Q0.Fc.)F'H..>.
 029d0 2a462549 4ff47a70 01f00afc 012294f8  *F%IO.zp....."..
 029e0 523084f8 51204bb3 29462048 01f02efc  R0..Q K.)F H....
 029f0 2a461e49 fa2001f0 fbfb0122 94f87030  *F.I. ....."..p0
 02a00 84f85220 33b32946 194801f0 1ffc2a46  ..R 3.)F.H....*F
 02a10 174947f2 305001f0 ebfb0123 84f87030  .IG.0P.....#..p0
 02a20 38bd2a46 10494ff4 7a7001f0 e1fb0122  8.*F.IO.zp....."
 02a30 94f85230 84f85120 002bd5d1 2a460b49  ..R0..Q .+..*F.I
 02a40 fa2001f0 d5fb0122 94f87030 84f85220  . ....."..p0..R 
 02a50 002bd8d1 2a460649 47f23050 01f0c8fb  .+..*F.IG.0P....
 02a60 012384f8 703038bd 89220000 752a0000  .#..p08.."..u*..
 02a70 99220000 38b50546 00f09afb 002290f8  ."..8..F....."..
 02a80 503080f8 522003b9 38bd0446 29465430  P0..R ..8..F)FT0
 02a90 fff74aff 03460028 f6d12846 a4f85430  ..J..F.(..(F..T0
 02aa0 84f85630 a4f85e30 a4f86830 84f86a30  ..V0..^0..h0..j0
 02ab0 84f85030 c4e91833 bde83840 fff77cbf  ..P0...3..8@..|.
 02ac0 2de9f84f 99468046 8a461646 b9f1060f  -..O.F.F.F.F....
 02ad0 40465146 39d000f0 abff0446 0af10105  @FQF9......F....
 02ae0 404604f0 c001a7b2 adb204f1 010bc029  @F.............)
 02af0 3a462b46 3ad03f2c 27d8b6f8 00c104eb  :F+F:.?,'.......
 02b00 0c010cf1 010e0beb 0c0a1ffa 8efeff29  ...............)
 02b10 06eb0e01 19dcecb1 baf1ff0f 15dc06f8  ................
 02b20 0c4005eb 070aa6f8 00e100f0 bffe8742  .@.............B
 02b30 1ffa8afa 3cd1b6f8 0031b9f1 060f5146  ....<....1....QF
 02b40 40463b44 a6f80031 c5d14ff6 ff752846  @F;D...1..O..u(F
 02b50 bde8f88f bcf1ff0f f7d80cf1 010306f8  ................
 02b60 0c402846 a6f80031 bde8f88f b8f80830  .@(F...1.......0
 02b70 ab42ead9 294600f0 5bff2302 03f47c53  .B..)F..[.#...|S
 02b80 184303b2 81b20b2b dfddb8f8 08308b42  .C.....+.....0.B
 02b90 dbd909f1 01033246 4046fff7 91ff4ff6  ......2F@F....O.
 02ba0 ff739842 d1d00af1 020a1ffa 8af5cee7  .s.B............
 02bb0 b6f80031 4ff6ff75 013ba6f8 0031c6e7  ...1O..u.;...1..
 02bc0 2de9f04f c7b00d88 93460446 4ff48272  -..O.....F.FO..r
 02bd0 029105a8 0021cdf8 00b016f0 3fff0023  .....!......?..#
 02be0 29462046 05aafff7 6bff4ff6 ff739842  )F F....k.O..s.B
 02bf0 3ed0029b 009e1b88 b6f80081 c01a0393  >...............
 02c00 c3b20193 b8f1000f 2ed05ffa 88f9bdf8  .........._.....
 02c10 14b10027 abeb090a 3c465ffa 8afa07e0  ...'....<F_.....
 02c20 32780132 14441644 e7b24745 3c461bd2  2x.2.D.D..GE<F..
 02c30 a9eb0402 d2b2022a f2d90aeb 04055a45  .......*......ZE
 02c40 edb2edd8 009ba91c 1819019b 994205ab  .............B..
 02c50 03eb0501 08da16f0 35fe0028 e0d1039b  ........5..(....
 02c60 b846029a 2b441380 404647b0 bde8f08f  .F..+D..@FG.....
 02c70 009bb3f8 00814046 47b0bde8 f08f00bf  ......@FG.......
 02c80 3f2a23d8 38b51446 0546aab1 b0f80001  ?*#.8..F.F......
 02c90 531c50fa 83f3ff2b 1bdc2a54 013080b2  S.P....+..*T.0..
 02ca0 a5f80001 284418f0 1bfeb5f8 00310020  ....(D.......1. 
 02cb0 2344a5f8 003138bd b0f80031 ff2b08d8  #D...18....1.+..
 02cc0 5a1cec54 2046a5f8 002138bd 6ff00500  Z..T F...!8.o...
 02cd0 70476ff0 050038bd 38b5b1f8 00510446  pGo...8.8....Q.F
 02ce0 85b1b0f8 00016b1c 0344ff2b 14dc2a46  ......k..D.+..*F
 02cf0 204418f0 f5fdb4f8 00310020 1d44a4f8   D.......1. .D..
 02d00 005138bd b0f80031 ff2b05d8 5a1cc554  .Q8....1.+..Z..T
 02d10 2846a4f8 002138bd 6ff00500 38bd00bf  (F...!8.o...8...
 02d20 00285bd0 f0b50e46 b1fa81f1 83b04909  .([....F......I.
 02d30 002e50d0 351d2b4f 4ff48272 044616f0  ..P.5.+OO..r.F..
 02d40 8dfe0421 15f8013d 3a460deb 010018f0  ...!...=:F......
 02d50 e5fe01a8 18f074fe 024601a9 2046d2b2  ......t..F.. F..
 02d60 fff78eff 034680bb b542ead1 b4f80011  .....F...B......
 02d70 f7292dd8 07204a1c 605492b2 1a49a4f8  .)-.. J.`T...I..
 02d80 0021a518 0868a050 8a88aa80 8a79aa71  .!...h.P.....y.q
 02d90 b4f80011 ca1d92b2 fa2aa4f8 002117d8  .........*...!..
 02da0 04200831 a05489b2 104aa4f8 00111068  . .1.T...J.....h
 02db0 6050b4f8 00110a1d 92b2ff2a a4f80021  `P.........*...!
 02dc0 06d80531 a354a4f8 00111846 03b0f0bd  ...1.T.....F....
 02dd0 6ff00503 f9e76ff0 0f03f6e7 6ff00f03  o.....o.....o...
 02de0 18467047 f8310020 fc310020 04320020  .FpG.1. .1. .2. 
 02df0 38b50d46 4ff48272 00210446 16f02efe  8..FO..r.!.F....
 02e00 55b32846 18f01cfe 02462946 2046d2b2  U.(F.....F)F F..
 02e10 fff736ff 034608b1 184638bd b4f80011  ..6..F...F8.....
 02e20 f92919d8 05204a1c 605492b2 0c49a4f8  .)... J.`T...I..
 02e30 0021a518 0868a050 0a792a71 b4f80011  .!...h.P.y*q....
 02e40 4a1d92b2 ff2aa4f8 002105d8 0631a354  J....*...!...1.T
 02e50 1846a4f8 001138bd 6ff00503 dce700bf  .F....8.o.......
 02e60 f0310020 38b50446 4ff48272 0021234d  .1. 8..FO..r.!#M
 02e70 16f0f4fd 22460921 214b02f8 011b03cb  ...."F.!!K......
 02e80 c4f80100 93f800c0 07232868 516082f8  .........#(hQ`..
 02e90 08c00422 a979c4f8 0b00a372 1223a888  ...".y.....r.#..
 02ea0 6174a4f8 0f002046 a4f80031 1549fff7  at.... F...1.I..
 02eb0 e7fe0346 08b11846 38bdb4f8 0011f929  ...F...F8......)
 02ec0 18d80520 4a1c6054 92b20f49 a4f80021  ... J.`T...I...!
 02ed0 a5180868 a0500a79 2a71b4f8 00114a1d  ...h.P.y*q....J.
 02ee0 92b2ff2a a4f80021 04d80631 a354a4f8  ...*...!...1.T..
 02ef0 0011e0e7 6ff00503 dde700bf e0310020  ....o........1. 
 02f00 d4310020 e8310020 f0310020 70b51446  .1. .1. .1. p..F
 02f10 82b00e46 4ff48272 00210546 16f09efd  ...FO..r.!.F....
 02f20 64b106f5 82710846 019118f0 89fd0199  d....q.F........
 02f30 c2b22846 fff7a4fe 034660b9 06f5a271  ..(F.....F`....q
 02f40 08460191 18f07cfd 0199c2b2 2846fff7  .F....|.....(F..
 02f50 97fe0346 10b11846 02b070bd b6f88c21  ...F...F..p....!
 02f60 174b53f8 22100846 019118f0 69fd0246  .KS."..F....i..F
 02f70 01992846 d2b2fff7 83fe0346 0028ead1  ..(F.......F.(..
 02f80 b5f80011 f92918d8 05204a1c 685492b2  .....)... J.hT..
 02f90 0c49a5f8 0021ac18 0868a850 0a792271  .I...!...h.P.y"q
 02fa0 b5f80011 4a1d92b2 ff2aa5f8 002104d8  ....J....*...!..
 02fb0 0631ab54 a5f80011 cde76ff0 0503cae7  .1.T......o.....
 02fc0 382f0020 f0310020 70b51546 82b00c46  8/. .1. p..F...F
 02fd0 4ff48272 00210646 16f040fd 55b12046  O..r.!.F..@.U. F
 02fe0 18f02efd 02462146 3046d2b2 fff748fe  .....F!F0F....H.
 02ff0 034630b9 04f14001 3046fff7 6dfe0346  .F0...@.0F..m..F
 03000 10b11846 02b070bd b4f84c21 174b53f8  ...F..p...L!.KS.
 03010 22100846 019118f0 13fd0246 01993046  "..F.......F..0F
 03020 d2b2fff7 2dfe0346 0028ead1 b6f80011  ....-..F.(......
 03030 f92918d8 05204a1c 705492b2 0c49a6f8  .)... J.pT...I..
 03040 0021b418 0868b050 0a792271 b6f80011  .!...h.P.y"q....
 03050 4a1d92b2 ff2aa6f8 002104d8 0631b354  J....*...!...1.T
 03060 a6f80011 cde76ff0 0503cae7 382f0020  ......o.....8/. 
 03070 f0310020 2de9f043 91f80231 83b00e46  .1. -..C...1...F
 03080 0546b1f8 00712bb1 002f3ad1 002003b0  .F...q+../:.. ..
 03090 bde8f083 00f10c04 984600f1 200908e0  .........F.. ...
 030a0 fff78efd b84202d2 bdf80680 07464c45  .....B.......FLE
 030b0 0ed034f8 023fadf8 0630002b f7d02868  ..4..?...0.+..(h
 030c0 32460df1 06010028 ead1b6f8 0001e9e7  2F.....(........
 030d0 cfb9b8f1 000fd9d0 19490222 ab8848ea  .........I."..H.
 030e0 01012868 49baadf8 06100df1 060100f0  ..(hI...........
 030f0 67fc0028 cbd1ab88 0233ab80 03b0bde8  g..(.....3......
 03100 f0834ff0 0008ab88 31463a46 286800f0  ..O.....1F:F(h..
 03110 57fc0028 bbd105f1 0c0333f8 022f4ab1  W..(......3../J.
 03120 01300a28 f9d1ab88 1f44af80 b8f1000f  .0.(.....D......
 03130 d2d1abe7 ab8805eb 4000c381 f4e700bf  ........@.......
 03140 00c0ffff 194a0023 4ff0100c 10b41278  .....J.#O......x
 03150 00eb8202 d269cb60 8b608b61 81f80ec0  .....i.`.`.a....
 03160 c1e90033 c1e90433 136c0bb1 81f80fc0  ...3...3.l......
 03170 546c1cb1 4ff0100c 81f810c0 946c1cb1  Tl..O........l..
 03180 4ff0100c 81f811c0 006808b1 01208874  O........h... .t
 03190 0bb14023 0b75536c 0bb14023 4b75936c  ..@#.uSl..@#Ku.l
 031a0 0bb14023 8b755df8 044b7047 01b40020  ..@#.u]..KpG... 
 031b0 024b1b78 00eb8300 c0697047 01b40020  .K.x.....ipG... 
 031c0 014b1868 704700bf b0b10020 2de9f041  .K.hpG..... -..A
 031d0 0446204a 40f68311 1f48fef7 a5fc54b3  .F J@....H....T.
 031e0 dff88880 98f80030 04eb8303 de69feb1  .......0.....i..
 031f0 06f13c05 06f14807 21461848 01f026f8  ..<...H.!F.H..&.
 03200 55f8040f 08b100f0 9bffbd42 f8d11449  U..........B...I
 03210 204601f0 25fc3046 00f092ff 98f80030   F..%.0F.......0
 03220 00220633 104604eb 83046260 bde8f081  .".3.F....b`....
 03230 6ff00500 fae7084b 40f68412 09490a48  o......K@....I.H
 03240 16f0f0fd 204618f0 fdf90120 fef760fc  .... F..... ..`.
 03250 11f0ccfa 58270020 0c320020 11330000  ....X'. .2. .3..
 03260 b4400020 3c320020 e0360020 01b40020  .@. <2. .6. ... 
 03270 10b50446 88b0224a 40f6a421 2148fef7  ...F.."J@..!!H..
 03280 53fc5cb1 204b1b78 04eb8303 db692bb1  S.\. K.x.....i+.
 03290 93f84d20 032a01d9 22680ab9 08b010bd  ..M .*.."h......
 032a0 00220321 01200592 8df81610 196c0392  .".!. .......l..
 032b0 01928df8 0e000292 0492cde9 062211b1  ............."..
 032c0 f0228df8 18205a6c 12b1f022 8df81920  ."... Zl..."... 
 032d0 9b6c13b1 f0238df8 1a3041f2 e9410b4a  .l...#...0A..A.J
 032e0 842301a8 adf80c10 21460292 8df80630  .#......!F.....0
 032f0 fff71afb 204608b0 bde81040 fff75cbb  .... F.....@..\.
 03300 d8260020 0c320020 01b40020 e00000fb  .&. .2. ... ....
 03310 354b30b5 1b7889b0 044600eb 8303dd69  5K0..x...F.....i
 03320 95f84d30 022b20d9 033b012b 1bd895f8  ..M0.+ ..;.+....
 03330 4c204ab9 042385f8 cc2085f8 4d302b4b  L J..#... ..M0+K
 03340 1b680bb1 01219847 2046fff7 91ff95f8  .h...!.G F......
 03350 4c300133 dbb2012b 85f84c30 39d94ff4  L0.3...+..L09.O.
 03360 a063a5f8 4c3009b0 30bd0368 abb995f8  .c..L0..0..h....
 03370 4c30022b 0cd81bb1 95f8cc30 012b2dd0  L0.+.......0.+-.
 03380 22461b49 fa2009b0 bde83040 00f030bf  "F.I. ....0@..0.
 03390 4ff44073 a5f84c30 f2e701a9 fff7d2fe  O.@s..L0........
 033a0 41f2e943 00220846 adf80c30 2146114b  A..C.".F...0!F.K
 033b0 adf80420 0293fff7 b7fa95f8 4c300028  ... ........L0.(
 033c0 d7d10133 0222dbb2 85f84d20 85f84c30  ...3."....M ..L0
 033d0 cfe72246 06494ff4 7a70d4e7 22460449  .."F.IO.zp.."F.I
 033e0 41f28830 cfe700bf 01b40020 acb10020  A..0....... ... 
 033f0 11330000 e00000fb 08b540f2 4632064b  .3........@.F2.K
 03400 06490748 16f00efd 002018f0 1bf90120  .I.H..... ..... 
 03410 fef77efb 11f0eaf9 34350020 5c350020  ..~.....45. \5. 
 03420 e0360020 f8b522f0 4003012b 10d10646  .6. ..".@..+...F
 03430 08201446 0d469fb2 01f08eff 38b10023  . .F.F......8..#
 03440 46600581 45810473 c7810360 4373f8bd  F`..E..s...`Cs..
 03450 074b4ff4 a6720749 074816f0 e3fc0020  .KO..r.I.H..... 
 03460 18f0f0f8 0120fef7 53fb11f0 bff900bf  ..... ..S.......
 03470 34350020 1c340020 e0360020 033020f0  45. .4. .6. .0 .
 03480 030010b5 01eb000e bdf80cc0 029ce645  ...............E
 03490 0dd804b1 04441846 00234460 02240360  .....D.F.#D`.$.`
 034a0 01230181 41810273 4473c381 10bd0020  .#..A..sDs..... 
 034b0 10bd00bf 10b50446 f8b1b1f5 803f0ad2  .......F.....?..
 034c0 59b18ab2 03891344 9bb29a42 03d890f9  Y......D...B....
 034d0 0c000028 03db0120 10bd0846 10bd6068  ...(... ...F..`h
 034e0 411a04f1 10008142 f5d3b4f8 0ac00020  A......B....... 
 034f0 61606244 23816281 10bd074b 4ff4f272  a`bD#.b....KO..r
 03500 06490748 16f08efc 204618f0 9bf80120  .I.H.... F..... 
 03510 fef7fefa 11f06af9 34350020 f4330020  ......j.45. .3. 
 03520 e0360020 f8b50546 002849d0 002608e0  .6. ...F.(I..&..
 03530 2c69002c 3ad02846 a0470136 f6b2d7b1  ,i.,:.(F.G.6....
 03540 3d46ac7b 1cb3013c e4b2ac73 9cb96b7b  =F.{...<...s..k{
 03550 2f6813f0 02042a7b ead102f0 0f02022a  /h....*{.......*
 03560 0bd0012a 0ed032bb 01362846 00f0e8fd  ...*..2..6(F....
 03570 f6b2002f e4d13046 f8bd2946 092001f0  .../..0F..)F. ..
 03580 fffedae7 29460820 01f0fafe d5e7144b  ....)F. .......K
 03590 40f2f522 13491448 16f044fc 204618f0  @..".I.H..D. F..
 035a0 51f80120 fef7b4fa 11f020f9 0c4b40f2  Q.. ...... ..K@.
 035b0 03320e49 efe70a4b 40f21332 0c49eae7  .2.I...K@..2.I..
 035c0 074b4ff4 38720b49 074816f0 2bfc2846  .KO.8r.I.H..+.(F
 035d0 18f038f8 0120fef7 9bfa11f0 07f900bf  ..8.. ..........
 035e0 34350020 7c340020 e0360020 94340020  45. |4. .6. .4. 
 035f0 b8340020 f4330020 b2f5c17f 2de9f843  .4. .3. ....-..C
 03600 81460f46 41d012d8 22f04003 012b37d0  .F.FA...".@..+7.
 03610 3a4b40f2 29123a49 3a4816f0 03fc0020  :K@.).:I:H..... 
 03620 18f010f8 0120fef7 73fa11f0 dff8b2f5  ..... ..s.......
 03630 207fedd1 c31cca1c 23f00303 22f00302   .......#..."...
 03640 134403f1 10008342 28bf0346 9a4212d8  .D.....B(..F.B..
 03650 00f058fd 804680b1 81440021 2a4a09f1  ..X..F...D.!*J..
 03660 13030781 016023f0 03034781 c2604360  .....`#...G..`C`
 03670 4046bde8 f8834ff0 00084046 bde8f883  @F....O...@F....
 03680 0020bde8 f843fff7 cdbe0022 1ffa80f9  . ...C....."....
 03690 40f2ec55 1d4c9046 06e03260 fb1a4ff0  @..U.L.F..2`..O.
 036a0 00099fb2 002fe8d0 09201646 01f054fe  ...../... .F..T.
 036b0 0246c0b1 09f10303 00eb0901 00201781  .F........... ..
 036c0 23f00303 13311060 eb1a21f0 0301d460  #....1.`..!....`
 036d0 9bb25160 bb4228bf 3b465381 b8f1000f  ..Q`.B(.;FS.....
 036e0 dbd19046 dae70a4b 01211970 b8f1000f  ...F...K.!.p....
 036f0 c1d04046 9046fff7 15ffbee7 34350020  ..@F.F......45. 
 03700 00340020 e0360020 80000100 82000100  .4. .6. ........
 03710 02b40020 f8b50446 002858d0 03898b42  ... ...F.(X....B
 03720 1dd90d46 c91a06e0 2289eb1a 0a449db2  ...F...."....D..
 03730 22812468 6cb36389 ab42f5d3 227b1207  ".$hl.c..B.."{..
 03740 05d1ab42 03d0637b 13f00206 08d02068  ...B..c{...... h
 03750 65812581 08b1fff7 e5fe0023 2360f8bd  e.%........##`..
 03760 63682046 1b1b5919 00f0cafc 0746f8b1  ch F..Y......F..
 03770 8442ecd0 184b40f2 c1121849 184816f0  .B...K@....I.H..
 03780 51fb3046 17f05eff 0120fef7 c1f911f0  Q.0F..^.. ......
 03790 2df8114b 40f2b112 12491148 16f042fb  -..K@....I.H..B.
 037a0 204617f0 4fff0120 fef7b2f9 11f01ef8   F..O.. ........
 037b0 094b40f2 bf120c49 094816f0 33fb3846  .K@....I.H..3.8F
 037c0 17f040ff 0120fef7 a3f911f0 0ff8024b  ..@.. .........K
 037d0 4ff4cd72 0549e0e7 34350020 18350020  O..r.I..45. .5. 
 037e0 e0360020 e4340020 fc340020 cc340020  .6. .4. .4. .4. 
 037f0 30b108b5 837b0133 dbb28373 0bb108bd  0....{.3...s....
 03800 7047fff7 f9fd00bf d0b110b5 b1fa81f4  pG..............
 03810 6409a1b1 884214d0 036843b1 0289b1f8  d....B...hC.....
 03820 08c06244 02811846 1b68002b f6d10289  ..bD...F.h.+....
 03830 43899342 14d10a89 01601344 038110bd  C..B.....`.D....
 03840 70470f4b 40f25f32 0e490f48 16f0eafa  pG.K@._2.I.H....
 03850 204617f0 f7fe0120 fef75af9 10f0c6ff   F..... ..Z.....
 03860 074b40f2 67320949 074816f0 dbfa0020  .K@.g2.I.H..... 
 03870 17f0e8fe 0120fef7 4bf910f0 b7ff00bf  ..... ..K.......
 03880 34350020 30340020 e0360020 4c340020  45. 04. .6. L4. 
 03890 10b50c46 fff7b8ff 24b1a37b 0133dbb2  ...F....$..{.3..
 038a0 a37303b1 10bdfff7 a7fd00bf 2de9f041  .s..........-..A
 038b0 60b3b1fa 81f68846 760939b3 05461746  `......Fv.9..F.F
 038c0 22b927e0 93b22d68 efb1e5b1 08eb0600  ".'...-h........
 038d0 b5f80ac0 1bb19c45 a3eb0c02 f2d9aceb  .......E........
 038e0 030c6968 1ffa8cf4 1944bc42 28bf3c46  ..ih.....D.B(.<F
 038f0 22462644 17f0f4ff 3a1b0023 b6b297b2  "F&D....:..#....
 03900 2d68002f e1d13046 bde8f081 00263046  -h./..0F.....&0F
 03910 bde8f081 1646f6e7 b9b32de9 f843b0fa  .....F....-..C..
 03920 80f70546 7f09f0b1 03899146 934217d3  ...F.......F.B..
 03930 9ab18846 164600e0 c5b16c89 08eb0701  ...F.F....l.....
 03940 6868b442 28bf3446 22462744 17f0c8ff  hh.B(.4F"F'D....
 03950 361b2d68 f0d1b945 1ad10020 bde8f883  6.-h...E... ....
 03960 4ff0ff30 fae76ff0 0f00f7e7 104b40f2  O..0..o......K@.
 03970 e5421049 104816f0 55fa2846 17f062fe  .B.I.H..U.(F..b.
 03980 0120fef7 c5f810f0 31ff6ff0 0f007047  . ......1.o...pG
 03990 074b4ff4 9e620949 074816f0 43fa3046  .KO..b.I.H..C.0F
 039a0 17f050fe 0120fef7 b3f810f0 1fff00bf  ..P.. ..........
 039b0 34350020 70350020 e0360020 88350020  45. p5. .6. .5. 
 039c0 90b32de9 f0410f46 044602e0 246883b2  ..-..A.F.F..$h..
 039d0 34b36589 9d42a3eb 0500f7d9 21899e18  4.e..B......!...
 039e0 b1421ddb e91a8a42 07dc6068 39461844  .B.....B..`h9F.D
 039f0 17f076ff 0020bde8 f0811ffa 81f86068  ..v.. ........`h
 03a00 39464246 184417f0 6bff701b 82b2002a  9FBF.D..k.p....*
 03a10 f0d007eb 08012068 bde8f041 fff77cbf  ...... h...A..|.
 03a20 4ff0ff30 bde8f081 4ff0ff30 704700bf  O..0....O..0pG..
 03a30 18b90ae0 006899b2 30b14389 8b42a1eb  .....h..0.C..B..
 03a40 0303f7d9 4368585c 70477047 70b50c46  ....ChX\pGpGp..F
 03a50 82b049b3 16460b68 02680546 934202d1  ..I..F.h.h.F.B..
 03a60 002002b0 70bd3260 304601a9 019300f0  . ..p.2`0F......
 03a70 f5fa01a9 3046fef7 ddfb01aa 31462846  ....0F......1F(F
 03a80 00f02cff 95f83d20 236802f0 05012b60  ..,...= #h....+`
 03a90 052900d1 13b90120 02b070bd 9306fad5  .)..... ..p.....
 03aa0 284600f0 b3fff6e7 074b4ff4 f1720749  (F.......KO..r.I
 03ab0 074816f0 b7f92046 17f0c4fd 0120fef7  .H.... F..... ..
 03ac0 27f810f0 93fe00bf 9c330020 74330020  '........3. t3. 
 03ad0 e0360020 10b50446 094a40f2 cc610948  .6. ...F.J@..a.H
 03ae0 fef722f8 54b1084b 186830b1 90f84030  ..".T..K.h0...@0
 03af0 0133dbb2 a34218bf 002010bd 204610bd  .3...B... .. F..
 03b00 24270020 9c330020 dcb10020 f8b5104b  $'. .3. ... ...K
 03b10 05461c68 60b10e46 174644b1 23466468  .F.h`..F.FD.#Fdh
 03b20 3a463146 1b682846 9847002c f6d1f8bd  :F1F.h(F.G.,....
 03b30 084b40f2 3c720849 084816f0 73f92846  .K@.<r.I.H..s.(F
 03b40 17f080fd 0120fdf7 e3ff10f0 4ffe00bf  ..... ......O...
 03b50 00a60020 9c330020 84330020 e0360020  ... .3. .3. .6. 
 03b60 2de9f041 0e4686b0 90460446 334a40f2  -..A.F...F.F3J@.
 03b70 be213348 1f46fdf7 d7ff002e 3bd0b8f1  .!3H.F......;...
 03b80 000f25d0 47b33368 53b30023 1d46d8f8  ..%.G.3hS..#.F..
 03b90 00206168 8a4205d0 45f04005 00916260  . ah.B..E.@...b`
 03ba0 cdf810d0 3a68a168 8a4229d0 a26001aa  ....:h.h.B)..`..
 03bb0 45f02005 01910592 23bb02af 31462046  E. .....#...1F F
 03bc0 3a46fff7 43ff48b3 45f49261 03971be0  :F..C.H.E..a....
 03bd0 dff87080 002fd6d1 33681a4f 002bd4d1  ..p../..3h.O.+..
 03be0 31462046 02aafff7 31ffa0b1 02ab1025  1F F....1......%
 03bf0 03930123 cbe7134e b8f1000f c2d1e7e7  ...#...N........
 03c00 7bb12db1 45f08001 03aa2046 fff77eff  {.-.E..... F..~.
 03c10 06b0bde8 f0810546 0123b8e7 45f49061  .......F.#..E..a
 03c20 f2e702af 31462046 3a46fff7 0fff0028  ....1F F:F.....(
 03c30 cad1002d f2d14ff4 8061e5e7 ec260020  ...-..O..a...&. 
 03c40 9c330020 68310020 10b50446 84b0114a  .3. h1. ...F...J
 03c50 40f2bd31 1048fdf7 67ff1cb1 94f83d30  @..1.H..g.....=0
 03c60 da0701d4 04b010bd 002301aa 08212046  .........#...! F
 03c70 8df80430 fff74aff 94f83d30 23f00102  ...0..J...=0#...
 03c80 1b0784f8 3d20edd5 204604b0 bde81040  ....= .. F.....@
 03c90 01f01ebb 7c270020 9c330020 10b50446  ....|'. .3. ...F
 03ca0 84b0104a 4ff48561 0f48fdf7 3dff1cb1  ...JO..a.H..=...
 03cb0 94f83d30 5a0701d4 04b010bd 23f00403  ..=0Z.......#...
 03cc0 204684f8 3d3001f0 d5f92046 00f0fefd   F..=0.... F....
 03cd0 002301aa 04212046 8df80430 fff716ff  .#...! F...0....
 03ce0 04b010bd 44270020 9c330020 08b5d422  ....D'. .3. ..."
 03cf0 064b0749 074816f0 95f80020 17f0a2fc  .K.I.H..... ....
 03d00 0120fdf7 05ff10f0 71fd00bf cc3c0020  . ......q....<. 
 03d10 243d0020 e0360020 08b540f6 cf02064b  $=. .6. ..@....K
 03d20 06490748 16f07ef8 002017f0 8bfc0120  .I.H..~.. ..... 
 03d30 fdf7eefe 10f05afd cc3c0020 fc3c0020  ......Z..<. .<. 
 03d40 e0360020 58b110b5 04464068 08b1fff7  .6. X....F@h....
 03d50 e9fb2146 0320bde8 104001f0 11bb7047  ..!F. ...@....pG
 03d60 002841d0 70b5037d 05460a2b 01d0012b  .(A.p..}.F.+...+
 03d70 00d870bd 806f18b1 fff7d4fb 0023ab67  ..p..o.......#.g
 03d80 6c6f64b1 26462468 706808b1 fff7cafb  lod.&F$hph......
 03d90 31460320 01f0f4fa 002cf3d1 6c674ff6  1F. .....,..lgO.
 03da0 ff73ec6e 2b865cb1 26462468 706808b1  .s.n+.\.&F$hph..
 03db0 fff7b8fb 31460320 01f0e2fa 002cf3d1  ....1F. .....,..
 03dc0 2c6f5cb1 26462468 706808b1 fff7aafb  ,o\.&F$hph......
 03dd0 31460320 01f0d4fa 002cf3d1 0023c5e9  1F. .....,...#..
 03de0 1b33a5f8 683070bd 704700bf 70b50c46  .3..h0p.pG..p..F
 03df0 002934d0 002841d0 03688b42 1fd02bb1  .)4..(A..h.B..+.
 03e00 da68a242 28d01346 002bf9d1 00232046  .h.B(..F.+...# F
 03e10 e360fff7 a5ff237d 0a2b1ad0 012b0ad0  .`....#}.+...+..
 03e20 638bda07 0ed4e66e 002e31d1 256f002d  c......n..1.%o.-
 03e30 33d1636f 3bbb0023 2375e382 70bdcb68  3.co;..##u..p..h
 03e40 0360e3e7 43f00203 20466383 00f08efb  .`..C... Fc.....
 03e50 237d012b e7d1eee7 e268da60 d6e7114b  #}.+.....h.`...K
 03e60 40f68d02 10491148 15f0dcff 002017f0  @....I.H..... ..
 03e70 e9fb0120 fdf74cfe 10f0b8fc 094b40f6  ... ..L......K@.
 03e80 8e020b49 efe7074b 4ff40a62 0949eae7  ...I...KO..b.I..
 03e90 044b40f6 9d020849 e5e7024b 40f69e02  .K@....I...K@...
 03ea0 0649e0e7 cc3c0020 ac3e0020 e0360020  .I...<. .>. .6. 
 03eb0 c83e0020 1c3f0020 e83e0020 003f0020  .>. .?. .>. .?. 
 03ec0 2de9f04f 054687b0 0e46534a 40f23b21  -..O.F...FSJ@.;!
 03ed0 5248fdf7 29fe002d 64d02c7d 012c00f0  RH..)..-d.,}.,..
 03ee0 89800a2c 78d02b6d d5f824b0 d5f89080  ...,x.+m..$.....
 03ef0 d5f81090 05936cb9 ef8a002f 55d0484a  ......l..../U.HJ
 03f00 1368ab42 65d0002b 53d0da68 aa424ed0  .h.Be..+S..h.BN.
 03f10 1346f8e7 29464348 ef8afff7 67ff424b  .F..)FCH....g.BK
 03f20 01221a70 2c6f64b1 a2462468 daf80400  .".p,od..F$h....
 03f30 08b1fff7 f7fa5146 032001f0 21fa002c  ......QF. ..!..,
 03f40 f2d1ec6e 64b1a246 2468daf8 040008b1  ...nd..F$h......
 03f50 fff7e8fa 51460320 01f012fa 002cf2d1  ....QF. .....,..
 03f60 6c6f64b1 a2462468 daf80400 08b1fff7  lod..F$h........
 03f70 d9fa5146 032001f0 03fa002c f2d1e6b9  ..QF. .....,....
 03f80 2b7d012b 45d02946 012001f0 f9f9b8f1  +}.+E.)F. ......
 03f90 000f07d0 6ff00c01 48464346 07b0bde8  ....o...HFCF....
 03fa0 f04f1847 07b0bde8 f08f3e46 bae7ea68  .O.G......>F...h
 03fb0 da600027 3e46ef60 b4e70197 5a462b8b  .`.'>F.`....ZF+.
 03fc0 28460599 02932b1d 00932b46 00f076fa  (F....+...+F..v.
 03fd0 d6e7eb68 1360ece7 29461448 fff706ff  ...h.`..)F.H....
 03fe0 2b7d012b 15d02946 012007b0 bde8f04f  +}.+..)F. .....O
 03ff0 01f0c6b9 094b4ff4 10720d49 0d4815f0  .....KO..r.I.H..
 04000 11ff0020 17f01efb 2046fdf7 81fd10f0  ... .... F......
 04010 edfbfff7 6bfe00bf fc260020 cc3c0020  ....k....&. .<. 
 04020 a0b30020 9cb30020 0ab40020 b0b30020  ... ... ... ... 
 04030 983c0020 e0360020 08b562b1 41b18b8e  .<. .6. ..b.A...
 04040 33b1282b 05d9283b 9bb29842 28bf1846  3.(+..(;...B(..F
 04050 08bd0020 08bdfff7 5ffe00bf 00283cd0  ... ...._....(<.
 04060 0268f8b5 054602b9 f8bd224b 0e461c68  .h...F...."K.F.h
 04070 a4b12168 4ff6a967 8a4205d0 e4686cb1  ..!hO..g.B...hl.
 04080 2a682168 8a42f9d1 92b22046 0121ba42  *h!h.B.... F.!.B
 04090 f4d0e468 fff714ff 002cf1d1 164b1c68  ...h.....,...K.h
 040a0 44b14ff6 a9672268 29688a42 16d0e468  D.O..g"h)h.B...h
 040b0 002cf8d1 002ed7d0 3368002b d4d00f4b  .,......3h.+...K
 040c0 1b68002b d0d01968 2a689142 01d13268  .h.+...h*h.B..2h
 040d0 1a60db68 002bf6d1 f8bd7047 92b22046  .`.h.+....pG.. F
 040e0 0121ba42 e3d0e468 fff7eafe 002cdad1  .!.B...h.....,..
 040f0 e0e700bf 9cb30020 a0b30020 a8b30020  ....... ... ... 
 04100 704700bf 08b515f0 1df920b1 c31c23f0  pG........ ...#.
 04110 03039842 00d108bd 064bc822 06490748  ...B.....K.".I.H
 04120 15f080fe 002017f0 8dfa0120 fdf7f0fc  ..... ..... ....
 04130 10f05cfb 8c320020 b0320020 e0360020  ..\..2. .2. .6. 
 04140 10b540b1 c31c23f0 03039842 11d1bde8  ..@...#....B....
 04150 104015f0 ffb8094b d9220949 094815f0  .@.....K.".I.H..
 04160 61fe0020 17f06efa 0120fdf7 d1fc10f0  a.. ..n.. ......
 04170 3dfb024b da220449 f0e700bf 8c320020  =..K.".I.....2. 
 04180 64320020 e0360020 74320020 f8b50546  d2. .6. t2. ...F
 04190 07200f46 164601f0 dff80446 90b10023  . .F.F.....F...#
 041a0 0f498760 c660c0e9 00350b68 1bb907e0  .I.`.`...5.h....
 041b0 19461b68 1bb15a68 aa1a002a f8da2360  .F.h..Zh...*..#`
 041c0 0c60f8bd 074bbe22 07490848 15f02afe  .`...K.".I.H..*.
 041d0 204617f0 37fa0120 fdf79afc 10f006fb   F..7.. ........
 041e0 e0b10020 f43b0020 203c0020 e0360020  ... .;.  <. .6. 
 041f0 70b50446 0d461646 40f22711 0f4a1048  p..F.F.F@.'..J.H
 04200 fdf792fc b4f1804f 08d2fdf7 79fc3246  .......O....y.2F
 04210 29462044 bde87040 fff7b8bf 084b40f2  )F D..p@.....K@.
 04220 29120849 084815f0 fdfd0020 17f00afa  )..I.H..... ....
 04230 0120fdf7 6dfc10f0 d9fa00bf 38270020  . ..m.......8'. 
 04240 f43b0020 603c0020 e0360020 38b5114a  .;. `<. .6. 8..J
 04250 04460d46 104840f2 4111fdf7 65fc0f49  .F.F.H@.A...e..I
 04260 0b68a3b1 002003e0 1a681846 134672b1  .h... ...h.F.Fr.
 04270 9a68a242 f8d1da68 aa42f5d1 1a6838b1  .h.B...h.B...h8.
 04280 02601946 0720bde8 384001f0 79b838bd  .`.F. ..8@..y.8.
 04290 0a60f6e7 14270020 f43b0020 e0b10020  .`...'. .;. ... 
 042a0 2de9f843 044670b3 14311546 476a4ff4  -..C.Fp..1.FGjO.
 042b0 2072b0f8 169089b2 2420b4f8 1880668d   r......$ ....f.
 042c0 fff79af9 e8b14389 132b2bd9 628d99fa  ......C..++.b...
 042d0 99f9636a 98fa98f8 3fba76ba 99184368  ..cj....?.v...Ch
 042e0 0022a3f8 00901a74 5a749a74 da745022  .".....tZt.t.tP"
 042f0 a3f80280 1a731022 5d609f60 de815a73  .....s."]`.`..Zs
 04300 e162bde8 f8830a4b 40f24672 09490a48  .b.....K@.Fr.I.H
 04310 15f088fd 002017f0 95f90120 fdf7f8fb  ..... ..... ....
 04320 10f064fa 024b40f2 27720449 efe700bf  ..d..K@.'r.I....
 04330 503e0020 a43d0020 e0360020 cc3d0020  P>. .=. .6. .=. 
 04340 00b17047 10b50446 074b40f2 5a720749  ..pG...F.K@.Zr.I
 04350 074815f0 67fd2046 17f074f9 0120fdf7  .H..g. F..t.. ..
 04360 d7fb10f0 43fa00bf 503e0020 283e0020  ....C...P>. (>. 
 04370 e0360020 70b50d46 86b00029 32d00446  .6. p..F...)2..F
 04380 164630b3 007ab0b9 18460593 00f060fd  .F0..z...F....`.
 04390 059ab0b1 e37aa47a 00940624 31460290  .....z.z...$1F..
 043a0 01942846 00f050fe 04462846 fff7baf8  ..(F..P..F(F....
 043b0 204606b0 70bd0593 fff78cfb 059a0028   F..p..........(
 043c0 e8d16ff0 03042846 fff7acf8 204606b0  ..o...(F.... F..
 043d0 70bd1846 059300f0 3bfd0028 f1d0ff23  p..F....;..(...#
 043e0 059ad9e7 074b40f2 8a720749 074815f0  .....K@..r.I.H..
 043f0 19fd2846 17f026f9 0120fdf7 89fb10f0  ..(F..&.. ......
 04400 f5f900bf 503e0020 fc3d0020 e0360020  ....P>. .=. .6. 
 04410 2de9f041 bdf81880 bdf81c70 52b3c3b3  -..A.......pR...
 04420 0e464ff4 207205ba 14212420 fff7e4f8  .FO. r...!$ ....
 04430 0446e0b1 4389132b 30d94368 00225021  .F..C..+0.Ch."P!
 04440 98fa98f8 1a747fba 5a7436ba 9a74da74  .....t..Zt6..t.t
 04450 14221973 6ff02f01 5a731622 a3f80080  .".so./.Zs."....
 04460 5f805d60 9e609973 da73fff7 69ff2046  _.]`.`.s.s..i. F
 04470 bde8f081 0c4b40f2 c4720c49 0c4815f0  .....K@..r.I.H..
 04480 d1fc0020 17f0def8 0120fdf7 41fb10f0  ... ..... ..A...
 04490 adf9054b 40f2c572 0649efe7 024b40f2  ...K@..r.I...K@.
 044a0 27720549 eae700bf 503e0020 343f0020  'r.I....P>. 4?. 
 044b0 e0360020 503f0020 cc3d0020 70b582b0  .6. P?. .=. p...
 044c0 1c460d46 8446bdf8 1c301146 069e2846  .F.F.F...0.F..(F
 044d0 00932246 bdf82030 65460193 3346fff7  .."F.. 0eF..3F..
 044e0 97ff40b1 01463346 22462846 02b0bde8  ..@..F3F"F(F....
 044f0 7040fff7 3fbf02b0 70bd00bf 38b50446  p@..?...p...8..F
 04500 f8b1026d 002112ba fff7cafe 054690b1  ...m.!.......F..
 04510 fff716ff 231d2246 29462046 fff72aff  ....#."F)F F..*.
 04520 638b20b9 23f00303 9bb26383 38bd43f0  c. .#.....c.8.C.
 04530 03036383 38bd638b 6ff00100 43f00303  ..c.8.c.o...C...
 04540 f3e7074b 4ff40362 06490748 15f06afc  ...KO..b.I.H..j.
 04550 204617f0 77f80120 fdf7dafa 10f046f9   F..w.. ......F.
 04560 503e0020 6c3f0020 e0360020 2de9f04f  P>. l?. .6. -..O
 04570 044685b0 b14a40f2 e341b148 fdf7d4fa  .F...J@..A.H....
 04580 002c00f0 8d81257d 012d00f0 8e81ad4b  .,....%}.-.....K
 04590 1b68a342 00f05a81 e56eb4f8 4890b4f8  .h.B..Z..n..H...
 045a0 60601db3 207a04f1 040b0028 40f05281  ``.. z.....(@.R.
 045b0 584600f0 4dfc8246 baf1000f 00f05981  XF..M..F......Y.
 045c0 236813b9 daf80030 2360b145 626c2b89  #h.....0#`.Ebl+.
 045d0 28bfb146 ee689b1a 726812ba 13444b45  (..F.h..rh...DKE
 045e0 0fd9b4f8 60304b45 00f01581 608b8107  ....`0KE....`...
 045f0 00f10b81 20f08003 00206383 05b0bde8  .... .... c.....
 04600 f08f0023 84f89930 236f002b 00f01381  ...#...0#o.+....
 04610 98461b68 002bfbd1 53460027 b2461e46  .F.h.+..SF.'.F.F
 04620 baf80c30 5aba9bb2 520700f1 2581226f  ...0Z...R...%."o
 04630 62b1618b 11f0440f 8c4607d1 e06e0028  b.a...D..F...n.(
 04640 00f0bf80 0268002a 00f0b580 227d022a  .....h.*...."}.*
 04650 00f08f80 43f48053 6868aaf8 0c30837b  ....C..Shh...0.{
 04660 012b3dd0 2868e066 638b23f0 03036383  .+=.(h.fc.#...c.
 04670 e968b5f8 08c08b89 49685bba 226d09ba  .h......Ih[."m..
 04680 13f00303 18bf0123 634401eb 030ca2eb  .......#cD......
 04690 0c02002a b8bfc4f8 50c0002b 70d0236f  ...*....P..+p.#o
 046a0 2f60002b 00f08380 d8f80c20 526812ba  /`.+....... Rh..
 046b0 8a1a002a c0f29980 c8f80050 a8460546  ...*.......P.F.F
 046c0 002d00f0 cb80d5f8 0ca02b89 daf80410  .-........+.....
 046d0 626c09ba 9b1a0b44 4b45a1d9 608b89e7  bl.....DKE..`...
 046e0 636a628d 19ba1344 52bacaf8 0810aaf8  cjb....DR.......
 046f0 0e20e362 ab7a13f0 010146d1 0af1140a  . .b.z....F.....
 04700 b4f93030 626b002b eb68b8bf 27862ab9  ..00bk.+.h..'.*.
 04710 4d4a1268 62635a68 12baa263 42680029  MJ.hbcZh...cBh.)
 04720 4189a3eb 02024360 92b2a1eb 02014181  A.....C`......A.
 04730 0189a1eb 02020281 14bf1822 14221f74  ...........".".t
 04740 5f741344 9a4540f0 a6800623 02965a46  _t.D.E@....#..ZF
 04750 21460193 a37a0093 e37a00f0 75fc0028  !F...z...z..u..(
 04760 40f08280 237d2868 022be066 7ff47caf  @...#}(h.+.f..|.
 04770 7ee76868 837b012b b2d02868 e06677e7  ~.hh.{.+..(h.fw.
 04780 2846fff7 dffae56e 9ae73146 5a4640f2  (F.....n..1FZF@.
 04790 b4500af1 180afff7 4ffc40f0 017000ba  .P......O.@..p..
 047a0 4af8040c ab7a6868 03f00101 a8e7a846  J....zhh.......F
 047b0 25670546 84e7b0f8 08e0628e 9645bff4  %g.F......b..E..
 047c0 45afb4f8 6420002a 3ff440af b4f86620  E...d .*?.@...f 
 047d0 0f2a3ff6 3baf11f0 a00f7ff4 37af0346  .*?.;.......7..F
 047e0 6046002b 7ff406af 39e004f1 700002e0  `F.+....9...p...
 047f0 18461b68 2bb1da68 526812ba 521a002a  .F.h+..hRh..R..*
 04800 f6db2b60 0560e56e 5ae72046 05b0bde8  ..+`.`.nZ. F....
 04810 f04ffff7 73be236f 002b7ff4 e7ae94f8  .O..s.#o.+......
 04820 9930002b 7ff4e2ae 4ff48072 84f89a30  .0.+....O..r...0
 04830 a4f89820 dae69846 eee600bf 78260020  ... ...F....x&. 
 04840 503e0020 a4b30020 acb30020 002005b0  P>. ... ... . ..
 04850 bde8f08f fff73ef9 8246ade6 618b0023  ......>..F..a..#
 04860 0846a4f8 6830c5e6 638b43f0 80036383  .F..h0..c.C...c.
 04870 c4e66ff0 0300c1e6 0e4b40f2 3a520e49  ..o......K@.:R.I
 04880 0e4815f0 cffa0020 16f0dcfe 0120fdf7  .H..... ..... ..
 04890 3ff90ff0 abff074b 4ff4c462 0849efe7  ?......KO..b.I..
 048a0 044b40f2 e5420749 eae7024b 40f2e742  .K@..B.I...K@..B
 048b0 0549e5e7 503e0020 783d0020 e0360020  .I..P>. x=. .6. 
 048c0 903d0020 383d0020 503d0020 836c23b1  .=. 8=. P=. .l#.
 048d0 00221a72 1b68002b fbd17047 71b30b68  .".r.h.+..pGq..h
 048e0 f0b50d46 83b03bb3 b2fa82f6 76091ab3  ...F..;.....v...
 048f0 116809b3 846cfcb1 4ff6a967 02e02468  .h...l..O..g..$h
 04900 d4b12b68 61689942 f9d19bb2 bb42f6d1  ..+hah.B.....B..
 04910 1388bb42 f3d0237a 052b10d8 032b11d8  ...B..#z.+...+..
 04920 013b022b ebd82369 02212672 01920090  .;.+..#i.!&r....
 04930 9847dde9 0002e2e7 03b0f0bd 7047072b  .G..........pG.+
 04940 ddd1f0e7 06232372 d9e700bf 2a4b2de9  .....##r....*K-.
 04950 f0411b68 8ab01646 07468846 4ff42072  .A.h...F.F.FO. r
 04960 08213820 0893fef7 47fe0028 31d04389  .!8 ....G..(1.C.
 04970 04464568 072b2fd9 3b68162e 0893d8f8  .FEh.+/.;h......
 04980 04306b60 01d01d4a 04e00123 08f10402  .0k`...J...#....
 04990 88f80830 2e700026 08212846 6e70ae70  ...0.p.&.!(Fnp.p
 049a0 ee700792 fdf7b6fa 40f29441 68800220  .p......@..Ah.. 
 049b0 079a0991 04210190 01230491 09a92046  .....!...#.... F
 049c0 02970391 08a90096 00f012fb 2046fef7  ............ F..
 049d0 a9fd0ab0 bde8f081 094b40f2 02320949  .........K@..2.I
 049e0 094815f0 1ffa0020 16f02cfe 0120fdf7  .H..... ..,.. ..
 049f0 8ff80ff0 fbfe00bf 68310020 78a20020  ........h1. x.. 
 04a00 f02f0020 94300020 e0360020 836a1bb3  ./. .0. .6. .j..
 04a10 70b51c68 fcb1114e 012501e0 2468d4b1  p..h...N.%..$h..
 04a20 637a022b 06d0012b f8d16389 013b9bb2  cz.+...+..c..;..
 04a30 042bf3d9 fdf7a2f8 a6fb0032 657222f0  .+.........2er".
 04a40 030303eb 9203c01a 012838bf 01206081  .........(8.. `.
 04a50 2468002c e4d170bd 704700bf cdcccccc  $h.,..p.pG......
 04a60 f8b50f46 0646224a 40f24921 2148fdf7  ...F.F"J@.I!!H..
 04a70 5bf83d68 05f0f003 e02b2bd1 1e4b1b68  [.=h.....++..K.h
 04a80 9d4227d0 96f83d30 9b0623d5 b36a0bb3  .B'...=0..#..j..
 04a90 1c4601e0 2468ecb1 62689542 fad1227b  .F..$h..bh.B.."{
 04aa0 012a03d9 013a0020 2273f8bd 1a461b68  .*...:. "s...F.h
 04ab0 9c4212d0 002bf9d1 237a9bb9 736c1bb1  .B...+..#z..sl..
 04ac0 00223946 30469847 21460620 00f058fc  ."9F0F.G!F. ..X.
 04ad0 0020f8bd 6ff00500 f8bd2368 1360237a  . ..o.....#h.`#z
 04ae0 002bebd0 17222146 3046fff7 2fffe5e7  .+..."!F0F../...
 04af0 84260020 f02f0020 7ca20020 2de9f843  .&. ./. |.. -..C
 04b00 002974d0 b0fa80f5 04466d09 00286ed0  .)t......Fm..(n.
 04b10 0e469146 4ff49a71 4ff42072 38209846  .F.FO..qO. r8 .F
 04b20 fef76afd 07460028 61d04389 b3f59a7f  ..j..F.(a.C.....
 04b30 74d3b9f1 030f42d0 b379002b 69d03f4b  t.....B..y.+i.?K
 04b40 18687d68 4ff49a72 30600021 284614f0  .h}hO..r0`.!(F..
 04b50 85ff0123 2b706b70 94f83c30 ab704ff4  ...#+pkp..<0.pO.
 04b60 88733268 23fa09f3 12badb07 6a6042d5  .s2h#.......j`B.
 04b70 2368eb60 04f13501 05f11b0c 3b3411f8  #h.`..5.....;4..
 04b80 01efa142 0cf801ef f9d16323 6ff07d02  ...B......c#o.}.
 04b90 85f8f290 384685f8 ec3085f8 ef303523  ....8F...0...05#
 04ba0 85f8ed20 532285f8 f0300123 85f8ee20  ... S"...0.#... 
 04bb0 85f8f130 0323a8f8 0030bde8 f8837379  ...0.#...0....sy
 04bc0 032b1fd0 29467d68 4ff49a72 284614f0  .+..)F}hO..r(F..
 04bd0 45ff0123 2b706b70 94f83c30 ab703368  E..#+pkp..<0.p3h
 04be0 1bba6b60 7379043b 012bc3d8 c0e70027  ..k`sy.;.+.....'
 04bf0 3846bde8 f883b9f1 070fb9d0 b9f1030f  8F..............
 04c00 b8d1efe7 b37923b1 0c4b2946 1b683360  .....y#..K)F.h3`
 04c10 d9e7fcf7 b3ff094b 186092e7 084b40f2  .......K.`...K@.
 04c20 7a720849 084815f0 fdf82846 16f00afd  zr.I.H....(F....
 04c30 0120fcf7 6dff0ff0 d9fd00bf d8b30020  . ..m.......... 
 04c40 b82a0020 e42a0020 e0360020 08b54ff4  .*. .*. .6. ..O.
 04c50 b462064b 06490748 15f0e4f8 002016f0  .b.K.I.H..... ..
 04c60 f1fc0120 fcf754ff 0ff0c0fd b82a0020  ... ..T......*. 
 04c70 482b0020 e0360020 03460430 442810b5  H+. .6. .F.0D(..
 04c80 15d8140e 03f1010e 03f1020c 80b2cc54  ...............T
 04c90 1ffa8efe 140c0333 1ffa8cfc 01f80e40  .......3.......@
 04ca0 9bb24fea 122e01f8 0ce0ca54 10bd074b  ..O........T...K
 04cb0 40f2bd52 06490748 15f0b4f8 002016f0  @..R.I.H..... ..
 04cc0 c1fc0120 fcf724ff 0ff090fd b82a0020  ... ..$......*. 
 04cd0 8c2b0020 e0360020 38b50e4b 1c7854b1  .+. .6. 8..K.xT.
 04ce0 013ce4b2 1c7004b1 38bd0b4d 2868fdf7  .<...p..8..M(h..
 04cf0 75fa2c60 38bd094b 4ff49772 08490948  u.,`8..KO..r.I.H
 04d00 15f090f8 204616f0 9dfc0120 fcf700ff  .... F..... ....
 04d10 0ff06cfd ffb30020 e0a50020 b82a0020  ..l.... ... .*. 
 04d20 242b0020 e0360020 2de9f041 054684b0  $+. .6. -..A.F..
 04d30 434a40f2 3251ec69 4248fcf7 f5fe002c  CJ@.2Q.iBH.....,
 04d40 6ad06379 002b67d0 0023ea69 a169a362  j.cy.+g..#.i.i.b
 04d50 0391e381 2361a382 c4e90633 c4e90833  ....#a.....3...3
 04d60 c4e90b33 002a5ad0 53791a1f 012a01d9  ...3.*Z.Sy...*..
 04d70 0a2b54d1 00270df1 0a030722 21462846  .+T..'....."!F(F
 04d80 6771a771 2781fff7 b9fe0646 00283bd0  gq.q'......F.(;.
 04d90 7368bdf8 0a0003f1 f008831d 442b4cd8  sh..........D+L.
 04da0 431c3622 414608f8 00209bb2 04220230  C.6"AF... ...".0
 04db0 08f80320 80b2039a adf80a00 12bafff7  ... ............
 04dc0 5bff431c ff21adf8 0a009bb2 024608f8  [.C..!.......F..
 04dd0 0010432b 08d8c2f1 430208eb 03003946  ..C+....C.....9F
 04de0 92b214f0 3bfe4423 f0333046 99b2fef7  ....;.D#.30F....
 04df0 91fc154a 00954323 10683146 03aafdf7  ...J..C#.h1F....
 04e00 c1f93046 fef78efb 104b2846 1a461946  ..0F.....K(F.F.F
 04e10 fef7a6fe 23794bb9 04b0bde8 f0810023  ....#yK........#
 04e20 6371a371 23812379 002bf5d0 fff754ff  cq.q#.#y.+....T.
 04e30 00232371 04b0bde8 f081fff7 07ff00bf  .##q............
 04e40 9c260020 b82a0020 e0a50020 68310020  .&. .*. ... h1. 
 04e50 0b4b1b68 5bb193f8 3d2002f0 0502052a  .K.h[...= .....*
 04e60 07d11a68 42b10278 7f2a08bf 00231846  ...hB..x.*...#.F
 04e70 70470023 18467047 13461846 704700bf  pG.#.FpG.F.FpG..
 04e80 dcb10020 2de9f04f 87b00446 9a460e46  ... -..O...F.F.F
 04e90 9df84030 154640f2 75314e4a 4e480193  ..@0.F@.u1NJNH..
 04ea0 9df844b0 ddf84890 bdf85070 fcf73cfe  ..D...H...Pp..<.
 04eb0 a37b012b 79d1002d 58d0002f 53d0282f  .{.+y..-X../S.(/
 04ec0 70d807f1 03082046 28f00308 1ffa88f8  p..... F(.......
 04ed0 08f11403 41469bb2 0293fef7 ebfa0028  ....AF.........(
 04ee0 5dd10390 3a461399 606816f0 f9fc4745  ]...:F..`h....GE
 04ef0 039b46d3 14212046 fef7dcfa 07460028  ..F..! F.....F.(
 04f00 4dd16289 6368132a 5ed9029a 83f808a0  M.b.ch.*^.......
 04f10 920883f8 09b02868 42f0400c 019a2f49  ......(hB.@.../I
 04f20 5a7083f8 00c02289 186152ba 9f71df71  Zp...."..aR..q.q
 04f30 5a800a88 50ba0132 98800a80 f6b13268  Z...P..2......2h
 04f40 da600022 9a72da72 b9f83430 13b12289  .`.".r.r..40..".
 04f50 9a421ed8 d9f81030 2a462146 48469847  .B.....0*F!FHF.G
 04f60 07b0bde8 f08f1423 0293c3e7 6389132b  .......#....c..+
 04f70 15d96368 05ad1b69 0593e5e7 184a1268  ..ch...i.....J.h
 04f80 dee76068 a8eb0702 19463844 14f066fd  ..`h.....F8D..f.
 04f90 b0e72a46 49462046 00f0b0f8 e0e76ff0  ..*FIF F......o.
 04fa0 0100dde7 6ff00500 dae70b4b 40f27632  ....o......K@.v2
 04fb0 0c490d48 14f036ff 002016f0 43fb0120  .I.H..6.. ..C.. 
 04fc0 fcf7a6fd 0ff012fc 034b40f2 aa320749  .........K@..2.I
 04fd0 efe700bf b4260020 00310020 e4b30020  .....&. .1. ... 
 04fe0 68310020 2c310020 e0360020 38310020  h1. ,1. .6. 81. 
 04ff0 f0b59e46 9df81450 9df81860 bdf824c0  ...F...P...`..$.
 05000 dde90747 1ab109b1 0b6803b9 21467346  ...G.....h..!FsF
 05010 0595cde9 087ccde9 0664bde8 f040fff7  .....|...d...@..
 05020 31bf00bf 10b586b0 9df82040 00940024  1......... @...$
 05030 cde90344 9df82440 01940a9c 0294fff7  ...D..$@........
 05040 21ff06b0 10bd00bf f0b587b0 9df83050  !.............0P
 05050 9df83460 0e9c1ab1 09b10f68 07b92146  ..4`.......h..!F
 05060 0095cde9 01640024 cde90344 fff70aff  .....d.$...D....
 05070 07b0f0bd 70b5056a 0db12b79 03b970bd  ....p..j..+y..p.
 05080 04460a4a 4ff4ac71 0948fcf7 4dfd0022  .F.JO..q.H..M.."
 05090 4ff6a963 2a712288 9a42f0d1 054b2046  O..c*q"..B...K F
 050a0 1a461946 bde87040 fef75abd cc260020  .F.F..p@..Z..&. 
 050b0 142a0020 68310020 10b50446 48b14069  .*. h1. ...FH.@i
 050c0 08b1fef7 2ffa2146 0520bde8 104000f0  ..../.!F. ...@..
 050d0 57b9074b 40f2ce22 06490748 14f0a2fe  W..K@..".I.H....
 050e0 204616f0 affa0120 fcf712fd 0ff07efb   F..... ......~.
 050f0 6c310020 b8310020 e0360020 2de9f04f  l1. .1. .6. -..O
 05100 8b8e8db0 06460a92 b3f11402 089148bf  .....F........H.
 05110 a3f10d02 4368c2f3 cf020293 06921a46  ....Ch.........F
 05120 1b7803f0 0f03052b 4fea8305 40f0af80  .x.....+O...@...
 05130 4389132b 40f2ab80 0389143b 99b20391  C..+@......;....
 05140 d3885bba c3f30c02 03f40053 05920b93  ..[........S....
 05150 002900f0 8580069b 0024dff8 7091db00  .).......$..p...
 05160 9bb20793 4ff42072 14211020 fef744fa  ....O. r.!. ..D.
 05170 079b039a 80469342 28bf1346 04930028  .....F.B(..F...(
 05180 00f08280 4389132b 40f29380 02994368  ....C..+@.....Ch
 05190 0a684f68 8868c968 1a60d960 02995f60  .hOh.h.h.`.`.._`
 051a0 98600a69 1a61d8f8 04300993 049b53b3  .`.i.a...0....S.
 051b0 1f467389 5c1bab42 a4b26bd3 bc4228bf  .Fs.\..B..k..B(.
 051c0 3c46002c 4ed00520 00f0c6f8 83460028  <F.,N.. .....F.(
 051d0 4fd00194 41227368 21462b44 00930346  O...A"sh!F+D...F
 051e0 0020fef7 4bf98246 00283ed0 3f1b3046  . ..K..F.(>.?.0F
 051f0 fef7fefa 5146bfb2 4046cbe9 0496fef7  ....QF..@F......
 05200 03fb002f 2ed1089b 25440399 9a8eadb2  .../....%D......
 05210 059b133a c3f30c03 8a4232dd 0b9a82bb  ...:.....B2.....
 05220 099a5bba 049f4146 d38007f1 14030898  ..[...AF........
 05230 5bba5380 00239372 d3720a9a 03699847  [.S..#.r.r...i.G
 05240 4046fef7 6ff9039b a3eb070b dde90532  @F..o..........2
 05250 13441ffa 8bf29bb2 03920593 002a81d1  .D...........*..
 05260 00200be0 36680025 a3e75946 052000f0  . ..6h.%..YF. ..
 05270 87f84046 fef756f9 4ff0ff30 0db0bde8  ..@F..V.O..0....
 05280 f08f43f4 0053cbe7 4ff0ff30 f6e76ff0  ..C..S..O..0..o.
 05290 0500f3e7 094b40f2 2d320949 094814f0  .....K@.-2.I.H..
 052a0 c1fd0020 16f0cef9 0120fcf7 31fc0ff0  ... ..... ..1...
 052b0 9dfa024b 4ff44972 0349efe7 6c310020  ...KO.Ir.I..l1. 
 052c0 f0300020 e0360020 d0300020 b9500000  .0. .6. .0. .P..
 052d0 f8b50a4c 00270646 04f1f005 237d13b1  ...L.'.F....#}..
 052e0 a368b342 03d01834 ac42f7d1 f8bd2068  .h.B...4.B.... h
 052f0 10b1fef7 17f92760 2775f4e7 80a20020  ......'`'u..... 
 05300 08b54ff4 8c72064b 06490748 14f08afd  ..O..r.K.I.H....
 05310 002016f0 97f90120 fcf7fafb 0ff066fa  . ..... ......f.
 05320 602f0020 882f0020 e0360020 08b54ff4  `/. ./. .6. ..O.
 05330 b672064b 06490748 14f074fd 002016f0  .r.K.I.H..t.. ..
 05340 81f90120 fcf7e4fb 0ff050fa 602f0020  ... ......P.`/. 
 05350 402f0020 e0360020 09280bd8 08b5074b  @/. .6. .(.....K
 05360 53f82030 9b681868 18b10268 1a608307  S. 0.h.h...h.`..
 05370 02d108bd 00207047 fff7c2ff 4c330020  ..... pG....L3. 
 05380 09280bd8 51b18a07 08b5064b 53f82030  .(..Q......KS. 0
 05390 05d19b68 1a680a60 196008bd 7047fff7  ...h.h.`.`..pG..
 053a0 c5ff00bf 4c330020 024b0022 1a609a80  ....L3. .K.".`..
 053b0 fcf786bb 7cb20020 1a4a1368 591c10b5  ....|.. .J.hY...
 053c0 1160d3b1 184a1949 194811f0 7bfc194a  .`...J.I.H..{..J
 053d0 1368591c 1160f3b1 134a1749 174811f0  .hY..`...J.I.H..
 053e0 71fc174a 1368591c 11606bb1 0e4a1549  q..J.hY..`k..J.I
 053f0 1548bde8 104011f0 65bc144c 20461af0  .H...@..e..L F..
 05400 8bf9134b 1c60dde7 124c2046 1af08cf9  ...K.`...L F....
 05410 114b1c60 eae7114c 20461af0 95f9104b  .K.`...L F.....K
 05420 1c60d9e7 f49d0020 50520020 99190000  .`..... PR. ....
 05430 409f0020 9c9e0020 851c0000 5c9f0020  @.. ... ....\.. 
 05440 989d0020 e51c0000 289f0020 fc9d0020  ... ....(.. ... 
 05450 f89d0020 a09d0020 9c9d0020 a49e0020  ... ... ... ... 
 05460 a09e0020 40687047 1d4a0020 1d491368  ... @hpG.J. .I.h
 05470 10b51d4c c1e90040 591c1160 d3b11b4a  ...L...@Y..`...J
 05480 1b491c48 11f01efc 1b4a1368 591c1160  .I.H.....J.hY..`
 05490 f3b1164a 19491a48 11f014fc 194a1368  ...J.I.H.....J.h
 054a0 591c1160 6bb1114a 17491848 bde81040  Y..`k..J.I.H...@
 054b0 11f008bc 164c2046 1af02ef9 154b1c60  .....L F.....K.`
 054c0 dde7154c 20461af0 2ff9144b 1c60eae7  ...L F../..K.`..
 054d0 134c2046 1af038f9 124b1c60 d9e700bf  .L F..8..K.`....
 054e0 f49d0020 149d0020 44260020 50520020  ... ... D&. PR. 
 054f0 99190000 449f0020 9c9e0020 851c0000  ....D.. ... ....
 05500 609f0020 989d0020 e51c0000 2c9f0020  `.. ... ....,.. 
 05510 fc9d0020 f89d0020 a09d0020 9c9d0020  ... ... ... ... 
 05520 a49e0020 a09e0020 38b5064b 04460360  ... ... 8..K.F.`
 05530 eff31085 72b60ef0 0bfd05b9 62b62046  ....r.......b. F
 05540 38bd00bf ec210020 38b5c369 03b31c4b  8....!. 8..i...K
 05550 04461a78 22bb1b4b 1868fcf7 6bfa1a49  .F.x"..K.h..k..I
 05560 0020fcf7 affa94f8 223093b9 174be069  . ......"0...K.i
 05570 1a461946 fef7f4fa 0025e069 84f82150  .F.F.....%.i..!P
 05580 fef78cfb e069fef7 5ffbfff7 0dffe561  .....i.._......a
 05590 38bde069 fff7c8fb 002384f8 2230ebe7  8..i.....#.."0..
 055a0 00220b48 1a700ef0 99fceff3 108572b6  .".H.p........r.
 055b0 07480ef0 cdfc002d cdd162b6 cbe700bf  .H.....-..b.....
 055c0 fab30020 189f0020 1c9d0020 68310020  ... ... ... h1. 
 055d0 28520020 214a0020 214938b5 1368214c  (R. !J. !I8..h!L
 055e0 c1e90040 591c1160 1bb31f4a 1f492048  ...@Y..`...J.I H
 055f0 11f068fb 1f4a1368 591c1160 3bb31a4a  ..h..J.hY..`;..J
 05600 1d491e48 11f05efb 1d4a1368 591c1160  .I.H..^..J.hY..`
 05610 b3b11c4c 144a1c49 1c4811f0 53fb1c4b  ...L.J.I.H..S..K
 05620 2468114a 1c601b49 1b48bde8 384011f0  $h.J.`.I.H..8@..
 05630 49bb1a4c 20461af0 6ff8194b 1c60d4e7  I..L F..o..K.`..
 05640 184d104c 28461af0 6ff82560 e2e7164c  .M.L(F..o.%`...L
 05650 20461af0 79f8154b 1c60d0e7 f49d0020   F..y..K.`..... 
 05660 1c9d0020 44260020 50520020 99190000  ... D&. PR. ....
 05670 489f0020 9c9e0020 851c0000 649f0020  H.. ... ....d.. 
 05680 989d0020 9c9d0020 e51c0000 309f0020  ... ... ....0.. 
 05690 1c9f0020 29550000 28520020 fc9d0020  ... )U..(R. ... 
 056a0 f89d0020 a09d0020 a49e0020 a09e0020  ... ... ... ... 
 056b0 01727047 007a7047 90f86400 704700bf  .rpG.zpG..d.pG..
 056c0 d0f8b400 704700bf d0f8b800 704700bf  ....pG......pG..
 056d0 41727047 407a7047 81727047 807a7047  ArpG@zpG.rpG.zpG
 056e0 90f88e00 704700bf b0f95400 704700bf  ....pG....T.pG..
 056f0 b0f95600 704700bf b0f95800 704700bf  ..V.pG....X.pG..
 05700 b0f95a00 704700bf 704700bf 00207047  ..Z.pG..pG... pG
 05710 036f8b42 04d0836f 8b4208bf 82677047  .o.B...o.B...gpG
 05720 02677047 d0f8e400 704700bf 014b83f8  .gpG....pG...K..
 05730 9d107047 00e400e0 034b044a 1b7903f0  ..pG.....K.J.y..
 05740 0f039954 704700bf 089f0020 00e400e0  ...TpG..... ....
 05750 00207047 704700bf 704700bf ff207047  . pGpG..pG... pG
 05760 00207047 704700bf 00207047 00207047  . pGpG... pG. pG
 05770 00207047 00207047 00207047 00207047  . pG. pG. pG. pG
 05780 00207047 00207047 00207047 00207047  . pG. pG. pG. pG
 05790 704700bf 024b1868 0368d3f8 34311847  pG...K.h.h..41.G
 057a0 bc9e0020 704700bf 036810b5 0446d3f8  ... pG...h...F..
 057b0 48319847 002194f8 20000ef0 ebf9a06e  H1.G.!.. ......n
 057c0 bde81040 0df0eab8 10b50446 4ff48871  ...@.......FO..q
 057d0 0ff0d6fe 204610bd 10b50446 0df088fb  .... F.....F....
 057e0 204610bd 2de9f047 044684b0 0d46002a   F..-..G.F...F.*
 057f0 00f02b81 0267002b 00f01581 a3679c4a  ..+..g.+.....g.J
 05800 237ac4f8 e0501460 002b40f0 0581994d  #z...P.`.+@....M
 05810 0021236f 0026984f 28464ff0 0108c4e9  .!#o.&.O(FO.....
 05820 40330df0 0bfb3b68 4ff4a260 dff898c2  @3....;hO..`....
 05830 924a4ff0 020ec3f8 00c01a61 d883d882  .JO........a....
 05840 998b3a6c 21f08001 83f807e0 9a610904  ..:l!........a..
 05850 83f806e0 9e80090c de609983 998b89b2  .........`......
 05860 41f01001 9983998b 89b241f0 02019983  A.........A.....
 05870 998b21f0 08010904 090c9983 04219982  ..!..........!..
 05880 99609182 91607e49 c2f800c0 82f807e0  .`...`~I........
 05890 116182f8 06e0d083 9361d082 9680d660  .a.......a.....`
 058a0 918b21f0 80010904 090c9183 918b89b2  ..!.............
 058b0 41f01001 9183918b 89b241ea 0e019183  A.........A.....
 058c0 918b21f0 08010904 090c9183 6d4a5660  ..!.........mJV`
 058d0 16602a68 9868918b 21f08001 0904090c  .`*h.h..!.......
 058e0 d3e900ec 9183d968 c2e900ec c2e90201  .......h........
 058f0 29796548 01f01f0c 00eb5110 08fa0cfc  )yeH......Q.....
 05900 8000d3e9 04a9d3e9 06e3c2e9 04a9c2e9  ................
 05910 06e3dff8 b8910ab2 dff8b4e1 10315b4b  .............1[K
 05920 dff8b0a1 43f82190 c0f800c0 0e204ef8  ....C.!...... N.
 05930 2260dff8 a491e369 554909eb 03135b68  "`.....iUI....[h
 05940 4ef82210 534a1968 c4f8f010 3146c3f8  N.".SJ.h....1F..
 05950 0080136f 43f44003 13670ef0 39fe2946  ...oC.@..g..9.)F
 05960 15234d4d 2046aaf8 8430ab69 23f08063  .#MM F...0.i#..c
 05970 ab614a4b c3f84482 ab6ec4f8 ec30ab6e  .aJK..D..n...0.n
 05980 23f47f63 ab66ab6e d4f8a020 23ea0203  #..c.f.n... #...
 05990 434aab66 04f054f8 3946424a 204604f0  CJ.f..T.9FBJ F..
 059a0 4ff807f1 4001404a 204604f0 49f8e269  O...@.@J F..I..i
 059b0 3e4909eb 02193e48 d9e90137 1b683f68  >I....>H...7.h?h
 059c0 00970ff0 53feaa6e eb6e286f 696fcde9  ....S..n.n(oio..
 059d0 00013849 36480ff0 49fe374b 4ff08440  ..8I6H..I.7KO..@
 059e0 36491a68 9b680568 8068cde9 00503048  6I.h.h.h.h...P0H
 059f0 0ff03cfe baf88420 baf88630 92b23049  ..<.... ...0..0I
 05a00 9bb22b48 0ff032fe 404684f8 bc80c4e9  ..+H..2.@F......
 05a10 396604b0 bde8f087 a36f226f 29492448  9f.......o"o)I$H
 05a20 0ff024fe f3e6a36f 002b7ff4 e8aeb4f8  ..$....o.+......
 05a30 5400b4f8 563010fb 03f013f0 83fca067  T...V0.........g
 05a40 00287ff4 dcae0020 e3e7026f 002a7ff4  .(..... ...o.*..
 05a50 d2aeb0f8 5400b4f8 56200393 10fb02f0  ....T...V ......
 05a60 13f070fc 039b2067 00287ff4 c4aeeae7  ..p... g.(......
 05a70 bc9e0020 089f0020 a08c0020 20640020  ... ... ...  d. 
 05a80 60780020 00c01b40 40380038 005c0020  `x. ...@@8.8.\. 
 05a90 1e000080 00c00f40 00c00a40 00841f40  .......@...@...@
 05aa0 001e0020 081e0020 101e0020 181e0020  ... ... ... ... 
 05ab0 10420020 401e0020 00801b40 681e0020  .B. @.. ...@h.. 
 05ac0 881e0020 d81d0020 08c01b40 95570000  ... ... ...@.W..
 05ad0 00c00e40 00c03b40 c82b0020 2de9f843  ...@..;@.+. -..C
 05ae0 064640f6 48020021 624813f0 b7ffd6e9  .F@.H..!bH......
 05af0 25211368 0b42fcd1 13681942 40f0b780  %!.h.B...h.B@...
 05b00 01231068 5c1c1f46 0142a3b2 f9d0594d  .#.h\..F.B....YM
 05b10 af80d6e9 27120b68 1342fcd0 d6e92923  ....'..h.B....)#
 05b20 17681f40 fcd110f0 c9fed6f8 94e08046  .h.@...........F
 05b30 d6f89810 c5f8cc02 0ee0eb68 d6f8a020  ...........h... 
 05b40 0133d6f8 a800eb60 42ea0004 d6f89c30  .3.....`B......0
 05b50 1b681c40 a7425bd1 def80040 0c40ecd1  .h.@.B[....@.@..
 05b60 def80030 0b420ad1 eb880133 9bb2def8  ...0.B.....3....
 05b70 0020581c 1e460a42 83b2f8d0 ee8010f0  . X..F.B........
 05b80 9dfea0eb 0802eb68 00263b49 3b4f3b48  .......h.&;I;O;H
 05b90 2a600ff0 6bfdeb88 aa883949 37480ff0  *`..k.....9I7H..
 05ba0 65fdb5f8 44382a89 38463649 dff8d880  e...D8*.8F6I....
 05bb0 dff8d890 0ff05afd 0ae00ff0 57fd0134  ......Z.....W..4
 05bc0 05214846 0ff0f0fb 2b89a6b2 b3421ad3  .!HF....+....B..
 05bd0 a2b24146 38463346 05eb820e 0832f446  ..AF8F3F.....2.F
 05be0 35f81220 002ee8d0 def8cce2 dcf8c832  5.. ...........2
 05bf0 aeeb0303 0ff03afd 3307e0d0 01342b89  ......:.3....4+.
 05c00 a6b2b342 e4d21d48 bde8f843 0ff012bd  ...B...H...C....
 05c10 224201d0 174215d0 044211d0 074206d1  "B...B...B...B..
 05c20 2b890833 35f81320 013225f8 1320d6f8  +..35.. .2%.. ..
 05c30 a0301f42 04d1b5f8 44380133 a5f84438  .0.B....D8.3..D8
 05c40 274689e7 b5f80890 09f10109 1ffa89f9  'F..............
 05c50 a5f80890 05eb8909 10f030fe c9f8cc02  ..........0.....
 05c60 d6f8a800 0442d6e9 25e1e9d0 d6e7014d  .....B..%......M
 05c70 4fe700bf eca60020 681f0020 10420020  O...... h.. .B. 
 05c80 a01f0020 c41f0020 f41f0020 00200020  ... ... ... . . 
 05c90 08b52421 03480ff0 87fb0348 bde80840  ..$!.H.....H...@
 05ca0 0ff0c8bc b01d0020 10420020 70b50223  ....... .B. p..#
 05cb0 274d82b0 04462e68 80f8bc30 03e094f8  'M...F.h...0....
 05cc0 bc30022b 04d12b68 9b1bb3f5 7a7ff6d3  .0.+..+h....z...
 05cd0 94f8bc30 032b14d0 32211e48 0ff064fb  ...0.+..2!.H..d.
 05ce0 1d480ff0 a7fcb4f8 fa20b4f8 fc301b49  .H....... ...0.I
 05cf0 1948cde9 0032d4f8 0031d4f8 f4200ff0  .H...2...1... ..
 05d00 b5fc2046 00221649 03f09afe 20460022  .. F.".I.... F."
 05d10 144903f0 95fe0022 13492046 03f090fe  .I.....".I F....
 05d20 0d480ff0 87fcd4f8 ec20104b e1699a66  .H....... .K.i.f
 05d30 0f4bd4f8 f02003eb 01135b68 1a602868  .K... ....[h.`(h
 05d40 801bb0f5 7a7f2cbf 00200120 02b070bd  ....z.,.. . ..p.
 05d50 94b30020 4c1d0020 10420020 801d0020  ... L.. .B. ... 
 05d60 089f0020 a08c0020 e08c0020 00c00a40  ... ... ... ...@
 05d70 c82b0020 f8b57f4d 7f4b2a79 da77bff3  .+. ...M.K*y.w..
 05d80 4f8f90f8 bc30032b 00f0e780 90f80831  O....0.+.......1
 05d90 04467a4e 0133dbb2 80f80831 d8074ad5  .FzN.3.....1..J.
 05da0 33687749 d88a80b2 002800f0 df800138  3hwI.....(.....8
 05db0 d4f8f430 b4f8fc20 4ff0000c 80b201eb  ...0... O.......
 05dc0 80000439 28e0b4f9 56309a42 29da51f8  ...9(...V0.B).Q.
 05dd0 043fd4f8 0021c3f3 0713571c c4f80071  .?...!....W....q
 05de0 1370b4f8 fa30b4f9 54200133 9bb29342  .p...0..T .3...B
 05df0 a4f8fa30 b4f8fc20 05d10132 a4f8fac0  ...0... ...2....
 05e00 92b2a4f8 fc20d4f8 f4308842 03f1ff33  ..... ...0.B...3
 05e10 c4f8f430 00f09180 1746002b d3d1b4f9  ...0.....F.+....
 05e20 56309f42 0cd0d4f8 f4304bb1 b3f5226f  V0.B.....0K..."o
 05e30 00f08780 f8bd336c 5249d88a 80b2b3e7  ......3lRI......
 05e40 2a794d4b 9a760022 d4f8e430 d4f80401  *yMK.v."...0....
 05e50 0133a4f8 fc20c4f8 e800c4f8 e430d4f8  .3... .......0..
 05e60 e030002b 55d09847 002852d1 94f8bc20  .0.+U..G.(R.... 
 05e70 d4f80431 022ac4f8 003153d0 b4f8fe30  ...1.*...1S....0
 05e80 b4f95420 1a44b4f9 563003fb 02f20023  ..T .D..V0.....#
 05e90 c4f8f420 4ff6ff72 84f80831 a4f8fc30  ... O..r...1...0
 05ea0 3368c4f8 f820da8b 110403d4 4ff4a262  3h... ......O..b
 05eb0 da83da82 9a8b306c 22f00802 1204120c  ......0l".......
 05ec0 9a83c28b 120403d4 4ff4a262 c283c282  ........O..b....
 05ed0 818b2a68 21f00801 1e680904 090c8183  ..*h!....h......
 05ee0 918b21f0 80010904 090cd3e9 01409183  ..!..........@..
 05ef0 d968c2e9 0064c2e9 02012979 d3e90640  .h...d....)y...@
 05f00 d3e90465 1c4bc2e9 0465c2e9 0640d976  ...e.K...e...@.v
 05f10 f8bd94f8 bc20a36f 022ac4f8 0431c4f8  ..... .o.*...1..
 05f20 0031abd1 25211848 0ff03efa 17480ff0  .1..%!.H..>..H..
 05f30 81fb0323 84f8bc30 f8bd1746 b4f95630  ...#...0...F..V0
 05f40 6fe794f8 0831db07 4cbf3268 326c938b  o....1..L.2h2l..
 05f50 9bb243f0 08039383 f8bd3221 0c480ff0  ..C.......2!.H..
 05f60 23fa0a48 bde8f840 0ff064bb b4f8fc70  #..H...@..d....p
 05f70 55e700bf 089f0020 00800e40 a08c0020  U...... ...@... 
 05f80 20640020 60780020 401f0020 10420020   d. `x. @.. .B. 
 05f90 0c1f0020 40f20113 11222821 84462de9  ... @...."(!.F-.
 05fa0 f04f8360 4ff4fa63 00244ff0 ff360361  .O.`O..c.$O..6.a
 05fb0 10234ff0 ff08274d 848100f1 340e0663  .#O...'M....4..c
 05fc0 0c274ff0 02094ff0 780b4ff0 030ac0e9  .'O...O.x.O.....
 05fd0 05232923 c0e90713 0e23c0e9 0a684362  .#)#.....#...hCb
 05fe0 0fcdaee8 0f0095e8 0f008ee8 0f001a4b  ...............K
 05ff0 60468cf8 6040ccf8 6830184b ccf86440  `F..`@..h0.K..d@
 06000 8cf86c40 cce91c44 8cf8bc40 8cf88860  ..l@...D...@...`
 06010 acf88c80 ccf80030 ccf8c890 8cf88e40  .......0.......@
 06020 ccf89070 ccf8c070 ccf8ac40 8cf8ccb0  ...p...p...@....
 06030 ccf8d040 8cf8d440 ccf8e040 acf8fe40  ...@...@...@...@
 06040 ccf80041 ccf80c41 cce91e44 cce936a4  ...A...A...D..6.
 06050 bde8f08f 28070020 40990020 90230020  ....(.. @.. .#. 
 06060 2de9f041 836e0127 78250446 83f83071  -..A.n.'x%.F..0q
 06070 0e4683f8 a550090a 83f82f71 9046806e  .F...P..../q.F.n
 06080 03681b68 9847a06e f1b20368 1b689847  .h.h.G.n...h.h.G
 06090 0021a06e 0cf028fd 20b1257a 1dbb2846  .!.n..(. .%z..(F
 060a0 bde8f081 05463b46 3a463c21 a06e0cf0  .....F;F:F<!.n..
 060b0 99fd90b3 a36e2049 1a685269 8a4222d1  .....n I.hRi.B".
 060c0 93f8a220 384693f8 a3109142 2dd9511c  ... 8F.....B-.Q.
 060d0 83f8a210 13449c7e 10f09cfb 284688f8  .....D.~....(F..
 060e0 0040bde8 f0811d21 14480ff0 5df90025  .@.....!.H..]..%
 060f0 13480ff0 9ffa3246 12491148 0ff0b6fa  .H....2F.I.H....
 06100 2846bde8 f0811846 90470446 384610f0  (F.....F.G.F8F..
 06110 81fb002c 0dda3d46 c1e71a21 0a480ff0  ...,..=F...!.H..
 06120 43f90748 0ff086fa b9e73d46 10f072fb  C..H......=F..r.
 06130 b5e7e4b2 d2e700bf 5d060000 a41e0020  ........]...... 
 06140 10420020 c41e0020 d81e0020 70b50023  .B. ... ... p..#
 06150 82b0134e 05461221 12488df8 07300ff0  ...N.F.!.H...0..
 06160 23f93046 0ff066fa 0df10702 43f20a01  #.0F..f.....C...
 06170 2846fff7 75ff9df8 07400df1 070243f2  (F..u....@....C.
 06180 0b012846 2402fff7 6bff9df8 07300649  ..(F$...k....0.I
 06190 30461c43 22460ff0 69fa2046 02b070bd  0F.C"F..i. F..p.
 061a0 10420020 b8180020 cc180020 70b582b0  .B. ... ... p...
 061b0 00230646 0d460df1 060243f2 0a518df8  .#.F.F....C..Q..
 061c0 06308df8 0730fff7 4bff0df1 07020446  .0...0..K......F
 061d0 43f20b51 3046fff7 43ff9df8 06309df8  C..Q0F..C....0..
 061e0 07200646 1b0203f4 40731343 00ee103a  . .F....@s.C...:
 061f0 baeece0a 10f080fd f3ee047a 44ea0600  ...........zD...
 06200 20ee270a c0b285ed 000a02b0 70bd00bf   .'.........p...
 06210 2de9f043 002387b0 19210646 17488df8  -..C.#...!.F.H..
 06220 17300ff0 c1f8164c 43f20803 15480393  .0.....LC....H..
 06230 04f51279 0ff0fef9 dff84c80 114f039b  ...y......L..O..
 06240 01e034f8 083c1946 0df11702 30460834  ..4..<.F....0F.4
 06250 0393fff7 05ff9df8 17504146 54f8142c  .........PAFT..,
 06260 3846039b cde90055 0ff000fa 4c45e8d1  8F.....U....LE..
 06270 044807b0 bde8f043 0ff0dcb9 381b0020  .H.....C....8.. 
 06280 442a0060 10420020 541b0020 f8b5836e  D*.`.B. T.. ...n
 06290 01267827 044683f8 30610d46 83f8a570  .&x'.F..0a.F...p
 062a0 090a83f8 2f611746 806e0368 1b689847  ..../a.F.n.h.h.G
 062b0 a06ee9b2 03681b68 9847a06e 39460368  .n...h.h.G.n9F.h
 062c0 1b689847 3146a06e 0cf00efc 00b9f8bd  .h.G1F.n........
 062d0 237a0bb9 3046f8bd 17210448 0ff064f8  #z..0F...!.H..d.
 062e0 03480ff0 a7f93046 f8bd00bf f41e0020  .H....0F....... 
 062f0 10420020 70b5ce1c 0546062e 24d801f1  .B. p....F..$...
 06300 0804a400 e4b243f2 12210322 2846fff7  ......C..!."(F..
 06310 bdff2246 45f28651 2846fff7 b7ff0c4b  .."FE..Q(F.....K
 06320 45f28551 28469a5d fff7b0ff 132243f2  E..Q(F.]....."C.
 06330 12212846 fff7aaff 2846a322 43f21221  .!(F....(F."C..!
 06340 bde87040 fff7a2bf 20240326 dbe700bf  ..p@.... $.&....
 06350 ac0e0020 04310829 70b50546 29d80901  ... .1.)p..F)...
 06360 ceb20322 43f21221 2846fff7 8fff0446  ..."C..!(F.....F
 06370 324645f2 87512846 fff788ff 04430122  2FE..Q(F.....C."
 06380 45f28851 e4b22846 fff780ff 13220443  E..Q..(F.....".C
 06390 43f21221 2846e4b2 fff778ff a3220443  C..!(F....x..".C
 063a0 43f21221 2846e4b2 fff770ff 2043c0b2  C..!(F....p. C..
 063b0 70bd5026 d5e700bf 70b50d46 04460322  p.P&....p..F.F."
 063c0 43f21221 04351a4e 092d28bf 0525fff7  C..!.5.N.-(..%..
 063d0 5dffff22 45f20101 2046fff7 57ff16f8  ].."E... F..W...
 063e0 152006eb 450645f2 83512046 fff74eff  . ..E.E..Q F..N.
 063f0 727845f2 84512046 fff748ff 02224ff4  rxE..Q F..H.."O.
 06400 ab412046 fff742ff 412245f2 88512046  .A F..B.A"E..Q F
 06410 fff73cff 132243f2 12212046 fff736ff  ..<.."C..! F..6.
 06420 2046a322 43f21221 bde87040 fff72ebf   F."C..!..p@....
 06430 b40e0020 70b50131 102582b0 00238d40  ... p..1.%...#.@
 06440 8df80730 b5f5806f 02db0120 02b070bd  ...0...o... ..p.
 06450 0df10702 43f61821 0646fff7 01fe9df8  ....C..!.F......
 06460 07200446 43f61821 304622f0 030242ea  . .FC..!0F"...B.
 06470 2522d2b2 fff70aff 0443eab2 43f61821  %".......C..C..!
 06480 e4b23046 fff702ff 2043c0b2 02b070bd  ..0F.... C....p.
 06490 70b582b0 00230d46 45f23d01 0df10702  p....#.FE.=.....
 064a0 06468df8 0730fff7 dbfd003d 9df80720  .F...0.....=... 
 064b0 044645f2 3d0118bf 012502f0 7f023046  .FE.=....%....0F
 064c0 42eac512 fff7e2fe 2043c0b2 02b070bd  B....... C....p.
 064d0 70b582b0 00230546 0e460df1 070243f6  p....#.F.F....C.
 064e0 21018df8 0730fff7 bbfd9df8 07200446  !....0....... .F
 064f0 43f62101 28463eb1 42f00602 fff7c6fe  C.!.(F>.B.......
 06500 2043c0b2 02b070bd 02f0f902 fff7befe   C....p.........
 06510 2043c0b2 02b070bd 70b582b0 00230546   C....p.p....#.F
 06520 0e460df1 070243f6 20018df8 0730fff7  .F....C. ....0..
 06530 97fd9df8 07200446 43f62001 28463eb9  ..... .FC. .(F>.
 06540 42f00602 fff7a2fe 2043c0b2 02b070bd  B....... C....p.
 06550 02f0f902 fff79afe 2043c0b2 02b070bd  ........ C....p.
 06560 70b50c46 0546ff22 45f20101 06340c2c  p..F.F."E....4.,
 06570 28bf0624 fff78afe 01224ff4 ab412846  (..$....."O..A(F
 06580 04eb4404 fff782fe 0d4b45f2 86512846  ..D......KE..Q(F
 06590 1e191a5d fff77afe 45f28551 72782846  ...]..z.E..Qrx(F
 065a0 fff774fe b27845f2 82512846 fff76efe  ..t..xE..Q(F..n.
 065b0 2846a322 45f28851 bde87040 fff766be  (F."E..Q..p@..f.
 065c0 c80e0020 00000000 2de9f041 2ded028b  ... ....-..A-...
 065d0 82b00027 0e4643f2 03510df1 0702b0ee  ...'.FC..Q......
 065e0 408af0ee 608a0546 8df80770 fff738fd  @...`..F...p..8.
 065f0 9df90720 044622f0 0202eeb9 42f00202  ... .F".....B...
 06600 43f20351 2846d2b2 fff740fe b4ee488a  C..Q(F....@...H.
 06610 0443f1ee 10fae4b2 204608d6 f0eec87a  .C...... F.....z
 06620 9fed577a f4ee477a f1ee10fa 54dd02b0  ..Wz..Gz....T...
 06630 bdec028b bde8f081 02f0fd02 43f20351  ............C..Q
 06640 2846fff7 23fef4ee 688a0443 f1ee10fa  (F..#...h..C....
 06650 e4b22046 ebd6f0ee e87a9fed 497af4ee  .. F.....z..Iz..
 06660 477af1ee 10fae2dc f3ee046a 9fed427b  Gz.........j..B{
 06670 88eea60a b7eec00a 20ee070b b7eec00b  ........ .......
 06680 10f06afb f3ee007a 20ee270a fdee407a  ..j....z .'...@z
 06690 40f2fe33 17ee902a 9a4266dc 002a66da  @..3...*.Bf..*f.
 066a0 b8460df1 070243f6 18212846 fff7d8fc  .F....C..!(F....
 066b0 9df80730 064643f6 182123f0 03032846  ...0.FC..!#...(F
 066c0 48ea0302 d2b2fff7 e1fd0346 3a462846  H..........F:F(F
 066d0 1e4343f6 182137e0 f3ee046a 9fed267b  .CC..!7....j..&{
 066e0 88ee260a b7eec00a 20ee070b b7eec00b  ..&..... .......
 066f0 10f032fb f3ee007a 20ee270a fdee407a  ..2....z .'...@z
 06700 40f2fe33 17ee902a 9a4228dc 002a28da  @..3...*.B(..*(.
 06710 3746b046 0df10702 43f20a51 2846fff7  7F.F....C..Q(F..
 06720 9ffc9df8 07300646 43f20a51 23f00303  .....0.FC..Q#...
 06730 284648ea 0302d2b2 fff7a8fd 03463a46  (FH..........F:F
 06740 28461e43 43f20b51 3443fff7 9ffde4b2  (F.CC..Q4C......
 06750 2043c0b2 02b0bdec 028bbde8 f08140f2   C............@.
 06760 ff3242f3 0728d7b2 d4e740f2 ff3242f3  .2B..(....@..2B.
 06770 0728d7b2 95e700bf 1655b5bb b16b0240  .(.......U...k.@
 06780 ffff7f7f 00000000 2de9f04f 2ded048b  ........-..O-...
 06790 83b00027 b1fa81f4 43f20641 0df10702  ...'....C..A....
 067a0 b0ee408a f0ee608a 0646b0ee 419a8df8  ..@...`..F..A...
 067b0 0770fff7 55fc9df8 07206409 054622f0  .p..U.... d..F".
 067c0 010243f2 06413046 224304f0 0104fff7  ..C..A0F"C......
 067d0 5dfdb4ee 488a0543 f1ee10fa edb22846  ]...H..C......(F
 067e0 68bf0024 dcb1f4ee 498af1ee 10fa16d6  h..$....I.......
 067f0 f0eec87a 9fed587a f4ee477a f1ee10fa  ...z..Xz..Gz....
 06800 0ddcf0ee e87af4ee 477af1ee 10fa06dc  .....z..Gz......
 06810 f0eec97a f4ee477a f1ee10fa 04dd03b0  ...z..Gz........
 06820 bdec048b bde8f08f f3ee046a 9fed487b  ...........j..H{
 06830 88ee260a b7eec00a 20ee070b b7eec00b  ..&..... .......
 06840 10f08afa fdee407a 40f6fe73 17ee904a  ......@z@..s...J
 06850 9c426adc bc426ada 3c46bb46 f3ee046a  .Bj..Bj.<F.F...j
 06860 9fed3b7b 88eea60a b7eec00a 20ee070b  ..;{........ ...
 06870 b7eec00b 10f070fa fdee407a 40f6fe73  ......p...@z@..s
 06880 17ee908a 98455cdc b8f1000f 5bda4ff0  .....E\.....[.O.
 06890 0008c246 f3ee046a 9fed2d7b 89ee260a  ...F...j..-{..&.
 068a0 b7eec00a 20ee070b b7eec00b 10f054fa  .... .........T.
 068b0 fdee407a 40f6fe73 17ee907a 9f423adc  ..@z@..s...z.B:.
 068c0 002f3ada 0027b946 5a464ff4 50513046  ./:..'.FZFO.PQ0F
 068d0 fff7dcfc 22460446 43f20141 3046fff7  ...."F.FC..A0F..
 068e0 d5fc2043 524643f2 02410543 3046fff7  .. CRFC..A.C0F..
 068f0 cdfc4246 edb243f2 03412843 c4b23046  ..BF..C..A(C..0F
 06900 fff7c4fc 4a460443 43f20441 3046e4b2  ....JF.CC..A0F..
 06910 fff7bcfc 3a460443 43f20541 3046e4b2  ....:F.CC..A0F..
 06920 fff7b4fc 2043c0b2 79e740f6 ff74c4f3  .... C..y.@..t..
 06930 072be4b2 92e740f6 ff77c7f3 0729ffb2  .+....@..w...)..
 06940 c2e740f6 ff78c8f3 072a5ffa 88f8a1e7  ..@..x...*_.....
 06950 1655b5bb b16b0240 ffff7f7f 436e124a  .U...k.@....Cn.J
 06960 063b1088 022b15d8 b1f5a06f 0bd80b1d  .;...+.....o....
 06970 9bb25b00 9842b8bf 1846b1f5 207f80b2  ..[..B...F.. ...
 06980 01d8a030 80b2fc30 40f29e53 9842b8bf  ...0...0@..S.B..
 06990 18467047 b1f5207f f3d90431 49008842  .FpG.. ....1I..B
 069a0 b8bf0846 80b2eee7 dcb30020 2de9f047  ...F....... -..G
 069b0 002382b0 04460e46 8df80730 436e082b  .#...F.F...0Cn.+
 069c0 00f09780 731e072b 00f2a480 dfe813f0  ....s..+........
 069d0 1201c200 1c01a200 1a01c200 12010800  ................
 069e0 30224ff4 86412046 fff750fc 05460022  0"O..A F..P..F."
 069f0 45f21f01 2046fff7 49fc0543 0df10702  E... F..I..C....
 06a00 44f21371 edb22046 fff72afb 9df80720  D..q.. F..*.... 
 06a10 054344f2 137102f0 f8022046 edb28df8  .CD..q.... F....
 06a20 072042f0 0302fff7 31fc4022 054343f6  . B.....1.@".CC.
 06a30 20012046 fff72afc 692243f2 36012046   . F..*.i"C.6. F
 06a40 fff724fc 312243f2 35012046 fff71efc  ..$.1"C.5. F....
 06a50 d4f8c830 75490822 7548edb2 0ef006fe  ...0uI."uH......
 06a60 0df10702 43f62101 2046fff7 f9fa9df8  ....C.!. F......
 06a70 07208246 43f62101 22f02002 204645ea  . .FC.!.". . FE.
 06a80 0a0542f0 2602fff7 01fc0df1 07020746  ..B.&..........F
 06a90 43f20201 2046fff7 e3fa9df8 07208146  C... F....... .F
 06aa0 43f20201 02f0e302 2f432046 fff7eefb  C......./C F....
 06ab0 0df10702 804643f2 06012046 fff7d0fa  .....FC... F....
 06ac0 49ea0702 48ea0203 9df90720 184342f0  I...H...... .CB.
 06ad0 2802c5b2 d2b243f2 06012046 fff7d6fb  (.....C... F....
 06ae0 544b0543 1b88d3b9 66662846 02b0bde8  TK.C....ff(F....
 06af0 f087d0f8 c820504b 53f83210 490705d1  ..... PKS.2.I...
 06b00 03ebc203 5b685b07 3ff45caf 237a002b  ....[h[.?.\.#z.+
 06b10 40f08280 01252846 02b0bde8 f087d4f8  @....%(F........
 06b20 c8202046 444b33f8 3210fff7 17ff0746  .  FDK3.2......F
 06b30 c0f30722 43f60c01 2046fff7 a7fb43f6  ..."C... F....C.
 06b40 0d01fab2 07462046 fff7a0fb 0743ffb2  .....F F.....C..
 06b50 3d43c9e7 00224ff4 86412046 fff796fb  =C..."O..A F....
 06b60 01220746 45f21f01 2046fff7 8ffbd4f8  .".FE... F......
 06b70 c8300743 32462d49 2d48ffb2 0ef076fd  .0.C2F-I-H....v.
 06b80 0df10702 43f62101 2046fff7 69fa9df8  ....C.!. F..i...
 06b90 07208046 43f62101 02f0df02 2046fff7  . .FC.!..... F..
 06ba0 75fb0df1 07020546 43f20201 2046fff7  u......FC... F..
 06bb0 57fa9df8 07208146 43f20201 22f01c02  W.... .FC..."...
 06bc0 204645ea 080542f0 1c02fff7 5ffb40ea   FE...B....._.@.
 06bd0 09030df1 070243f2 0601dbb2 2046edb2  ......C..... F..
 06be0 1f43fff7 3dfa9df9 07203843 22f02802  .C..=.... 8C".(.
 06bf0 05436fe7 10224ff4 86412046 fff746fb  .Co.."O..A F..F.
 06c00 0022aee7 6f22a6e7 30224ff4 86412046  ."..o"..0"O..A F
 06c10 fff73cfb 0022a4e7 29210848 0ef0c4fb  ..<.."..)!.H....
 06c20 03480125 0ef006fd 5fe700bf 1c1b0020  .H.%...._...... 
 06c30 10420020 dcb30020 50090020 f01a0020  .B. ... P.. ... 
 06c40 037a2de9 f04f0446 0d461646 2ded048b  .z-..O.F.F.F-...
 06c50 a0f85410 97b0a0f8 5620002b 40f03a82  ..T.....V .+@.:.
 06c60 636e0022 082b8df8 572000f0 2582b6f5  cn.".+..W ..%...
 06c70 f36f00f3 1b82b5f5 236f00f3 17827c4b  .o......#o....|K
 06c80 7c4f1988 3a88a942 b8bf2946 b2421ffa  |O..:..B..)F.B..
 06c90 81feb8bf 3246a3f8 00e0d1f5 236390b2  ....2F......#c..
 06ca0 934648bf 01333880 5b100293 d2f5f363  .FH..38.[......c
 06cb0 714a48bf 0133b2f9 0090029a 5f10029b  qJH..3......_...
 06cc0 91451197 c3f10003 a8bf9146 6a4a9945  .E.........FjJ.E
 06cd0 b8bf9946 7b420ffa 89f9a2f8 0090674a  ...F{B........gJ
 06ce0 b2f900c0 bc45a8bf bc469c45 b8bf9c46  .....E...F.E...F
 06cf0 b5eb5e0f 4fea5e03 0ffa8cfc a2f800c0  ..^.O.^.........
 06d00 40f3f981 4ff01108 01270023 13970593  @...O....'.#....
 06d10 cdf80c80 0ef11003 9ab200f1 0803c2f5  ................
 06d20 236a9bb2 0692baf1 000f0393 5346b8bf  #j..........SF..
 06d30 0af10303 b9f1000f 4feaa303 b8bf09f1  ........O.......
 06d40 010903eb 69035b00 5345a8bf 534613f1  ....i.[.SE..SF..
 06d50 080f80f2 c6814ff0 000a08ee 90aacdf8  ......O.........
 06d60 28a00a9b 0ef10f0e 9e441ffa 8ef30493  (........D......
 06d70 039bc3f5 f36ebef1 000f7346 b8bf0ef1  .....n....sF....
 06d80 0303bcf1 000f4fea a303b8bf 0cf1010c  ......O.........
 06d90 a3eb6c03 5b007345 a8bf7346 1a1dc0f2  ..l.[.sE..sF....
 06da0 bb810633 9ab20b92 c3f30722 dbb209ee  ...3......."....
 06db0 102a1093 07ee901a 0b9b0730 f8eee76a  .*.........0...j
 06dc0 07ee90ba 1844069b b8eee77a 07ee906a  .....D.....z...j
 06dd0 1ffa80f9 b8eee76a 07ee905a f8eee77a  .......j...Z...z
 06de0 87ee068a c6eea75a b3fbf7f1 f4ee485a  .......Z......HZ
 06df0 f1ee10fa 48bfb0ee 658a67ee 887a26ee  ....H...e.g..z&.
 06e00 086afcee e77abcee c66a17ee 903a9bb2  .j...z...j...:..
 06e10 ca1a1293 039b48bf 01325010 c2f34f02  ......H..2P...O.
 06e20 b3fbf7f3 0c9216ee 102a03f1 180b0790  .........*......
 06e30 97b22046 da1b124b 48bf0132 1980bbf1  .. F...KH..2....
 06e40 f80fa9b2 4fea6203 b8bf4ff0 f80b0893  ....O.b...O.....
 06e50 c2f34f03 0d93fff7 81fd1ffa 8bf2237a  ..O...........#z
 06e60 09900f92 82b20e92 002b40f0 5c8109e0  .........+@.\...
 06e70 445a0020 425a0020 deb30020 e0b30020  DZ. BZ. ... ... 
 06e80 dcb30020 18ee902a 4ff46051 2046fff7  ... ...*O.`Q F..
 06e90 fdf90746 524643f6 01012046 c5f3072a  ...FRFC... F...*
 06ea0 fff7f4f9 074319ee 102a43f6 0201ffb2  .....C...*C.....
 06eb0 2046fff7 ebf9109a 074343f6 03012046   F.......CC... F
 06ec0 edb2ffb2 fff7e2f9 049b0743 43f60401  ...........CC...
 06ed0 1a0a2046 ffb2fff7 d9f99df8 10200743  .. F......... .C
 06ee0 43f60501 2046ffb2 fff7d0f9 43f60601  C... F......C...
 06ef0 07434fea 19222046 ffb2fff7 c7f943f6  .CO.." F......C.
 06f00 07010743 5ffa89f2 2046c6f3 0729ffb2  ...C_... F...)..
 06f10 fff7bcf9 52460743 43f60801 2046f6b2  ....RF.CC... F..
 06f20 ffb2fff7 b3f92a46 074343f6 09012046  ......*F.CC... F
 06f30 ffb2fff7 abf94a46 074343f6 0a012046  ......JF.CC... F
 06f40 ffb2fff7 a3f93246 074343f6 0b012046  ......2F.CC... F
 06f50 ffb2fff7 9bf90e9b 074343f6 0c011a0a  .........CC.....
 06f60 2046ffb2 fff792f9 9df82420 074343f6   F........$ .CC.
 06f70 0d012046 ffb2fff7 89f90f9b 074343f6  .. F.........CC.
 06f80 0e011a0a 2046ffb2 fff780f9 43f60f01  .... F......C...
 06f90 07435ffa 8bf22046 ffb2fff7 77f90c9b  .C_... F....w...
 06fa0 074343f6 10011a0a 2046ffb2 fff76ef9  .CC..... F....n.
 06fb0 9df81c20 074343f6 11012046 ffb2fff7  ... .CC... F....
 06fc0 65f90d9b 384343f6 12011a0a c7b22046  e...8CC....... F
 06fd0 fff75cf9 9df82020 384343f6 1301c7b2  ..\...  8CC.....
 06fe0 2046fff7 53f94246 074343f6 14012046   F..S.BF.CC... F
 06ff0 ffb2fff7 4bf94246 074343f6 15012046  ....K.BF.CC... F
 07000 ffb2fff7 43f90df1 57020743 43f62001  ....C...W..CC. .
 07010 2046ffb2 fff724f8 9df85720 3843059b   F....$...W 8C..
 07020 22f00102 43f62001 c7b22046 1a43fff7  "...C. ... F.C..
 07030 2df93843 0df15702 43f62101 c7b22046  -.8C..W.C.!... F
 07040 fff70ef8 9df85720 0743059b 22f00102  ......W .C.."...
 07050 43f62101 ffb22046 1a43fff7 17f90743  C.!... F.C.....C
 07060 524644f2 0261ffb2 2046fff7 0ff92a46  RFD..a.. F....*F
 07070 384344f2 0361c5b2 2046fff7 07f94a46  8CD..a.. F....JF
 07080 054344f2 04612046 edb2fff7 fff83246  .CD..a F......2F
 07090 054344f2 05612046 edb2fff7 f7f82843  .CD..a F......(C
 070a0 c0b217b0 bdec048b bde8f08f 012017b0  ............. ..
 070b0 bdec048b bde8f08f 45ea0603 59073ff4  ........E...Y.?.
 070c0 d6ad237a 002bf1d0 2c215148 0ef06cf9  ..#z.+..,!QH..l.
 070d0 0120ece7 13464f48 0a464f49 0ef0c6fa  . ...FOH.FOI....
 070e0 bee50833 9ab25ffa 83fa0a92 c3f30722  ...3.._........"
 070f0 08ee902a 35e6b6eb 500f4fea 50073ff7  ...*5...P.O.P.?.
 07100 01ae1946 bb464ff0 31080227 01231397  ...F.FO.1..'.#..
 07110 0593cdf8 0c80fde5 02230022 109309ee  .........#."....
 07120 102a0b93 46e61221 3c480ef0 3df93948  .*..F..!<H..=.9H
 07130 0ef080fa 09213a48 0ef036f9 35480ef0  .....!:H..6.5H..
 07140 79fa119b 374a0193 029b3749 0093374b  y...7J....7I..7K
 07150 12881b88 2f480ef0 89fa354b 354ab3f9  ..../H....5K5J..
 07160 0030b2f9 00203449 2a480ef0 7ffa0921  .0... 4I*H.....!
 07170 32480ef0 19f92748 0ef05cfa 139a3049  2H....'H..\...0I
 07180 24480ef0 73fa0921 2e480ef0 0df92148  $H..s..!.H....!H
 07190 0ef050fa 0a9b0499 069a0093 0191039b  ..P.............
 071a0 29491c48 0ef062fa 4b460b9a 27491948  )I.H..b.KF..'I.H
 071b0 0ef05cfa 26491748 0ef058fa b7eec87a  ..\.&I.H..X....z
 071c0 129b2449 00930197 124853ec 172b0ef0  ..$I.....HS..+..
 071d0 4dfabdf8 2030bdf8 1c201f49 0d480ef0  M... 0... .I.H..
 071e0 45fa1e49 0b480ef0 41fa1d4b 1d491a88  E..I.H..A..K.I..
 071f0 1ffa8bf3 07480093 bdf82430 0ef036fa  .....H....$0..6.
 07200 43464246 18490348 0ef030fa 3ae600bf  CFBF.I.H..0.:...
 07210 f8180020 10420020 ec180020 28190020  ... .B. ... (.. 
 07220 3c190020 445a0020 48190020 425a0020  <.. DZ. H.. BZ. 
 07230 e0b30020 deb30020 90190020 b4190020  ... ... ... ... 
 07240 c0190020 d4190020 e0190020 1c1a0020  ... ... ... ... 
 07250 3c1a0020 481a0020 6c1a0020 841a0020  <.. H.. l.. ... 
 07260 dcb30020 901a0020 c81a0020 11b10ab1  ... ... ... ....
 07270 fff7e6bc 01207047 1a2918d8 0f4a10b4  ..... pG.)...J..
 07280 0468c0f8 c810e36b 52f83140 02ebc102  .h.....kR.1@....
 07290 0b495268 8b420cd1 2ab124b1 21465df8  .IRh.B..*.$.!F].
 072a0 044bfff7 cdbc0120 5df8044b 70470120  .K..... ]..KpG. 
 072b0 70472146 5df8044b 184700bf 50090020  pG!F]..K.G..P.. 
 072c0 6d720000 10b50c46 02460e49 0e482346  mr.....F.F.I.H#F
 072d0 0ef0ccf9 362c08d9 0d210c48 0ef064f8  ....6,...!.H..d.
 072e0 0948bde8 10400ef0 a5b9094b 094903eb  .H...@.....K.I..
 072f0 04130548 d3e90132 bde81040 12681b68  ...H...2...@.h.h
 07300 0ef0b4b9 cc070020 10420020 d4070020  ....... .B. ... 
 07310 c82b0020 e4070020 2de9f043 ff2383b0  .+. ... -..C.#..
 07320 184e0446 89461546 d6f80080 41f28837  .N.F.F.F....A..7
 07330 8df80730 0be0fef7 93fe0120 0ff06afa  ...0....... ..j.
 07340 3368a3eb 0803bb42 0bd89df8 07309d42  3h.....B.....0.B
 07350 0df10702 49462046 edd10020 03b0bde8  ....IF F... ....
 07360 f083237a 23b94ff0 ff3003b0 bde8f083  ..#z#.O..0......
 07370 2a460549 05480ef0 79f94ff0 ff3003b0  *F.I.H..y.O..0..
 07380 bde8f083 94b30020 281d0020 10420020  ....... (.. .B. 
 07390 00235849 584a2de9 f0411380 06460b80  .#XIXJ-..A...F..
 073a0 4ff42361 554a564c 11804ff4 f361554a  O.#aUJVL..O..aUJ
 073b0 11801122 54490b80 43f20311 fef766ff  ..."TI..C.....f.
 073c0 822243f2 08010546 3046fef7 5fff0346  ."C....F0F.._..F
 073d0 05201d43 0ff01efa 20224021 edb24723  . .C.... "@!..G#
 073e0 01e06178 a27841ea 03213046 fef74eff  ..ax.xA..!0F..N.
 073f0 14f8033f 0543002b f3d196f8 d43033b9  ...?.C.+.....03.
 07400 4ff49670 0ff006fa 2846bde8 f0813f4f  O..p....(F....?O
 07410 20224ff4 40513046 3c46fef7 37ff07f6   "O.@Q0F<F..7...
 07420 ed771921 3a48c4f5 00480df0 bdff3948  .w.!:H...H....9H
 07430 0ef000f9 08eb0401 14f8012f 304689b2  .........../0F..
 07440 fef724ff bc4245ea 0005f3d1 032243f2  ..$..BE......"C.
 07450 22013046 fef71aff 002243f2 23013046  ".0F....."C.#.0F
 07460 fef714ff 002243f2 24013046 fef70eff  ....."C.$.0F....
 07470 002243f2 25013046 fef708ff 002243f2  ."C.%.0F....."C.
 07480 26013046 fef702ff 002243f2 27013046  &.0F....."C.'.0F
 07490 fef7fcfe 002243f2 28013046 fef7f6fe  ....."C.(.0F....
 074a0 7f2243f2 29013046 fef7f0fe 00224ff4  ."C.).0F....."O.
 074b0 40513046 fef7eafe 702243f2 29010446  @Q0F....p"C.)..F
 074c0 3046fff7 29ff0028 45ea0005 07db2543  0F..)..(E.....%C
 074d0 4ff49670 0ff09ef9 2846bde8 f081337a  O..p....(F....3z
 074e0 002bf4d0 1b210c48 0df05eff 09480ef0  .+...!.H..^..H..
 074f0 a1f8ece7 deb30020 e0b30020 445a0020  ....... ... DZ. 
 07500 540b0020 425a0020 dcb30020 27420020  T.. BZ. ... 'B. 
 07510 08200020 10420020 24200020 30b5d0f8  . . .B. $ . 0...
 07520 c04001f0 0f019df8 0ce01c4d 1ef0100f  .@.........M....
 07530 0ef00f0e 05fb04fc 9df81040 18bf4fea  ...........@..O.
 07540 5c0c0a29 0cbf0a21 0821bcfb f1f1bef1  \..)...!.!......
 07550 050f04d8 dfe80ef0 0706031a 17201048  ............. .H
 07560 a0fb0101 490801fb 03f304f0 30011209  ....I.......0...
 07570 2029b3fb f2f00bd0 30290bd0 102900d0   )......0)...)..
 07580 30bd4008 30bd0648 a0fb0101 8908eae7  0.@.0..H........
 07590 800830bd c00830bd c908e4e7 40420f00  ..0...0.....@B..
 075a0 abaaaaaa f0b587b0 00230446 0e4603aa  .........#.F.F..
 075b0 43f23401 8df80c30 8df80d30 8df80e30  C.4....0...0...0
 075c0 8df80f30 8df81030 8df81130 8df81230  ...0...0...0...0
 075d0 8df81330 8df81530 8df81630 8df81730  ...0...0...0...0
 075e0 fef73efd 05460df1 0d0243f2 35012046  ..>..F....C.5. F
 075f0 fef736fd 05430df1 0e0243f2 3601edb2  ..6..C....C.6...
 07600 2046fef7 2dfd0df1 0f020543 43f23701   F..-......CC.7.
 07610 2046edb2 fef724fd 04aa2843 43f20811   F....$...(CC...
 07620 c5b22046 fef71cfd 0df11502 28434ff4  .. F........(CO.
 07630 5451c5b2 2046fef7 13fd0df1 16022843  TQ.. F........(C
 07640 43f20151 c5b22046 fef70afd 0df11702  C..Q.. F........
 07650 054343f2 02512046 edb2fef7 01fd0df1  .CC..Q F........
 07660 11022843 43f60c01 c5b22046 fef7f8fc  ..(CC..... F....
 07670 0df11202 054343f6 0d012046 edb2fef7  .....CC... F....
 07680 effc0df1 13022843 43f60e01 c7b22046  ......(CC..... F
 07690 fef7e6fc 05aa3843 43f60f01 c5b22046  ......8CC..... F
 076a0 fef7defc 07462046 9df81640 9df81530  .....F F...@...0
 076b0 2f432402 9df81320 9df80c10 44ea0344  /C$.... ....D..D
 076c0 9df81730 1c439df8 14302411 43ea0223  ...0.C...0$.C..#
 076d0 9df80d20 9c4228bf 1c469df8 10300193  ... .B(..F...0..
 076e0 9df80f30 00939df8 0e30fff7 17ff9df8  ...0.....0......
 076f0 11109df8 12200346 f8b242ea 01220649  ..... .F..B..".I
 07700 04fb02f2 81fb0341 db17c3eb a143b2fb  .......A.....C..
 07710 f3f33360 07b0f0bd 83de1b43 2de9f041  ..3`.......C-..A
 07720 86b00025 1746b1fa 81f80df1 0e0243f2  ...%.F........C.
 07730 03510646 8df80e50 8df80f50 4fea5818  .Q.F...P...PO.X.
 07740 8df81050 8df81150 8df81250 8df81350  ...P...P...P...P
 07750 8df81450 8df81550 8df81650 fef780fc  ...P...P...P....
 07760 9df80e20 044643f2 03513046 22f00102  ... .FC..Q0F"...
 07770 42ea0802 fef78afd af4244ea 0004e4b2  B........BD.....
 07780 02dbb8f1 000f03d1 204606b0 bde8f081  ........ F......
 07790 0df10f02 43f23401 3046fef7 61fc8046  ....C.4.0F..a..F
 077a0 04aa43f2 35013046 fef75afc 48ea0000  ..C.5.0F..Z.H...
 077b0 0df11102 43f23601 04433046 fef750fc  ....C.6..C0F..P.
 077c0 0df11202 e4b243f2 37012043 c4b23046  ......C.7. C..0F
 077d0 fef746fc 0df11302 204343f2 0811c4b2  ..F..... CC.....
 077e0 3046fef7 3dfc05aa 204343f6 0c01c4b2  0F..=... CC.....
 077f0 3046fef7 35fc0df1 15022043 43f60d01  0F..5..... CC...
 07800 5ffa80f8 3046fef7 2bfc0df1 160248ea  _...0F..+.....H.
 07810 000843f6 0e013046 5ffa88f8 fef720fc  ..C...0F_..... .
 07820 0df11702 48ea0008 43f60f01 3046fef7  ....H...C...0F..
 07830 17fc9df8 13209df8 16305ffa 88f80192  ..... ...0_.....
 07840 9df81740 48ea0008 9df81220 30469df8  ...@H...... 0F..
 07850 0f1044ea 03240092 5ffa88f8 9df81130  ..D..$.._......0
 07860 9df81020 fff75afe 284a9df8 141082fb  ... ..Z.(J......
 07870 0032c317 c3eba243 9df81520 07fb03f3  .2.....C... ....
 07880 42ea0122 93fbf2f3 4ff6fe72 934237dd  B.."....O..r.B7.
 07890 4ff6ff73 1d01c3f3 0732c3f3 0717edb2  O..s.....2......
 078a0 9c424ff4 54513046 b8bf1c46 fef7eefc  .BO.TQ0F...F....
 078b0 40ea0800 3a4643f2 0151c7b2 3046fef7  @...:FC..Q..0F..
 078c0 e5fc2a46 384343f2 0251c5b2 3046fef7  ..*F8CC..Q..0F..
 078d0 ddfcc4f3 07220543 43f60e01 3046edb2  .....".CC...0F..
 078e0 fef7d4fc 43f60f01 e2b245ea 00043046  ....C.....E...0F
 078f0 e4b2fef7 cbfc2043 c0b206b0 bde8f081  ...... C........
 07900 002bc7da 2f462a46 2b46c9e7 83de1b43  .+../F*F+F.....C
 07910 38b50122 054643f2 2201fef7 b7fc0446  8..".FC."......F
 07920 082243f2 22012846 fef7b0fc 04430022  ."C.".(F.....C."
 07930 43f22301 2846e4b2 fff7eefc 012243f2  C.#.(F......."C.
 07940 23012846 fef7a2fc 04430422 43f22201  #.(F.....C."C.".
 07950 e4b22846 fef79afc 00220443 43f22301  ..(F.....".CC.#.
 07960 2846e4b2 fff7d8fc 204638bd 2de9f04f  (F...... F8.-..O
 07970 85b00446 0f469246 9df83c00 9b46e072  ...F.F.F..<..F.r
 07980 606aff28 1cd0a36a 002b0cda 5e1c00f0  `j.(...j.+..^...
 07990 bf819d1c 00f0c381 03330ed1 c0b20321  .........3.....!
 079a0 0cf0f8f8 09e0c0b2 01210cf0 f3f894f8  .........!......
 079b0 281094f8 24000cf0 b1f80520 0ef02aff  (...$...... ..*.
 079c0 e06aff28 1cd0236b 002b0cda 591c00f0  .j.(..#k.+..Y...
 079d0 9a819a1c 00f0a881 03330ed1 c0b20321  .........3.....!
 079e0 0cf0d8f8 09e0c0b2 01210cf0 d3f894f8  .........!......
 079f0 301094f8 2c000cf0 91f80520 0ef00aff  0...,...... ....
 07a00 a06e17f0 9dfe8b4b 33f93750 a4f85450  .n.....K3.7P..TP
 07a10 bdb103eb c703c4f8 c8705b68 a4f85630  .........p[h..V0
 07a20 002384f8 c4300af1 ff33072b 0dd8dfe8  .#...0...3.+....
 07a30 13f0e100 1100f500 0c00f900 1100e100  ................
 07a40 fc00237a 002b40f0 de800025 284605b0  ..#z.+@....%(F..
 07a50 bde8f08f 0223e365 01236366 0021207d  .....#.e.#cf.! }
 07a60 04f13006 0cf096f8 0021207e 00250cf0  ..0......! ~.%..
 07a70 91f80321 207f0cf0 8df80121 94f82000  ...! ......!.. .
 07a80 0cf088f8 236a6c49 0193e369 6b480093  ....#jlI...ikH..
 07a90 dff8a881 dff8c091 d4e90523 0df0e6fd  ...........#....
 07aa0 236b6749 40460193 e36a0093 a36a626a  #kgI@F...j...jbj
 07ab0 0df0dcfd 56f8040f 0321c0b2 0cf06af8  ....V....!....j.
 07ac0 2a460135 33684946 40460df0 cffd082d  *F.53hIF@F.....-
 07ad0 f0d16169 5b4d0801 05eb0111 2e58c868  ..ai[M.......X.h
 07ae0 0836c4f8 98002046 c4f89460 d4e90623  .6.... F...`...#
 07af0 110105eb 02126958 d2680831 c4f8a020  ......iX.h.1... 
 07b00 1a0105eb 0313c4f8 9c10aa58 db680832  ...........X.h.2
 07b10 c4f8a830 2368c4f8 a420d3f8 44319847  ...0#h... ..D1.G
 07b20 606aff28 26d0c0b2 01210cf0 33f894f8  `j.(&....!..3...
 07b30 24300026 444a1901 05eb0313 6958d868  $0.&DJ......iX.h
 07b40 c1f88800 0296029b 934205d8 029b0133  .........B.....3
 07b50 0293029b 9342f9d9 0023c1f8 84003a4a  .....B...#....:J
 07b60 0393039b 934205d8 039b0133 0393039b  .....B.....3....
 07b70 9342f9d9 a06e17f0 e3fd4ff4 fa700ef0  .B...n....O..p..
 07b80 49fe2368 2046d3f8 88309847 00230146  I.#h F...0.G.#.F
 07b90 10222a48 0df08afd 28480df0 4bfd2368  ."*H....(H..K.#h
 07ba0 2046d3f8 88309847 45f24063 984255d0   F...0.GE.@c.BU.
 07bb0 23682046 25495a69 8a4240f0 ae80d3f8  #h F%IZi.B@.....
 07bc0 48319847 94f82000 00210bf0 e3ffa06e  H1.G.. ..!.....n
 07bd0 0af0e4fe 237a002b 3ff437af 14210025  ....#z.+?.7..!.%
 07be0 1b480df0 e1fb1548 0df024fd 284605b0  .H.....H..$.(F..
 07bf0 bde8f08f 01230222 4ff0030a 84f8c430  .....#."O......0
 07c00 0423e265 29e71521 12480df0 cdfb0b48  .#.e)..!.H.....H
 07c10 0df010fd 284605b0 bde8f08f 0223e365  ....(F.......#.e
 07c20 00231ae7 0223e365 17e70223 e3650823  .#...#.e...#.e.#
 07c30 13e700bf 50090020 7c1b0020 10420020  ....P.. |.. .B. 
 07c40 9c1b0020 c82b0020 9f860100 a9570000  ... .+. .....W..
 07c50 cc1b0020 641b0020 b81b0020 7a497b48  ... d.. ... zI{H
 07c60 0df004fd d4f8c030 79490193 d4f8c830  .......0yI.....0
 07c70 0e9a0093 7548636e 0df0f8fc 5a467549  ....uHcn....ZFuI
 07c80 72480df0 f3fce37a 23b92368 2046d3f8  rH.....z#.#h F..
 07c90 38319847 2368704a d3f80c31 934240f0  81.G#hpJ...1.B@.
 07ca0 bf806e4b 662283f8 9d202368 6c4ad3f8  ..nKf"... #hlJ..
 07cb0 10319342 40f0b880 6a4bc021 674a1b79  .1.B@...jK.!gJ.y
 07cc0 03f00f03 99542368 20469b69 98470028  .....T#h F.i.G.(
 07cd0 c0f28c80 23685146 20461b6b 98470546  ....#hQF F.k.G.F
 07ce0 002840f0 90802368 39462046 9b6b9847  .(@...#h9F F.k.G
 07cf0 06460028 40f09c80 94f8d430 cbb9257a  .F.(@......0..%z
 07d00 4dbb0125 a2e6c0b2 00210bf0 43ff74e6  M..%.....!..C.t.
 07d10 c0b20021 0bf03eff 4fe69047 5ae7c0b2  ...!..>.O..GZ...
 07d20 02210bf0 37ff48e6 c0b20221 0bf032ff  .!..7.H....!..2.
 07d30 63e62046 fff7ecfd 0028e0d0 237a002b  c. F.....(..#z.+
 07d40 3ff483ae 21214848 0df02efb 3f483546  ?...!!HH....?H5F
 07d50 0df070fc 7ae61c21 44480df0 25fb3b48  ..p.z..!DH..%.;H
 07d60 0df068fc 217d4248 fff7acfa 217e4148  ..h.!}BH....!~AH
 07d70 fff7a8fa 217f4048 fff7a4fa 94f82010  ....!.@H...... .
 07d80 3e48fff7 9ffa94f8 24103d48 fff79afa  >H......$.=H....
 07d90 94f82c10 3b48fff7 95fa94f8 34103a48  ..,.;H......4.:H
 07da0 fff790fa 94f83810 3848fff7 8bfa94f8  ......8.8H......
 07db0 3c103748 fff786fa 94f84010 3548fff7  <.7H......@.5H..
 07dc0 81fa94f8 44103448 fff77cfa 94f84810  ....D.4H..|...H.
 07dd0 3248fff7 77fa94f8 4c103148 fff772fa  2H..w...L.1H..r.
 07de0 94f85010 2f48fff7 6dfa2fe6 237a002b  ..P./H..m./.#z.+
 07df0 3ff42bae 13212c48 0df0d6fa 13480025  ?.+..!,H.....H.%
 07e00 0df018fc 22e6237a 002b3ff4 1eae1a21  ....".#z.+?....!
 07e10 26480df0 c9fa0d48 00250df0 0bfc15e6  &H.....H.%......
 07e20 66212046 984740e7 c0212046 98474ae7  f! F.G@..! F.GJ.
 07e30 237a002b 3ff409ae 1a211d48 0df0b4fa  #z.+?....!.H....
 07e40 02480df0 f7fb01e6 e41b0020 10420020  .H......... .B. 
 07e50 001c0020 381c0020 2d570000 00e400e0  ... 8.. -W......
 07e60 39570000 089f0020 941c0020 b81c0020  9W..... ... ... 
 07e70 d81c0020 e41c0020 ec1c0020 f41c0020  ... ... ... ... 
 07e80 fc1c0020 001d0020 081d0020 0c1d0020  ... ... ... ... 
 07e90 101d0020 141d0020 181d0020 1c1d0020  ... ... ... ... 
 07ea0 201d0020 241d0020 481c0020 5c1c0020   .. $.. H.. \.. 
 07eb0 781c0020 08b50021 08480af0 bfff084a  x.. ...!.H.....J
 07ec0 08490648 0ef0fefe 074b03f5 207243f8  .I.H.....K.. rC.
 07ed0 203c4033 9342fad1 08bd00bf 089f0020   <@3.B......... 
 07ee0 50520020 d9570000 c08c0020 2de9f04f  PR. .W..... -..O
 07ef0 83b0fe29 019218bf 01620199 9df830b0  ...).....b....0.
 07f00 fe299df8 34a09df8 389018bf c161fe2b  .)..4...8....a.+
 07f10 9df83c80 18bf4361 bbf1fe0f 9df840e0  ..<...Ca......@.
 07f20 18bfc0f8 18b0baf1 fe0f9df8 44c018bf  ............D...
 07f30 c0f824a0 b9f1fe0f 9df84820 18bfc0f8  ..$.......H ....
 07f40 3490b8f1 fe0f9df8 4c7018bf c0f83880  4.......Lp....8.
 07f50 bef1fe0f 9df85060 18bfc0f8 3ce0bcf1  ......P`....<...
 07f60 fe0f9df8 545018bf c0f840c0 fe2a9df8  ....TP....@..*..
 07f70 584018bf 4264fe2f a2f1ff02 179b18bf  X@..Bd./........
 07f80 8764fe2e b2fa82f2 836618bf c664fe2d  .d.......f...d.-
 07f90 4fea5212 18bf0565 fe2c8271 18bfc462  O.R....e.,.q...b
 07fa0 03b0bde8 f08f00bf 10b40468 d4f8f040  ...........h...@
 07fb0 a4465df8 044b6047 024b1868 0368d3f8  .F]..K`G.K.h.h..
 07fc0 30311847 bc9e0020 024b1868 0368d3f8  01.G... .K.h.h..
 07fd0 2c311847 bc9e0020 2c4b4ff0 e0212c4a  ,1.G... ,KO..!,J
 07fe0 30b44ff4 00650446 c1f88451 19680a43  0.O..e.F...Q.h.C
 07ff0 b0f95410 c06d1a60 b4f95620 00fb01f1  ..T..m.`..V ....
 08000 4ff41040 92b242ea 01425a63 98605a68  O..@..B..BZc.`Zh
 08010 42f04042 5a609a6c 22f44022 9a641a68  B.@BZ`.l".@".d.h
 08020 42f4c012 1a601868 20f48072 1a601a60  B....`.h ..r.`.`
 08030 1a6812f0 600ffbd1 14491860 0b6813f0  .h..`....I.`.h..
 08040 600ffbd1 0b68114a 0b608b68 43f48043  `....h.J.`.hC..C
 08050 8b609368 5b04fcd4 93680e48 23f07003  .`.h[....h.H#.p.
 08060 0d4943f0 20039360 93699361 0b4b0460  .IC. ..`.i.a.K.`
 08070 c1f8ec30 4ff0e022 4ff40061 02230120  ...0O.."O..a.#. 
 08080 c2f80411 637330bc 704700bf 00c02b40  ....cs0.pG....+@
 08090 12090200 bc9e0020 005c0020 bd800000  ....... .\. ....
 080a0 05490346 4ff0030c 01208a6c 22f00042  .I.FO.... .l"..B
 080b0 8a6483f8 bcc07047 00c02b40 024b1868  .d....pG..+@.K.h
 080c0 0368d3f8 4c311847 bc9e0020 38b5b0f8  .h..L1.G... 8...
 080d0 5620b0f8 54303649 13fb02f3 354dc26d  V ..T06I....5M.m
 080e0 ac6903fb 02f20b68 01330b60 90f8bc30  .i.....h.3.`...0
 080f0 052b2cd0 90f8bc30 012b04d0 2d4b9c61  .+,....0.+..-K.a
 08100 bff34f8f 38bd2103 34d5a96a 2a4b9942  ..O.8.!.4..j*K.B
 08110 c0e92d12 0fd921f0 1f030a44 bff34f8f  ..-...!....D..O.
 08120 4ff0e021 c1f8703f 20339a42 fad8bff3  O..!..p? 3.B....
 08130 4f8fbff3 6f8fd0f8 ac30002b ded0d0f8  O...o....0.+....
 08140 b4009847 1b4b9c61 bff34f8f 38bde300  ...G.K.a..O.8...
 08150 08d42103 23d5a96a 0323c0e9 2d1280f8  ..!.#..j.#..-...
 08160 bc30cbe7 042380f8 bc30124b 9c61bff3  .0...#...0.K.a..
 08170 4f8f38bd e302c1d5 e96a0f4b c0f8b410  O.8......j.K....
 08180 9942d8d9 21f01f03 0a44bff3 4f8f4ff0  .B..!....D..O.O.
 08190 e021c1f8 703f2033 9a42fad8 c7e7e302  .!..p? 3.B......
 081a0 acd5e96a 0323c0e9 2d1280f8 bc30a5e7  ...j.#..-....0..
 081b0 68930020 00c02b40 ffff1f20 2de9f043  h.. ..+@... -..C
 081c0 1f4685b0 037a0446 0d461646 ddf83080  .F...z.F.F.F..0.
 081d0 ddf83490 93b9637b 29462046 3246022b  ..4...c{)F F2F.+
 081e0 3b46cde9 0c892568 0cbfd5f8 f440d5f8  ;F....%h.....@..
 081f0 e840a446 05b0bde8 f0436047 cde90189  .@.F.....C`G....
 08200 0097437b 03480393 13460a46 02490df0  ..C{.H...F.F.I..
 08210 2dfae0e7 10420020 74110020 2de9f04f  -....B. t.. -..O
 08220 85b09846 04469346 0e9b0f46 5148cde9  ...F.F.F...FQH..
 08230 00831346 0a465049 0df018fa b4f95490  ...F.FPI......T.
 08240 b4f85620 e16d12fb 09f201fb 02f30e9a  ..V .m..........
 08250 5a440393 9a42c0f0 878001fb 09f94748  ZD...B........GH
 08260 4749484a 45680968 a2fb0121 890c01eb  GIHJEh.h...!....
 08270 81014368 5b1b9942 fbd80ef0 1ffbd4e9  ..Ch[..B........
 08280 25120b68 1342fcd0 0ef018fb 0546d4e9  %..h.B.......F..
 08290 25120e68 1640fcd1 0ef010fb 401b0128  %..h.@......@..(
 082a0 edd9b4f9 5620002a 4addc446 dff8dca0  ....V .*J..F....
 082b0 b0460e9e d4e92712 0b681342 fcd0d4e9  .F....'..h.B....
 082c0 29231168 1940fcd1 0d4672b6 b9f1000f  )#.h.@...Fr.....
 082d0 2addd4e9 29231168 1942fcd0 daf80810  *...)#.h.B......
 082e0 e8074fea 111102d5 94f86000 b0b907f8  ..O.......`.....
 082f0 011bbcf1 000f27d0 bbf1010b 24d1237a  ......'.....$.#z
 08300 2bbb6746 d4f8a420 9c46b346 d4f8a830  +.gF... .F.F...0
 08310 04e0d4e9 27010068 084202d0 11681942  ....'..h.B...h.B
 08320 f7d10135 a945d6d1 d4e92712 0b681342  ...5.E....'..h.B
 08330 fcd162b6 08f10108 b4f95630 4345b9dc  ..b.......V0CE..
 08340 039805b0 bde8f08f d4e92923 e6e72b46  ..........)#..+F
 08350 42460d49 67460748 b3460df0 87f94ff0  BF.IgF.H.F....O.
 08360 000cd4e9 2923d9e7 00230393 039805b0  ....)#...#......
 08370 bde8f08f 10420020 2c110020 001000e0  .....B. ,.. ....
 08380 0c420020 83de1b43 5c110020 00400042  .B. ...C\.. .@.B
 08390 10b50446 007d164b 020103eb 00119a58  ...F.}.K.......X
 083a0 cb689168 19421fd0 91680b42 1cd09168  .h.h.B...h.B...h
 083b0 0b4219d0 92681342 16d00cf0 21fc94f8  .B...h.B....!...
 083c0 8930d4f8 84100b4a 0b6194f8 8d001279  .0.....J.a.....y
 083d0 03434b61 084bda77 1a77da76 636e082b  .CKa.K.w.w.vcn.+
 083e0 02d14b6a 18434862 bff34f8f 10bd00bf  ..Kj.CHb..O.....
 083f0 c82b0020 b49e0020 00800e40 3f4938b5  .+. ... ...@?I8.
 08400 3f4b0446 0a79da77 90f8bc00 05285cd0  ?K.F.y.w.....(\.
 08410 94f8bc00 02285ed0 1a77b4f8 5600b4f8  .....(^..w..V...
 08420 54500b68 15fb00f5 206f1b69 e26d8342  TP.h.... o.i.m.B
 08430 02fb05f5 32d0334b c4f8b400 984215d9  ....2.3K.....B..
 08440 626f20f0 1f039542 94bf4019 8018bff3  bo ....B..@.....
 08450 4f8f4ff0 e022c2f8 703f2033 9842fad8  O.O.."..p? 3.B..
 08460 bff34f8f bff36f8f d4f8b400 d4f8ac30  ..O...o........0
 08470 c4f8b850 13b19847 d4f8b400 a36f8342  ...P...G.....o.B
 08480 02d0636f 9d4206d8 002384f8 6c3094f8  ..co.B...#..l0..
 08490 bc30012b 2bd0bff3 4f8f38bd a06f194b  .0.++...O.8..o.K
 084a0 c4f8b400 9842e1d9 e26f20f0 1f039542  .....B...o ....B
 084b0 94bf4019 8018bff3 4f8f4ff0 e022c2f8  ..@.....O.O.."..
 084c0 703f2033 9842fad8 cae70323 84f8bc30  p? 3.B.....#...0
 084d0 bff34f8f 38bd0021 03209a76 2167a167  ..O.8..!. .v!g.g
 084e0 c4f8ac10 84f8bc00 bff34f8f 38bd0322  ..........O.8.."
 084f0 0549207d 0cf002fb cde700bf b49e0020  .I }........... 
 08500 00800e40 ffff1f20 b97f0000 10b50446  ...@... .......F
 08510 007d0cf0 75fb94f8 6c3023b9 03230120  .}..u...l0#..#. 
 08520 84f8bc30 10bd72b6 94f8bc30 032b02d0  ...0..r....0.+..
 08530 022384f8 bc3062b6 012010bd 437b022b  .#...0b.. ..C{.+
 08540 05d1054a 136f23f0 0c031367 70470021  ...J.o#....gpG.!
 08550 90f82000 0bf0e6be 00c00f40 f8b50c68  .. ........@...h
 08560 0546636a 0bb9236a 1bb32b7a 4bb12369  .Fcj..#j..+zK.#i
 08570 0bb96369 2bb12269 48496369 48480df0  ..ci+."iHIciHH..
 08580 75f8626a 95f88d30 1a4214d0 62691342  u.bj...0.B..bi.B
 08590 11d06361 2361626a 424922ea 03036362  ..ca#abjBI"...cb
 085a0 226a95f8 89301343 02222362 0a70bff3  "j...0.C."#b.p..
 085b0 4f8f0020 f8bd236a 95f88920 1a42f6d0  O.. ..#j... .B..
 085c0 38490b78 013bdbb2 0b70002b efd1216a  8I.x.;...p.+..!j
 085d0 354e21ea 02023179 2262344a 91763168  5N!...1y"b4J.v1h
 085e0 2a6f0969 1746ac6f 8a424ad9 a1424fd3  *o.i.F.o.BJ..BO.
 085f0 1a464ff0 ff30091b 814247d2 27460846  .FO..0...BG.'F.F
 08600 22462b4b c5f8b470 9a42c5f8 b8000fd9  "F+K...p.B......
 08610 22f01f03 0244bff3 4f8f4ff0 e021c1f8  "....D..O.O..!..
 08620 703f2033 9a42fad8 bff34f8f bff36f8f  p? 3.B....O...o.
 08630 d5f8ac30 13b1d5f8 b4009847 33681d4a  ...0.......G3h.J
 08640 998b1268 21f08001 16680904 090cd2e9  ...h!....h......
 08650 01409983 d168c3e9 0064c3e9 0201d2e9  .@...h...d......
 08660 0440d2e9 0612c3e9 0440c3e9 061295f8  .@.......@......
 08670 bc30012b 9bd10322 0f49287d 0cf03efa  .0.+...".I(}..>.
 08680 95e78c42 a1eb0200 bbd8b4e7 1746b8e7  ...B.........F..
 08690 4ff0ff32 c5e92d32 cae700bf 50170020  O..2..-2....P.. 
 086a0 10420020 fcb30020 b49e0020 00800e40  .B. ... ... ...@
 086b0 ffff1f20 205f0020 b97f0000 437b022b  ...  _. ....C{.+
 086c0 036810b5 044618d0 144ad3f8 ec309342  .h...F...J...0.B
 086d0 21d1007d 0cf094fa 94f86c30 1bb90323  !..}......l0...#
 086e0 84f8bc30 10bd72b6 94f8bc30 032b02d0  ...0..r....0.+..
 086f0 022384f8 bc3062b6 10bd094a d3f8f830  .#...0b....J...0
 08700 934208d1 074a0321 936c23f0 00439364  .B...J.!.l#..C.d
 08710 80f8bc10 10bdbde8 10401847 0d850000  .........@.G....
 08720 a1800000 00c02b40 2de9f04f 87b00293  ......+@-..O....
 08730 90f88b30 ff2b00f0 8581b0f8 56300546  ...0.+......V0.F
 08740 b0f85490 0c461646 19fb03f9 c36d03fb  ..T..F.F.....m..
 08750 09f9436e 082b00f0 1a81002e 00f07281  ..Cn.+........r.
 08760 029b9945 08d9109a 002a00f0 6b81119a  ...E.....*..k...
 08770 13449945 00f26681 0299109b 49456967  .D.E..f.....IEig
 08780 ab67119b 28bf4946 95f88920 eb670f46  .g..(.IF... .g.F
 08790 d5f88430 0021dff8 48b34fea 970ac5f8  ...0.!..H.O.....
 087a0 ac402e67 c2481a61 5a61cbf8 00500af0  .@.g.H.aZa...P..
 087b0 45fbc04b 95f88b20 a3fb0a3a bc4b02f0  E..K... ...:.K..
 087c0 7f024fea 1a3a1b79 42f0004e ba4a0af1  ..O..:.yB..N.J..
 087d0 010803f0 1f0102eb 53125ffa 88f84fea  ........S._...O.
 087e0 820c18b2 1033b7fb f8f40334 24f00302  .....3.....4$...
 087f0 00240392 01228a40 b04941f8 204041f8  .$...".@.IA. @A.
 08800 20e0af49 af48cbf8 005041f8 23002b7a   ..I.H...PA.#.+z
 08810 ccf80020 002b40f0 b781b8f1 000f00f0  ... .+@.........
 08820 f88195f8 88305ffa 8af2d5f8 84100020  .....0_........ 
 08830 dff8b0a2 8033cdf8 10804ff0 020e01eb  .....3....O.....
 08840 83040af1 4003cdf8 14905146 03eb8213  ....@.....QF....
 08850 a0464ff0 040c039c 9946ab46 0b68c4f3  .FO......F.F.h..
 08860 8f0251f8 405f3f1b 9883c3f8 0080bc42  ..Q.@_?........B
 08870 1e61da83 da829a8b 988022f0 800283f8  .a........".....
 08880 07e0d860 4fea0242 a3f814c0 83f806e0  ...`O..B........
 08890 4fea1242 c3f808c0 9d619a83 9a8b92b2  O..B.....a......
 088a0 42f01002 9a8324f0 030328bf 3c468945  B.....$...(.<F.E
 088b0 1e44d3d1 5d46dde9 048908f1 ff37bf01  .D..]F.......7..
 088c0 5af80720 938b9bb2 43f00203 9383029b  Z.. ....C.......
 088d0 994500f2 bb80938b 9bb243f0 08039383  .E........C.....
 088e0 09f1ff33 119a9342 c0f05881 08f1ff33  ...3...B..X....3
 088f0 d5f884b0 dbb29b01 5af80330 998bdaf8  ........Z..0....
 08900 002021f0 80016a4f 9a610904 090c9983  . !...jO.a......
 08910 998b89b2 41f01001 99833b68 998b21f0  ....A.....;h..!.
 08920 80010904 090cd2e9 00649983 d2e90201  .........d......
 08930 c3e90064 c3e90201 d2e90464 d2e90602  ...d.......d....
 08940 3979c3e9 0602604a c3e90464 11770023  9y....`J...d.w.#
 08950 95f88920 01246621 cbf81020 cbf81420  ... .$f!... ... 
 08960 5a4ac5e9 2c3385f8 bc4085f8 6c3082f8  ZJ..,3...@..l0..
 08970 9d100322 287d5649 0cf0c0f8 d5f88430  ..."(}VI.......0
 08980 95f88920 20461a63 07b0bde8 f08f037a  ...  F.c.......z
 08990 002b40f0 088195f8 8c30ff2b 40f0e980  .+@......0.+@...
 089a0 4c484d4a 4d4b4768 1168a3fb 0131890c  LHMJMKGh.h...1..
 089b0 01eb8101 49004368 db1b9942 fbd84068  ....I.Ch...B..@h
 089c0 464b1168 434fa3fb 0131890c 01eb8101  FK.hCO...1......
 089d0 49007b68 1b1a9942 fbd87868 3f4b1168  I.{h...B..xh?K.h
 089e0 3c4fa3fb 0131890c 01eb8101 49007b68  <O...1......I.{h
 089f0 1b1a9942 fbd87868 384b1168 354fa3fb  ...B..xh8K.h5O..
 08a00 0131890c 01eb8101 49007b68 1b1a9942  .1......I.{h...B
 08a10 fbd87968 314b1268 2e48a3fb 0232920c  ..yh1K.h.H...2..
 08a20 02eb8202 52004368 5b1a9342 fbd395f8  ....R.Ch[..B....
 08a30 8810d5f8 80000139 c9b2f7f7 fbfe0028  .......9.......(
 08a40 40f0c180 002007b0 bde8f08f 029ba9eb  @.... ..........
 08a50 0309184b 4fea9906 a3fb0636 2b7ac6f3  ...KO......6+z..
 08a60 073606f1 010b5ffa 8bfbb9fb fbf40334  .6...._........4
 08a70 24f00304 002b40f0 9d80bbf1 000f00f0  $....+@.........
 08a80 cd8095f8 883008f1 0100d5f8 84b00021  .....0.........!
 08a90 80330644 cdf808b0 4ff0020c f6b20395  .3.D....O.......
 08aa0 0beb8303 0427b346 109d1e46 1ee000bf  .....'.F...F....
 08ab0 b49e0020 01400020 40380038 00c00e40  ... .@. @8.8...@
 08ac0 005c0020 c97f0000 00800e40 00e400e0  .\. .......@....
 08ad0 b97f0000 001000e0 0c420020 83de1b43  .........B. ...C
 08ae0 bc9e0020 205f0020 08f10100 4fea8818  ...  _. ....O...
 08af0 c4f38f02 4fea801e a9eb0409 5af80830  ....O.......Z..0
 08b00 5ffa80f8 5af80e00 4c459983 1e601d61  _...Z...LE...`.a
 08b10 da83da82 9a8b9980 22f08002 83f807c0  ........".......
 08b20 d9604fea 02429f82 83f806c0 4fea1242  .`O..B......O..B
 08b30 9f609861 9a839a8b 92b242f0 10029a83  .`.a......B.....
 08b40 24f00302 28bf4c46 d8451544 ccd108f1  $...(.LF.E.D....
 08b50 ff37dde9 02b5bf01 5af80710 8a8b92b2  .7......Z.......
 08b60 42f00802 8a838a8b 92b242f0 02028a83  B.........B.....
 08b70 c4e6d5f8 843095f8 89205a61 596a95f8  .....0... ZaYj..
 08b80 8d200a43 5a62e8e5 039b4a46 28492948  . .CZb....JF(I)H
 08b90 cde90083 029b0cf0 69fd3ee6 109b002b  ........i.>....+
 08ba0 3ff4a4ae 55e790f8 8c202349 21480cf0  ?...U.... #I!H..
 08bb0 5dfdf0e6 119b4a46 20491e48 cde900b4  ].....JF I.H....
 08bc0 0cf054fd 59e795f8 88300122 2946d5f8  ..T.Y....0.")F..
 08bd0 8000013b dbb285f8 8c3002fa 03f385f8  ...;.....0......
 08be0 8d30f7f7 37fed5f8 843095f8 8c10144a  .0..7....0.....J
 08bf0 03eb8101 c1f80021 95f88a20 120602f0  .......!... ....
 08c00 e06242f0 0502c1f8 80200e4a c1f80022  .bB...... .J..."
 08c10 b1e74ff0 ff37dff8 30a050e6 08f1ff33  ..O..7..0.P....3
 08c20 d5f884b0 dbb29b01 5af80330 94e700bf  ........Z..0....
 08c30 b8130020 10420020 84130020 e8130020  ... .B. ... ... 
 08c40 00011f00 0000ffd9 205f0020 10b50446  ........ _. ...F
 08c50 672190f8 200001f0 4dfb237a 28b3002b  g!.. ...M.#z(..+
 08c60 44d194f8 200001f0 8ffb2c4b d4f89010  D... .....,K....
 08c70 1a6f1029 22f00c02 1a672edc 0c214ff4  .o.)"....g...!O.
 08c80 0062c4f8 9010da63 254b0420 234a1821  .b.....c%K. #J.!
 08c90 c3f81001 6420c3f8 0013136f 43f00c03  ....d .....oC...
 08ca0 bde81040 13670df0 b5bd3bbb d4f89030  ...@.g....;....0
 08cb0 1c4a94f8 200002fb 03f300ee 103ab8ee  .J.. ........:..
 08cc0 c00a0bf0 95fb94f8 20007f21 0bf02afb  ........ ..!..*.
 08cd0 6420bde8 10400df0 9dbd1429 16dc1421  d ...@.....)...!
 08ce0 4ff43052 c4f89010 da63cde7 13210e48  O.0R.....c...!.H
 08cf0 0cf05afb 0d480cf0 9dfcb2e7 13210c48  ..Z..H.......!.H
 08d00 0cf052fb 09480cf0 95fccfe7 18214ff4  ..R..H.......!O.
 08d10 1052c4f8 9010da63 b6e700bf 00c00f40  .R.....c.......@
 08d20 00801f40 40420f00 28170020 10420020  ...@@B..(.. .B. 
 08d30 3c170020 38b5037a 044683b9 23682046  <.. 8..z.F..#h F
 08d40 d3f84031 984740b9 237ae3b9 23682046  ..@1.G@.#z..#h F
 08d50 d3f83c31 98470546 48b10120 38bd1c21  ..<1.G.FH.. 8..!
 08d60 0d480cf0 21fb0d48 0cf064fc e6e7207a  .H..!..H..d... z
 08d70 0028f3d0 07210a48 0cf016fb 07480cf0  .(...!.H.....H..
 08d80 59fc2846 38bd1221 06480cf0 0dfb0348  Y.(F8..!.H.....H
 08d90 0cf050fc dae700bf 70160020 10420020  ..P.....p.. .B. 
 08da0 a4160020 90160020 2de9f04e 9b4684b0  ... ... -..N.F..
 08db0 037a0546 89461746 ddf830a0 002b3ed1  .z.F.F.F..0..+>.
 08dc0 2b7babb1 287d05f1 300401f0 ddfa287e  +{..(}..0.....(~
 08dd0 01f0dafa 287f05f1 500601f0 d5fa54f8  ....(...P.....T.
 08de0 040fc0b2 01f0d0fa a642f8d1 00232b73  .........B...#+s
 08df0 194abaf1 000f14bf 50463846 b5f95410  .J......PF8F..T.
 08e00 1560ea6d 0d9b02fb 01f1b5f9 5620eb67  .`.m........V .g
 08e10 92b2124b c5f878a0 c5f8ac90 42ea0142  ...K..x.....B..B
 08e20 c5e91c7b 9f62d862 01205a63 85f8bc00  ...{.b.b. Zc....
 08e30 0b4a996c 0a439a64 04b0bde8 f08e0d9b  .J.l.C.d........
 08e40 cdf800b0 0748cde9 01a31346 0a460649  .....H.....F.F.I
 08e50 0cf00cfc b4e700bf bc9e0020 00c02b40  ........... ..+@
 08e60 10020080 10420020 f8100020 38b50546  .....B. ... 8..F
 08e70 0c4649b1 084612f0 e3fd2b68 02462146  .FI..F....+h.F!F
 08e80 5b682846 98470446 28460cf0 d3fb2044  [h(F.G.F(F.... D
 08e90 38bd00bf 2de9f04f 8db00446 007f0df1  8...-..O...F....
 08ea0 2f01f7f7 5dfc0546 c4f88000 002800f0  /...]..F.....(..
 08eb0 16810368 217ec4f8 8430f7f7 27fc94f8  ...h!~...0..'...
 08ec0 34100746 d4f88000 f7f720fc 94f83810  4..F...... ...8.
 08ed0 0646d4f8 8000f7f7 19fc94f8 3c108146  .F..........<..F
 08ee0 d4f88000 f7f712fc 94f84010 8246d4f8  ..........@..F..
 08ef0 8000f7f7 0bfcff2f 834600f0 e580ff2e  ......./.F......
 08f00 00f0e280 baf1ff0f 18bfb9f1 ff0f0cbf  ................
 08f10 01250025 ff2808bf 45f00105 002d40f0  .%.%.(..E....-@.
 08f20 d380731c b0469945 05d1b31c 9a4502d1  ..s..F.E.....E..
 08f30 f31c9842 1bd0b449 b4480cf0 97fb237a  ...B...I.H....#z
 08f40 002b40f0 ef80731e 994540f0 c380b31e  .+@...s..E@.....
 08f50 9a4540f0 bf80033e b34540f0 bb80237a  .E@....>.E@...#z
 08f60 002b40f0 8b810123 5e4684f8 8e30a37a  .+@....#^F...0.z
 08f70 002b00f0 ea800123 a371237a 002b40f0  .+.....#.q#z.+@.
 08f80 2d8194f8 881001f0 fb03032b 00f01a81  -..........+....
 08f90 0321d4f8 8000f7f7 4dfc0028 00f07681  .!......M..(..v.
 08fa0 03210823 84f88810 84f88930 d4f88000  .!.#.......0....
 08fb0 f7f738fc 012184f8 8b00d4f8 8000f7f7  ..8..!..........
 08fc0 11fcff28 804600f0 0181217e d4f88000  ...(.F....!~....
 08fd0 f7f7e0fb 217fd4f8 8000f7f7 dbfb94f8  ....!...........
 08fe0 3410d4f8 8000f7f7 d5fb94f8 3810d4f8  4...........8...
 08ff0 8000f7f7 cffb94f8 3c10d4f8 8000f7f7  ........<.......
 09000 c9fb94f8 4010d4f8 8000f7f7 c3fba37a  ....@..........z
 09010 cbb9616c ff2916d0 c9b2d4f8 8000f7f7  ..al.)..........
 09020 b9fb94f8 4810d4f8 8000f7f7 b3fb94f8  ....H...........
 09030 4c10d4f8 8000f7f7 adfb94f8 5010d4f8  L...........P...
 09040 8000f7f7 a7fb0123 0321d4f8 80001a46  .......#.!.....F
 09050 16f066fb a379002b 40f0c880 9df82f10  ..f..y.+@...../.
 09060 7b066b4d 0ffa88f0 090203f0 7c53d4f8  {.kM........|S..
 09070 84204ff4 e02701f4 f85102eb 80001943  . O..'...Q.....C
 09080 94f88830 0d4303f1 400142f8 21700721  ...0.C..@.B.!p.!
 09090 c0f80015 c0f80054 03f12001 36024fea  .......T.. .6.O.
 090a0 086308f5 907806f4 f85603f0 e0633343  .c...x...V...c3C
 090b0 43f00103 42f82130 01235649 1d4642f8  C...B.!0.#VI.FB.
 090c0 28109360 637306e0 53495048 0cf0cefa  (..`cs..SIPH....
 090d0 237a6bb9 00252846 0db0bde8 f08fe269  #zk..%(F.......i
 090e0 4e494a48 0cf0c2fa 28460db0 bde8f08f  NIJH....(F......
 090f0 cdf81cb0 0025cdf8 14a03b46 e26bcdf8  .....%....;F.k..
 09100 0c90a06b 04920196 616ba269 246c0290  ...k....ak.i$l..
 09110 00910694 42493d48 0cf0a8fa 28460db0  ....BI=H....(F..
 09120 bde8f08f cdf814b0 cdf80ca0 cdf80490  ................
 09130 236c3c49 0493e36b 34480293 a36b0093  #l<I...k4H...k..
 09140 3346626b 0cf092fa fde6616c ff293ff4  3Fbk......al.)?.
 09150 12afc9b2 d4f88000 f7f7d8fa 94f84810  ..............H.
 09160 8146d4f8 8000f7f7 d1fa94f8 4c108246  .F..........L..F
 09170 d4f88000 f7f7cafa 94f85010 8346d4f8  ..........P..F..
 09180 8000f7f7 c3fa94f8 8e300990 002b40f0  .........0...+@.
 09190 8a8008f1 04039945 50d108f1 05039a45  .......EP......E
 091a0 4cd108f1 06039b45 48d108f1 07039842  L......EH......B
 091b0 44d1237a 002b3ff4 e4ae1b49 1348fff7  D.#z.+?....I.H..
 091c0 55fedee6 01238b40 dbb2ede6 237a002b  U....#.@....#z.+
 091d0 80d01649 0d480cf0 49fa7ce7 1d211448  ...I.H..I.|..!.H
 091e0 0cf0e2f8 09480cf0 25facae6 2368114a  .....H..%...#h.J
 091f0 d3f85831 934269d1 30210f48 0cf0d4f8  ..X1.Bi.0!.H....
 09200 02480cf0 17fa66e7 c0140020 10420020  .H....f.... .B. 
 09210 03004000 00662001 50140020 1c140020  ..@..f .P.. ... 
 09220 84140020 f0140020 9c150020 0c160020  ... ... ... ... 
 09230 bc150020 0d570000 3c160020 3a493b48  ... .W..<.. :I;H
 09240 0cf014fa 237a002b 3ff444af 099b0025  ....#z.+?.D....%
 09250 cdf814b0 07934346 e26ccdf8 0ca0a06c  ......CF.l.....l
 09260 0492cdf8 0490616c 626b246d 02900091  ......albk$m....
 09270 06942f49 2d480cf0 f9f92ce7 0e212d48  ../I-H....,..!-H
 09280 0cf092f8 29480cf0 d5f96ce6 0721d4f8  ....)H....l..!..
 09290 8000f7f7 cffa0346 00283ad0 07218023  .......F.(:..!.#
 092a0 84f88810 80e6a8f1 04039945 c6d1a8f1  ...........E....
 092b0 05039a45 c2d1a8f1 06039b45 bed1a8f1  ...E.......E....
 092c0 0703099a 9a42b9d1 099e72e7 20469847  .....B....r. F.G
 092d0 002891d0 9df82f10 7b06174d 0ffa88f0  .(..../.{..M....
 092e0 090203f0 7c53d4f8 84204ff4 403701f4  ....|S... O.@7..
 092f0 f85102eb 80001943 94f88830 0d4303f1  .Q.....C...0.C..
 09300 400142f8 21700f21 c0f80015 c0f80054  @.B.!p.!.......T
 09310 c2e6227a 002a3ff4 ddae0849 1d460348  .."z.*?....I.F.H
 09320 0cf0a4f9 d7e600bf 2c150020 10420020  ........,.. .B. 
 09330 64150020 1c150020 03004000 dc150020  d.. ... ..@.... 
 09340 2de9f04f 9a46b0f8 5470b0f8 56308db0  -..O.F..Tp..V0..
 09350 05468946 17fb03f7 c36d9046 03fb07f7  .F.F.....m.F....
 09360 037a002b 40f0ea81 6b6e082b 00f0c481  .z.+@...kn.+....
 09370 169b4344 9f4200f2 a9810f4e d6f800b0  ..CD.B.....N....
 09380 0df09cfa 33682969 a3eb0b03 9942c0f0  ....3h)i.....B..
 09390 f981d5e9 250205e0 3368a3eb 0b039942  ....%...3h.....B
 093a0 c0f09c81 04681440 f6d00df0 87fa0146  .....h.@.......F
 093b0 d5e92520 09e000bf 94b30020 33682c69  ..% ....... 3h,i
 093c0 a3eb0b03 9c42c0f0 c8811468 0440f5d1  .....B.....h.@..
 093d0 07910df0 73fa0799 401a0528 d2d9d5f8  ....s...@..(....
 093e0 843095f8 892095f8 8e101a61 5a6195f8  .0... .....aZa..
 093f0 8820d6f8 00b002f1 800003eb 80000790  . ..............
 09400 49b1a97a 39b9297a 002940f0 8a82e032  I..z9.)z.)@....2
 09410 03eb8203 07936b7a 002b00f0 bf8195f8  ......kz.+......
 09420 8b30ff2b 00f0ba81 47453846 4ff00001  .0.+....GE8FO...
 09430 28bf4046 04460a90 b24809f0 fffcb24a  (.@F.F...H.....J
 09440 a308a2fb 032395f8 8b20190b ad4b02f0  .....#... ...K..
 09450 7f020891 01311b79 42f00042 5ffa81fb  .....1.yB..B_...
 09460 aa4903f0 1f000ffa 83fc01eb 53111033  .I..........S..3
 09470 4fea810e 09930023 b4fbfbf1 033121f0  O......#.....1!.
 09480 03040121 8140a248 40f82c30 40f82c20  ...!.@.H@.,0@., 
 09490 a04a099b 1560a048 a04a42f8 23002b7a  .J...`.H.JB.#.+z
 094a0 cef80010 002b40f0 3382bbf1 010f02d1  .....+@.3.......
 094b0 474540f2 5b82bbf1 000f00f0 43829849  GE@.[.......C..I
 094c0 48469df8 20304ff0 000e01f1 4002ddf8  HF.. 0O.....@...
 094d0 28c00891 02eb8313 0b950993 0b684ff0  (............hO.
 094e0 0405079a aceb040c a3f81ce0 1a604ff0  .............`O.
 094f0 02021861 6445da71 9a714ff0 04029d82  ...adE.q.qO.....
 09500 9a60c4f3 8f0251f8 405fda83 da829a8b  .`....Q.@_......
 09510 a3f804e0 22f08002 c3f80ce0 9d614fea  ...."........aO.
 09520 02424fea 12429a83 9a8b92b2 42f01002  .BO..B......B...
 09530 9a8324f0 030328bf 64461844 099b8b42  ..$...(.dF.D...B
 09540 ccd10b9d 474558d9 a7eb0802 754c297a  ....GEX.....uL)z
 09550 b2fbf4f4 0134e4b2 b2fbf4f3 033323f0  .....4.......3#.
 09560 03030993 002940f0 f681002c 45d05c44  .....)@....,E.\D
 09570 50464ff0 000ee3b2 099c0995 0b934fea  PFO...........O.
 09580 8b13089d 07994ff0 020ceb58 0bf1010b  ......O....X....
 09590 121ba3f8 1ce01960 4ff00401 18619442  .......`O....a.B
 095a0 99824ff0 040183f8 07c09960 c4f38f01  ..O........`....
 095b0 83f806c0 4fea8b1c d9835ffa 8bfbd982  ....O....._.....
 095c0 998b55f8 0c5021f0 8001a3f8 04e0c3f8  ..U..P!.........
 095d0 0ce04fea 01419d61 4fea1141 9983998b  ..O..A.aO..A....
 095e0 89b241f0 10019983 24f00303 28bf1446  ..A.....$...(..F
 095f0 18440b9b 9b45c2d1 099d0bf1 ff33089a  .D...E.......3..
 09600 dbb21168 9b01d358 9a8b9961 22f08002  ...h...X...a"...
 09610 1204120c 9a839a8b 92b242f0 10029a83  ..........B.....
 09620 9a8b92b2 42f00802 9a839a8b 92b242f0  ....B.........B.
 09630 02029a83 334b1b68 9a8b22f0 80021204  ....3K.h..".....
 09640 120cd1e9 004c9a83 d1e90220 c3e9004c  .....L..... ...L
 09650 9a60d860 2b4ad1e9 04c4d1e9 06011279  .`.`+J.........y
 09660 c3e904c4 c3e90601 2f4b1a77 d5f88410  ......../K.w....
 09670 052495f8 890085f8 bc402b4b 08630121  .$.......@+K.c.!
 09680 1a77da77 da7601fa 02f23468 95f8bc10  .w.w.v....4h....
 09690 052940f0 1081d96a 114240f0 ef803168  .)@....j.B@...1h
 096a0 2869091b 8842f1d2 2b7a002b 40f09b81  (i...B..+z.+@...
 096b0 d5f88430 95f88910 1a691142 00f0fb80  ...0.....i.B....
 096c0 1a691a49 1a480bf0 d1fff4e0 2b7a002b  .i.I.H......+z.+
 096d0 4fd10024 20460db0 bde8f08f 2b7a002b  O..$ F......+z.+
 096e0 f7d02e21 13480bf0 5ffe1148 0bf0a2ff  ...!.H.._..H....
 096f0 20460db0 bde8f08f 0f4ba3fb 07739f08   F.......K...s..
 09700 3be600bf b49e0020 01400020 40380038  ;...... .@. @8.8
 09710 00c00e40 bc9e0020 c97f0000 005c0020  ...@... .....\. 
 09720 205f0020 fcff0100 00800e40 64130020   _. .......@d.. 
 09730 10420020 24120020 cdcccccc 169b0497  .B. $.. ........
 09740 cde900a3 83790393 437aa948 02931346  .....y..Cz.H...F
 09750 0a46a849 0bf08aff 06e62b7a 002bb8d0  .F.I......+z.+..
 09760 2f21a548 0bf020fe a1480024 0bf062ff  /!.H.. ..H.$..b.
 09770 b0e71c21 a1480bf0 17fe9d48 00240bf0  ...!.H.....H.$..
 09780 59ffa7e7 2b7a002b a3d02221 9c480bf0  Y...+z.+.."!.H..
 09790 0bfe9748 00240bf0 4dff9be7 2b7a002b  ...H.$..M...+z.+
 097a0 64d1c844 d5f810e0 002f92d0 22469549  d..D...../.."F.I
 097b0 5446ddf8 1ca0d5f8 84c095f8 890004e0  TF..............
 097c0 3368a3eb 0b037345 1ed8dcf8 10300342  3h....sE.....0.B
 097d0 f6d0daf8 00304846 40f8043b 6b6e082b  .....0HF@..;kn.+
 097e0 00d1eab9 404502f1 040217d3 8cb3169b  ....@E..........
 097f0 a14604eb 03080024 ba42d6f8 00b04ff0  .F.....$.B....O.
 09800 320ed8d3 144665e7 2b7a002b e1d07848  2....Fe.+z.+..xH
 09810 07920bf0 2bff7b49 079adae7 8146ebe7  ....+.{I.....F..
 09820 09f1ff39 4ff0000b 19f8013b ff2b05d0  ...9O......;.+..
 09830 0bf1010b bbf1040f f6d1d3e7 99f80030  ...............0
 09840 d92bf5d1 2b7a1446 002b7ed1 01345c44  .+..+z.F.+~..4\D
 09850 40e72b7a 1446002b 3ff43caf ba42bff4  @.+z.F.+?.<..B..
 09860 39af6949 62480bf0 01ff33e7 08216748  9.iIbH....3..!gH
 09870 0bf09afd 5e480bf0 ddfe92e7 09216448  ....^H.......!dH
 09880 0bf092fd 5a480bf0 d5fed5f8 84301a69  ....ZH.......0.i
 09890 002a4fd1 0bf0bcfd 95f88830 d5f88420  .*O........0... 
 098a0 80335c49 524852f8 23200bf0 dffe5a4b  .3\IRHR.# ....ZK
 098b0 1a795a4b 9a775a4b 994510d9 0a9a29f0  .yZK.wZK.E....).
 098c0 1f034a44 bff34f8f 4ff0e021 c1f8703f  ..JD..O.O..!..p?
 098d0 20339a42 fad8bff3 4f8fbff3 6f8f4745   3.B....O...o.GE
 098e0 2ed94f4b 9a452bd9 aaeb0803 2af01f02  ..OK.E+.....*...
 098f0 3b44bff3 4f8f4ff0 e021c1f8 702f2032  ;D..O.O..!..p/ 2
 09900 9a42fad3 bff34f8f bff36f8f 3c46e1e6  .B....O...o.<F..
 09910 43463a46 43493648 cde900b4 0bf0a6fe  CF:FCI6H........
 09920 c3e54149 3248fff7 a1fad5f8 843095f8  ..AI2H.......0..
 09930 88206ce5 1a693d49 2d480bf0 97fea9e7  . l..i=I-H......
 09940 3c46c7e6 3a4b0893 fce55a44 39492848  <F..:K....ZD9I(H
 09950 0bf08cfe 7ae70999 169b2548 0b92cde9  ....z.....%H....
 09960 00413549 0bf082fe 0b9afee5 2a4b0021  .A5I........*K.!
 09970 079a1b68 1a60c7f3 8f029980 d9600221  ...h.`.......`.!
 09980 c3f81090 d971da83 99710421 da82d88b  .....q...q.!....
 09990 99829960 0004c7f1 00019961 4fea9701  ...`.......aO...
 099a0 13d4b1f5 004f01d2 da83da82 9a8b92b2  .....O..........
 099b0 42f00802 9a839a8b 92b242f0 02029a83  B.........B.....
 099c0 154b1a79 154b1a77 50e6b1f5 007fedd2  .K.y.K.wP.......
 099d0 d98b01f4 7e411143 d983d98a 01f47e41  ....~A.C......~A
 099e0 0a43da82 e2e71549 0148fff7 3ffa5fe6  .C.....I.H..?._.
 099f0 10420020 a4110020 54120020 e0110020  .B. ... T.. ... 
 09a00 00120020 a4120020 f4120020 98120020  ... ... ... ... 
 09a10 20130020 40130020 b49e0020 00800e40   .. @.. ... ...@
 09a20 ffff1f20 b8130020 84120020 2c130020  ... ... ... ,.. 
 09a30 205f0020 d4120020 e8130020 4c130020   _. ... ... L.. 
 09a40 f0b50c46 8fb03ab1 15461046 11f0f8ff  ...F..:..F.F....
 09a50 01462846 0bf0a8fc 23682246 17491848  .F(F....#h"F.I.H
 09a60 0bf004fe 21680a68 0f69cc8a 8e8bcd8b  ....!h.h.i......
 09a70 a4b2b6b2 c888adb2 b1f90430 cde90b65  ...........0...e
 09a80 8d69cde9 0945b1f9 144000f0 0705cde9  .i...E...@......
 09a90 0774cc68 06948c68 c0f3c401 00900594  .t.h...h........
 09aa0 c0f30224 c00a0391 06490495 cde90104  ...$.....I......
 09ab0 03480bf0 dbfd0fb0 f0bd00bf c00f0020  .H............. 
 09ac0 10420020 c80f0020 38b5837a 0bb10020  .B. ... 8..z... 
 09ad0 38bd0446 6421007d 00f00cfc 0028f6d0  8..Fd!.}.....(..
 09ae0 6521207e 00f006fc 0028f0d0 6621207f  e! ~.....(..f! .
 09af0 00f000fc 0028ead0 672194f8 200000f0  .....(..g!.. ...
 09b00 f9fb0028 e3d03034 022554f8 040f2946  ...(..04.%T...)F
 09b10 0135c0b2 00f0eefb 0028d8d0 edb20a2d  .5.......(.....-
 09b20 f3d1034a 136f43f0 0c031367 38bd00bf  ...J.oC....g8...
 09b30 00c00f40 70b50546 fff7c6ff 00b970bd  ...@p..F......p.
 09b40 287d05f1 300400f0 1ffc287e 00f01cfc  (}..0.....(~....
 09b50 287f05f1 500600f0 17fc54f8 040fc0b2  (...P.....T.....
 09b60 00f012fc b442f8d1 2b682846 d3f85031  .....B..+h(F..P1
 09b70 bde87040 184700bf 70b52a4d 2a4c2a68  ..p@.G..p.*M*L*h
 09b80 2a492046 0bf072fd 6a682949 20460bf0  *I F..r.jh)I F..
 09b90 6dfd284e aa682046 27490bf0 67fdea68  m.(N.h F'I..g..h
 09ba0 26492046 0bf062fd 2a693146 20460bf0  &I F..b.*i1F F..
 09bb0 5dfd6a69 22492046 0bf058fd aa692149  ].ji"I F..X..i!I
 09bc0 20460bf0 53fd2a6a 1f492046 0bf04efd   F..S.*j.I F..N.
 09bd0 6a6a1e49 20460bf0 49fdaa6a 1c492046  jj.I F..I..j.I F
 09be0 0bf044fd ea6a1b49 20460bf0 3ffd2a6b  ..D..j.I F..?.*k
 09bf0 19492046 0bf03afd 6a6b1849 20460bf0  .I F..:.jk.I F..
 09c00 35fdaa6c 16492046 0bf030fd ea6c1549  5..l.I F..0..l.I
 09c10 20460bf0 2bfd2a69 31462046 bde87040   F..+.*i1F F..p@
 09c20 0bf024bd 00c02b40 10420020 04080020  ..$...+@.B. ... 
 09c30 18080020 58080020 2c080020 40080020  ... X.. ,.. @.. 
 09c40 6c080020 80080020 90080020 ac080020  l.. ... ... ... 
 09c50 c8080020 e0080020 f8080020 10090020  ... ... ... ... 
 09c60 28090020 3c090020 2de9f043 1f4683b0  (.. <.. -..C.F..
 09c70 037a0446 0e461546 ddf82880 7bb9637a  .z.F.F.F..(.{.cz
 09c80 c3b9cdf8 28802a46 25682046 3b463146  ....(.*F%h F;F1F
 09c90 d5f8fc40 a44603b0 bde8f043 60471346  ...@.F.....C`G.F
 09ca0 66480a46 6649cde9 00780bf0 dffc637a  fH.FfI...x....cz
 09cb0 002be6d0 237babb1 207d04f1 300500f0  .+..#{.. }..0...
 09cc0 63fb04f1 5008207e 00f05efb 207f00f0  c...P. ~..^. ...
 09cd0 5bfb55f8 040fc0b2 00f056fb a845f8d1  [.U.......V..E..
 09ce0 00232373 002f14bf 3d463546 5548b4f9  .##s./..=F5FUH..
 09cf0 5420b4f9 5630e16d 8662c562 94f8bc00  T ..V0.m.b.b....
 09d00 02fb03f5 042801fb 05f561d0 02fb01f1  .....(....a.....
 09d10 9ab24c4b 42ea0142 4b494c4e 5a630522  ..LKB..BKILNZc."
 09d20 84f8bc20 0a689a69 9a611a68 42f4c012  ... .h.i.a.hB...
 09d30 1a601a68 42f48022 1a609a68 42f48052  .`.hB..".`.hB..R
 09d40 9a600022 3260424a 986c0243 9a640868  .`."2`BJ.l.C.d.h
 09d50 04e00b68 22691b1a 9a422dd3 94f8bc30  ...h"i...B-....0
 09d60 052bf6d0 2f46237a 23b13268 39493348  .+../F#z#.2h9I3H
 09d70 0bf07cfc 94f8bc30 042b36d0 3149d4f8  ..|....0.+6.1I..
 09d80 b4208b6c 23f00043 8b64334b 9a420fd9  . .l#..C.d3K.B..
 09d90 22f01f03 2a44bff3 4f8f4ff0 e021c1f8  "...*D..O.O..!..
 09da0 703f2033 9a42fad8 bff34f8f bff36f8f  p? 3.B....O...o.
 09db0 384603b0 bde8f083 277a002f dad02621  8F......'z./..&!
 09dc0 26480bf0 f1fa1d48 00270bf0 33fccae7  &H.....H.'..3...
 09dd0 237a5bbb 23682046 d3f85031 9847e16d  #z[.#h F..P1.G.m
 09de0 b4f95420 b4f95630 90e73768 40f2db59  ..T ..V0..7h@..Y
 09df0 0cf064fd 1ffa87f8 074604e0 3368a3eb  ..d......F..3h..
 09e00 0803022b 04d80cf0 59fdc01b 4845f5d9  ...+....Y...HE..
 09e10 277a002f b2d03321 11480bf0 c5fa0748  'z./..3!.H.....H
 09e20 00270bf0 07fcfff7 a7fea7e7 21210d48  .'..........!!.H
 09e30 0bf0bafa 01480bf0 fdfbcbe7 10420020  .....H.......B. 
 09e40 28100020 00c02b40 94b30020 68930020  (.. ..+@... h.. 
 09e50 10020080 a4100020 ffff1f20 7c100020  ....... ... |.. 
 09e60 c4100020 58100020 037b8b42 00f0ba80  ... X.. .{.B....
 09e70 2de9f04f 044685b0 0f460029 00f09d80  -..O.F...F.)....
 09e80 d0f88000 20b304f1 300504f1 5006217e  .... ...0...P.!~
 09e90 f6f780fc 217fd4f8 8000f6f7 7bfc55f8  ....!.......{.U.
 09ea0 041fd4f8 8000c9b2 f6f774fc ae42f6d1  ..........t..B..
 09eb0 01230321 d4f88000 1a4615f0 31fc0021  .#.!.....F..1..!
 09ec0 207d09f0 67fe0120 277305b0 bde8f08f   }..g.. 's......
 09ed0 237a002b 40f08880 624b04f1 3005217f  #z.+@...bK..0.!.
 09ee0 0df10708 9868a946 04f15006 c2460368  .....h.F..P..F.h
 09ef0 c4e92003 f6f70afc 0346217e d4f88000  .. ......F!~....
 09f00 0193f6f7 03fc8346 59f8041f d4f88000  .......FY.......
 09f10 c9b2f6f7 fbfb4e45 0af8010f f4d10321  ......NE.......!
 09f20 d4f88000 f6f786fc 002865d0 03220823  .........(e..".#
 09f30 84f88930 0121d4f8 800084f8 8820f6f7  ...0.!....... ..
 09f40 51fcff28 237a84f8 8a0078d0 002b5cd1  Q..(#z....x..+\.
 09f50 019b0106 d4f884c0 00b21a02 01f0e061  ...............a
 09f60 4fea4b63 dff818e1 02f4f852 0ceb8000  O.Kc.......R....
 09f70 03f07c53 1a439df8 0f301b02 42ea0e0e  ..|S.C...0..B...
 09f80 4ff4e022 03f4f853 0b4394f8 88100ceb  O.."...S.C......
 09f90 810143f0 0103c1f8 00210722 c0f80025  ..C......!."...%
 09fa0 c0f800e4 c1f88030 2f4bc0f8 80340123  .......0/K...4.#
 09fb0 d4f88000 ccf80830 69e7007d 04f13005  .......0i..}..0.
 09fc0 00f0e2f9 207e00f0 dff9207f 04f15006  .... ~.... ...P.
 09fd0 00f0daf9 55f8040f c0b200f0 d5f9b542  ....U..........B
 09fe0 f8d170e7 01207047 1d212048 0bf0dcf9  ..p.. pG.! H....
 09ff0 1f480bf0 1ffb6fe7 0721d4f8 8000f6f7  .H....o..!......
 0a000 19fc10b3 07228023 92e7dff8 64905b46  .....".#....d.[F
 0a010 019a1849 4846dff8 6ca00bf0 27fb18f8  ...IHF..l...'...
 0a020 012f5146 48460bf0 21fb0df1 0f034345  ./QFHF..!.....CE
 0a030 f5d10f48 0bf0fefa 94f88a00 88e763b9  ...H..........c.
 0a040 00231846 c4f88430 3fe7237a 002bf7d0  .#.F...0?.#z.+..
 0a050 09490748 0bf00afb f2e70849 04480bf0  .I.H.......I.H..
 0a060 05fbede7 18520020 00662001 e4160020  .....R. .f .... 
 0a070 10420020 04170020 dc150020 0c160020  .B. ... ... ... 
 0a080 03004000 24170020 2de9f04f 1f46037a  ..@.$.. -..O.F.z
 0a090 85b00546 8a469146 002b40f0 8d800121  ...F.F.F.+@....!
 0a0a0 2846fff7 e1feb5f8 5630b5f8 548018fb  (F......V0..T...
 0a0b0 03f8eb6d 03fb08f8 6b6e082b 76d00e9b  ...m....kn.+v...
 0a0c0 4b444345 6dd3724e d6f800b0 0cf0f6fb  KDCEm.rN........
 0a0d0 33682969 a3eb0b03 9942c0f0 9b80d5e9  3h)i.....B......
 0a0e0 250204e0 3368a3eb 0b039942 57d30468  %...3h.....BW..h
 0a0f0 1440f7d0 0cf0e2fb 0146d5e9 252005e0  .@.......F..% ..
 0a100 33682c69 a3eb0b03 9c425fd3 14680440  3h,i.....B_..h.@
 0a110 f6d10391 0cf0d2fb 0399401a 0528d7d9  ..........@..(..
 0a120 d5f88430 95f88920 1a615a61 2a7a3368  ...0... .aZa*z3h
 0a130 002a40f0 9180d144 d5f810e0 b8f1000f  .*@....D........
 0a140 2fd0d5f8 8400bb46 524995f8 892003e0  /......FRI... ..
 0a150 3768ff1a 774552d8 07691742 f8d095f8  7h..wER..i.B....
 0a160 88305246 e03350f8 233042f8 043b6b6e  .0RF.3P.#0B..;kn
 0a170 082b01d1 002c59d1 4a4504f1 04043cd3  .+...,Y.JE....<.
 0a180 bbf1000f 72d00e9b da460beb 03094ff0  ....r....F....O.
 0a190 000ba045 33684ff0 320ed6d8 02e02b7a  ...E3hO.2.....+z
 0a1a0 03bb0024 204605b0 bde8f08f 3a4ba3fb  ...$ F......:K..
 0a1b0 08834fea 930886e7 0e9b3848 cde90073  ..O.......8H...s
 0a1c0 13460a46 36490bf0 51fa68e7 2b7a002b  .F.F6I..Q.h.+z.+
 0a1d0 e7d02f21 33480bf0 e7f83048 00240bf0  ../!3H....0H.$..
 0a1e0 29fadfe7 2e213048 0bf0def8 2b480bf0  )....!0H....+H..
 0a1f0 21fa2046 05b0bde8 f08f9246 c9e72b7a  !. F.......F..+z
 0a200 002bacd0 22462548 0bf030fa d5f88400  .+.."F%H..0.....
 0a210 2049a4e7 2b7a002b c3d02221 23480bf0   I..+z.+.."!#H..
 0a220 c3f81e48 00240bf0 05fabbe7 0af1ff33  ...H.$.........3
 0a230 4ff0000a 13f8017b ff2f05d0 0af1010a  O......{./......
 0a240 baf1040f f6d197e7 1f78d92f f6d12b7a  .........x./..+z
 0a250 b3b90134 5444a5e7 08211548 03930bf0  ...4TD...!.H....
 0a260 a3f80e48 0bf0e6f9 039b64e7 2b7a002b  ...H......d.+z.+
 0a270 98d0a045 96d90f49 08480bf0 f7f991e7  ...E...I.H......
 0a280 0aeb0402 0c490548 0bf0f0f9 e1e700bf  .....I.H........
 0a290 94b30020 a4120020 cdcccccc 10420020  ... ... .....B. 
 0a2a0 ac160020 54120020 24120020 00120020  ... T.. $.. ... 
 0a2b0 98120020 f4120020 d4120020 08b50021  ... ... ... ...!
 0a2c0 084808f0 bbfd084a 08490648 0cf0fafc  .H.....J.I.H....
 0a2d0 074b03f5 207243f8 203c4033 9342fad1  .K.. rC. <@3.B..
 0a2e0 08bd00bf b49e0020 50520020 d9570000  ....... PR. .W..
 0a2f0 405f0020 3628f0b5 064683b0 2bd81b4b  @_. 6(...F..+..K
 0a300 02460f46 1a4903eb 00131a48 1a4c5d68  .F.F.I.....H.L]h
 0a310 2b460bf0 abf9194b 4ff0000c 9e4606e0  +F.....KO....F..
 0a320 0cf1010c bcf11a0f 15d0def8 0440a542  .............@.B
 0a330 0ef11c0e f4d1cceb cc0c13f8 2c40bc42  ............,@.B
 0a340 11d03b46 32460e49 00940a48 0bf08ef9  ..;F2F.I...H....
 0a350 002003b0 f0bd3246 0a490648 0bf086f9  . ....2F.I.H....
 0a360 002003b0 f0bd0120 03b0f0bd c82b0020  . ..... .....+. 
 0a370 f4070020 10420020 14811f40 802c0060  ... .B. ...@.,.`
 0a380 84070020 5c070020 36282cd8 02461749  ... \.. 6(,..F.I
 0a390 174838b5 174b184d 03eb0213 5c682346  .H8..K.M....\h#F
 0a3a0 0bf064f9 00221548 294603e0 01321a2a  ..d..".H)F...2.*
 0a3b0 17d04868 844201f1 1c01f7d1 c2ebc203  ..Hh.B..........
 0a3c0 d10005eb 83039868 2060d868 08b11b69  .......h `.h...i
 0a3d0 03608b1a 012005eb 8305d5e9 05321a60  .`... .......2.`
 0a3e0 38bd0020 38bd0020 704700bf f4070020  8.. 8.. pG..... 
 0a3f0 10420020 c82b0020 802c0060 14811f40  .B. .+. .,.`...@
 0a400 01607047 00680268 10b4126a 044ca242  .`pG.h.h...j.L.B
 0a410 03d15df8 044b0172 70475df8 044b1047  ..]..K.rpG]..K.G
 0a420 b1560000 006810b4 0468d4f8 b440a446  .V...h...h...@.F
 0a430 5df8044b 604700bf 006830b4 04689df8  ]..K`G...h0..h..
 0a440 0c500395 d4f89040 a44630bc 604700bf  .P.....@.F0.`G..
 0a450 08b50021 084808f0 f1fc084a 08490648  ...!.H.....J.I.H
 0a460 0cf030fc 074b03f5 207243f8 203c4033  ..0..K.. rC. <@3
 0a470 9342fad1 08bd00bf 009f0020 50520020  .B......... PR. 
 0a480 d9570000 c0610020 704700bf 044bff20  .W...a. pG...K. 
 0a490 4ff0ff31 00221860 c3e90212 704700bf  O..1.".`....pG..
 0a4a0 6c930020 4ff0000c 42602022 017080f8  l.. O...B` ".p..
 0a4b0 08c0c260 704700bf 38b50446 40680d46  ...`pG..8..F@h.F
 0a4c0 15f03ef9 01212172 0db90846 38bd2078  ..>..!!r...F8. x
 0a4d0 62688840 82f83011 82f82f11 82f8a500  bh.@..0.../.....
 0a4e0 606808f0 01fbb0fa 80f04009 38bd00bf  `h........@.8...
 0a4f0 2de9f041 079f1546 9846c368 3a449a42  -..A...F.F.h:D.B
 0a500 16d80278 04464368 0e465200 83f8a520  ...x.FCh.FR.... 
 0a510 012283f8 302183f8 2f2167b1 069b53b1  ."..0!../!g...S.
 0a520 40683a46 06990368 5b689847 874202d0  @h:F...h[h.G.B..
 0a530 0020bde8 f0816068 31462a46 03685b68  . ....`h1F*F.h[h
 0a540 98478542 f4d14146 606808f0 cdfab0fa  .G.B..AF`h......
 0a550 80f04009 bde8f081 2de9f843 15460646  ..@.....-..C.F.F
 0a560 0f46d2b2 01784068 08f03cfb 854224d1  .F...x@h..<..B$.
 0a570 05b30024 dff84c90 a04613e0 90f8a2c0  ...$..L..F......
 0a580 90f8a320 62450cf1 01028444 18d980f8  ... bE.....D....
 0a590 a2209cf8 1a300134 07f80830 a4b2a542  . ...0.4...0...B
 0a5a0 a04607d9 70680268 52694a45 e6d09047  .F..ph.hRiJE...G
 0a5b0 c3b2f0e7 0120bde8 f8830020 bde8f883  ..... ..... ....
 0a5c0 ff23e8e7 5d060000 2de9f041 002482b0  .#..]...-..A.$..
 0a5d0 1f460646 9df82430 089dcde9 0044fff7  .F.F..$0.....D..
 0a5e0 87ff28b9 4ff00008 404602b0 bde8f081  ..(.O...@F......
 0a5f0 804615b9 f8e7a542 f6d92a1b f3683919  .F.....B..*..h9.
 0a600 30469a42 28bf1a46 ab1aa342 14448cbf  0F.B(..F...B.D..
 0a610 00230123 fff7a0ff 0028ecd1 e2e700bf  .#.#.....(......
 0a620 037b002b 2de9f04f 0cbf0123 802385b0  .{.+-..O...#.#..
 0a630 91f80090 634e19ea 030f0293 83680cbf  ....cN.......h..
 0a640 4ff0010a 4ff0000a b6fbf3f6 002a00f0  O...O........*..
 0a650 b680013a 0446f6b2 88468b18 dff870b1  ...:.F...F....p.
 0a660 0393029d 0027002e 41d1637b 13f0f70f  .....'..A.c{....
 0a670 75d119ea 050f94f9 100014bf 01230023  u............#.#
 0a680 421c2fd0 53452dd0 1946c0b2 019309f0  B./.SE-..F......
 0a690 45fa019b 0121e07b 9a4609f0 3ffa94f9  E....!.{.F..?...
 0a6a0 1100421c 04d0c0b2 09f062fa 00b12f43  ..B.......b.../C
 0a6b0 0021e07b 09f032fa 94f91130 013318bf  .!.{..2....0.3..
 0a6c0 88f80070 237b4bb9 6d00edb2 002dcad1  ...p#{K.m....-..
 0a6d0 039b9845 73d018f8 019fc2e7 6d08002d  ...Es.......m..-
 0a6e0 c1d1f5e7 0121e07b 09f018fa d7e7364b  .....!.{......6K
 0a6f0 dbf80410 1a68354b a3fb0232 920c06fb  .....h5K...2....
 0a700 02f2dbf8 04305b1a 9a42fad8 637b13f0  .....0[..B..c{..
 0a710 f70f40d1 19ea050f 94f91000 14bf0121  ..@............!
 0a720 0021431c 07d05145 05d0c0b2 019109f0  .!C...QE........
 0a730 f5f90199 8a460121 e07b09f0 eff9224b  .....F.!.{...."K
 0a740 dbf80410 1a68214b a3fb0232 920c06fb  .....h!K...2....
 0a750 02f2dbf8 04305b1a 9a42fad8 9fe70121  .....0[..B.....!
 0a760 e07b09f0 dbf994f9 1000431c 04d0c0b2  .{........C.....
 0a770 09ea0501 09f0d2f9 0021e07b 09f0cef9  .........!.{....
 0a780 94f91100 411c9dd0 c0b209f0 f1f90028  ....A..........(
 0a790 92d02f43 90e70121 e07b09f0 bff90a4b  ../C...!.{.....K
 0a7a0 dbf80410 1a68094b a3fb0232 920c06fb  .....h.K...2....
 0a7b0 02f2dbf8 04305b1a 9a42fad8 d3e705b0  .....0[..B......
 0a7c0 bde8f08f 20a10700 0c420020 83de1b43  .... ....B. ...C
 0a7d0 001000e0 30b482b0 0c4602ab 03e90600  ....0....F......
 0a7e0 c37c002b 30d072b6 c37cda07 08d54ff0  .|.+0.r..|....O.
 0a7f0 e0214569 d1f88021 2a408262 c1f88021  .!Ei...!*@.b...!
 0a800 9d0708d5 4ff0e021 8569d1f8 84212a40  ....O..!.i...!*@
 0a810 c262c1f8 84215907 08d54ff0 e021c569  .b...!Y...O..!.i
 0a820 d1f88821 2a400263 c1f88821 1a0708d5  ...!*@.c...!....
 0a830 4ff0e021 056ad1f8 8c212a40 4263c1f8  O..!.j...!*@Bc..
 0a840 8c21db06 2fd462b6 83689c42 35d0224b  .!../.b..h.B5."K
 0a850 84609b69 214ac3f3 0111c3f3 826352f8  .`.i!J.......cR.
 0a860 21100133 b1fbf3f2 ccb19442 27d8b2fb  !..3.......B'...
 0a870 f4f3b2fb f3f29442 2cd3b3f5 817f20d3  .......B,..... .
 0a880 174cc460 03680322 00200199 18615a62  .L.`.h.". ...aZb
 0a890 01221c64 19661a61 02b030bc 70479942  .".d.f.a..0.pG.B
 0a8a0 efd3531c e9e74ff0 e022416a d2f89031  ..S...O.."Aj...1
 0a8b0 0b408363 c2f89031 c5e7c468 e2e70024  .@.c...1...h...$
 0a8c0 dfe7022b fbd9023b 5a081402 44ea0244  ...+...;Z...D..D
 0a8d0 1c43d6e7 1a46e4e7 00c00f40 68260020  .C...F.....@h&. 
 0a8e0 ff7f7f00 10b50446 90f90e00 431c03d0  .......F....C...
 0a8f0 0121c0b2 09f012f9 236823b3 da7c12b3  .!......#h#..|..
 0a900 d10704d5 986a4ff0 e021c1f8 00019407  .....jO..!......
 0a910 04d5d86a 4ff0e021 c1f80401 500704d5  ...jO..!....P...
 0a920 186b4ff0 e021c1f8 08011107 04d5586b  .kO..!........Xk
 0a930 4ff0e021 c1f80c01 d20604d5 9a6b4ff0  O..!.........kO.
 0a940 e023c3f8 102110bd 2de9f047 044682b0  .#...!..-..G.F..
 0a950 00688a46 90461e46 0a9d20b1 636893e8  .h.F.F.F.. .ch..
 0a960 0600fff7 37ff94f9 0e00431c 42d1d5b1  ....7.....C.B...
 0a970 013e06eb 05090df1 070503e0 fff750fe  .>............P.
 0a980 4e4510d0 16f8013f 01222768 29462046  NE.....?."'h)F F
 0a990 8df80730 002ff1d0 13463846 2a46f5f7  ...0./...F8F*F..
 0a9a0 0bfe4e45 eed1b8f1 000f1cd0 d0440af1  ..NE.........D..
 0a9b0 ff360df1 070508f1 ff3803e0 fff730fe  .6.......8....0.
 0a9c0 b04510d0 16f8013f 01222768 29462046  .E.....?."'h)F F
 0a9d0 8df80730 002ff1d0 13463846 2a46f5f7  ...0./...F8F*F..
 0a9e0 ebfdb045 eed12046 fff77cff 012002b0  ...E.. F..|.. ..
 0a9f0 bde8f087 c0b20021 09f090f8 b7e700bf  .......!........
 0aa00 2de9f04f 044683b0 00680f46 15469b46  -..O.F...h.F.F.F
 0aa10 ddf830a0 9df83480 20b16368 93e80600  ..0...4. .ch....
 0aa20 fff7d8fe 94f90e00 431c48d1 d5b1013f  ........C.H....?
 0aa30 07eb0509 0df10705 03e0fff7 f1fd4f45  ..............OE
 0aa40 10d017f8 013f0122 26682946 20468df8  .....?."&h)F F..
 0aa50 0730002e f1d01346 30462a46 f5f7acfd  .0.....F0F*F....
 0aa60 4f45eed1 baf1000f 22d0da44 0bf1ff36  OE......"..D...6
 0aa70 0df10705 0af1ff3a 07e0fff7 d1fd9df8  .......:........
 0aa80 073006f8 013fb245 12d02768 01222946  .0...?.E..'h.")F
 0aa90 20468df8 0780002f efd01346 38462a46   F...../...F8F*F
 0aaa0 f5f78afd 9df80730 06f8013f b245ecd1  .......0...?.E..
 0aab0 2046fff7 17ff0120 03b0bde8 f08fc0b2   F..... ........
 0aac0 002109f0 2bf8b1e7 0372bdf8 00304381  .!..+....r...0C.
 0aad0 9df80430 c0e90012 03730022 9df80810  ...0.....s."....
 0aae0 9df80c30 81734261 43737047 b0f80ac0  ...0.sBaCspG....
 0aaf0 03460068 70b584b0 adf80cc0 40b15c7b  .F.hp.......@.\{
 0ab00 03abcde9 00340123 fff7f2fc 04b070bd  .....4.#......p.
 0ab10 58680028 fad01e7a 5ffa8cf5 032e21d0  Xh.(...z_.....!.
 0ab20 0c469646 76b1022e 11d165f0 7f058df8  .F.Fv.....e.....
 0ab30 0c505d7b 724603ab 21460095 fff704ff  .P]{rF..!F......
 0ab40 04b070bd 05f07f05 8df80c50 f1e7012e  ..p........P....
 0ab50 efd19df8 0c2002f0 7f0242f0 40028df8  ..... ....B.@...
 0ab60 0c20e6e7 5c7b4fea 1c2c03ab 8df80d50  . ..\{O..,.....P
 0ab70 01342cf0 010c0094 8df80cc0 fff7e4fe  .4,.............
 0ab80 c4e700bf 30b562b9 047b042c 24d84161  ....0.b..{.,$.Aa
 0ab90 5cb900f1 0f0e2246 7146bde8 3040fff7  \....."FqF..0@..
 0aba0 a5bf042a 144617d8 416100f1 0f0e04f1  ...*.F..Aa......
 0abb0 0e03857b 00f10e02 50fa83f3 f4464db9  ...{....P....FM.
 0abc0 8cf80010 013b090a 0cf1010c 9342e2d0  .....;.......B..
 0abd0 002df5d0 1970f5e7 002030bd 10b58446  .-...p... 0....F
 0abe0 84b04089 14460b46 c2b2adf8 0c004fea  ..@..F.F......O.
 0abf0 102edcf8 000048b1 00219cf8 0d200094  ......H..!... ..
 0ac00 019103a9 fff7e0fc 04b010bd dcf80400  ................
 0ac10 0028f9d0 9cf80810 03291ed0 79b10229  .(.......)..y..)
 0ac20 12d102f0 7f028df8 0c20ff21 9cf80d20  ......... .!... 
 0ac30 00940191 03a9fff7 e3fe04b0 10bd62f0  ..............b.
 0ac40 7f028df8 0c20f0e7 0129eed1 9df80c20  ..... ...)..... 
 0ac50 62f03f02 8df80c20 e7e7ff21 00948df8  b.?.... ...!....
 0ac60 0d204ef0 010e9cf8 0d200191 03a90132  . N...... .....2
 0ac70 8df80ce0 fff7c4fe c6e700bf 70b500f1  ............p...
 0ac80 0f05027b 04462946 fff7a8ff a0b1207b  ...{.F)F...... {
 0ac90 70b10e30 a67b2946 04f10e02 23180020  p..0.{)F....#.. 
 0aca0 000236b9 1c782043 013b0131 9342f7d1  ..6..x C.;.1.B..
 0acb0 70bd0c78 2043f7e7 4ff0ff30 70bd00bf  p..x C..O..0p...
 0acc0 01600271 43717047 10b50446 0068fff7  .`.qCqpG...F.h..
 0acd0 d5ff0123 21796279 8b40d040 013b1840  ...#!yby.@.@.;.@
 0ace0 10bd00bf 38b50546 00680c46 fff7c6ff  ....8..F.h.F....
 0acf0 2a790123 93406a79 2d68013b 1c409340  *y.#.@jy-h.;.@.@
 0ad00 944020ea 03012a7b 28462143 bde83840  .@ ...*{(F!C..8@
 0ad10 fff738bf 7f28a2eb 010205d8 12b10a46  ..8..(.........F
 0ad20 02f8010b 10467047 b0f5006f 0fd2012a  .....FpG...o...*
 0ad30 40d94fea 901c00f0 3f030a46 6cf03f00  @.O.....?..Fl.?.
 0ad40 63f07f03 02f8020b 10464b70 7047b0f5  c........FKppG..
 0ad50 803f16d2 022a2dd9 c0f3851c 00f03f03  .?...*-.......?.
 0ad60 ca1c63f0 7f0300b5 4fea103e 6cf07f00  ..c.....O..>l...
 0ad70 8b706ef0 1f0e4870 104681f8 00e05df8  .pn...Hp.F....].
 0ad80 04fb032a 16d94fea 904cc0f3 0532c0f3  ...*..O..L...2..
 0ad90 851300f0 3f0062f0 7f026cf0 0f0c63f0  ....?.b...l...c.
 0ada0 7f0360f0 7f004a70 0a1dc870 81f800c0  ..`...Jp...p....
 0adb0 8b70b7e7 0022b5e7 88423dd2 034610b4  .p..."...B=..F..
 0adc0 90f90000 1c780028 2dda04f0 e000c028  .....x.(-......(
 0add0 34d004f0 f000e028 34d004f0 f800f028  4......(4......(
 0ade0 26d104f0 07040420 18448842 20d80133  &...... .D.B ..3
 0adf0 13f8011b 01f0c00c 01f03f01 bcf1800f  ..........?.....
 0ae00 41ea8414 14d18342 f2d1a4f1 80010f4b  A......B.......K
 0ae10 99420dd8 a4f55843 b3f5006f 08d31460  .B....XC...o...`
 0ae20 5df8044b 7047581c 14605df8 044b7047  ]..KpGX..`]..KpG
 0ae30 00205df8 044b7047 00207047 04f01f04  . ]..KpG. pG....
 0ae40 0220d1e7 04f00f04 0320cde7 7fff1000  . ....... ......
 0ae50 10b50446 808982b0 18b10023 a38102b0  ...F.......#....
 0ae60 10bdd4e9 01318b42 f9d201aa 1846fff7  .....1.B.....F..
 0ae70 a3ff80b1 019b6060 b3f5803f 01d298b2  ......``...?....
 0ae80 ede7980a c3f30903 a0f52150 a3f51053  ..........!P...S
 0ae90 80b2a381 e3e74ff6 ff70e0e7 7e283ed9  ......O..p..~(>.
 0aea0 4ff0350c 002330b4 284c04e0 34f82120  O.5..#0.(L..4.! 
 0aeb0 824220d8 0b46aceb 0302012a 03eb5201  .B ..F.....*..R.
 0aec0 f4d89bb2 34f82320 904216d2 4b240023  ....4.# .B..K$.#
 0aed0 1f4d04e0 35f82120 82421ed8 0b46e21a  .M..5.! .B...F..
 0aee0 012a03eb 5201f5d8 9bb235f8 23208242  .*..R.....5.# .B
 0aef0 1fd030bc 70478c46 dde704eb 8304821a  ..0.pG.F........
 0af00 e3789a42 e2da94f9 0230012b 16d0d3b1  .x.B.....0.+....
 0af10 9bb20344 30bc98b2 70470c46 dfe7a0f1  ...D0...pG.F....
 0af20 6103192b 8cbf0023 0123a0eb 431398b2  a..+...#.#..C...
 0af30 704705eb 83056888 30bc7047 02f00102  pG....h.0.pG....
 0af40 831a98b2 d5e74ef2 a033e2e7 ec0e0020  ......N..3..... 
 0af50 280a0020 30b50378 83b0dc07 1dd50446  (.. 0..x.......F
 0af60 406804f1 10020368 e1680192 5b6a9847  @h.....h.h..[j.G
 0af70 019a0546 a8b12378 990708d5 6068d4e9  ...F..#x....`h..
 0af80 02311944 03685b6a 984750b1 237823f0  .1.D.h[j.GP.#x#.
 0af90 01032846 237003b0 30bd0125 284603b0  ..(F#p..0..%(F..
 0afa0 30bd0025 284603b0 30bd00bf f8b54368  0..%(F..0.....Ch
 0afb0 0bb3c368 04460f46 15468b42 06d110f8  ...h.F.F.F.B....
 0afc0 103b05f0 03052b43 2370f8bd fff7c2ff  .;....+C#p......
 0afd0 88b16b07 05d504f1 10063046 0023e760  ..k.......0F.#.`
 0afe0 efe76068 04f11006 39460368 32461b69  ..`h....9F.h2F.i
 0aff0 98470028 f1d10020 f8bd00bf b1f5807f  .G.(... ........
 0b000 21d81029 2ed84023 4ff0200c b2fbf3f1  !..)..@#O. .....
 0b010 b1f5806f 20d203fb 112300b5 b2fbfcfe  ...o ....#......
 0b020 b3fbfcf3 0cfb1e22 4fea910c dbb20132  ......."O......2
 0b030 2cf03f0c c9b20370 42ea0c02 8170d2b2  ,.?....pB....p..
 0b040 42705df8 04fb3f23 9c468029 10d9b1f5  Bp]...?#.F.)....
 0b050 fc7f0fd8 1b01d9e7 ff21fe23 41700370  .........!.#Ap.p
 0b060 81707047 202916d8 80234ff0 200ccde7  .ppG )...#O. ...
 0b070 db00cbe7 b1f57c7f 04d9b1f5 fc6f03d8  ......|......o..
 0b080 9b01c3e7 5b01c1e7 b1f57c6f 94bfdb01  ....[.....|o....
 0b090 c3eb0323 bae72023 9c46d6e7 08467047  ...#.. #.F...FpG
 0b0a0 f8b50026 8f6b0d46 0446c0e9 0e669fb1  ...&.k.F.F...f..
 0b0b0 01462420 fff7f2ff 06808670 8446ad6b  .F$ .......p.F.k
 0b0c0 a0630fcd ace80f00 0fcdace8 0f002b68  .c............+h
 0b0d0 ccf80030 2046f8bd cb6b002b fad00146  ...0 F...k.+...F
 0b0e0 3820fff7 dbff80f8 31704786 0246eb6b  8 ......1pG..F.k
 0b0f0 e06303f1 30071e68 103353f8 0c5c1032  .c..0..h.3S..\.2
 0b100 53f8080c 53f8041c bb4242f8 106c42f8  S...S....BB..lB.
 0b110 0c5c42f8 080c42f8 041cecd1 1b682046  .\B...B......h F
 0b120 1360f8bd 10b50446 806b10b1 01f064fd  .`.....F.k....d.
 0b130 30b9e06b 10b104f0 1bfe20b9 002010bd  0..k...... .. ..
 0b140 0023a363 10bd0023 e36310bd 002952d0  .#.c...#.c...)R.
 0b150 2de9f041 0446806b 0d461746 1e4610b1  -..A.F.k.F.F.F..
 0b160 01f04afd a0bbe06b 10b104f0 01feb8bb  ..J....k........
 0b170 d5f88084 b8f1000f 11d02146 2420fff7  ..........!F$ ..
 0b180 8dff3346 00263a46 06808670 a063d5f8  ..3F.&:F...p.c..
 0b190 801401f0 39ff58bb a063bde8 f081d5f8  ....9.X..c......
 0b1a0 843493b1 21463820 fff778ff 334680f8  .4..!F8 ..x.3F..
 0b1b0 31803a46 a0f83280 e063d5f8 841405f0  1.:F..2..c......
 0b1c0 0bfaa8b9 e063bde8 f0810020 bde8f081  .....c..... ....
 0b1d0 0023d5f8 8084a363 b8f1000f cdd1dee7  .#.....c........
 0b1e0 0023d5f8 8084e363 b8f1000f c5d1d6e7  .#.....c........
 0b1f0 0120bde8 f0810020 704700bf f8b50446  . ..... pG.....F
 0b200 806b0d46 174610b1 01f0f6fc 38bbe06b  .k.F.F......8..k
 0b210 10b104f0 adfd38bb ae6b76b1 21462420  ......8..kv.!F$ 
 0b220 fff73cff 00213a46 01808170 a063a96b  ..<..!:F...p.c.k
 0b230 02f050fa 88b9a063 f8bde86b 0028fbd0  ..P....c...k.(..
 0b240 21463820 fff72aff 3a4680f8 31604686  !F8 ..*.:F..1`F.
 0b250 e063e96b 05f0c8f9 20b10120 f8bd0023  .c.k.... .. ...#
 0b260 a363d9e7 e063f8bd 0023e363 d4e700bf  .c...c...#.c....
 0b270 2de9f041 00260446 9846c0f8 8814c0f8  -..A.&.F.F......
 0b280 80640146 4ff49060 1746fff7 07ff4246  .d.FO..`.F....BF
 0b290 80f84464 054680f8 7964a0f8 7a64c4f8  ..Dd.F..yd..zd..
 0b2a0 8404d4f8 881406f0 35fda0bb 00262146  ........5....&!F
 0b2b0 40f26c40 c4f88464 fff7f0fe 0223c671  @.l@...d.....#.q
 0b2c0 4246a0f8 48640546 80f84a64 0372c4f8  BF..Hd.F..Jd.r..
 0b2d0 8004d4f8 881400f0 01ff38b9 00231a4a  ..........8..#.J
 0b2e0 18461360 c4f88034 bde8f081 05f58966  .F.`...4.......f
 0b2f0 304601f0 81fc2946 304601f0 bbfe0028  0F....)F0F.....(
 0b300 ecd0124b 1a68aab9 1d600f4b afb10120  ...K.h...`.K... 
 0b310 1c60bde8 f08105f5 89663046 04f028fd  .`.......f0F..(.
 0b320 29463046 04f052fd 0028bfd0 084b1a68  )F0F..R..(...K.h
 0b330 002ae9d0 044b002f e9d11a68 002ae6d0  .*...K./...h.*..
 0b340 0120bde8 f08100bf 109f0020 149f0020  . ......... ... 
 0b350 b09e0020 70b50025 4ff47a76 04464560  ... p..%O.zv.FE`
 0b360 05738660 c0e91255 034d40f8 105bfff7  .s.`...U.M@..[..
 0b370 edfe2046 70bd00bf 6c230020 042a04d8  .. Fp...l#. .*..
 0b380 01eb4202 b2f80100 70470a2a 03d801eb  ..B.....pG.*....
 0b390 42029088 70470c2a 03d801eb 4201c888  B...pG.*....B...
 0b3a0 70470020 704700bf f8b50478 0e467cb1  pG. pG.....x.F|.
 0b3b0 14f06004 174607d0 012a09d9 2f220023  ..`..F...*../".#
 0b3c0 01200a70 4b70f8bd 214601f0 05fc18b9  . .pKp..!F......
 0b3d0 00231846 3370f8bd 0346a446 082111e0  .#.F3p...F.F.!..
 0b3e0 027b1142 03d00ef1 200e5ffa 8efe651c  .{.B.... ._...e.
 0b3f0 bd42edd2 0cf1010c 06f804e0 ecb2bcf1  .B..............
 0b400 0c0f10d0 bcf1080f 11d013f8 01ebaef1  ................
 0b410 4102192a e4d9bef1 200fe8d1 0cf1010c  A..*.... .......
 0b420 bcf10c0f eed10023 20463355 f8bd1a78  .......# F3U...x
 0b430 202af8d0 10214ff0 2e0ed8e7 2de9f04f   *...!O.....-..O
 0b440 00248bb0 03788946 0194002b 55d0c378  .$...x.F...+U..x
 0b450 0646002b 58d00146 01a89046 01f0dcfd  .F.+X..F...F....
 0b460 00284ad0 f0780028 43d008f1 ff38cb46  .(J..x.(C....8.F
 0b470 4ff0010a c844b188 01a8a1eb 0a0189b2  O....D..........
 0b480 490102f0 5df8c0b3 002101a8 01f0f8fe  I...]....!......
 0b490 98b3c37a 0f2b30d1 03785ffa 8af103f0  ...z.+0..x_.....
 0b4a0 1f038b42 29d1471c 0025042d ebb23fd8  ...B).G..%.-..?.
 0b4b0 3b8874bb 03f52051 89b2b1f5 006f3ed3  ;.t... Q.....o>.
 0b4c0 a3b11846 59464246 fff724fc 8346a0b1  ...FYFBF..$..F..
 0b4d0 00240135 02370d2d e7d10af1 010af178  .$.5.7.-.......x
 0b4e0 5ffa8af3 1ffa8afa 9942c4d2 abeb0900  _........B......
 0b4f0 d9460023 89f80030 03e00023 184689f8  .F.#...0...#.F..
 0b500 00300bb0 bde8f08f fff74eff 0bb0bde8  .0........N.....
 0b510 f08f03f5 105189b2 b1f5806f edd20a4a  .....Q.....o...J
 0b520 c3f30903 02ea8420 184300f5 8030c9e7  ....... .C...0..
 0b530 0a2b94bf b7f80330 b7f80530 b9e7b1f5  .+.....0...0....
 0b540 806fdad2 1c46c4e7 00fc0f00 fff776bf  .o...F........v.
 0b550 2de9f843 ddf82090 a2b10546 0c469846  -..C.. ....F.F.F
 0b560 571801e0 bc420dd0 2b682046 49465e6a  W....B..+h FIF^j
 0b570 c0472146 02462846 0134b047 0028f1d1  .G!F.F(F.4.G.(..
 0b580 bde8f883 0120bde8 f88300bf 486810b5  ..... ......Hh..
 0b590 0c4630b1 0b894a89 01339bb2 9a420b81  .F0...J..3...B..
 0b5a0 01d92068 10bd0368 01220349 5b689847  .. h...h.".I[h.G
 0b5b0 00232068 238110bd 181b0020 2de9f04f  .# h#...... -..O
 0b5c0 054687b0 88469246 00214ff4 0072406a  .F...F.F.!O..r@j
 0b5d0 0ef044fa 286a28b1 03680c22 3a495b68  ..D.(j(..h.":I[h
 0b5e0 9847286a 6b6a4ff0 0009ee69 0af1ff32  .G(jkjO....i...2
 0b5f0 dff8e0c0 e968adf8 14904c1c cde90330  .....h....L....0
 0b600 4fea5a13 adf81630 3368df6a 674526d1  O.Z....03h.jgE&.
 0b610 6ab301eb 0a07dff8 c0a00ae0 2146039a  j...........!F..
 0b620 30460134 d8470028 3fd0a742 1ed03368  0F.4.G.(?..B..3h
 0b630 0498d3f8 24b00028 f0d0bdf8 1430bdf8  ....$..(.....0..
 0b640 16200133 9bb29a42 adf81430 e6d80368  . .3...B...0...h
 0b650 51460122 5b689847 adf81490 dee703ab  QF."[h.G........
 0b660 21463046 0093194b b847f0b1 286a20b1  !F0F...K.G..(j .
 0b670 03680222 16495b68 9847b8f1 100f4ff0  .h.".I[h.G....O.
 0b680 f8016a6a 4ff00103 0cbf0420 0c201170  ..jjO...... . .p
 0b690 ff216a6a d1540133 9842fad1 e8696a6a  .!jj.T.3.B...ijj
 0b6a0 0368e968 5b6a9847 18b90020 07b0bde8  .h.h[j.G... ....
 0b6b0 f08fd5e9 0231e869 19446a6a 03685b6a  .....1.i.Djj.h[j
 0b6c0 984707b0 bde8f08f 5c170020 8db50000  .G......\.. ....
 0b6d0 38180020 51b50000 181b0020 38b5436a  8.. Q...... 8.Cj
 0b6e0 4ff40075 04460021 2a461846 0ef0b6f9  O..u.F.!*F.F....
 0b6f0 4ff02031 eb22a0f8 0b50c0f8 03100346  O. 1."...P.....F
 0b700 c0f80710 90210270 76209970 02225870  .....!.pv .p."Xp
 0b710 94f82b10 59734af6 5521208d 1a74f822  ..+.YsJ.U! ..t."
 0b720 d8815a75 2269da61 a269a3f8 fe111a62  ..Zu"i.a.i.....b
 0b730 38bd00bf 70b50446 4ff40072 0021406a  8...p..FO..r.!@j
 0b740 0ef08cf9 656a2269 216805f2 bf10fff7  ....ej"i!h......
 0b750 55fca369 226905f2 c3102168 1a44013a  U..i"i....!h.D.:
 0b760 fff74cfc 94f82a20 4af65523 85f8c221  ..L...* J.U#...!
 0b770 2269e069 c5f8c621 626aa169 a5f8fe31  "i.i...!bj.i...1
 0b780 0368c5f8 ca110021 5b6abde8 70401847  .h.....![j..p@.G
 0b790 70b54669 4ff48073 90f82be0 0446a6f5  p.FiO..s..+..F..
 0b7a0 8072456a 4360b2fb fef202f2 011c4fea  .rEjC`........O.
 0b7b0 1c214fea 410c8160 0cf1a100 98420ed9  .!O.A..`.....B..
 0b7c0 8033f21a b2fbfef2 02f20111 090a4fea  .3............O.
 0b7d0 410c0cf1 a1008342 f2d3c4e9 01311b1a  A......B.....1..
 0b7e0 a2f6f571 03f18000 b1f5704f 20614fd2  ...q......pO aO.
 0b7f0 0cf1210c 81332046 02fb0ec2 e360b2f5  ..!..3 F.....`..
 0b800 803fa261 34bf0423 062384f8 2a300123  .?.a4..#.#..*0.#
 0b810 2385fff7 8fff08b9 002070bd 2046fff7  #........ p. F..
 0b820 5dff2922 a1684ff0 203385f8 26204622  ].)".hO. 3..& F"
 0b830 c5f82f30 802085f8 36205422 c5f82b30  ../0. ..6 T"..+0
 0b840 c5f83230 312385f8 38203622 e9824121  ..201#..8 6"..A!
 0b850 85f83930 85f83710 4ff40071 85f82400  ..90..7.O..q..$.
 0b860 85f83a20 0f4be069 c5f82730 0368a5f8  ..: .K.i..'0.h..
 0b870 1110626a 21695b6a 98470028 ccd06268  ..bj!i[j.G.(..bh
 0b880 2046e368 1021d21a bde87040 fff796be   F.h.!....p@....
 0b890 206a0028 c0d00368 13220349 5b689847   j.(...h.".I[h.G
 0b8a0 002070bd 87d61200 a4170020 f8b54669  . p........ ..Fi
 0b8b0 4ff40053 90f82bc0 4ff48042 a6f58041  O..S..+.O..B...A
 0b8c0 036142f2 090e0446 456a4260 b1fbfcf1  .aB....FEjB`....
 0b8d0 01f18103 db098360 0eeb4300 904240f2  .......`..C..B@.
 0b8e0 b68002f5 0052b11a b1fbfcf1 01f18103  .....R..........
 0b8f0 db090eeb 43005f00 8242f2d3 c4e90123  ....C._..B.....#
 0b900 4ff6f473 994240f2 978001fb 0c2ca2f5  O..s.B@......,..
 0b910 00522046 d21b92b2 02f50053 22854d4a  .R F.......S".MJ
 0b920 e360acf5 00539445 94bf4ff0 0b0c4ff0  .`...S.E..O...O.
 0b930 0c0ca361 84f82ac0 fff7fcfe 08b90020  ...a..*........ 
 0b940 f8bd2046 fff7cafe a1682922 4ff02033  .. F.....h)"O. 3
 0b950 80206962 85f84220 54214622 c5f84b30  . ib..B T!F"..K0
 0b960 85f84000 4120c5f8 4730c5f8 4e300223  ..@.A ..G0..N0.#
 0b970 85f85220 332285f8 54103221 85f85520  ..R 3"..T.2!..U 
 0b980 85f85300 85f85610 eb62e069 324b334a  ..S...V..b.i2K3J
 0b990 2b630368 c5f84320 5b6a626a 21699847  +c.h..C [jbj!i.G
 0b9a0 0028ccd0 e0692169 03680631 626a5b6a  .(...i!i.h.1bj[j
 0b9b0 98470028 c3d04ff4 00720021 606a0ef0  .G.(..O..r.!`j..
 0b9c0 4df8e069 264a0368 c5f8fc21 21695b6a  M..i&J.h...!!i[j
 0b9d0 0231626a 98470028 b1d0e069 21690368  .1bj.G.(...i!i.h
 0b9e0 0831626a 5b6a9847 0028a8d0 4ff0ff33  .1bj[j.G.(..O..3
 0b9f0 e0691c4a c5e97a33 1b4b2a60 c5f8e431  .i.J..z3.K*`...1
 0ba00 03682169 626a5b6a 01319847 002896d0  .h!ibj[j.1.G.(..
 0ba10 e0692169 0368626a 07315b6a 98470028  .i!i.hbj.1[j.G.(
 0ba20 8dd0a268 204694f8 2b302021 03eb4202  ...h F..+0 !..B.
 0ba30 bde8f840 fff7c2bd 206a0028 3ff47faf  ...@.... j.(?...
 0ba40 03681322 09495b68 98470020 f8bd5f00  .h.".I[h.G. .._.
 0ba50 56e700bf 0004fb00 01000600 87d61200  V...............
 0ba60 000055aa 52526141 72724161 a4170020  ..U.RRaArrAa... 
 0ba70 38b50446 0d68c161 08466262 ea692362  8..F.h.a.Fbb.i#b
 0ba80 904700f2 ff736061 db0a062b 236024d9  .G...s`a...+#`$.
 0ba90 102b13d8 0223b0f5 800f84f8 2b302046  .+...#......+0 F
 0baa0 2ed2fff7 75fe0546 206a05b3 20b10368  ....u..F j.. ..h
 0bab0 0d221949 5b689847 284638bd 202b23d9  .".I[h.G(F8. +#.
 0bac0 402b23d9 802b23d9 b3f5806f 22d9b3f5  @+#..+#....o"...
 0bad0 004f8cbf 80234023 dde7206a 20b10368  .O...#@#.. j ..h
 0bae0 14220e49 5b689847 00252846 38bd0028  .".I[h.G.%(F8..(
 0baf0 fad00368 0f220a49 5b689847 284638bd  ...h.".I[h.G(F8.
 0bb00 fff7d4fe 0546cfe7 0423c4e7 0823c2e7  .....F...#...#..
 0bb10 1023c0e7 2023bee7 84170020 6c170020  .#.. #..... l.. 
 0bb20 94170020 2de9f843 dde90887 c3b18146  ... -..C.......F
 0bb30 0c461546 5e1802e0 c047b442 10d0d9f8  .F.F^....G.B....
 0bb40 00302146 2a464846 1b699847 03463a46  .0!F*FHF.i.G.F:F
 0bb50 20462946 0134002b eed11846 bde8f883   F)F.4.+...F....
 0bb60 01231846 bde8f883 10b41468 b4f5807f  .#.F.......h....
 0bb70 a44628bf 4ff4807c 01eb4c00 814207d2  .F(.O..|..L..B..
 0bb80 31f8023b 13b95368 01335360 8842f7d8  1..;..Sh.3S`.B..
 0bb90 a4eb0c04 14605df8 044b7047 10b41468  .....`]..KpG...h
 0bba0 802ca446 28bf4ff0 800c01eb 8c008142  .,.F(.O........B
 0bbb0 07d251f8 043b13b9 53680133 53608842  ..Q..;..Sh.3S`.B
 0bbc0 f7d8a4eb 0c041460 5df8044b 704700bf  .......`]..KpG..
 0bbd0 2de9f843 c3790446 0d461746 202b59d0  -..C.y.F.F.F +Y.
 0bbe0 102b30d0 0c2b51d1 027ac1f3 4e018369  .+0..+Q..z..N..i
 0bbf0 00f50e79 11fa85f1 a2f10202 48468eb2  ...y........HF..
 0bc00 b2fa82f2 c1f34621 520901eb 03085200  ......F!R.....R.
 0bc10 4146fff7 cbf90028 38d0c6f3 0806731c  AF.....(8.....s.
 0bc20 865db3f5 007f23d0 18440378 ea07e269  .]....#..D.x...i
 0bc30 46ea0323 4cbf1b09 c3f30b03 9a4240d2  F..#L........B@.
 0bc40 0020bde8 f883027a c1f30721 836900f5  . .....z...!.i..
 0bc50 0e70a2f1 02021944 b2fa82f2 52095200  .p.....D....R.R.
 0bc60 fff7a4f9 90b16d00 05f4ff75 435b25e0  ......m....uC[%.
 0bc70 227a08f1 01014846 a2f10202 b2fa82f2  "z....HF........
 0bc80 52095200 fff792f9 0028ced1 4ff0ff30  R.R......(..O..0
 0bc90 bde8f883 027a8169 00f50e70 a2f10202  .....z.i...p....
 0bca0 01ebd511 b2fa82f2 52095200 fff77ef9  ........R.R...~.
 0bcb0 0028ebd0 ad0005f4 fe754359 e2699a42  .(.......uCY.i.B
 0bcc0 bed30120 3b60bde8 f88300bf 2de9f843  ... ;`......-..C
 0bcd0 c3790546 0c461646 202b48d0 102b2dd0  .y.F.F.F +H..+-.
 0bce0 0c2b41d1 c1f34e01 836900f5 0e7911fa  .+A...N..i...y..
 0bcf0 84f11ffa 81f8c1f3 4621cf18 037a4846  ........F!...zHF
 0bd00 022b3946 14bf0122 0322fff7 4ff958b3  .+9F..."."..O.X.
 0bd10 14f00104 c8f30803 3fd0c25c 02f00f02  ........?..\....
 0bd20 42ea0612 c2540133 b3f5007f 3ad0c6f3  B....T.3....:...
 0bd30 07120344 01201a70 bde8f883 027ac1f3  ...D. .p.....z..
 0bd40 07218369 00f50e70 022a1944 14bf0122  .!.i...p.*.D..."
 0bd50 0322fff7 2bf90346 30b16400 012004f4  ."..+..F0.d.. ..
 0bd60 ff741e53 bde8f883 0020bde8 f883037a  .t.S..... .....z
 0bd70 816900f5 0e70022b 01ebd411 14bf0122  .i...p.+......."
 0bd80 0322fff7 13f90346 0028edd0 a4000120  .".....F.(..... 
 0bd90 04f4fe74 1e51bde8 f883c654 0133b3f5  ...t.Q.....T.3..
 0bda0 007f15d1 2b7a791c 4846022b 14bf0122  ....+zy.HF.+..."
 0bdb0 0322fff7 fbf80346 0028d5d0 c6f30712  .".....F.(......
 0bdc0 002cb7d1 197821f0 0f0141ea 1212b1e7  .,...x!...A.....
 0bdd0 c6f30712 0344f5e7 2de9f041 c46882b0  .....D..-..A.h..
 0bde0 05460e46 8c429046 40d30127 0134eb69  .F.F.B.F@..'.4.i
 0bdf0 01aa2846 a34205d2 9fbbec68 01273c44  ..(F.B.....h.'<D
 0be00 a3422ed3 a64218bf 012c2146 29d9fff7  .B...B...,!F)...
 0be10 dffe0028 25dbe9d0 019b002b e6d107b1  ...(%......+....
 0be20 ec60eb69 a3421cd3 6ff07042 21462846  .`.i.B..o.pB!F(F
 0be30 fff74cff 0746a0b1 3eb96b6a 002b01db  ..L..F..>.kj.+..
 0be40 013b6b62 c8f80040 0ce0012e 09d0eb69  .;kb...@.......i
 0be50 9e4206d8 31462246 2846fff7 37ff0028  .B..1F"F(F..7..(
 0be60 ebd10027 384602b0 bde8f081 0c460027  ...'8F.......F.'
 0be70 bce700bf 01290cd9 10b4c469 8c4203d3  .....).....i.B..
 0be80 5df8044b fff7a4be 4ff0ff30 5df8044b  ]..K....O..0]..K
 0be90 70474ff0 ff307047 01290bd9 10b4c469  pGO..0pG.).....i
 0bea0 8c4203d3 5df8044b fff710bf 00205df8  .B..]..K..... ].
 0beb0 044b7047 00207047 70b50023 82b00546  .KpG. pGp..#...F
 0bec0 0c460193 1de0eb69 9c421fd8 fff780fe  .F.....i.B......
 0bed0 06462146 0022002e 284617db eb699c42  .F!F."..(F...i.B
 0bee0 14d8fff7 f3fe621e 80b16b6a 002b03f1  ......b...kj.+..
 0bef0 0103a8bf 6b62eb68 a342019c 88bfea60  ....kb.h.B.....`
 0bf00 2eb1012c 214601aa 2846dcd8 002002b0  ...,!F..(F... ..
 0bf10 70bd00bf 2de9f047 0646406a 84b00028  p...-..G.F@j...(
 0bf20 1bdaf279 0c2a1bd1 f7697b1c 022b40f2  ...y.*...i{..+@.
 0bf30 cd800224 00252146 02aa3046 fff748fe  ...$.%!F..0F..H.
 0bf40 002804f1 010306db 57d1a742 1c465cd0  .(......W..B.F\.
 0bf50 f2699342 efd94ff0 ff3004b0 bde8f087  .i.B..O..0......
 0bf60 f1690020 96f83832 01313469 db07cde9  .i. ..82.14i....
 0bf70 021000f1 85800021 4ff0ff33 202a06f5  .......!O..3 *..
 0bf80 127786f8 3812c6f8 443242d0 d6f80080  .w..8...D2B.....
 0bf90 4f4bd8f8 0020d6f8 18a09569 9d4278d1  OK... .....i.Bx.
 0bfa0 002c00f0 82800aeb 04091369 51463a46  .,.........iQF:F
 0bfb0 40469847 0028ced0 0299b1f5 807f8e46  @F.G.(.........F
 0bfc0 28bf4ff4 807e07eb 4e0cbc45 0bd9039d  (.O..~..N..E....
 0bfd0 3b460022 33f8024b 0cb90135 02469c45  ;F."3..K...5.F.E
 0bfe0 f8d802b1 03950af1 010aa1eb 0e01d145  ...............E
 0bff0 02915ad0 d8f80020 d7e7029a 002aa4d1  ..Z.... .....*..
 0c000 a74205f1 01051c46 a2d12846 04b0bde8  .B.....F..(F....
 0c010 f087d6f8 00a02e4b daf80020 d6f81890  .......K... ....
 0c020 95699d42 46d1002c 3fd009eb 04081369  .i.BF..,?......i
 0c030 49463a46 50469847 00288cd0 ddf808c0  IF:FPF.G.(......
 0c040 bcf1800f e64628bf 4ff0800e 07eb8e02  .....F(.O.......
 0c050 ba420bd9 039d3b46 002153f8 044b0cb9  .B....;F.!S..K..
 0c060 01350146 9a42f8d8 01b10395 09f10109  .5.F.B..........
 0c070 aceb0e03 c8450293 17d0daf8 0020d6e7  .....E....... ..
 0c080 06f50e70 fef766ff 00283ff4 64aff279  ...p..f..(?.d..y
 0c090 71e72346 02ac3a46 51460194 40460d4c  q.#F..:FQF..@F.L
 0c0a0 0094a847 00283ff4 56af0398 706204b0  ...G.(?.V...pb..
 0c0b0 bde8f087 234602ac 3a464946 01945046  ....#F..:FIF..PF
 0c0c0 054c0094 a8470028 efd144e7 002044e7  .L...G.(..D.. D.
 0c0d0 25bb0000 69bb0000 9dbb0000 70b50023  %...i.......p..#
 0c0e0 04461546 01204ff0 ff3204f1 28062160  .F.F. O..2..(.!`
 0c0f0 e371e060 e162c4f8 3c1284f8 283084f8  .q.`.b..<...(0..
 0c100 38326263 c4f84422 cdb1042d 01d90020  82bc..D"...-... 
 0c110 70bd1a46 19463046 fef748ff 6ff07043  p..F.F0F..H.o.pC
 0c120 00f5df72 2b441d01 02eb0313 0028eed0  ...r+D.......(..
 0c130 19790029 ebd0525d 5206e8d1 9d680022  .y.)..R]R....h."
 0c140 29463046 fef732ff 0028e0d0 b0f80b30  )F0F..2..(.....0
 0c150 b3f5007f dbd1037c 5a1e2372 012ad6d8  .......|Z.#r.*..
 0c160 417b4b1e 01292171 63714ff0 0003a371  A{K..)!qcqO....q
 0c170 44d00122 52000133 d2b2dbb2 914204d0  D.."R..3.....B..
 0c180 082bf7d1 0020a371 70bd1e46 a371c18a  .+... .qp..F.q..
 0c190 216109b9 416a2161 c289b0f8 11302a44  !a..Aj!a.....0*D
 0c1a0 63815b01 a26190f8 10c003f2 ff1301fb  c.[..a..........
 0c1b0 0c2202eb 53232262 b0f81320 636102b9  ."..S#"b... ca..
 0c1c0 026aed1a ab18f340 5a1ce261 4ff0ff32  .j.....@Z..aO..2
 0c1d0 626240f6 f4729342 0cd94ff6 f4729342  bb@..r.B..O..r.B
 0c1e0 0ad9c26a 20232262 0120e371 2163c4f8  ...j #"b. .q!c..
 0c1f0 401270bd 0c23f7e7 1023f5e7 1e46c6e7  @.p..#...#...F..
 0c200 2de9f04f 84468db0 14461568 98460646  -..O.F...F.h.F.F
 0c210 894603af 01934ff0 000ebce8 0f000fc7  .F....O.........
 0c220 bce80f00 0fc7dcf8 00306560 3b604346  .........0e`;`CF
 0c230 a4f80ce0 002b3fd0 4ff0010a a9eb0a01  .....+?.O.......
 0c240 03a889b2 490101f0 7bf950b3 002103a8  ....I...{.P..!..
 0c250 01f016f8 074620b3 00250de0 fef7f8fd  .....F ..%......
 0c260 80465846 fef71afe 83464046 fef716fe  .FXF.....F@F....
 0c270 834516d1 0d2d18d0 eab23946 30460135  .E...-....9F0F.5
 0c280 fff77cf8 a3898346 2046002b e6d1d4e9  ..|....F F.+....
 0c290 01329342 e2d1bbfa 8bf04009 0db0bde8  .2.B......@.....
 0c2a0 f08f0020 0db0bde8 f08f0af1 010a019b  ... ............
 0c2b0 5ffa8afa 5345c1d2 0120efe7 2de9f04f  _...SE... ..-..O
 0c2c0 07468db0 16469a46 0df10c0c 02f11504  .F...F.F........
 0c2d0 02f12005 01914ff0 00090fcf ace80f00  .. ...O.........
 0c2e0 0fcface8 0f003b68 ccf80030 4feac913  ......;h...0O...
 0c2f0 14f8012f 43ea5903 a54252fa 83f35ffa  .../C.Y..BR..._.
 0c300 83f9f3d1 33684ff0 00087360 a6f80c80  ....3hO...s`....
 0c310 baf1000f 4ed00127 019b03a8 d91b89b2  ....N..'........
 0c320 490101f0 0df90028 55d00021 03a800f0  I......(U..!....
 0c330 a7ff0028 4fd0059a 574500f1 010b4ff0  ...(O...WE....O.
 0c340 010492f8 28304ff0 000543f0 010382f8  ....(0O...C.....
 0c350 28304ff0 0f030cbf 47f04002 3a46c372  (0O.....G.@.:F.r
 0c360 4ff00003 02700373 4ff00003 80f80d90  O....p.sO.......
 0c370 438306e0 abf80000 01340135 0bf1020b  C........4.5....
 0c380 e4b2b089 18b9d6e9 01239a42 16d03046  .........#.B..0F
 0c390 fef75efd 042debb2 ecd90a2b 02d8abf8  ..^..-.....+....
 0c3a0 0300e9e7 0d2cabf8 0500e5d1 0137ffb2  .....,.......7..
 0c3b0 ba45b1d2 01200db0 bde8f08f b8f1000f  .E... ..........
 0c3c0 06d008f1 01084ff6 ff705ffa 88f8e1e7  ......O..p_.....
 0c3d0 4ff00108 dee70020 0db0bde8 f08f00bf  O...... ........
 0c3e0 02464ff0 203152f8 163b2de9 f043c0f8  .FO. 1R..;-..C..
 0c3f0 16108646 84685160 c2f80710 1a782e2a  ...F.hQ`.....x.*
 0c400 14bf0120 002003d1 13f8012f 2e2afbd0  ... . ...../.*..
 0c410 611e9942 0bd90a46 02e09342 114606d0  a..B...F...B.F..
 0c420 1146013a 91f800c0 bcf12e0f f5d19c42  .F.:...........B
 0c430 4ff00005 40f28680 07260827 a946a846  O...@....&.'.F.F
 0c440 06e00133 0a264ff0 08091027 9c425bd9  ...3.&O....'.B[.
 0c450 1a782e2a 08bf9942 f3d0222a 0dd07c2a  .x.*...B.."*..|*
 0c460 0bd0a2f1 5b0cbcf1 020f06d9 a2f12a0c  ....[.........*.
 0c470 bcf1050f 21d82d2a 1fd002f0 c002802a  ....!.-*.......*
 0c480 5dd04e45 2fd29942 2cbf0020 01200a2e  ].NE/..B,.. . ..
 0c490 08bf40f0 01000028 47d09ef8 1630202b  ..@....(G....0 +
 0c4a0 40d09ef8 14300120 7e213122 73448ef8  @....0. ~!1"sD..
 0c4b0 15009975 da75bde8 f083a2f1 3a0cbcf1  ...u.u......:...
 0c4c0 050fdad9 a2f1210c bcf15d0f d5d84e45  ......!...]...NE
 0c4d0 d9d3a2f1 610cbcf1 190f28d8 203a3d43  ....a.....(. :=C
 0c4e0 d2b2edb2 01e00020 5f2209f1 010cf144  ....... _".....D
 0c4f0 013389f8 16205ffa 8cf2062a 914698bf  .3... _....*.F..
 0c500 8ef81420 9c42a3d8 9ef81630 202b09d0  ... .B.....0 +..
 0c510 0028c6d0 18ea050f 18bf0225 8ef81550  .(.........%...P
 0c520 bde8f083 0020bde8 f0830b46 8ee7a2f1  ..... .....F....
 0c530 410cbcf1 190f98bf 47ea0808 d5e70133  A.......G......3
 0c540 002083e7 a846dfe7 2de9f84f 4ff06209  . ...F..-..OO.b.
 0c550 00250f46 0446dff8 a0b04ff0 7e0a91f8  .%.F.F....O.~...
 0c560 148001f1 1606b8f1 030fdbf8 003028bf  .............0(.
 0c570 4ff00308 2b449db2 08f10403 dbb205f0  O...+D..........
 0c580 0f02581e 2d09092a 02f13701 98bf02f1  ..X.-..*..7.....
 0c590 3001fa18 c3b29175 9845f0d1 07eb0803  0......u.E......
 0c5a0 00212046 83f816a0 00f0caff 01212046  .! F.........! F
 0c5b0 00f066fe 03460b22 30469bb1 93f800c0  ..f..F."0F......
 0c5c0 1946bcf1 000f13d0 db7a1b07 eed40df0  .F.......z......
 0c5d0 79f90028 ead109f1 ff3919f0 ff09c2d1  y..(.....9......
 0c5e0 484603e0 6078b0fa 80f04009 bde8f88f  HF..`x....@.....
 0c5f0 0120bde8 f88f00bf 94b30020 2de9f04f  . ......... -..O
 0c600 2ded028b 8bb0cde9 02038b68 07930b78  -..........h...x
 0c610 13f0700f 53d0029b 1b78002b 4fd11369  ..p.S....x.+O..i
 0c620 90469a4a 0e460c33 a2fb0323 c3f38702  .F.J.F.3...#....
 0c630 98f81530 98070492 00f0a780 571cffb2  ...0........W...
 0c640 00233046 19461c46 069300f0 79ff08f1  .#0F.F.F....y...
 0c650 1603a346 a146a246 08ee103a 05947569  ...F.F.F...:..ui
 0c660 00213046 00f00cfe c5f34f15 034620b3  .!0F......O..F .
 0c670 0278e52a 29d042b3 bc4238bf 00242e2a  .x.*).B..B8..$.*
 0c680 2bd090f8 0bc0bcf1 0f0f54d0 1cf0080c  +.........T.....
 0c690 23d1b9f1 000f40f0 d5800b22 18ee101a  #.....@...."....
 0c6a0 0df010f9 0028dad1 98f81530 13f00103  .....(.....0....
 0c6b0 00f0e480 01230593 d1e77378 83b10020  .....#....sx... 
 0c6c0 0bb0bdec 028bbde8 f08f002c 08bfaa46  ...........,...F
 0c6d0 bc4201d2 0134e4b2 12b14ff0 0009bee7  .B...4....O.....
 0c6e0 039b9a05 ebd503f0 0303013b 012be6d8  ...........;.+..
 0c6f0 002c08bf aa46bc42 03d348e0 dcb2a742  .,...F.B..H....B
 0c700 45d00021 304600f0 bbfd631c 0028f5d1  E..!0F....c..(..
 0c710 7378002b d3d1a742 39d9079d 05e02b79  sx.+...B9.....+y
 0c720 04eb0314 e4b2a742 31d93046 00f018fa  .......B1.0F....
 0c730 0028f4d1 c3e7b9f1 000f19d1 02f01f0b  .(..............
 0c740 04995945 8bd112f0 400988d0 437b8946  ..YE....@...C{.F
 0c750 0693bbf1 010f82d1 691c4b46 42463046  ........i.KFBF0F
 0c760 89b2fff7 4dfd0028 08bf4ff0 000976e7  ....M..(..O...v.
 0c770 0bf1ff3b 5ffa8bfb 5a45aed1 437b069a  ...;_...ZE..C{..
 0c780 9342e6d0 4ff00009 69e70127 58e7059b  .B..O...i..'X...
 0c790 2bb14146 3046fff7 d7fe0028 8fd0013f  +.AF0F.....(...?
 0c7a0 42463046 fbb20aeb 03051f46 adb22946  BF0F.......F..)F
 0c7b0 fff784fd 002882d0 69013046 00f0c0fe  .....(..i.0F....
 0c7c0 00283ff4 7caf0021 304600f0 59fd0446  .(?.|..!0F..Y..F
 0c7d0 00283ff4 74af2022 00210df0 3ff9d8f8  .(?.t. ".!..?...
 0c7e0 1620d8f8 1a302260 636098f8 2030b8f8  . ...0"`c`.. 0..
 0c7f0 1e20a372 228198f8 153003f0 18032373  . .r"....0....#s
 0c800 234b1b68 002b3bd0 0df12302 0df12601  #K.h.+;...#...&.
 0c810 09a89847 bdf82430 2382bdf8 2630e381  ...G..$0#...&0..
 0c820 9df82330 6373079a 92f82830 43f00103  ..#0cs....(0C...
 0c830 82f82830 039b2a46 31460298 009700f0  ..(0..*F1F......
 0c840 d7fe3de7 bbf1010f 7ff439af 0a3001e0  ..=.......9..0..
 0c850 13f8012f 4feacc11 984241ea 5c0152fa  .../O....BA.\.R.
 0c860 81f25ffa 82fcf3d1 069b6345 7ff427af  .._.......cE..'.
 0c870 4f46039b 19053ff5 22afdbe7 1f46f8e7  OF....?."....F..
 0c880 45f62123 23822383 6382cce7 4fecc44e  E.!##.#.c...O..N
 0c890 949d0020 2de9f041 1f460b78 82b00c46  ... -..A.F.x...F
 0c8a0 202b1546 03d114f8 013f202b fbd02c60   +.F.....? +..,`
 0c8b0 237863b3 2f2b2ad0 4ff00008 294e211d  #xc./+*.O...)N!.
 0c8c0 204601aa fef778fa 044670b1 019bb3f5   F....x..Fp.....
 0c8d0 803f40d2 7f2b08f1 010831d8 3c2bd9b2  .?@..+....1.<+..
 0c8e0 29d82129 05d81f29 09d80020 02b0bde8  ).!)...)... ....
 0c8f0 f0812239 c9b226fa 01f1ca07 f5d42e2b  .."9..&........+
 0c900 01d0202b 1cd12378 0bb12f2b d7d12b69  .. +..#x../+..+i
 0c910 013bfe2b e9d82378 202b03d1 14f8013f  .;.+..#x +.....?
 0c920 202bfbd0 2f2bf9d0 28463c60 02b0bde8   +../+..(F<`....
 0c930 f041fff7 55bd5c29 d7d005d9 7c29d4d0  .A..U.\)....|)..
 0c940 c5f81080 ac60dee7 3e390129 f8d80020  .....`..>9.)... 
 0c950 02b0bde8 f08108f1 0208ac60 c5f81080  ...........`....
 0c960 d1e700bf 01210005 f0b50023 8bb00193  .....!.....#....
 0c970 83789a07 24d5016a 054619b1 8068fff7  .x..$..j.F...h..
 0c980 9bfae8b1 01212846 00f026f9 c0b1421e  .....!(F..&...B.
 0c990 00f10a0c 0024e301 12f8011f 43ea5403  .....$......C.T.
 0c9a0 944551fa 83f3dcb2 f5d1e526 00230670  .EQ........&.#.p
 0c9b0 af682b70 07f12800 ab70fef7 cbfa10b9  .h+p..(..p......
 0c9c0 00200bb0 f0bd07f5 0e70fef7 c3fa0028  . .......p.....(
 0c9d0 f6d03868 03681b6a 98470028 f0d0eb78  ..8h.h.j.G.(...x
 0c9e0 002beed0 294601a8 00f016fb 0028e7d0  .+..)F.......(..
 0c9f0 eb78002b e4d00127 21e001a8 00f040fc  .x.+...'!.....@.
 0ca00 7b1cf9b2 0028dbd0 c27a0f2a d8d10278  {....(...z.*...x
 0ca10 5ffa83fc 9fb202f0 1f038b42 d0d1437b  _..........B..C{
 0ca20 a342cdd1 0670a968 91f82830 43f00103  .B...p.h..(0C...
 0ca30 81f82830 53060dd4 eb786345 c0d3a988  ..(0S....xcE....
 0ca40 01a8c91b 89b24901 00f07afd 00210028  ......I...z..!.(
 0ca50 d3d1b5e7 ac6804f1 2800fef7 7bfa0028  .....h..(...{..(
 0ca60 aed004f5 0e70fef7 75fa0028 a8d02068  .....p..u..(.. h
 0ca70 03681b6a 9847a4e7 70b590f9 023082b0  .h.j.G..p....0..
 0ca80 0446002b 0ddba568 05f12800 fef762fa  .F.+...h..(...b.
 0ca90 00283bd1 63780020 43f00103 637002b0  .(;.cx. C...cp..
 0caa0 70bd8068 0122a169 2830fef7 7ffa0028  p..h.".i(0.....(
 0cab0 f0d0a588 05f00f05 6b0100eb 4515c35c  ........k...E..\
 0cac0 e52be7d0 23781b07 01d5e369 eb61236a  .+..#x.....i.a#j
 0cad0 15491a0c 6b830e68 aa8266b1 0df10302  .I..k..h..f.....
 0cae0 0df10601 01a8b047 bdf80430 bdf80620  .......G...0... 
 0caf0 2b836b82 ea82a378 a56803f0 7f0305f1  +.k....x.h......
 0cb00 2800a370 fef726fa 0028c3d0 05f50e70  (..p..&..(.....p
 0cb10 fef720fa 0028bdd0 28680368 1b6a9847  .. ..(..(h.h.j.G
 0cb20 0028b7d0 bbe700bf 949d0020 024638b5  .(......... .F8.
 0cb30 52f8105f 04468068 2946fff7 4df950b1  R.._.F.h)F..M.P.
 0cb40 55b12369 0135ab42 a37818bf 03f0bf03  U.#i.5.B.x......
 0cb50 63f07f03 a37038bd a37843f0 4003f7e7  c....p8..xC.@...
 0cb60 f8b50478 14f02004 04d11a4b 05464269  ...x.. ....K.FBi
 0cb70 9a4202d3 00273846 f8bdfff7 d7ff0746  .B...'8F.......F
 0cb80 0028f7d0 a8682e69 8279023e 41699640  .(...h.i.y.>Ai.@
 0cb90 0e440179 a9b12146 06e00cf0 5fffa868  .D.y..!F...._..h
 0cba0 e1b20279 8a420bd9 31440522 28300134  ...y.B..1D."(0.4
 0cbb0 fef7fcf9 4ff40072 00210028 edd1d9e7  ....O..r.!.(....
 0cbc0 82794ff4 00736969 38469340 11fa83f3  .yO..sii8F.@....
 0cbd0 6b61f8bd 00fe1f00 10b50446 80680a46  ka.........F.h.F
 0cbe0 2830a169 fef7e2f9 20b1a388 03f00f03  (0.i.... .......
 0cbf0 00eb4310 10bd00bf 10b50378 04462bb1  ..C........x.F+.
 0cc00 fff73aff 00232370 a37010bd 00230120  ..:..##p.p...#. 
 0cc10 2370a370 10bd00bf 38b50378 05460c46  #p.p....8..x.F.F
 0cc20 13b1fff7 29fff0b1 a8680022 a9692830  ....)....h.".i(0
 0cc30 fef7bcf9 b8b1aa88 02f00f02 00eb4213  ..............B.
 0cc40 52015d68 80589968 da682060 6560a160  R.]h.X.h.h `e`.`
 0cc50 e2601869 5d699969 da692061 01206561  .`.i]i.i.i a. ea
 0cc60 a161e261 38bd0020 38bd00bf 30b589b0  .a.a8.. 8...0...
 0cc70 0d461446 6946fff7 cfff28b1 bdf81020  .F.FiF....(.... 
 0cc80 bdf80e30 2a802380 09b030bd 30b589b0  ...0*.#...0.0...
 0cc90 0d461446 6946fff7 bfff28b1 bdf81820  .F.FiF....(.... 
 0cca0 bdf81630 2a802380 09b030bd 0b7813f0  ...0*.#...0..x..
 0ccb0 700f01d1 00207047 f0b540f6 022389b0  p.... pG..@..#..
 0ccc0 0d460446 fff79afc 38b10122 10232046  .F.F....8..".# F
 0ccd0 a2702370 fff744ff 10b90020 09b0f0bd  .p#p..D.... ....
 0cce0 22692378 22626bb1 636933b1 a3780022  "i#x"bk.ci3..x."
 0ccf0 23f02003 c4e90422 a3702046 fff7bcfe  #. ....".p F....
 0cd00 0028ead0 a0680122 a1692830 fef74ef9  .(...h.".i(0..N.
 0cd10 0028e2d0 b4f804c0 10220cf0 0f0c4fea  .(......."....O.
 0cd20 4c1300eb 4c1c8cf8 0b20c058 a768236a  L...L.... .X.h#j
 0cd30 97f806e0 9e1edcf8 0410dcf8 0820dcf8  ............. ..
 0cd40 0c3006fa 0ef6ee46 aee80f00 dcf81000  .0.....F........
 0cd50 dcf81410 dcf81820 dcf81c30 aee80f00  ....... ...0....
 0cd60 7b6907f1 28000122 f1184ff0 2033cdf8  {i..(.."..O. 3..
 0cd70 0130cdf8 0530adf8 0930fef7 17f98446  .0...0...0.....F
 0cd80 0028aad0 2e27ee46 8df80070 7646bee8  .(...'.F...pvF..
 0cd90 0f00ccf8 0000ccf8 0410ccf8 0820ccf8  ............. ..
 0cda0 0c308df8 0170bee8 0f00ccf8 1000ccf8  .0...p..........
 0cdb0 1410ccf8 1820ccf8 1c302b6a 1a0cadf8  ..... ...0+j....
 0cdc0 1a30adf8 14200fce ccf82000 ccf82410  .0... .... ...$.
 0cdd0 ccf82820 ccf82c30 0fceccf8 3000ccf8  ..( ..,0....0...
 0cde0 3410ccf8 3820ccf8 3c30a468 04f12800  4...8 ..<0.h..(.
 0cdf0 fef7b0f8 00283ff4 70af04f5 0e70fef7  .....(?.p....p..
 0ce00 a9f80028 3ff469af 20680368 1b6a09b0  ...(?.i. h.h.j..
 0ce10 bde8f040 184700bf 2de9f041 002694b0  ...@.G..-..A.&..
 0ce20 98460378 0192adf8 14600b96 002b41d1  .F.x.....`...+A.
 0ce30 0b780d46 13f0700f 3cd01378 04461646  .x.F..p.<..x.F.F
 0ce40 2f2b3bd0 002728e0 019e3678 002e50d0  /+;..'(...6x..P.
 0ce50 fff7d4fb 034602aa 29462046 2bb9b8f1  .....F..)F F+...
 0ce60 000f27d0 fff722ff 20b3a646 0df12c0c  ..'...". ..F..,.
 0ce70 bee80f00 ace80f00 bee80f00 ace80f00  ................
 0ce80 def80050 20462378 ccf80050 0bb1fff7  ...P F#x...P....
 0ce90 f3fd019e 0bad2770 a7703146 01ab02aa  ......'p.p1F....
 0cea0 2046fff7 f7fc0646 02aa2946 00232046   F.....F..)F.# F
 0ceb0 002ec9d1 002014b0 bde8f081 01360196  ..... .......6..
 0cec0 33782f2b fad0ad68 24220021 0ba80cf0  3x/+...h$".!....
 0ced0 c5fd0d95 eb79102b 03d0202b 0fd00c2b  .....y.+.. +...+
 0cee0 e8d12023 8df82c30 01230bad 8df82e30  .. #..,0.#.....0
 0cef0 a8e702aa fff7dafe 14b0bde8 f0814023  ..............@#
 0cf00 f0e700bf 2de9f041 002594b0 98460378  ....-..A.%...F.x
 0cf10 01920295 adf83850 002b37d1 0b780e46  ......8P.+7..x.F
 0cf20 13f0700f 32d01378 04461546 2f2b31d0  ..p.2..x.F.F/+1.
 0cf30 00271ee0 019d2d78 002d40d0 fff75efb  .'....-x.-@...^.
 0cf40 a6460df1 080c08b3 66462578 bee80f00  .F......fF%x....
 0cf50 ace80f00 bee80f00 ace80f00 def80030  ...............0
 0cf60 2046ccf8 00300db1 fff786fd 019d2770   F...0........'p
 0cf70 a7702946 01ab0baa 2046fff7 8bfc0546  .p)F.... F.....F
 0cf80 0baa3146 00232046 002dd3d1 002014b0  ..1F.# F.-... ..
 0cf90 bde8f081 01350195 29782f29 fad0a9b9  .....5..)x/)....
 0cfa0 b5682422 20460cf0 59fda560 eb79102b  .h$" F..Y..`.y.+
 0cfb0 03d0202b 22d00c2b e8d12022 1fe04346  .. +"..+.. "..CF
 0cfc0 0baafff7 1bfb14b0 bde8f081 b6682422  .............h$"
 0cfd0 002102a8 0cf042fd 0496f379 102b03d0  .!....B....y.+..
 0cfe0 202b03d0 0c2bd1d1 202300e0 40238df8   +...+.. #..@#..
 0cff0 08300123 02ae8df8 0a3099e7 40220123  .0.#.....0..@".#
 0d000 22701846 a370c2e7 19b101f5 8961fff7  "p.F.p.......a..
 0d010 79bf0846 704700bf cb6870b5 0d460446  y..FpG...hp..F.F
 0d020 93b90678 0eb11846 70bd8d68 24223146  ...x...Fp..h$"1F
 0d030 0cf014fd a560eb79 102b18d0 202b10d0  .....`.y.+.. +..
 0d040 0c2b14d0 304670bd 24220021 0cf006fd  .+..0Fp.$".!....
 0d050 01201023 a0702370 d5e90223 a2602362  . .#.p#p...#.`#b
 0d060 70bd4022 01232270 1846a370 70bd2022  p.@".#"p.F.pp. "
 0d070 f8e700bf 70b50578 0db10020 70bd0e46  ....p..x... p..F
 0d080 04462422 29460cf0 e9fca660 f379102b  .F$")F.....`.y.+
 0d090 0bd0202b 03d00c2b 07d02846 70bd4022  .. +...+..(Fp.@"
 0d0a0 01232270 1846a370 70bd2022 f8e700bf  .#"p.F.pp. "....
 0d0b0 2de9f04f 2ded028b 837883b0 0546df07  -..O-....x...F..
 0d0c0 40f18c80 88460178 92460e07 00f19180  @....F.x.F......
 0d0d0 8c0608d5 83685a89 4369c3eb 42139bb2  .....hZ.Ci..B...
 0d0e0 9a4528bf 9a46baf1 000f00f0 af806a69  .E(..F........ji
 0d0f0 05f11003 88065646 4ff00009 08ee103a  ......VFO......:
 0d100 af68c2f3 080b3dd5 396a01eb 5221bbf1  .h....=.9j..R!..
 0d110 000f51d1 b6f5007f 4ed37a6b 91424bd0  ..Q.....N.zk.BK.
 0d120 b6f5806f c0f08280 2878730a 800605d4  ...o....(xs.....
 0d130 3879a0eb 09008342 28bf0346 91424fea  8y.....B(..F.BO.
 0d140 43240cd8 c8188242 09d207f1 2800cde9  C$.....B....(...
 0d150 0013fdf7 fffedde9 00130028 3ed0f86a  ...........(>..j
 0d160 02685769 4246b847 002837d0 6a69361b  .hWiBF.G.(7.ji6.
 0d170 a0442244 6a6169d0 2978c2f3 080baf68  .D"Djai.)x.....h
 0d180 8806c1d4 97f80590 09ea5229 bbf1000f  ..........R)....
 0d190 36d1b9f1 000f33d1 002a33d1 4a064cbf  6.....3..*3.J.L.
 0d1a0 3a6a2a6a 2a61023a b8797969 82404944  :j*j*a.:.yyi.@ID
 0d1b0 1144bbf1 000fadd0 cbf50074 002207f1  .D.........t."..
 0d1c0 2800b442 28bf3446 fdf7f0fe 30b100eb  (..B(.4F....0...
 0d1d0 0b012246 40460ef0 83fbc7e7 6b784ff0  .."F@F......kxO.
 0d1e0 ff3043f0 02036b70 03b0bdec 028bbde8  .0C...kp........
 0d1f0 f08fc369 42699b1a 9a4528bf 9a4672e7  ...iBi...E(..Fr.
 0d200 2a69d0e7 0b0705d5 aa785406 02d52a69  *i.......xT...*i
 0d210 0132c7e7 18ee102a 38462969 fef72afe  .2.....*8F)i..*.
 0d220 0028dbdb 0cd0af68 2a69bce7 f86a4246  .(.....h*i...jBF
 0d230 03681b69 98470028 d0d04ff4 007495e7  .h.i.G.(..O..t..
 0d240 2b7813f0 700fc9d0 aaeb060a 504603b0  +x..p.......PF..
 0d250 bdec028b bde8f08f 70b582b0 01220446  ........p....".F
 0d260 0df10701 d0e90456 fff722ff 01280cbf  .......V.."..(..
 0d270 9df80700 4ff0ff30 c4e90456 02b070bd  ....O..0...V..p.
 0d280 436913f4 f07f30b5 044683b0 c3f34315  Ci....0..F....C.
 0d290 09d00129 07d12033 4361a068 383000eb  ...).. 3Ca.h80..
 0d2a0 451003b0 30bd0122 0df10701 2046fff7  E...0..".... F..
 0d2b0 fffe40b2 012803d1 63691f33 6361ece7  ..@..(..ci.3ca..
 0d2c0 0020eee7 2de9f041 03789ab0 002613f0  . ..-..A.x...&..
 0d2d0 180f0896 119606d0 17468368 8a680446  .........F.h.h.F
 0d2e0 0d469a42 03d00020 1ab0bde8 f081fff7  .F.B... ........
 0d2f0 c3fba646 0df1440c bee80f00 ace80f00  ...F..D.........
 0d300 bee80f00 ace80f00 def80030 3246a169  ...........02F.i
 0d310 ccf80030 a36803f1 2800fdf7 47fe0028  ...0.h..(...G..(
 0d320 e1d0a288 ec4694f8 008002f0 0f0200eb  .....F..........
 0d330 421e5201 def80410 8058def8 0c30def8  B.R......X...0..
 0d340 0820ace8 0f00def8 1410def8 1820def8  . ........... ..
 0d350 1c30def8 1000ace8 0f0018f0 08033a46  .0............:F
 0d360 294640f0 9b8008a8 fff756fd 0028bad0  )F@.......V..(..
 0d370 109ebdf8 24300025 0e990122 a3809df8  ....$0.%..."....
 0d380 2330a068 e3700b9b 2830a161 e3608df8  #0.h.p..(0.a.`..
 0d390 20508df8 2250fdf7 09fe0028 a3d0a388   P.."P.....(....
 0d3a0 03f00f03 00eb4310 ddf80d30 c0f80d30  ......C....0...0
 0d3b0 ddf81130 c0f81130 ddf81530 c0f81530  ...0...0...0...0
 0d3c0 ddf81930 c0f81930 bdf81d30 a0f81d30  ...0...0...0...0
 0d3d0 9df81f30 c3779df8 0b30c372 002e3bd0  ...0.w...0.r..;.
 0d3e0 a068b31e 2a468179 28308b40 50f8141c  .h..*F.y(0.@P...
 0d3f0 1944fdf7 dbfd0546 00283ff4 74af006a  .D.....F.(?.t..j
 0d400 6f46696a aa6aeb6a 0fc7286b 696baa6b  oFij.j.j..(kik.k
 0d410 eb6b0fc7 3146a068 fef74efd 00283ff4  .k..1F.h..N..(?.
 0d420 62afa068 236a8279 2830023b 50f8141c  b..h#j.y(0.;P...
 0d430 93400122 1944fdf7 b9fd0646 00283ff4  .@.".D.....F.(?.
 0d440 52af6d46 0fcd3062 7162b262 f3620fcd  R.mF..0bqb.b.b..
 0d450 30637163 b263f363 00210222 082311a8  0cqc.c.c.!.".#..
 0d460 19918df8 46208df8 4430fff7 7dfa0028  ....F ..D0..}..(
 0d470 3ff439af a46804f1 2800fdf7 6bfd0028  ?.9..h..(...k..(
 0d480 3ff431af 04f50e70 fdf764fd 00283ff4  ?.1....p..d..(?.
 0d490 2aaf2068 03681b6a 984725e7 40f60123  *. h.h.j.G%.@..#
 0d4a0 6046fff7 2ffd0028 7ff463af 1be700bf  `F../..(..c.....
 0d4b0 0378da06 01d40020 70474369 30b50446  .x..... pGCi0..F
 0d4c0 83b033b1 83780022 23f02003 c0e90422  ..3..x."#. ...."
 0d4d0 83700023 0fe06361 a3686a01 38339a5c  .p.#..ca.hj.83.\
 0d4e0 03eb4513 eab1e52a 04d02e2a 02d0db7a  ..E....*...*...z
 0d4f0 1b0722d5 636913f4 f07fc3f3 431503f1  ..".ci......C...
 0d500 2003e8d1 01220df1 07012046 fff7d0fd   ....".... F....
 0d510 40b20128 03d16369 1f336361 dce76378  @..(..ci.3ca..cx
 0d520 5bb9a378 08222046 43f00203 2270a370  [..x." FC..."p.p
 0d530 03b0bde8 3040fff7 17ba0020 03b030bd  ....0@..... ..0.
 0d540 2de9f041 03780446 0769002b 39d00d46  -..A.x.F.i.+9..F
 0d550 4169a942 42d0002d 37d01807 2ad5e269  Ai.BB..-7...*..i
 0d560 aa422ed3 d4f808c0 6e1ea278 9cf80600  .B......n..x....
 0d570 12f0400f 00f10900 c0b226fa 00f630d1  ..@.......&...0.
 0d580 4a1ec240 09b19642 2fd25b06 4cbfdcf8  J..@...B/.[.L...
 0d590 2030236a 236104f1 100806e0 2169013e   0#j#a......!i.>
 0d5a0 a068fef7 67fc0028 0bdd4246 002ef5d1  .h..g..(..BF....
 0d5b0 a2780ce0 9a06d5d5 a3685b89 b5eb431f  .x.......h[...C.
 0d5c0 f6d90020 2761bde8 f0818278 056122f0  ... 'a.....x.a".
 0d5d0 20020120 6561a270 bde8f081 0120bde8   .. ea.p..... ..
 0d5e0 f081236a 33442361 f1e7b61a d3e700bf  ..#j3D#a........
 0d5f0 2de9f041 0e461546 00212422 04469846  -..A.F.F.!$".F.F
 0d600 9df81870 0cf02afa b068336a 00f13802  ...p..*..h3j..8.
 0d610 a58005f0 0f0502eb 4512c4e9 0203d17a  ........E......z
 0d620 0b0711d4 01f01701 2170d37a 13f0180f  ........!p.z....
 0d630 02d141f0 08012170 08f00303 e770012b  ..A...!p.....p.+
 0d640 38d0022b 06d0f3b1 00231846 2370a370  8..+.....#.F#p.p
 0d650 bde8f081 03232178 cd06f5d4 ce07f3d4  .....#!x........
 0d660 08f00801 18f4806f 43ea0103 a370416b  .......oC....pAk
 0d670 958aa161 518b41ea 054112d0 19bb63f0  ...aQ.A..A....c.
 0d680 7f03a370 10e018f4 806fddd1 08f00803  ...p.....o......
 0d690 43f00103 a370416b 938aa161 518b41ea  C....pAk...aQ.A.
 0d6a0 03412162 d369e361 18f4804f 04d10120  .A!b.i.a...O... 
 0d6b0 bde8f081 0223cee7 e1692046 fff740ff  .....#...i F..@.
 0d6c0 0028f4d1 c0e7fef7 f7fb0028 bcd0a378  .(.........(...x
 0d6d0 d5e700bf 0378002b 45d12de9 f0470b78  .....x.+E.-..G.x
 0d6e0 84b00c46 13f0700f 30d04b69 13f01f05  ...F..p.0.Ki....
 0d6f0 2cd10646 9046a946 01220df1 0f012046  ,..F.F.F.".... F
 0d700 c3f3431a 5f09fff7 d3fc40b2 4fea4a12  ..C._.....@.O.J.
 0d710 01281bd1 6369a168 1f3301f1 380c6361  .(..ci.h.3..8.ca
 0d720 1cf80220 0ceb4a1c 82b12e2a 12d0a2f1  ... ..J....*....
 0d730 e500b0fa 80f04009 60b99cf8 0b1011f0  ......@.`.......
 0d740 080e12d0 0f2907d0 0546d5e7 002004b0  .....)...F... ..
 0d750 bde8f087 0025cfe7 5106cdd5 02f01f05  .....%..Q.......
 0d760 9cf80d90 c8e70020 704785b1 0cf10a01  ....... pG......
 0d770 01e01cf8 012f4fea ce136145 43ea5e03  ...../O...aEC.^.
 0d780 52fa83f3 5ffa83fe f3d1ce45 ded14346  R..._......E..CF
 0d790 bab22146 30460095 fff72aff d7e700bf  ..!F0F....*.....
 0d7a0 03780bb1 fff768b9 01207047 2de9f047  .x....h.. pG-..G
 0d7b0 0e460178 82b00907 9df82870 9df82c90  .F.x......(p..,.
 0d7c0 9df830a0 9df83480 18d5a2f2 bc7294b2  ..0...4......r..
 0d7d0 7f2c13d8 5a1e0193 0b2a0fd8 7a1e1e2a  .,..Z....*..z..*
 0d7e0 0cd8baf1 3b0f98bf b9f1170f 06d8b8f1  ....;...........
 0d7f0 3b0f03d8 0546fff7 3ff918b9 002002b0  ;....F..?.... ..
 0d800 bde8f087 a8680122 a9692830 fdf7cefb  .....h.".i(0....
 0d810 0028f3d0 019b4fea 5802a988 47ea4313  .(....O.X...G.C.
 0d820 f70701f0 0f0142ea 4a1243ea 442300eb  ......B.J.C.D#..
 0d830 41109bb2 42eac922 48bf4382 b40792b2  A...B.."H.C.....
 0d840 08d518f0 01080382 c28118bf 4ff06408  ............O.d.
 0d850 80f80d80 710701d5 0383c282 ac6804f1  ....q........h..
 0d860 2800fdf7 77fb0028 c8d004f5 0e70fdf7  (...w..(.....p..
 0d870 71fb0028 c2d02068 03681b6a 02b0bde8  q..(.. h.h.j....
 0d880 f0471847 83789b07 27d5036a 10b50446  .G.G.x..'..j...F
 0d890 82b0abb1 016911bb 01930162 1946a068  .....i.....b.F.h
 0d8a0 fef70afb b0b1a378 616963f0 7f032278  .......xaic..."x
 0d8b0 e161a370 22b12046 fff7def8 02b010bd  .a.p". F........
 0d8c0 012002b0 10bd6ff0 70422169 a068fef7  . ....o.pB!i.h..
 0d8d0 e3fa68b9 002002b0 10bd0020 70470023  ..h.. ..... pG.#
 0d8e0 01aa8068 0193fef7 c5fa0028 f2dbead1  ...h.......(....
 0d8f0 019b002b d7d0d1e7 2de9f047 83780546  ...+....-..G.x.F
 0d900 9c0777d5 88461907 914600f1 b5806b69  ..w..F...F....ki
 0d910 13eb0902 6ed2b9f1 000f40d0 4f464ff0  ....n.....@.OFO.
 0d920 000aa868 c3f30806 29694479 14ea5324  ...h....)iDy..S$
 0d930 3fd1002e 3dd10029 6ed0aa78 520676d5  ?...=..)n..xR.v.
 0d940 ea699a42 73d90131 29610239 82794369  .i.Bs..1)a.9.yCi
 0d950 91401944 b7f5007f 53d3b7f5 806f70d3  .@.D....S....op.
 0d960 03797a0a 1b1b9342 28bf1346 426b8a42  .yz....B(..FBk.B
 0d970 4fea4324 07d35e18 b24204d2 4ff0ff32  O.C$..^..B..O..2
 0d980 80f828a0 4263c06a 42460668 b66ab047  ..(.Bc.jBF.h.j.G
 0d990 80b36b69 3f1ba044 23446b61 c1d1ea69  ..ki?..D#Dka...i
 0d9a0 9a4276d2 aa784846 eb6162f0 7f03ab70  .Bv..xHF.ab....p
 0d9b0 25e08279 02394369 91401944 2144002e  %..y.9Ci.@.D!D..
 0d9c0 c8d0c6f5 00740122 bc4228bf 3c462830  .....t.".B(.<F(0
 0d9d0 fdf7ecfa 70b13044 26442246 41460df0  ....p.0D&D"FAF..
 0d9e0 7fffb6f5 007fa868 d3d12830 fdf7b2fa  .......h..(0....
 0d9f0 0028ced1 6b780020 43f00103 6b70bde8  .(..kx. C...kp..
 0da00 f087c6f5 00746a69 eb69bc42 28bf3c46  .....tji.i.B(.<F
 0da10 9a4205d3 0522dae7 296a21b3 296194e7  .B..."..)j!.)a..
 0da20 ab7813f0 200f14bf 05220122 cfe705f1  .x.. ...."."....
 0da30 1002fef7 1ffa0028 dcdb24d0 a8682969  .......(..$..h)i
 0da40 83e7436b 8b4204d1 4ff0ff33 80f828a0  ..Ck.B..O..3..(.
 0da50 4363c06a 42460368 5b6a9847 0028c9d0  Cc.jBF.h[j.G.(..
 0da60 4ff40074 95e72846 fff760f8 0028c1d0  O..t..(F..`..(..
 0da70 2969a868 296268e7 c169fff7 61fd0028  )i.h)bh..i..a..(
 0da80 7ff445af b6e72846 fff750f8 0028d5d1  ..E...(F..P..(..
 0da90 b0e7054b 1b682bb1 ab784846 63f07f03  ...K.h+..xHFc...
 0daa0 ab70ace7 4846aae7 949d0020 08b50346  .p..HF..... ...F
 0dab0 53f8040b 93e80600 fcf78cfe 08bd00bf  S...............
 0dac0 84b00df1 100c0ce9 0e000246 23b11846  ...........F#..F
 0dad0 136004b0 f2f756bc 024b1846 136004b0  .`....V..K.F.`..
 0dae0 f2f750bc 50980020 0268d37c 13b3d807  ..P.P.. .h.|....
 0daf0 04d5906a 4ff0e021 c1f80001 990704d5  ...jO..!........
 0db00 d06a4ff0 e021c1f8 04015807 04d5106b  .jO..!....X....k
 0db10 4ff0e021 c1f80801 190704d5 506b4ff0  O..!........PkO.
 0db20 e021c1f8 0c01db06 04d5926b 4ff0e023  .!.........kO..#
 0db30 c3f81021 704700bf 0068f2f7 41bd00bf  ...!pG...h..A...
 0db40 0268ff23 12685366 d36d13f4 f81ffbd0  .h.#.hSf.m......
 0db50 506fc0b2 704700bf 30b50c46 83b00546  Po..pG..0..F...F
 0db60 ff212046 01920bf0 79ff2868 019b2246  .! F....y.(h.."F
 0db70 2146f2f7 21fd0020 03b030bd 03681a68  !F..!.. ..0..h.h
 0db80 5166d36d 13f4f81f fbd0536f 704700bf  Qf.m......SopG..
 0db90 531eb3f5 007f30b5 1446adf5 017d0546  S.....0..F...}.F
 0dba0 11d36ab1 0368481e 19688218 10f8013f  ..j..hH..h.....?
 0dbb0 4b66cb6d 13f4f81f fbd09042 4b6ff5d1  Kf.m.......BKo..
 0dbc0 0df5017d 30bd6846 0df08afe 6a462346  ...}0.hF....jF#F
 0dbd0 28681146 f2f7f0fc 0df5017d 30bd00bf  (h.F.......}0...
 0dbe0 012105f0 d7bf00bf 05f098bf 00207047  .!........... pG
 0dbf0 00207047 00207047 704700bf 084b0021  . pG. pGpG...K.!
 0dc00 084a0948 10b49963 1c6b1460 12685df8  .J.H...c.k.`.h].
 0dc10 044b1a63 9a6c22f0 81029a64 01707047  .K.c.l"....d.ppG
 0dc20 00002c40 909d0020 f6b30020 034b586a  ..,@... ... .KXj
 0dc30 80f08070 c0f30060 704700bf 00002c40  ...p...`pG....,@
 0dc40 014b1878 704700bf f6b30020 2b4a2c4b  .K.xpG..... +J,K
 0dc50 526ad3f8 00312b49 c2f3c222 03f03f03  Rj...1+I..."..?.
 0dc60 013270b5 284c4ff4 7a75a4fb 034305fb  .2p.(LO.zu...C..
 0dc70 00f09b08 b1fbf3fe befbf2fe b0eb1e1f  ................
 0dc80 35d20123 1e465b00 1a01befb f2f28242  5..#.F[........B
 0dc90 01d9ff2b f6d9befb f3f23602 90422ad2  ...+......6..B*.
 0dca0 4fea430c 012200e0 a4461546 03eb0c04  O.C.."...F.F....
 0dcb0 0132befb fcf18142 17d9102a f4d1f025  .2.....B...*...%
 0dcc0 4ff47a73 1149124a 03fb0cfc befbfcf3  O.zs.I.J........
 0dcd0 0b60104b d16a0b40 2b433343 43f46023  .`.K.j.@+C3CC.`#
 0dce0 d362536a 1b07fcd5 70bd2d01 e8e77246  .bSj....p.-...rF
 0dcf0 00260123 d2e79c46 0025e1e7 00c00f40  .&.#...F.%.....@
 0dd00 00800d40 00ec695e abaaaaaa 009d0020  ...@..i^....... 
 0dd10 00002c40 0f00f0ff 014b1878 704700bf  ..,@.....K.xpG..
 0dd20 485a0020 014b1868 704700bf 909d0020  HZ. .K.hpG..... 
 0dd30 10b4074c 8c460fcc ccf80000 0120ccf8  ...L.F....... ..
 0dd40 0410ccf8 0820ccf8 0c305df8 044b7047  ..... ...0]..KpG
 0dd50 289d0020 10b4074c 8c460fcc ccf80000  (.. ...L.F......
 0dd60 0120ccf8 0410ccf8 0820ccf8 0c305df8  . ....... ...0].
 0dd70 044b7047 389d0020 024b0120 1b680b60  .KpG8.. .K. .h.`
 0dd80 704700bf 489d0020 704700bf 10b50446  pG..H.. pG.....F
 0dd90 0c2107f0 f5fb2046 10bd00bf 044b1b78  .!.... F.....K.x
 0dda0 23b1044b 18780230 c0b27047 01207047  #..K.x.0..pG. pG
 0ddb0 f3b30020 f4b30020 184b1a78 12f0c002  ... ... .K.x....
 0ddc0 0fd0402a 01d00020 7047587a da79197a  ..@*... pGXz.y.z
 0ddd0 013002f0 3f0300eb 034000eb 01208002  .0..?....@... ..
 0dde0 70475a7a 9979d879 02f00302 93f808c0  pGZz.y.y........
 0ddf0 01f00301 80005200 40ea8120 00b593f8  ......R.@.. ....
 0de00 0ae040ea 9c105b79 42eade12 013003f0  ..@...[yB....0..
 0de10 0f031344 073b9840 5df804fb 389d0020  ...D.;.@]...8.. 
 0de20 2de9f041 08f04afd 174e184d 0746dff8  -..A..J..N.M.F..
 0de30 748004e0 08f042fd c01b4045 1bd8346b  t.....B...@E..4k
 0de40 2c40f7d0 124a0021 124b1170 326b1a60  ,@...J.!.K.p2k.`
 0de50 1968114a 31631b68 134209d0 0f491f24  .h.J1c.h.B...I.$
 0de60 0f4b40f2 7a220020 0c701a60 bde8f081  .K@.z". .p.`....
 0de70 0120bde8 f081064a 064b1470 326b1a60  . .....J.K.p2k.`
 0de80 1b683363 eae700bf 00002c40 02007f11  .h3c......,@....
 0de90 f5b30020 909d0020 00007f11 485a0020  ... ... ....HZ. 
 0dea0 249d0020 40420f00 2de9f843 264c0f46  $.. @B..-..C&L.F
 0deb0 2378002b 38d1254b 5a6ad205 2bd5234d  #x.+8.%KZj..+.#M
 0dec0 dff89480 ab6a43f4 8033ab62 08f0f6fc  .....jC..3.b....
 0ded0 064604e0 08f0f2fc 801b4045 2ad86b6a  .F........@E*.kj
 0dee0 13f48069 f6d007f1 3c0c1848 07f50f77  ...i....<..H...w
 0def0 436a5b05 fcd5acf1 400353f8 042f9c45  Cj[.....@.S../.E
 0df00 0262fad1 0cf1400c bc45f1d1 01231846  .b....@..E...#.F
 0df10 2370bde8 f8839a6a 22f48032 9a629a6a  #p.....j"..2.b.j
 0df20 42f40032 9a62cae7 fff77aff 0028c2d1  B..2.b....z..(..
 0df30 bde8f883 06492124 064b40f2 d9324846  .....I!$.K@..2HF
 0df40 0c701a60 bde8f883 f5b30020 00002c40  .p.`....... ..,@
 0df50 485a0020 249d0020 40420f00 2de9f041  HZ. $.. @B..-..A
 0df60 07468846 1f4c08f0 a9fc1f4e 054604e0  .F.F.L.....N.F..
 0df70 08f0a4fc 431bb342 24d8636a d907f7d4  ....C..B$.cj....
 0df80 bb02c4f8 088020d4 27f0ff03 154c174e  ...... .'....L.N
 0df90 e36008f0 93fc144f 054604e0 08f08efc  .`.....O.F......
 0dfa0 401bb842 0ed8236b 3342f7d0 226b104b  @..B..#k3B.."k.K
 0dfb0 1a601a68 22631a68 d20703d5 1b6813f4  .`.h"c.h.....h..
 0dfc0 702f0bd0 0020bde8 f081a26c fbb222f0  p/... .....l..".
 0dfd0 ff02a264 a26c1343 a364d5e7 0120bde8  ...d.l.C.d... ..
 0dfe0 f08100bf 00002c40 40420f00 01000f00  ......,@@B......
 0dff0 909d0020 154b30b5 0d4685b0 1968fff7  ... .K0..F...h..
 0e000 adff08b3 124b05f1 0f041a69 00925969  .....K.....i..Yi
 0e010 01919969 0291db69 03930023 01e05ef8  ...i...i...#..^.
 0e020 102c03f0 030c0133 4feacc0c 23f0030e  .,.....3O...#...
 0e030 0f2b22fa 0cf20ef1 100104f8 012d0deb  .+"..........-..
 0e040 010eecd1 0023eb73 05b030bd 4c9d0020  .....#.s..0.L.. 
 0e050 00002c40 10b5037a db0705d5 154b1b68  ..,@...z.....K.h
 0e060 b3b1bde8 10401847 134b1b78 3bb9134b  .....@.G.K.x;..K
 0e070 5c6a84f0 8074c4f3 00642046 10bd0f4b  \j...t...d F...K
 0e080 0f4c1b6b 1c40b4fa 84f46409 204610bd  .L.k.@....d. F..
 0e090 0c4b1c78 002cf0d0 0b4b0c48 1968fff7  .K.x.,...K.H.h..
 0e0a0 5dff0028 e9d0054b 1c6984f4 8074c4f3  ]..(...K.i...t..
 0e0b0 0024e2e7 8c9d0020 f5b30020 00002c40  .$..... ... ..,@
 0e0c0 02007f11 f2b30020 4c9d0020 00001a0d  ....... L.. ....
 0e0d0 08b5044b 04481968 fff740ff 08b1034b  ...K.H.h..@....K
 0e0e0 186908bd 4c9d0020 00001a0d 00002c40  .i..L.. ......,@
 0e0f0 08b5074b 07481968 fff730ff 30b1064b  ...K.H.h..0.0..K
 0e100 186980f4 8070c0f3 002008bd 012008bd  .i...p... ... ..
 0e110 4c9d0020 00001a0d 00002c40 2de9f047  L.. ......,@-..G
 0e120 294b8946 dff8c0a0 284ecaf8 003008f0  )K.F....(N...0..
 0e130 c5fb274d 0446dff8 b480264f 06e008f0  ..'M.F....&O....
 0e140 bdfb001b b84229d8 06f096fd 31682846  .....B).....1h(F
 0e150 fff704ff 0028f2d0 d8f81030 db05eed5  .....(.....0....
 0e160 00234ff4 0072caf8 0030d8f8 283023f4  .#O..r...0..(0#.
 0e170 8033c8f8 2830184b c8f80420 1b78cbb1  .3..(0.K... .x..
 0e180 49461648 fff7eafe 30b91549 0e24154b  IF.H....0..I.$.K
 0e190 4ff48762 0c701a60 bde8f087 104a0a21  O..b.p.`.....J.!
 0e1a0 0020104b 117040f2 2c42caf8 00001a60  . .K.p@.,B.....`
 0e1b0 bde8f087 4fea4929 08484946 fff7cefe  ....O.I).HIF....
 0e1c0 0028e9d1 e1e700bf f1e00000 4c9d0020  .(..........L.. 
 0e1d0 00001a0d 40420f00 f4b30020 20003a19  ....@B.....  .:.
 0e1e0 485a0020 249d0020 8c9d0020 00002c40  HZ. $.. ... ..,@
 0e1f0 2de9f041 254c0021 2548a36a 23f48033  -..A%L.!%H.j#..3
 0e200 a362fff7 abfe0546 48b92249 0920224b  .b.....FH."I. "K
 0e210 40f23d22 08701a60 2846bde8 f0811f4b  @.=".p.`(F.....K
 0e220 dff88080 c8f80030 08f048fb 636a0646  .......0..H.cj.F
 0e230 d80118d4 1a4f04e0 06f01efd 636ad901  .....O......cj..
 0e240 11d408f0 3bfb831b bb42f5d9 114a0a21  ....;....B...J.!
 0e250 0025114b 11704ff4 10722846 c8f80050  .%.K.pO..r(F...P
 0e260 1a60bde8 f0810022 084bc8f8 00205a6a  .`.....".K... Zj
 0e270 9207d1d5 586b9a6a d96a22f4 803241f0  ....Xk.j.j"..2A.
 0e280 8061d962 58639a62 c6e700bf 00002c40  .a.bXc.b......,@
 0e290 0000db0c 485a0020 249d0020 2ddc0000  ....HZ. $.. -...
 0e2a0 40420f00 8c9d0020 2de9f047 82468946  @B..... -..G.F.F
 0e2b0 364e08f0 03fb364d 0446dff8 0081354f  6N....6M.F....5O
 0e2c0 04e008f0 fbfa031b bb4227d8 31682846  .........B'.1h(F
 0e2d0 fff744fe 0028f4d0 d8f81030 da05f0d5  ..D..(.....0....
 0e2e0 01232d4d 2d4f5146 2b700023 2c483b60  .#-M-OQF+p.#,H;`
 0e2f0 2c4bc8f8 0090c8f8 04302b4b c8f83830  ,K.......0+K..80
 0e300 fff72cfe 0446a0b9 28490420 284b40f2  ..,..F..(I. (K@.
 0e310 9f120870 20461a60 bde8f087 23490a20  ...p F.`....#I. 
 0e320 234b4ff4 cc720024 08701a60 2046bde8  #KO..r.$.p.` F..
 0e330 f087204b dff88890 c9f80030 08f0befa  .. K.......0....
 0e340 2b780646 bbb1dff8 4c8003e0 06f094fc  +x.F....L.......
 0e350 2b7883b1 08f0b2fa 831b4345 f6d90023  +x........CE...#
 0e360 c9f80030 11492520 114b4ff4 d1720024  ...0.I% .KO..r.$
 0e370 08701a60 dae73b68 00229b07 c9f80020  .p.`..;h."..... 
 0e380 f0d53a68 0c4b1a42 d0d0ebe7 4c9d0020  ..:h.K.B....L.. 
 0e390 00001a0d 40420f00 f6b30020 909d0020  ....@B..... ... 
 0e3a0 11003a06 40000100 02007f11 485a0020  ..:.@.......HZ. 
 0e3b0 249d0020 41dc0000 00007f11 00002c40  $.. A.........,@
 0e3c0 8c9d0020 2de9f041 324d1446 ab7a13f0  ... -..A2M.F.z..
 0e3d0 400012d1 03f03f03 ea7a5b00 43ead213  @.....?..z[.C...
 0e3e0 621c0a43 134208d0 2b492724 2b4b40f2  b..C.B..+I'$+K@.
 0e3f0 e3220c70 1a60bde8 f081294b 1b780bb9  .".p.`....)K.x..
 0e400 49026402 2748fff7 a9fd40b9 22490f24  I.d.'H....@."I.$
 0e410 224b40f2 eb220c70 1a60bde8 f0812146  "K@..".p.`....!F
 0e420 2148fff7 9bfd40b9 1b491024 1b4b40f2  !H....@..I.$.K@.
 0e430 ee220c70 1a60bde8 f0810021 1b48fff7  .".p.`.....!.H..
 0e440 8dfd38b9 14491124 144b40f2 f1220c70  ..8..I.$.K@..".p
 0e450 1a60e2e7 08f032fa 154e164d 0446dff8  .`....2..N.M.F..
 0e460 5c80154f 31682846 fff778fd 18b1d8f8  \..O1h(F..x.....
 0e470 1030db05 d1d408f0 21fa001b b842f1d9  .0......!....B..
 0e480 05492824 054b4ff4 3d720020 0c701a60  .I($.KO.=r. .p.`
 0e490 c3e700bf 389d0020 485a0020 249d0020  ....8.. HZ. $.. 
 0e4a0 f4b30020 00001a20 00001a21 00001b26  ... ... ...!...&
 0e4b0 4c9d0020 00001a0d 40420f00 00002c40  L.. ....@B....,@
 0e4c0 2de9f04f 12f00304 83b018bf 01240190  -..O.........$..
 0e4d0 0093002b 08bf44f0 01045cb1 40492520  ...+..D...\.@I% 
 0e4e0 404b40f2 f5120024 08701a60 204603b0  @K@....$.p.` F..
 0e4f0 bde8f08f 3c4b1546 3c4a0e46 dff80c91  ....<K.F<J.F....
 0e500 136008f0 dbf9dff8 08810746 dff804b1  .`.........F....
 0e510 dff8f0a0 06e008f0 d1f9c01b 504544d8  ............PED.
 0e520 06f0aafb d9f80010 4046fff7 17fd0028  ........@F.....(
 0e530 f1d0dbf8 1030da05 edd5009a 2c4b2b49  .....0......,K+I
 0e540 03ea0243 00222b4f 0a6043f4 00730121  ...C."+O.`C..s.!
 0e550 dff8c480 3970c8f8 0020cbf8 0050cbf8  ....9p... ...P..
 0e560 0430254b cbf83830 244b1b78 43b33146  .0%K..80$K.xC.1F
 0e570 0198fff7 f3fc8146 0028b7d0 204b1b4a  .......F.(.. K.J
 0e580 136008f0 9bf93b78 0546dbb1 1d4e03e0  .`....;x.F...N..
 0e590 06f072fb 3b78abb1 08f090f9 401bb042  ..r.;x......@..B
 0e5a0 f6d90023 114a1360 a0e70d4b 0a220021  ...#.J.`...K.".!
 0e5b0 0e481a70 4ff4fc72 0a4b0160 1a6095e7  .H.pO..r.K.`.`..
 0e5c0 7602d4e7 0023094a 1360d8f8 00309b07  v....#.J.`...0..
 0e5d0 8cd5d8f8 00200c4b 1a4208bf 4c4685e7  ..... .K.B..LF..
 0e5e0 485a0020 249d0020 f1e00000 8c9d0020  HZ. $.. ....... 
 0e5f0 0000ff1f f6b30020 02007f11 f4b30020  ....... ....... 
 0e600 41dc0000 40420f00 00007f11 4c9d0020  A...@B......L.. 
 0e610 00001a0d 00002c40 909d0020 f8b50646  ......,@... ...F
 0e620 007a0c46 1546c007 1f4613d4 83b10f44  .z.F.F...F.....D
 0e630 01e0bc42 0cd03368 2a462146 30461b69  ...B..3h*F!F0F.i
 0e640 013405f5 00759847 0028f2d1 0020f8bd  .4...u.G.(... ..
 0e650 0120f8bd 900712d0 002bf9d0 0f4401e0  . .......+...D..
 0e660 bc42f5d0 33682a46 21463046 1b690134  .B..3h*F!F0F.i.4
 0e670 05f50075 98470028 f2d10020 e7e70648  ...u.G.(... ...H
 0e680 fff71eff 0028e3d1 04490c24 044b40f2  .....(...I.$.K@.
 0e690 82320c70 1a60f8bd 37003a12 485a0020  .2.p.`..7.:.HZ. 
 0e6a0 249d0020 f8b50646 007a0c46 1546c007  $.. ...F.z.F.F..
 0e6b0 1f4613d4 83b10f44 01e0bc42 0cd03368  .F.....D...B..3h
 0e6c0 2a462146 30465b6a 013405f5 00759847  *F!F0F[j.4...u.G
 0e6d0 0028f2d1 0020f8bd 0120f8bd 900712d0  .(... ... ......
 0e6e0 002bf9d0 0f4401e0 bc42f5d0 33682a46  .+...D...B..3h*F
 0e6f0 21463046 5b6a0134 05f50075 98470028  !F0F[j.4...u.G.(
 0e700 f2d10020 e7e70648 fff7dafe 0028e3d1  ... ...H.....(..
 0e710 04490e24 044b40f2 1e420c70 1a60f8bd  .I.$.K@..B.p.`..
 0e720 27003a19 485a0020 249d0020 2de9f04f  '.:.HZ. $.. -..O
 0e730 a84b0022 dff8fc82 91b0a74d a74fa84e  .K.".......M.O.N
 0e740 2a704272 88f80020 3a703270 d3f80021  *pBr... :p2p...!
 0e750 01720521 42f08002 dff8a092 c3f80021  .r.!B..........!
 0e760 d3f80021 22f03f02 c3f80021 d3f80021  ...!".?....!...!
 0e770 42f01802 c3f80021 d3f80021 22f08002  B......!...!"...
 0e780 c3f80021 03f51033 964ad3f8 800040f0  ...!...3.J....@.
 0e790 0c00c3f8 8000586a 20f46050 5862d869  ......Xj .`PXb.i
 0e7a0 40f48030 d861586a 40f40060 5862c2f8  @..0.aXj@..`Xb..
 0e7b0 cc11c2f8 d011c2f8 bc11c2f8 c011c2f8  ................
 0e7c0 c411c2f8 c811d9f8 4820874b 42f00042  ........H .KB..B
 0e7d0 c9f84820 d9f82c20 1343c9f8 2c30d9f8  ..H .., .C..,0..
 0e7e0 2c4014f0 8074fad1 4ff4c870 fff72efa  ,@...t..O..p....
 0e7f0 7c4b47f2 b80241f2 b801c3f8 cc41c3f8  |KG...A......A..
 0e800 d041c3f8 bc41c3f8 c041c3f8 c441c3f8  .A...A...A...A..
 0e810 c841c3f8 bc23c3f8 c023c3f8 ac23c3f8  .A...#...#...#..
 0e820 b013c3f8 b423c3f8 b823704b 704ac9f8  .....#...#pKpJ..
 0e830 3430704b c3f8f821 6f4b6022 83f86e20  40pK...!oK`"..n 
 0e840 4ff0e023 4ff48042 c3f80c21 d9f82c30  O..#O..B...!..,0
 0e850 43f00063 c9f82c30 684bd96a 11f00061  C..c..,0hK.j...a
 0e860 fbd10846 fff77afb 044648b9 0121644b  ...F..z..FH..!dK
 0e870 40f28e22 29701a60 204611b0 bde8f08f  @..")p.` F......
 0e880 0324dff8 b4914ff4 d5714846 fff766fb  .$....O..qHF..f.
 0e890 002844d1 013cf6d1 32785a4b 002a14bf  .(D..<..2xZK.*..
 0e8a0 9a464ff4 401a08f0 09f8574e 0446dff8  .FO.@.....WN.F..
 0e8b0 8cb1dff8 8c910021 3046fff7 4ffb50b9  .......!0F..O.P.
 0e8c0 00241721 4e4b40f2 9f222046 29701a60  .$.!NK@.." F)p.`
 0e8d0 11b0bde8 f08f5146 5846fff7 3ffb0028  ......QFXF..?..(
 0e8e0 eed007f0 ebff001b 444b4845 e8d81a69  ........DKHE...i
 0e8f0 002ae0da 1969454a 11601b69 5a0001d5  .*...iEJ.`.iZ...
 0e900 01233b70 00214248 fff728fb 0446c0b9  .#;p.!BH..(..F..
 0e910 02213b4b 4ff42a72 29701a60 ace7374b  .!;KO.*r)p.`..7K
 0e920 1b69b3f5 d57f07d0 0621354b 4ff42572  .i.......!5KO.%r
 0e930 00242970 1a609fe7 0123dff8 c8a03370  .$)p.`...#....3p
 0e940 b1e70021 3348fff7 09fb0446 30b90321  ...!3H.....F0..!
 0e950 2b4b40f2 ab222970 1a608de7 274e2e4b  +K@..")p.`..'N.K
 0e960 32692e4f 13402e49 2e483b60 fff742fb  2i.O.@.I.H;`..B.
 0e970 044630b9 0721224b 4ff42c72 29701a60  .F0..!"KO.,r)p.`
 0e980 7ae72949 2948fff7 35fb0446 30b90821  z.)I)H..5..F0..!
 0e990 1b4b40f2 b3222970 1a606de7 39682448  .K@..")p.`m.9h$H
 0e9a0 fff7dcfa 044630b9 0521154b 40f2b622  .....F0..!.K@.."
 0e9b0 29701a60 60e73968 1348fff7 cffa0028  )p.``.9h.H.....(
 0e9c0 40d11421 0e4b40f2 ba220024 29701a60  @..!.K@..".$)p.`
 0e9d0 52e700bf 00800d40 485a0020 f4b30020  R......@HZ. ... 
 0e9e0 f3b30020 00801f40 00800001 0b007f11  ... ...@........
 0e9f0 fddb0000 005c0020 00e400e0 00002c40  .....\. ......,@
 0ea00 249d0020 00003040 00001a37 489d0020  $.. ..0@...7H.. 
 0ea10 00000902 00001a03 0000ffff 4c9d0020  ............L.. 
 0ea20 389d0020 00000909 289d0020 0000090a  8.. ....(.. ....
 0ea30 00001b07 f2b30020 00001a08 00000229  ....... .......)
 0ea40 40420f00 02212e48 fff788fa 04460028  @B...!.H.....F.(
 0ea50 b7d0b36a 4ff01012 6ff07f40 694623f0  ...jO...o..@iF#.
 0ea60 0603b362 b36a43f0 0203b362 7264fff7  ...b.jC....brd..
 0ea70 1bfc18b1 9df80d30 9b0732d4 46f2a810  .......0..2.F...
 0ea80 204d0523 c5f8cc31 c5f8d031 c5f8bc31   M.#...1...1...1
 0ea90 c5f8c031 c5f8c431 c5f8c831 fff7d6f8  ...1...1...1....
 0eaa0 002347f2 b802c5f8 cc31c5f8 d031c5f8  .#G......1...1..
 0eab0 bc31c5f8 c031c5f8 c431c5f8 c83141f2  .1...1...1...1A.
 0eac0 b803c5f8 bc23c5f8 c023c5f8 ac23c5f8  .....#...#...#..
 0ead0 b0330123 c5f8b423 c5f8b823 88f80030  .3.#...#...#...0
 0eae0 cae66946 0848fff7 dffb0028 c6d09df8  ..iF.H.....(....
 0eaf0 103003f0 0f03012b c0d14cf2 5030bfe7  .0.....+..L.P0..
 0eb00 00001a06 00801f40 f1ffff80 374b5a6a  .......@....7KZj
 0eb10 92052de9 f0410f46 0dd49a6a 22f48032  ..-..A.F...j"..2
 0eb20 9a6272b6 9a6a42f4 00329a62 9a6a42f4  .br..jB..2.b.jB.
 0eb30 80329a62 62b607f0 c1fe2c4e dff8c480  .2.bb.....,N....
 0eb40 054604e0 07f0bafe 431b4345 37d8746a  .F......C.CE7.tj
 0eb50 14f40064 f6d007f1 3c0c2448 07f50f77  ...d....<.$H...w
 0eb60 436a1b05 fcd5acf1 4003026a 43f8042f  Cj......@..jC../
 0eb70 9c45fad1 0cf1400c 6745f1d1 07f09efe  .E....@.gE......
 0eb80 1a4f1b4d 0646dff8 7c8004e0 07f096fe  .O.M.F..|.......
 0eb90 831b4345 1dd83c6b 2c40f7d0 3b6b154a  ..CE..<k,@..;k.J
 0eba0 13601368 3b631368 13f00203 1bd01268  .`.h;c.h.......h
 0ebb0 114b1a42 0cbf0120 0020bde8 f0810f49  .K.B... . .....I
 0ebc0 1a250f4b 40f23732 20460d70 1a60bde8  .%.K@.72 F.p.`..
 0ebd0 f0810a49 1d250a4b 40f24232 20460d70  ...I.%.K@.B2 F.p
 0ebe0 1a60bde8 f0811846 bde8f081 00002c40  .`.....F......,@
 0ebf0 02007f11 909d0020 00007f11 485a0020  ....... ....HZ. 
 0ec00 249d0020 40420f00 2de9f047 294b8946  $.. @B..-..G)K.F
 0ec10 dff8c0a0 284ecaf8 003007f0 4ffe274d  ....(N...0..O.'M
 0ec20 0446dff8 b480264f 06e007f0 47fe001b  .F....&O....G...
 0ec30 b84229d8 06f020f8 31682846 fff78ef9  .B)... .1h(F....
 0ec40 0028f2d0 d8f81030 db05eed5 00234ff4  .(.....0.....#O.
 0ec50 0072caf8 0030d8f8 283043f4 8033c8f8  .r...0..(0C..3..
 0ec60 2830184b c8f80420 1b78cbb1 49461648  (0.K... .x..IF.H
 0ec70 fff774f9 30b91549 0c24154b 40f29e32  ..t.0..I.$.K@..2
 0ec80 0c701a60 bde8f087 104a0a21 0020104b  .p.`.....J.!. .K
 0ec90 117040f2 9232caf8 00001a60 bde8f087  .p@..2.....`....
 0eca0 4fea4929 08484946 fff758f9 0028e9d1  O.I).HIF..X..(..
 0ecb0 e1e700bf f1e00000 4c9d0020 00001a0d  ........L.. ....
 0ecc0 40420f00 f4b30020 30003a12 485a0020  @B..... 0.:.HZ. 
 0ecd0 249d0020 8c9d0020 00002c40 2de9f041  $.. ... ..,@-..A
 0ece0 00221d4c 0d464272 1146a36a 1b4823f4  .".L.FBr.F.j.H#.
 0ecf0 8033a362 fff732f9 40b91949 0924194b  .3.b..2.@..I.$.K
 0ed00 4ff46d72 0c701a60 bde8f081 002dfbd0  O.mr.p.`.....-..
 0ed10 154b164e 336007f0 d1fd636a 0746da01  .K.N3`....cj.F..
 0ed20 16d4dff8 4c8004e0 05f0a6ff 636adb01  ....L.......cj..
 0ed30 0ed407f0 c3fdc01b 4045f5d9 084a0a21  ........@E...J.!
 0ed40 0020084b 11704ff4 6e723060 1a60dbe7  . .K.pO.nr0`.`..
 0ed50 00232846 3360d7e7 00002c40 0000db0c  .#(F3`....,@....
 0ed60 485a0020 249d0020 2ddc0000 8c9d0020  HZ. $.. -...... 
 0ed70 40420f00 0a4b1b78 10b50446 1bb9637a  @B...K.x...F..cz
 0ed80 43b90120 10bdfff7 4bf80028 fad0637a  C.. ....K..(..cz
 0ed90 002bf6d0 20460121 bde81040 fff79ebf  .+.. F.!...@....
 0eda0 f5b30020 2de9f041 0446007a adf5007d  ... -..A.F.z...}
 0edb0 164610f0 010513d0 93073cd0 01233848  .F........<..#8H
 0edc0 6a46fff7 7dfb0028 3ad04ff4 00726946  jF..}..(:.O..riF
 0edd0 30460cf0 85fd2846 0df5007d bde8f081  0F....(F...}....
 0ede0 dff8cc80 0f4698f8 0030002b 35d1637a  .....F...0.+5.cz
 0edf0 012b39d0 22682b49 126a8a42 4ad198f8  .+9."h+I.j.BJ...
 0ee00 0020002a 34d1002b 39d13946 2046fff7  . .*4..+9.9F F..
 0ee10 fbfee8b1 01236760 63723146 2046fff7  .....#g`cr1F F..
 0ee20 75fea8b1 63680546 01332846 63600df5  u...ch.F.3(Fc`..
 0ee30 007dbde8 f0810123 1948fff7 41fb38b9  .}.....#.H..A.8.
 0ee40 19490b20 194b40f2 55320025 08701a60  .I. .K@.U2.%.p.`
 0ee50 28460df5 007dbde8 f081fef7 e1ff0028  (F...}.........(
 0ee60 f6d0637a 012bc5d1 6268ba42 c2d1d4e7  ..cz.+..bh.B....
 0ee70 fef7d6ff 0028ebd0 637a002b c5d00121  .....(..cz.+...!
 0ee80 2046fff7 2bff0028 bfd12846 0df5007d   F..+..(..(F...}
 0ee90 bde8f081 20469047 0028f6d0 b5e700bf  .... F.G.(......
 0eea0 11003a11 75ed0000 485a0020 249d0020  ..:.u...HZ. $.. 
 0eeb0 f5b30020 2de9f041 047aadf5 007d0f46  ... -..A.z...}.F
 0eec0 904614f0 01041dd0 12f0030f 06d06846  .F............hF
 0eed0 11464ff4 00728046 0cf002fd 01234246  .FO..r.F.....#BF
 0eee0 39462c48 fff7ecfa 044630b9 2a490d20  9F,H.....F0.*I. 
 0eef0 2a4b40f2 f2320870 1a602046 0df5007d  *K@..2.p.` F...}
 0ef00 bde8f081 264d0646 2b782bbb 737a022b  ....&M.F+x+.sz.+
 0ef10 29d03268 2349126a 8a4236d1 2a7832bb  ).2h#I.j.B6.*x2.
 0ef20 002b2bd1 33683946 30461b6e 98470028  .++.3h9F0F.n.G.(
 0ef30 e3d00223 77607372 33684146 3046db6d  ...#w`sr3hAF0F.m
 0ef40 98470028 d9d07368 04460133 20467360  .G.(..sh.F.3 Fs`
 0ef50 0df5007d bde8f081 fef762ff 0028ccd0  ...}......b..(..
 0ef60 737a022b d5d17268 ba42d2d1 e4e7fef7  sz.+..rh.B......
 0ef70 57ff0028 c1d0737a 002bd3d0 01213046  W..(..sz.+...!0F
 0ef80 fff7acfe 0028b8d0 cce73046 90470028  .....(....0F.G.(
 0ef90 b3d0c7e7 01003a18 485a0020 249d0020  ......:.HZ. $.. 
 0efa0 f5b30020 75ed0000 4ff0ff30 704700bf  ... u...O..0pG..
 0efb0 407c7047 007d7047 407d7047 01207047  @|pG.}pG@}pG. pG
 0efc0 007f7047 2de9f047 1e46c37c 05460c46  ..pG-..G.F.|.F.F
 0efd0 022b9146 089f28d0 2b682146 28461b6e  .+.F..(.+h!F(F.n
 0efe0 984798b1 ac61b9f1 000f12d0 04eb0908  .G...a..........
 0eff0 01e0a045 0dd03946 2046b047 2b680146  ...E..9F F.G+h.F
 0f000 2846db6d 01349847 0028f2d1 0020bde8  (F.m.4.G.(... ..
 0f010 f087ab69 287f4b44 ab610028 f7d12b68  ...i(.KD.a.(..+h
 0f020 28465b6e bde8f047 18478369 8b42d3d1  (F[n...G.G.i.B..
 0f030 d9e700bf 704700bf 0430fef7 7dbd00bf  ....pG...0..}...
 0f040 10b50446 202106f0 9bfa2046 10bd00bf  ...F !.... F....
 0f050 2de9f041 1f46c37c 05460e46 022b1446  -..A.F.|.F.F.+.F
 0f060 24d02b68 31462846 1b6e9847 78b1ae61  $.+h1F(F.n.Gx..a
 0f070 87b10026 01e0b742 0cd02a68 21462846  ...&...B..*h!F(F
 0f080 0136d26d 04f50074 90470028 f3d10020  .6.m...t.G.(... 
 0f090 bde8f081 ab69287f 3b44ab61 0028f7d1  .....i(.;D.a.(..
 0f0a0 2b682846 5b6ebde8 f0411847 83698b42  +h(F[n...A.G.i.B
 0f0b0 d7d1dde7 2de9f041 204e0746 00f10408  ....-..A N.F....
 0f0c0 356805f5 1675adb2 03e03368 eb1a1b04  5h...u....3h....
 0f0d0 10d44046 fef734fd ff280446 f5d1fd21  ..@F..4..(.F...!
 0f0e0 4046fef7 4bfdbb7c cbb90023 0120fb74  @F..K..|...#. .t
 0f0f0 bde8f081 1e23b87c 7b740028 f8d0387c  .....#.|{t.(..8|
 0f100 0121fef7 71fdff21 4046fef7 37fd4046  .!..q..!@F..7.@F
 0f110 fef7eafc 00231846 bb74bde8 f0810121  .....#.F.t.....!
 0f120 387cfef7 61fd2146 4046fef7 27fd4046  8|..a.!F@F..'.@F
 0f130 fef7dafc 0023bb74 d7e700bf 94b30020  .....#.t....... 
 0f140 2de9f041 c37c012b 35d0867c 04464eb1  -..A.|.+5..|.FN.
 0f150 0430fef7 f5fcb0f1 ff0518bf 01252846  .0...........%(F
 0f160 bde8f081 071d4ff0 01083846 fef79efc  ......O...8F....
 0f170 3146207c fef738fd ff213846 fef7fefc  1F |..8..!8F....
 0f180 384684f8 1280fef7 dbfca37c b0f1ff05  8F.........|....
 0f190 18bf0125 002be2d0 4146207c fef724fd  ...%.+..AF |..$.
 0f1a0 ff213846 fef7eafc 3846fef7 9dfc2846  .!8F....8F....(F
 0f1b0 a674bde8 f0810025 2846bde8 f08100bf  .t.....%(F......
 0f1c0 2de9f843 204f0446 88469146 3d68061d  -..C O.F.F.F=h..
 0f1d0 05f59675 adb203e0 3b68eb1a 1b040dd4  ...u....;h......
 0f1e0 3046fef7 adfcff28 2075f5d0 fe281ad0  0F.....( u...(..
 0f1f0 1823a07c 637430b9 bde8f883 1d23a07c  .#.|ct0......#.|
 0f200 63740028 f8d0207c 0121fef7 edfcff21  ct.(.. |.!.....!
 0f210 3046fef7 b3fc3046 fef766fc 00231846  0F....0F..f..#.F
 0f220 a374bde8 f8834a46 41463046 fef794fc  .t....JFAF0F....
 0f230 207538b9 3046fef7 83fc3046 fef780fc   u8.0F....0F....
 0f240 0120d9e7 2523d4e7 94b30020 f0b50027  . ..%#..... ...'
 0f250 83b00c21 04463a46 c77400f0 5bf8b0b9  ...!.F:F.t..[...
 0f260 a67c1eb9 01263046 03b0f0bd 05460121  .|...&0F.....F.!
 0f270 207cfef7 b9fc201d ff210190 fef77efc   |.... ..!....~.
 0f280 0198fef7 31fc3046 a57403b0 f0bd0923  ....1.0F.t.....#
 0f290 a67c6374 002ee6d0 251d207c 01213e46  .|ct....%. |.!>F
 0f2a0 fef7a2fc ff212846 fef768fc 2846fef7  .....!(F..h.(F..
 0f2b0 1bfc3046 a77403b0 f0bd00bf c27c022a  ..0F.t.......|.*
 0f2c0 03d0012a 04d00120 70470368 5b6e1847  ...*... pG.h[n.G
 0f2d0 fff7bcbf 38b50368 0d460d49 04461a6a  ....8..h.F.I.F.j
 0f2e0 8a420cd1 c27c022a 04d0012a 0bd00120  .B...|.*...*... 
 0f2f0 257738bd 5b6e9847 0028f8d1 38bd9047  %w8.[n.G.(..8..G
 0f300 0028fbd0 f3e7fff7 a1ff0028 f6d0eee7  .(.........(....
 0f310 bdf20000 2de9f041 036882b0 0f463549  ....-..A.h...F5I
 0f320 01920646 1a6a8a42 5ed1c27c 022a41d0  ...F.j.B^..|.*A.
 0f330 012a5bd0 b47c002c 47d0351d 0c2f11d0  .*[..|.,G.5../..
 0f340 dff8b480 d8f80040 04f59674 a4b204e0  .......@...t....
 0f350 d8f80030 e31a1a04 34d42846 fef7f0fb  ...0....4.(F....
 0f360 ff28f5d1 0df10408 02ac47f0 40012846  .(........G.@.(F
 0f370 fef704fc 14f8011d 2846fef7 fffba045  ........(F.....E
 0f380 f8d1002f 28464ff0 0a040cbf 95218721  .../(FO......!.!
 0f390 fef7f4fb 2846fef7 d3fb2846 013cfef7  ....(F....(F.<..
 0f3a0 cffb0306 a4b23075 01d5002c f5d102b0  ......0u...,....
 0f3b0 bde8f081 5b6e9847 0028bbd1 ff2002b0  ....[n.G.(... ..
 0f3c0 bde8f081 002fcdd0 f8e7351d 2846fef7  ...../....5.(F..
 0f3d0 6dfb2146 307cfef7 07fcff21 2846fef7  m.!F0|.....!(F..
 0f3e0 cdfb0123 b374a9e7 9047e5e7 fff72eff  ...#.t...G......
 0f3f0 e2e700bf bdf20000 94b30020 2de9f047  ........... -..G
 0f400 88b00546 4ff00008 174601ac 2e1d85f8  ...FO....F......
 0f410 128085f8 118085f8 158084e8 0e009df8  ................
 0f420 04002874 fef7dcfb 0121287c fef7dcfb  ..(t.....!(|....
 0f430 6c490723 c5e90213 94e80700 05ab83e8  lI.#............
 0f440 07003046 0ecbfef7 3bfbac7c 85f81380  ..0F....;..|....
 0f450 002c67d0 0a240121 287cfef7 c5fbff21  .,g..$.!(|.....!
 0f460 3046fef7 8bfb611e 11f0ff04 f7d12146  0F....a.......!F
 0f470 0a24287c fef7b8fb 00222846 1146fff7  .$(|....."(F.F..
 0f480 49ff0128 04f1ff33 04460ad0 13f0ff04  I..(...3.F......
 0f490 f2d10123 a87c6b74 002851d1 08b0bde8  ...#.|kt.(Q.....
 0f4a0 f0874ff4 d5720821 2846fff7 33ff4207  ..O..r.!(F..3.B.
 0f4b0 57d56c75 2b68dff8 30a19b6d 534561d1  W.lu+h..0..mSEa.
 0f4c0 687da0f1 0204dff8 2491b4fa 84f4d9f8  h}......$.......
 0f4d0 00306409 03f5fa68 a4071ffa 88f805e0  .0d....h........
 0f4e0 d9f80030 a8eb0303 1b0449d4 37210022  ...0......I.7!."
 0f4f0 2846fff7 0fff2246 29212846 fff70aff  (F...."F)!(F....
 0f500 0028edd1 2b689b6d 534565d1 687d0228  .(..+h.mSEe.h}.(
 0f510 49d0ab7c cbbb0723 0120c5e9 027308b0  I..|...#. ...s..
 0f520 bde8f087 3046fef7 c1fa2146 287cfef7  ....0F....!F(|..
 0f530 5bfbff21 3046fef7 21fb0123 ab7489e7  [..!0F..!..#.t..
 0f540 287c0121 fef750fb ff213046 fef716fb  (|.!..P..!0F....
 0f550 3046fef7 c9fa0023 1846ab74 08b0bde8  0F.....#.F.t....
 0f560 f0870223 04246b75 3046fef7 e9fa631e  ...#.$ku0F....c.
 0f570 287513f0 ff04f7d1 aa289bd0 062389e7  (u.......(...#..
 0f580 172387e7 28469847 9be70121 287cfef7  .#..(F.G...!(|..
 0f590 2bfbff21 3046fef7 f1fa3046 fef7a4fa  +..!0F....0F....
 0f5a0 0023ab74 b7e70022 3a212846 fff7b2fe  .#.t...":!(F....
 0f5b0 a8b93046 fef7c4fa 00f0c000 c02801d1  ..0F.........(..
 0f5c0 03236b75 3046fef7 bbfa3046 fef7b8fa  .#ku0F....0F....
 0f5d0 3046fef7 b5fa9ce7 28469847 97e71223  0F......(F.G...#
 0f5e0 58e700bf 801a0600 b9ef0000 94b30020  X.............. 
 0f5f0 f8b50022 0d463a21 0646fff7 8bfee0b9  ...".F:!.F......
 0f600 371d2c1d 3846fef7 9bfa04f8 010da542  7.,.8F.........B
 0f610 f8d1b47c 14b90124 2046f8bd 307c0121  ...|...$ F..0|.!
 0f620 fef7e2fa ff213846 fef7a8fa 3846fef7  .....!8F....8F..
 0f630 5bfa0023 2046b374 f8bd1223 b47c7374  [..# F.t...#.|st
 0f640 002ce9d0 341d307c 0121fef7 cdfaff21  .,..4.0|.!.....!
 0f650 2046fef7 93fa2046 fef746fa 00231c46   F.... F..F..#.F
 0f660 b3742046 f8bd00bf 70b51646 82b00022  .t F....p..F..."
 0f670 0446fff7 4ffeb0b1 1b236374 a07c08b9  .F..O....#ct.|..
 0f680 02b070bd 251d207c 0121fef7 adfaff21  ..p.%. |.!.....!
 0f690 2846fef7 73fa2846 fef726fa 00231846  (F..s.(F..&..#.F
 0f6a0 a37402b0 70bd0546 10223146 2046fff7  .t..p..F."1F F..
 0f6b0 87fd0028 e2d0a67c 002ee1d0 207c0121  ...(...|.... |.!
 0f6c0 fef792fa 201dff21 0190fef7 57fa0198  .... ..!....W...
 0f6d0 fef70afa 3046a574 02b070bd 0368254a  ....0F.t..p..h%J
 0f6e0 db6c9342 00b585b0 0fd16a46 0921fff7  .l.B......jF.!..
 0f6f0 bbff38b1 9df80030 13f0c003 08d0402b  ..8....0......@+
 0f700 27d00020 05b05df8 04fb6946 9847f0e7  '.. ..]...iF.G..
 0f710 9df80930 9df80a20 03f00303 9df80610  ...0... ........
 0f720 9df80700 5b0001f0 03018000 9df808c0  ....[...........
 0f730 43ead213 9df80520 40ea8120 02f00f02  C...... @.. ....
 0f740 40ea9c10 13440130 073b9840 05b05df8  @....D.0.;.@..].
 0f750 04fb9df8 09009df8 07300130 9df80820  .........0.0... 
 0f760 03f03f03 00eb0340 00eb0220 800205b0  ..?....@... ....
 0f770 5df804fb 99fa0000 03680a46 30b59b6d  ]........h.F0..m
 0f780 83b0164d 0446ab42 24d1407d 03284ff0  ...M.F.B$.@}.(O.
 0f790 12012046 18bf5202 fff7bcfd 20b90123  .. F..R..... ..#
 0f7a0 1846e374 03b030bd 0c23a07c 63740028  .F.t..0..#.|ct.(
 0f7b0 f8d0251d 207c0121 fef716fa ff212846  ..%. |.!.....!(F
 0f7c0 fef7dcf9 2846fef7 8ff90023 1846a374  ....(F.....#.F.t
 0f7d0 03b030bd 01919847 019ad7e7 b9ef0000  ..0....G........
 0f7e0 f8b51446 c27c0646 0d46012a 1f4602d1  ...F.|.F.F.*.F..
 0f7f0 83698b42 05d02946 3046fff7 bdff80b1  .i.B..)F0F......
 0f800 b56187b1 002501e0 af420cd0 21464ff4  .a...%...B..!FO.
 0f810 00723046 013504f5 0074fff7 d1fc0028  .r0F.5...t.....(
 0f820 f2d10020 f8bdb369 307f3b44 b3610028  ... ...i0.;D.a.(
 0f830 f8d13046 bde8f840 fff708bd 2de9f84f  ..0F...@....-..O
 0f840 9b46c37c 06460c46 012b1546 ddf82890  .F.|.F.F.+.F..(.
 0f850 ddf82c80 02d18369 8b4205d0 21463046  ..,....i.B..!F0F
 0f860 fff78aff b0b1b461 bbf1000f 15d004eb  .......a........
 0f870 0b0a02e0 c847a245 0fd04ff4 00722946  .....G.E..O..r)F
 0f880 3046fff7 9dfc0746 42462046 29460134  0F.....FBF F)F.4
 0f890 002fefd1 0020bde8 f88fb369 307f5b44  ./... .....i0.[D
 0f8a0 b3610028 f7d13046 bde8f84f fff7cebc  .a.(..0F...O....
 0f8b0 03682de9 f0415f69 164b9f42 1fd1c37c  .h-..A_i.K.B...|
 0f8c0 04460d46 1646012b 02d18369 994205d0  .F.F.F.+...i.B..
 0f8d0 29462046 fff750ff 70b1a561 4ff40072  )F F..P.p..aO..r
 0f8e0 31462046 fff76cfc 30b1a369 207f0133  1F F..l.0..i ..3
 0f8f0 a36148b1 bde8f081 0020bde8 f081bc46  .aH...... .....F
 0f900 0123bde8 f0416047 2046bde8 f041fff7  .#...A`G F...A..
 0f910 9dbc00bf e1f70000 03680a46 30b59b6d  .........h.F0..m
 0f920 83b0164d 0446ab42 24d1407d 03284ff0  ...M.F.B$.@}.(O.
 0f930 19012046 18bf5202 fff7ecfc 20b90223  .. F..R..... ..#
 0f940 0120e374 03b030bd 0e23a07c 63740028  . .t..0..#.|ct.(
 0f950 f8d0251d 207c0121 fef746f9 ff212846  ..%. |.!..F..!(F
 0f960 fef70cf9 2846fef7 bff80023 1846a374  ....(F.....#.F.t
 0f970 03b030bd 01919847 019ad7e7 b9ef0000  ..0....G........
 0f980 03682de9 f043db6c 1746414a 85b00446  .h-..C.l.FAJ...F
 0f990 0e469342 45d16a46 0921fff7 65fe0546  .F.BE.jF.!..e..F
 0f9a0 b5b19df8 0a305a06 18d5637d 032b01d0  .....0Z...c}.+..
 0f9b0 76027f02 32462021 2046fff7 abfc28b9  v...2F ! F....(.
 0f9c0 3a462121 2046fff7 a5fc70b3 26236374  :F!! F....p.&#ct
 0f9d0 a57c9db9 284605b0 bde8f083 03f03f03  .|..(F........?.
 0f9e0 9df80b20 5b0043ea d2137a1c 32431342  ... [.C...z.2C.B
 0f9f0 dbd02723 a57c6374 002debd0 251d207c  ..'#.|ct.-..%. |
 0fa00 0121fef7 f1f8ff21 2846fef7 b7f82846  .!.....!(F....(F
 0fa10 fef76af8 00231d46 a3742846 05b0bde8  ..j..#.F.t(F....
 0fa20 f0836946 98470546 bae70246 26212046  ..iF.G.F...F&! F
 0fa30 fff770fc 0028c9d1 dff85880 42f21077  ..p..(....X.B..w
 0fa40 04f10409 d8f80030 1f44bfb2 04e0d8f8  .......0.D......
 0fa50 0030fb1a 1b0417d4 4846fef7 71f8ff28  .0......HF..q..(
 0fa60 0646f4d1 a37c002b b4d00121 207c1d46  .F...|.+...! |.F
 0fa70 fef7baf8 31464846 fef780f8 4846fef7  ....1FHF....HF..
 0fa80 33f80023 a374a5e7 28236374 a0e700bf  3..#.t..(#ct....
 0fa90 99fa0000 94b30020 70b50022 82b00e46  ....... p.."...F
 0faa0 09210446 fff736fc b0b11b23 6374a07c  .!.F..6....#ct.|
 0fab0 08b902b0 70bd251d 207c0121 fef794f8  ....p.%. |.!....
 0fac0 ff212846 fef75af8 2846fef7 0df80023  .!(F..Z.(F.....#
 0fad0 1846a374 02b070bd 05461022 31462046  .F.t..p..F."1F F
 0fae0 fff76efb 0028e2d0 a67c002e e1d0207c  ..n..(...|.... |
 0faf0 0121fef7 79f8201d ff210190 fef73ef8  .!..y. ..!....>.
 0fb00 0198fdf7 f1ff3046 a57402b0 70bd00bf  ......0F.t..p...
 0fb10 70b50022 82b00e46 0a210446 fff7fafb  p.."...F.!.F....
 0fb20 b0b11b23 6374a07c 08b902b0 70bd251d  ...#ct.|....p.%.
 0fb30 207c0121 fef758f8 ff212846 fef71ef8   |.!..X..!(F....
 0fb40 2846fdf7 d1ff0023 1846a374 02b070bd  (F.....#.F.t..p.
 0fb50 05461022 31462046 fff732fb 0028e2d0  .F."1F F..2..(..
 0fb60 a67c002e e1d0207c 0121fef7 3df8201d  .|.... |.!..=. .
 0fb70 ff210190 fef702f8 0198fdf7 b5ff3046  .!............0F
 0fb80 a57402b0 70bd00bf 70b5051d 16460446  .t..p...p....F.F
 0fb90 2846fdf7 f3ff4ff4 00723146 2846fdf7  (F....O..r1F(F..
 0fba0 f7ffff21 2846fdf7 e9ffff21 2846fdf7  ...!(F.....!(F..
 0fbb0 e5ff2846 fdf7c4ff 00f01f03 2075052b  ..(F........ u.+
 0fbc0 04d02023 a07c6374 10b970bd 012070bd  .. #.|ct..p.. p.
 0fbd0 207c0121 fef708f8 ff212846 fdf7ceff   |.!.....!(F....
 0fbe0 2846fdf7 81ff0023 1846a374 70bd00bf  (F.....#.F.tp...
 0fbf0 2de9f041 174d0646 0f4600f1 04082c68  -..A.M.F.F....,h
 0fc00 04f51674 a4b203e0 2b68e31a 1b040cd4  ...t....+h......
 0fc10 4046fdf7 95ffff28 f6d13a46 fc213046  @F.....(..:F.!0F
 0fc20 fff7b2ff 18b1bde8 f0812423 7374b07c  ..........$#st.|
 0fc30 0028f8d0 307c0121 fdf7d6ff ff214046  .(..0|.!.....!@F
 0fc40 fdf79cff 4046fdf7 4fff0023 1846b374  ....@F..O..#.F.t
 0fc50 bde8f081 94b30020 036870b5 9b6d1646  ....... .hp..m.F
 0fc60 224a82b0 04460d46 93423cd1 407d0328  "J...F.F.B<.@}.(
 0fc70 4ff01801 204618bf 6d022a46 fff74afb  O... F..m.*F..J.
 0fc80 0546b0b1 0d236374 a07c08b9 02b070bd  .F...#ct.|....p.
 0fc90 251d207c 0121fdf7 a7ffff21 2846fdf7  %. |.!.....!(F..
 0fca0 6dff2846 fdf720ff 00231846 a37402b0  m.(F.. ..#.F.t..
 0fcb0 70bd3246 fe212046 fff766ff 0028e3d0  p.2F.! F..f..(..
 0fcc0 a67c002e e2d0207c 0121fdf7 8dff201d  .|.... |.!.... .
 0fcd0 ff210190 fdf752ff 0198fdf7 05ff3046  .!....R.......0F
 0fce0 a57402b0 70bd9847 c1e700bf b9ef0000  .t..p..G........
 0fcf0 10b4047f 34b10468 0123a46a a4465df8  ....4..h.#.j.F].
 0fd00 044b6047 5df8044b fff7a6bf 10b584b0  .K`G]..K........
 0fd10 04460df1 040c8ce8 0e009ce8 0e00fff7  .F..............
 0fd20 6dfb20b1 9df80530 03f00103 237704b0  m. ....0....#w..
 0fd30 10bd00bf 70b500f1 240384b0 8c460446  ....p...$....F.F
 0fd40 01ad1646 93e80700 85e80700 4fea4c12  ...F........O.L.
 0fd50 2946206a 01f0c4fe 012806d1 32462946  )F j.....(..2F)F
 0fd60 206a01f0 a1fe04b0 70bd0020 04b070bd   j......p.. ..p.
 0fd70 10b50446 00f07cfe 002384f8 313084f8  ...F..|..#..10..
 0fd80 333010bd 38b51446 0d460022 00f12401  30..8..F.F."..$.
 0fd90 006a01f0 89fe0346 20b14289 01202a80  .j.....F .B.. *.
 0fda0 1b892380 38bd00bf 38b51446 0d460022  ..#.8...8..F.F."
 0fdb0 00f12401 006a01f0 77fe0346 20b1c289  ..$..j..w..F ...
 0fdc0 01202a80 9b892380 38bd00bf 38b50d46  . *...#.8...8..F
 0fdd0 90f83110 09b10020 38bd3822 044609f0  ..1.... 8.8".F..
 0fde0 3dfe0123 40222562 184684f8 333084f8  =..#@"%b.F..30..
 0fdf0 312038bd f0b40d46 09782029 03d115f8  1 8....F.x )....
 0fe00 014f202c fbd01560 95602c78 2f2c11d0  .O ,...`.`,x/,..
 0fe10 84b16e1c 3c2c1d4f 35462ad8 212c12d8  ..n.<,.O5F*.!,..
 0fe20 04f1ff3c bcf11e0f 16d80020 f0bc7047  ...<....... ..pG
 0fe30 15f8014f 202cfbd0 2f2cf9d0 1d601146  ...O ,../,...`.F
 0fe40 f0bc00f0 6fbca4f1 220c5ffa 8cfc27fa  ....o..."._...'.
 0fe50 0cfc1cf0 010fe8d1 2e2c01d0 202c0dd1  .........,.. ,..
 0fe60 16f8014b 002ce5d0 2f2ce3d0 3c2c3546  ...K.,../,..<,5F
 0fe70 d4d95c2c d9d003d9 7c2cd6d0 9660efe7  ..\,....|,...`..
 0fe80 3e3c012c fad80020 f0bc7047 01210005  ><.,... ..pG.!..
 0fe90 2de9f04f 90f83330 83b00546 dc0774d5  -..O..30...F..t.
 0fea0 58060f46 904640f1 b080d5e9 0023d5e9  X..F.F@......#..
 0feb0 041018eb 020443f1 0003a142 70eb0303  ......C....Bp...
 0fec0 c0f0a980 b8f1000f 5bd04646 05f11809  ........[.FF....
 0fed0 d5e90032 d5f820a0 daf83844 1c40c4f3  ...2.. ...8D.@..
 0fee0 080b002c 70d11343 70d195f8 31305a06  ...,p..Cp...10Z.
 0fef0 4cbfdaf8 3424ea69 aa619af8 4504023a  L...4$.i.a..E..:
 0ff00 daf82c14 630a8240 01eb5421 1144bbf1  ..,.c..@..T!.D..
 0ff10 000f45d1 b6f5007f 42d3daf8 1c229142  ..E.....B....".B
 0ff20 3ed0b6f5 806f58d3 4ff0010b 0bfa00fb  >....oX.O.......
 0ff30 abeb030b 730a9b45 28bf9b46 91424fea  ....s..E(..F.BO.
 0ff40 4b240ad8 01eb0b03 9a4206d2 0af50470  K$.......B.....p
 0ff50 0191faf7 ffff0199 b8b1daf8 14025b46  ..............[F
 0ff60 0268d2f8 14a03a46 d04770b1 23462744  .h....:F.Gp.#F'D
 0ff70 d5e90012 5b1842f1 0002361b c5e90032  ....[.B...6....2
 0ff80 a8d14046 03b0bde8 f08f95f8 32304ff0  ..@F........20O.
 0ff90 ff3043f0 020385f8 323003b0 bde8f08f  .0C.....20......
 0ffa0 cbf50074 00220af5 0470b442 28bf3446  ...t."...p.B(.4F
 0ffb0 faf7fcff 0028e8d0 00eb0b01 22463846  .....(......"F8F
 0ffc0 0bf08efc 2346d2e7 aa6996e7 95f83330  ....#F...i....30
 0ffd0 5b060ed5 aa690132 8ee7daf8 14023a46  [....i.2......:F
 0ffe0 03681b69 98470028 cfd04ff4 00731c46  .h.i.G.(..O..s.F
 0fff0 bde74a46 5046a969 01f0b4fd 0028c4db  ..JFPF.i.....(..
 10000 0cd0d5f8 20a0aa69 77e795f8 31301907  .... ..iw...10..
 10010 7ff558af 49e7a1eb 020853e7 95f83130  ..X.I.....S...10
 10020 13f0500f b1d0a8eb 06084046 aae700bf  ..P.......@F....
 10030 f0b583b0 01220446 85690df1 0701d0e9  .....".F.i......
 10040 0067fff7 25ff0128 a5610cbf 9df80700  .g..%..(.a......
 10050 4ff0ff30 c4e90067 03b0f0bd 2de9f04f  O..0...g....-..O
 10060 1f4690f8 313083b0 0446d0f8 1880002b  .F..10...F.....+
 10070 51d01646 d0e9001c bc4508bf 91425cd0  Q..F.....E...B\.
 10080 56ea0702 4dd01d07 04d5d0e9 0402b042  V...M..........B
 10090 ba4140d3 94f83320 751ed4f8 20a00192  .A@...3 u... ...
 100a0 47f1ff30 9af84524 0932d2b2 c2f1200e  G..0..E$.2.... .
 100b0 d540a2f1 200900fa 0efb20fa 09f045ea  .@.. ..... ...E.
 100c0 0b050543 01984006 33d4481e 20fa02f2  ...C..@.3.H. ...
 100d0 4cf1ff30 51ea0c0c 00fa0efe 20fa09f0  L..0Q....... ...
 100e0 42ea0e02 42ea0002 01d09542 29d25b06  B...B......B).[.
 100f0 4cbfdaf8 3434e369 a36104f1 180906e0  L...44.i.a......
 10100 a169013d 206a01f0 2dfd0028 03dd4a46  .i.= j..-..(..JF
 10110 002df5d1 07e00020 c4f81880 03b0bde8  .-..... ........
 10120 f08f0023 83610120 c4e90067 03b0bde8  ...#.a. ...g....
 10130 f08fe369 2b44a361 f5e70120 03b0bde8  ...i+D.a... ....
 10140 f08fad1a d9e700bf 2de9f04f 174690f8  ........-..O.F..
 10150 31208fb0 0546002a 40f0d780 8b4691f8  1 ...F.*@....F..
 10160 311011f0 500f00f0 d08003f0 03019a46  1...P..........F
 10170 032900f0 ca800131 03f00800 41ea0003  .).....1....A...
 10180 0293002f 00f0cb80 396901f1 0e08b649  .../....9i.....I
 10190 a1fb0818 dbe90010 4fead808 014308f1  ........O....C..
 101a0 02085ffa 88f805d0 00200021 cbf81820  .._...... .!... 
 101b0 cbe90001 0024029b 264643f0 40030393  .....$..&FC.@...
 101c0 202206a9 5846fff7 63fe00b3 202840f0   "..XF..c... (@.
 101d0 9c809df9 18209df8 1830002a c0f2a280  ..... ...0.*....
 101e0 34b9dbf8 0020a2f1 2009dbf8 18200192  4.... .. .... ..
 101f0 444501d2 0134e4b2 002b00f0 13812022  DE...4...+.... "
 10200 06a95846 0026fff7 43fe0028 ded11af4  ..XF.&..C..(....
 10210 007f7ad0 029b9b07 77d5002f 75d04445  ..z.....w../u.DE
 10220 17d2ddf8 04a02022 06a95846 fff730fe  ...... "..XF..0.
 10230 631c0028 61d02028 67d12cb9 dbf80020  c..(a. (g.,.... 
 10240 dbf818a0 a2f12009 dcb2a045 ebd8cdf8  ...... ....E....
 10250 04a03822 00212846 9bf83340 09f0fefb  ..8".!(F..3@....
 10260 dbf82030 c4f38014 019a2b62 08230026  .. 0......+b.#.&
 10270 85f82c40 85f83130 3b68c5e9 09297b60  ..,@..10;h...){`
 10280 be81b8f1 000f33d0 08f1ff39 b346dff8  ......3....9.F..
 10290 dca15ffa 89f90122 59462846 fff74afd  .._...."YF(F..J.
 102a0 044690b3 90f90020 002a2edb 20220021  .F..... .*.. ".!
 102b0 09f0d4fb 002e00f0 bc80bbf1 010f00f0  ................
 102c0 d780c123 a3461e34 04f81e3c bb893846  ...#.F.4...<..8F
 102d0 1bb9d7e9 01239a42 05d0faf7 b9fd2bf8  .....#.B......+.
 102e0 020fa345 f2d10136 5ffa86fb d845d2d8  ...E...6_....E..
 102f0 284600f0 bdfb0646 0de05846 dbf81860  (F.....F..XF...`
 10300 00f0e6fb 002840f0 91800023 1e4685f8  .....(@....#.F..
 10310 313085f8 33303046 0fb0bde8 f08f4ff0  10..300F......O.
 10320 030847e7 56bb4445 38bf0024 852b7ff4  ..G.V.DE8..$.+..
 10330 47af3146 38222846 012609f0 8ffb9df8  G.1F8"(F.&......
 10340 1c209df8 193085f8 303002f0 3703d206  . ...0..00..7...
 10350 58bf43f0 080385f8 3130dbf8 0030dbf8  X.C.....10...0..
 10360 2020203b 2a62dbf8 1820c5e9 09239bf8     ;*b... ...#..
 10370 3330c3f3 801385f8 2c3021e7 c02b28d0  30......,0!..+(.
 10380 c12b7ff4 3caf3a46 06a92846 00f03ef9  .+..<.:F..(F..>.
 10390 e8b1bb89 dbb9d7e9 01329a42 17d11af4  .........2.B....
 103a0 006fb2d1 1af4884f 70d195f8 33309807  .o.....Op...30..
 103b0 6cd41af4 806fa8d1 1af4804f abd02846  l....o.....O..(F
 103c0 d5e90423 fff74afe 0028a4d1 9de70646  ...#..J..(.....F
 103d0 f6e6029b 85f83330 9df81930 9b0702d5  ......30...0....
 103e0 039b85f8 33300b9b eb61dde9 0823c5e9  ....30...a...#..
 103f0 0423dde9 0c23c5e9 0223002f cfd04ff0  .#...#...#./..O.
 10400 00033a69 bb813b68 7b609df8 1b309a42  ..:i..;h{`...0.B
 10410 7ff4f5ae be8abdf8 1c30f61a b6fa86f6  .........0......
 10420 7609cde6 002f7ff4 f2ae6ee7 cbf81860  v..../....n....`
 10430 0be78523 237085f8 309084f8 0190daf8  ...##p..0.......
 10440 0030002b 46d00df1 13020df1 160105a8  .0.+F...........
 10450 9847bdf8 14306381 bdf81630 23819df8  .G...0c....0#...
 10460 13302375 3fe700bf 89888888 949d0020  .0#u?.......... 
 10470 c02384f8 01b02370 029b63f0 7f0385f8  .#....#p..c.....
 10480 33303b69 e370bb8a a3802ce7 95f83130  30;i.p....,...10
 10490 d9063ff5 3aaf13f0 01017ff4 36af1af4  ..?.:.......6...
 104a0 806f89d0 95f83320 92077ff5 2eaf002b  .o....3 .......+
 104b0 3ff42baf d5e90032 134304d0 00220023  ?.+....2.C...".#
 104c0 a961c5e9 00232846 00f004fd 00283ff4  .a...#(F.....(?.
 104d0 1caf20e7 45f62123 6381e381 638202e7  .. .E.!#c...c...
 104e0 2de9f043 002597b0 994690f8 31300192  -..C.%...F..10..
 104f0 1495adf8 1450002b 3ed191f8 31300f46  .....P.+>...10.F
 10500 13f0500f 38d01378 04461646 2f2b37d0  ..P.8..x.F.F/+7.
 10510 4ff00008 01ab02aa 31462046 fff76afc  O.......1F F..j.
 10520 50b3019e 3378002b 3ed00023 02aa3946  P...3x.+>..#..9F
 10530 2046fff7 09fef8b1 a44608ad 04f13007   F.......F....0.
 10540 dcf80000 0cf1100c 5cf80c1c ae465cf8  ........\....F\.
 10550 082c1035 5cf8043c bc45aee8 0f00efd1  .,.5\..<.E......
 10560 dcf80000 08af2860 204600f0 81fa84f8  ......(` F......
 10570 318084f8 3380cde7 002017b0 bde8f083  1...3.... ......
 10580 16f8011f 2f29fbd0 0196b1b9 38222046  ..../)......8" F
 10590 3d6a09f0 63fa0123 40222562 184684f8  =j..c..#@"%b.F..
 105a0 333084f8 3120e8e7 4b4602aa 39462046  30..1 ..KF..9F F
 105b0 fff7cafd 17b0bde8 f0833822 002108a8  ..........8".!..
 105c0 3d6a09f0 4bfa0123 08af1095 8df85330  =j..K..#......S0
 105d0 40238df8 51309be7 19b101f5 8961fff7  @#..Q0.......a..
 105e0 7fbf0846 704700bf 90f83130 63b991f8  ...FpG....10c...
 105f0 313013f0 500f07d0 0b6813f0 1f0c03d1  10..P....h......
 10600 13466246 fff7a0bd 00207047 2de9f041  .FbF..... pG-..A
 10610 0c461546 01f11e08 ab892846 34f8027f  .F.F......(F4...
 10620 1bb9d5e9 01239a42 0ed0faf7 11fcfaf7  .....#.B........
 10630 35fc0646 3846faf7 31fc8642 09d14445  5..F8F..1..B..DE
 10640 ead10120 bde8f081 b7fa87f0 4009bde8  ... ........@...
 10650 f0810020 bde8f081 2de9f04f 90f83130  ... ....-..O..10
 10660 83b08846 002b4fd0 90f83030 0746012b  ...F.+O...00.F.+
 10670 53d9013a 0b464ff0 020a0024 8e18dff8  S..:.FO....$....
 10680 a0b00022 51463846 0193fff7 53fb0028  ..."QF8F....S..(
 10690 3ad00278 c12a37d1 054600f1 1e09019b  :..x.*7..F......
 106a0 35f8020f 24b300f5 105292b2 b2f5806f  5...$....R.....o
 106b0 2ad20bea 8424c0f3 09002043 00f58030  *....$.... C...0
 106c0 19463246 faf726fb 0346e8b1 00244d45  .F2F..&..F...$ME
 106d0 e6d10af1 010a97f8 30205ffa 8afa5245  ........0 _...RE
 106e0 cfd2a3eb 08009846 002388f8 00300fe0  .......F.#...0..
 106f0 00f52052 92b2b2f5 006f02d3 0028dfd1  .. R.....o...(..
 10700 efe7b2f5 806f06d3 00231846 88f80030  .....o...#.F...0
 10710 03b0bde8 f08f0446 d9e70020 e4e700bf  .......F... ....
 10720 00fc0f00 70b50c46 00234ff6 ff752268  ....p..F.#O..u"h
 10730 19461e46 a3812361 626017e0 faf788fb  .F.F..#ab`......
 10740 a84222d0 faf7aafb 2369f203 a1890133  .B".....#i.....3
 10750 42ea5602 060a2361 52fa80f0 83b2c0f3  B.V...#aR.......
 10760 4e0040ea c33016fa 80f086b2 20460029  N.@..0...... F.)
 10770 e4d1d4e9 01239a42 e0d12069 a6820138  .....#.B.. i...8
 10780 fe288cbf 00200120 70bd0020 70bd00bf  .(... . p.. p...
 10790 8169f8b5 0446006a 01b10131 012201f0  .i...F.j...1."..
 107a0 a7f80128 054632d9 01230146 206a1a46  ...(.F2..#.F j.F
 107b0 01f0fef8 064650b3 a3695bb3 94f83320  .....FP..i[...3 
 107c0 510612d5 591ca942 18d022f0 4002e169  Q...Y..B..".@..i
 107d0 84f83320 05e0206a 01f0e6f9 3946b0b1  ..3 .. j....9F..
 107e0 a3694f1c 99423a46 f5d34ff0 ff322946  .iO..B:F..O..2)F
 107f0 206a01f0 d9f950b1 a16911b9 3046a561   j....P..i..0F.a
 10800 f8bd2a46 206a01f0 cff90028 f6d10026  ..*F j.....(...&
 10810 3046f8bd 94f83330 43f04003 84f83330  0F....30C.@...30
 10820 ece700bf 90f83330 9a0736d5 c16970b5  ......30..6..ip.
 10830 0546a1b9 00242146 07e00378 03f07f03  .F...$!F...x....
 10840 037095f8 30308b42 29d30134 01222846  .p..00.B)..4."(F
 10850 fff770fa e1b20028 efd10020 70bd5b06  ..p....(... p.[.
 10860 006a34d5 90f84534 d5e90224 0933013a  .j4...E4...$.3.:
 10870 dbb244f1 ff34c3f1 200cda40 203b04fa  ..D..4.. ..@ ;..
 10880 0cfc24fa 03f342ea 0c021a43 00230132  ..$...B....C.#.2
 10890 01f08ef8 0028cdd1 dfe70020 70470023  .....(..... pG.#
 108a0 2c6a85f8 31302046 85f83330 faf752fb  ,j..10 F..30..R.
 108b0 0028d2d0 04f50470 faf74cfb 0028ccd0  .(.....p..L..(..
 108c0 d4f84004 0368bde8 70401b6a 184701f0  ..@..h..p@.j.G..
 108d0 8bf90028 aed1c0e7 90f83130 db0601d4  ...(......10....
 108e0 00207047 10b50022 88b00023 0446fff7  . pG..."...#.F..
 108f0 b5fb08e0 20281bd1 9df90030 9df80020  .... (.....0... 
 10900 002b15db 32b12022 69462046 fff7c0fa  .+..2. "iF F....
 10910 0028efd1 94f83330 08222046 43f00203  .(....30." FC...
 10920 84f83120 84f83330 fff77cff 08b010bd  ..1 ..30..|.....
 10930 002008b0 10bd00bf 2de9f041 4ff00008  . ......-..AO...
 10940 82b04a4f 06464446 41460022 3046fff7  ..JO.FDFAF."0F..
 10950 f1f90546 30b10178 c02969d0 c1292bd0  ...F0..x.)i..)+.
 10960 852909d0 96f83230 002043f0 010386f8  .)....20. C.....
 10970 323002b0 bde8f081 96f83130 03f03703  20........10..7.
 10980 83803b68 83b10df1 03020df1 060101a8  ..;h............
 10990 9847bdf8 0630ab81 2b82bdf8 0430eb81  .G...0..+....0..
 109a0 6b829df8 03306b75 326a92f8 103243f0  k....0ku2j...2C.
 109b0 010382f8 10322978 a1f18500 0022b0fa  .....2)x....."..
 109c0 80f04009 01e00422 a95ce303 012a02f1  ..@....".\...*..
 109d0 010243ea 540311fa 83f39cb2 01d10028  ..C.T..........(
 109e0 f1d11f2a f0d908f1 010896f8 30305ffa  ...*........00_.
 109f0 88f18b42 a9d20122 06f12401 306a01f0  ...B..."..$.0j..
 10a00 53f80028 aed0356a 44802846 faf7a2fa  S..(..5jD.(F....
 10a10 0028a7d0 05f50470 faf79cfa 0028a1d0  .(.....p.....(..
 10a20 d5f84004 03681b6a 98470028 a1d199e7  ..@..h.j.G.(....
 10a30 96f83330 13f0400f 437814bf 43f00203  ..30..@.Cx..C...
 10a40 03f0fd03 4370d6e9 0401d6e9 0732c5e9  ....Cp.......2..
 10a50 0201d6e9 02016b61 c5e90601 92f81032  ......ka.......2
 10a60 43f00103 82f81032 2978a5e7 949d0020  C......2)x..... 
 10a70 38b590f8 313043b3 90f93320 044690f8  8...10C...3 .F..
 10a80 3330002a 0cdb056a 2846faf7 63fa78b9  30.*...j(F..c.x.
 10a90 94f83230 002043f0 010384f8 323038bd  ..20. C.....208.
 10aa0 03f07f03 80f83330 bde83840 fff744bf  ......30..8@..D.
 10ab0 05f50470 faf74efa 0028e9d0 d5f84004  ...p..N..(....@.
 10ac0 03681b6a 98470028 e2d00120 38bd00bf  .h.j.G.(... 8...
 10ad0 70b590f8 31300546 5a064cd4 80682b6a  p...10.FZ.L..h+j
 10ae0 d3f83c34 1844b0f1 806f01d3 002070bd  ..<4.D...o... p.
 10af0 2846fff7 4dfe0028 f8d0286a 0024ae69  (F..M..(..(j.$.i
 10b00 90f84534 023e9e40 d0f82c34 1e443119  ..E4.>.@..,4.D1.
 10b10 052200f5 04700134 faf748fa 4ff40072  ."...p.4..H.O..r
 10b20 00210028 e2d008f0 99ff286a 012390f8  .!.(......(j.#..
 10b30 45249340 9c42ead3 95f83130 5b0615d4  E$.@.B....10[...
 10b40 95f83320 62f07f02 d5e90231 85f83320  ..3 b......1..3 
 10b50 d0f83c24 9b1841f1 0000ab60 d5e90431  ..<$..A....`...1
 10b60 e8609b18 41f10001 c5e90431 2846bde8  .`..A......1(F..
 10b70 7040fff7 7dbf006a 01f03cf9 afe700bf  p@..}..j..<.....
 10b80 70b50446 90f83100 9cb00023 10f0180f  p..F..1....#....
 10b90 0c931a93 03d0206a 0b6a9842 02d00020  ...... j.j.B... 
 10ba0 1cb070bd 40f60123 6846fff7 99fc0028  ..p.@..#hF.....(
 10bb0 f5d0a446 04f13006 0eaddcf8 00000cf1  ...F..0.........
 10bc0 100c5cf8 0c1cae46 5cf8082c 10355cf8  ..\....F\..,.5\.
 10bd0 043cb445 aee80f00 efd1dcf8 000009aa  .<.E............
 10be0 04f12403 28609df8 305007ca 83e80700  ..$.(`..0P......
 10bf0 94f83330 204684f8 305063f0 7f0384f8  ..30 F..0Pc.....
 10c00 3330fff7 35ff0028 c9d00021 02220823  30..5..(...!.".#
 10c10 0ea81591 8df86b20 8df86930 fff702fe  ......k ..i0....
 10c20 bee700bf 38b591f8 313013f0 500f02d1  ....8...10..P...
 10c30 00252846 38bd40f6 02230446 fff784fa  .%(F8.@..#.F....
 10c40 0028f5d0 10232046 84f83130 fff740ff  .(...# F..10..@.
 10c50 05460028 ecd0a169 00220023 2046e161  .F.(...i.".# F.a
 10c60 fff7fcf9 c12294f8 313084f8 3320002b  ....."..10..3 .+
 10c70 dfd04123 204684f8 3330bde8 3840fff7  ..A# F..30..8@..
 10c80 5bbe00bf f0b50025 97b01f46 90f83130  [......%...F..10
 10c90 0192adf8 14501495 002b46d1 91f83130  .....P...+F...10
 10ca0 0e4613f0 500f40d0 13780446 11462f2b  .F..P.@..x.F.F/+
 10cb0 3ed001ab 02aa2046 fff79cf8 002834d0  >..... F.....(4.
 10cc0 019b1b78 002b41d0 002302aa 31462046  ...x.+A..#..1F F
 10cd0 fff73afa 30b947b3 02aa3146 2046fff7  ..:.0.G...1F F..
 10ce0 a1ff10b3 a44608ad 04f13006 dcf80000  .....F....0.....
 10cf0 0cf1100c 5cf80c1c ae465cf8 082c1035  ....\....F\..,.5
 10d00 5cf8043c b445aee8 0f00efd1 dcf80000  \..<.E..........
 10d10 08ae2860 2046fff7 2bf80199 01ab02aa  ..(` F..+.......
 10d20 2046fff7 67f80028 cad10020 17b0f0bd   F..g..(... ....
 10d30 01310191 0b782f2b fad0316a 08a8fff7  .1...x/+..1j....
 10d40 45f80028 f1d00199 08aeb2e7 02aa3146  E..(..........1F
 10d50 2046fff7 67ff17b0 f0bd00bf 2de9f04f   F..g.......-..O
 10d60 0e4690f8 311083b0 09079df8 30b09df8  .F..1.......0...
 10d70 34909df8 38809df8 3c7040f1 8580a2f2  4...8...<p@.....
 10d80 bc7294b2 7f2c7fd8 5a1e0b2a 7cd80bf1  .r...,..Z..*|...
 10d90 ff321e2a 78d8b8f1 3b0f98bf b9f1170f  .2.*x...;.......
 10da0 8cbf4ff0 010a4ff0 000a3b2f 88bf4af0  ..O...O...;/..J.
 10db0 010abaf1 000f67d1 05460193 fff758fe  ......g..F....X.
 10dc0 002861d0 019b5146 4bea431b 7b0817f0  .(a...QFK.C.{...
 10dd0 01074bea 4424d346 43ea4818 18bf6427  ..K.D$.FC.H...d'
 10de0 a4b248ea c92806f0 01091ffa 88f80022  ..H..(........."
 10df0 2846fef7 9fff0028 46d090f8 00c0bcf1  (F.....(F.......
 10e00 850f45d0 0cf14003 dbb2012b 3cd8acf1  ..E...@....+<...
 10e10 85010023 b1fa81f1 490902e0 042310f8  ...#....I....#..
 10e20 03c04fea cb32012b 03f10103 42ea5b02  ..O..2.+....B.[.
 10e30 1cfa82f2 1ffa82fb 01d10029 eed11f2b  ...........)...+
 10e40 edd90af1 010a95f8 30305ffa 8af18b42  ........00_....B
 10e50 cdd20122 05f12401 286a00f0 25fe98b1  ..."..$.(j..%...
 10e60 2c6aa0f8 02b02046 faf774f8 60b104f5  ,j.... F..t.`...
 10e70 0470faf7 6ff838b1 d4f84004 03681b6a  .p..o.8...@..h.j
 10e80 03b0bde8 f04f1847 002003b0 bde8f08f  .....O.G. ......
 10e90 95f83130 2a6a03f0 37038380 92f81032  ..10*j..7......2
 10ea0 43f00103 82f81032 b9f1000f 02d0a0f8  C......2........
 10eb0 10804482 b20703d5 0775a0f8 08804481  ..D......u....D.
 10ec0 730703d5 4775a0f8 0c80c481 90f800c0  s...Gu..........
 10ed0 9de700bf 90f83330 9a0762d5 70b5c569  ......30..b.p..i
 10ee0 82b00446 a5b313f0 400634d0 006aa268  ...F....@.4..j.h
 10ef0 90f845c4 013ae168 0cf1090c 41f1ff31  ..E..:.h....A..1
 10f00 5ffa8cfc ccf1200e 22fa0cf2 acf1200c  _..... ."..... .
 10f10 01fa0efe 21fa0cfc a16942ea 0e0242ea  ....!....iB...B.
 10f20 0c020132 19b3013d 6d1a0131 2a440191  ...2...=m..1*D..
 10f30 72bb63f0 7f032046 94ed007b 84f83330  r.c... F...{..30
 10f40 84ed027b 84ed047b fff792fd 02b070bd  ...{...{......p.
 10f50 012002b0 70bd8169 61b90195 c1612946  . ..p..ia....a)F
 10f60 206a00f0 41fec8b1 94f83330 e1e70195   j..A.....30....
 10f70 e161dde7 01aa006a 019600f0 f3fd0028  .a.....j.......(
 10f80 0cdb10d1 019d002d e9d194f8 3330d0e7  .......-....30..
 10f90 00230199 00f00cfd 0028e5d1 002002b0  .#.......(... ..
 10fa0 70bd0020 70474ff0 ff32a169 206a00f0  p.. pGO..2.i j..
 10fb0 fbfd0028 e6d1f1e7 2de9f043 90f83330  ...(....-..C..30
 10fc0 83b00446 9d0740f1 a1809146 1a070e46  ...F..@....F...F
 10fd0 00f19580 b9f1000f 00f02881 23684d46  ..........(.#hMF
 10fe0 206aa169 d0f83824 02ea0308 c8f30807   j.i..8$........
 10ff0 b8f1000f 40f09480 002900f0 d48094f8  ....@....)......
 11000 33305b06 40f1ec80 90f845c4 d4e90232  30[.@.....E....2
 11010 0cf1090c 013b5ffa 8cfc42f1 ff32ccf1  .....;_...B..2..
 11020 200e23fa 0cf3acf1 200c02fa 0efe22fa   .#..... .....".
 11030 0cfce269 43ea0e03 43ea0c03 13449942  ...iC...C....D.B
 11040 80f0d580 0131a161 90f84524 0239d0f8  .....1.a..E$.9..
 11050 2c349140 1944b5f5 007fc0f0 8a80b5f5  ,4.@.D..........
 11060 806fc0f0 a6800123 93406a0a a3eb0803  .o.....#.@j.....
 11070 934228bf 1346d0f8 1c228a42 4fea4328  .B(..F...".BO.C(
 11080 09d35f18 ba4206d2 002280f8 10224ff0  .._..B..."..."O.
 11090 ff32c0f8 1c22d0f8 14023246 0768bf6a  .2..."....2F.h.j
 110a0 b84798b3 43464644 a5eb0805 d4e90072  .G..CFFD.......r
 110b0 d4e90401 db1942f1 00029842 9141c4e9  ......B....B.A..
 110c0 003207d2 94f83310 61f07f01 c4e90432  .2....3.a......2
 110d0 84f83310 002d83d1 d4e90201 98429141  ..3..-.......B.A
 110e0 c0f09680 534b1b68 002b00f0 9d8094f8  ....SK.h.+......
 110f0 33304846 63f07f03 84f83330 0de0d0e9  30HFc.....30....
 11100 0423fef7 abff0028 7ff464af 94f83230  .#.....(..d...20
 11110 002043f0 010384f8 323003b0 bde8f083  . C.....20......
 11120 90f84524 02394fea 5828d0f8 2c349140  ..E$.9O.X(..,4.@
 11130 41441944 002f8ed0 c7f50078 012200f5  AD.D./.....x."..
 11140 0470a845 28bfa846 f9f730ff 0028ddd0  .p.E(..F..0..(..
 11150 38444744 42463146 0af0c2fb b7f5007f  8DGDBF1F........
 11160 206a9fd1 00f50470 f9f7f4fe 002899d1   j.....p.....(..
 11170 cce76268 63690092 01932269 23689342  ..bhci...."i#h.B
 11180 dde90023 9a4112d2 012200f5 0470f9f7  ...#.A..."...p..
 11190 0dff0028 bad02a46 31463844 a8460af0  ...(..*F1F8D.F..
 111a0 9ffb2b46 7fe7e169 49b3a161 4ce70522  ..+F...iI..aL.."
 111b0 ebe7d0f8 1c328b42 06d10023 80f81032  .....2.B...#...2
 111c0 4ff0ff33 c0f81c32 d0f81402 32460368  O..3...2....2F.h
 111d0 5b6a9847 002899d0 4ff40073 984662e7  [j.G.(..O..s.Fb.
 111e0 04f11802 00f0befc 00288fdb 04d12046  .........(.... F
 111f0 fff7cefa 002889d0 a169206a 24e72046  .....(...i j$. F
 11200 fff7c6fa 002881d0 a169206a e1611be7  .....(...i j.a..
 11210 94f83310 4846c4e9 023261f0 7f0384f8  ..3.HF...2a.....
 11220 333003b0 bde8f083 484676e7 d4e90032  30......HFv....2
 11230 52e700bf 949d0020 69b170b5 05460846  R...... i.p..F.F
 11240 0c460af0 fdfb2b68 02462146 28465b68  .F....+h.F!F(F[h
 11250 bde87040 18477047 8368c3f3 080383b1  ..p@.GpG.h......
 11260 002110b4 0269d154 0133b3f5 007ff9d1  .!...i.T.3......
 11270 0168d0e9 03321c68 1846636a 5df8044b  .h...2.h.Fcj]..K
 11280 18470120 704700bf 82680346 006940f2  .G. pG...h.F.i@.
 11290 ff1cc2f3 08028154 62455868 01eb7001  .......TbEXh..p.
 112a0 986800f1 0100c3e9 011001d0 01207047  .h........... pG
 112b0 d8681968 10b40468 4a1c646a 1a601a69  .h.h...hJ.dj.`.i
 112c0 23465df8 044b1847 38b58368 cab20d46  #F]..K.G8..h...F
 112d0 0169c3f3 080340f2 ff1c0446 ca546345  .i....@....F.TcE
 112e0 416802eb 71024260 826802f1 01028260  Ah..q.B`.h.....`
 112f0 05d0290a 2046bde8 3840fff7 c5bf0168  ..). F..8@.....h
 11300 c0684a1c 03685b6a 22602269 98470028  .hJ..h[j"`"i.G.(
 11310 efd138bd f8b50023 06460160 1d46c0e9  ..8....#.F.`.F..
 11320 0133a8b2 f9f7bafd a8420446 07d0c1b2  .3.......B.F....
 11330 3046fff7 a9ff0028 3bd10020 f8bd6c1c  0F.....(;.. ..l.
 11340 b4f5803f 04d12ae0 0134b4f5 803f04d0  ...?..*..4...?..
 11350 a0b2f9f7 a3fda042 f6d0671b b7f5007f  .......B..g.....
 11360 1dd34ff6 ff713046 fff7aeff 0028e4d0  ..O..q0F.....(..
 11370 b9b23046 fff7a8ff 0028ded0 2546b5f5  ..0F.....(..%F..
 11380 803fced1 3046bde8 f840fff7 65bfc5f3  .?..0F...@..e...
 11390 07213046 0135fff7 77ff0028 cdd0a542  .!0F.5..w..(...B
 113a0 e9b23046 ebd2fff7 6fff0028 efd10020  ..0F....o..(... 
 113b0 f8bdc4f3 07213046 fff766ff 0028bcd0  .....!0F..f..(..
 113c0 0135dce7 2de9f04f 1f4689b0 0b680d46  .5..-..O.F...h.F
 113d0 04901446 c1600261 0846db69 9847b0f5  ...F.`.a.F.i.G..
 113e0 801f0090 c0f0d880 00230122 009e0133  .........#."...3
 113f0 5200dbb2 01d09642 f9d81c2b 009640f2  R......B...+..@.
 11400 b780a3f1 0b080122 48fa02f1 c8f34708  ......."H.....G.
 11410 8a400291 07920133 01225b10 9a400692  .@.....3."[..@..
 11420 04229a40 03920222 02fa03f3 0193009a  .".@..."........
 11430 0021039b 2046029e 4ff0010a d31a4ff4  .!.. F..O.....O.
 11440 00724af6 552bf340 03fa06f9 0593019e  .rJ.U+.@........
 11450 08f004fb ff2384f8 bfa184f8 c0a1b144  .....#.........D
 11460 84f8c431 224684f8 c5310723 00212846  ...1"F...1.#.!(F
 11470 84f8c231 fe23c4f8 c66184f8 c3312b68  ...1.#...a...1+h
 11480 c4f8ca91 5b6aa4f8 feb19847 002863d0  ....[j.....G.(c.
 11490 4ff40072 00212046 08f0e0fa 009b84f8  O..r.! F........
 114a0 6d804ff0 00086366 f421059b 04f17800  m.O...cf.!....x.
 114b0 069ae365 20232664 23726372 a372eb23  ...e #&d#rcr.r.#
 114c0 a6654646 23707623 c4f84890 63709023  .eFF#pv#..H.cp.#
 114d0 84f86ea0 a3704523 e3705823 23714623  ..n..pE#.pX##qF#
 114e0 63714123 a3715423 e3710423 23664ff4  cqA#.qT#.q.##fO.
 114f0 8073a4f8 68300923 84f86c30 8023c4e9  .s..h0.#..l0.#..
 11500 142284f8 6f304ff4 c37208f0 a7faa4f8  ."..o0O..r......
 11510 feb1a8f1 6a03012b 06d9b8f1 700f03d0  ....j..+....p...
 11520 14f80830 03eb7606 08f10108 b8f5007f  ...0..v.........
 11530 efd12b68 2246ddf8 04902846 5b6a4946  ..+h"F....(F[jIF
 11540 984748b1 2b684946 22462846 5b6a0c31  .GH.+hIF"F(F[j.1
 11550 cdf80490 984740bb 2fb13b68 0f22b849  .....G@./.;h.".I
 11560 38465b68 98470026 304609b0 bde8f08f  8F[h.G.&0F......
 11570 1a2b4ff0 080800f2 a6814ff4 8043cdf8  .+O.......O..C..
 11580 08800193 4ff40043 03934ff4 80730793  ....O..C..O..s..
 11590 4ff40053 06934ae7 002fe4d0 3b681522  O..S..J../..;h."
 115a0 a8493846 5b689847 d7e74246 00212046  .I8F[h.G..BF.! F
 115b0 09f1010a 08f052fa 4af65523 09f10902  ......R.J.U#....
 115c0 04f2ff19 a4f8fe31 00239346 a04601e0  .......1.#.F.F..
 115d0 18f8013f c14503eb 7606f9d1 2b682246  ...?.E..v...+h"F
 115e0 51462846 5b6a9847 0028b5d0 2b682246  QF(F[j.G.(..+h"F
 115f0 0af10c01 28465b6a 98470028 acd00af1  ....(F[j.G.(....
 11600 01039b45 02d09a46 2378dfe7 4ff40072  ...E...F#x..O..r
 11610 00212046 9b4608f0 21fa0022 0af1030a  .! F.F..!.."....
 11620 11462346 01e013f8 011f9845 01eb7606  .F#F.......E..v.
 11630 f9d12b68 22465946 28465b6a 98470028  ..+h"FYF(F[j.G.(
 11640 8ad02b68 22460bf1 0c012846 5b6a9847  ..+h"F....(F[j.G
 11650 002881d0 0bf10101 8a456ad1 231f04f5  .(.......Ej.#...
 11660 fe7243f8 046f9a42 fbd12b68 22462846  .rC..o.B..+h"F(F
 11670 5b6a9847 00283ff4 6faf2b68 0bf10d01  [j.G.(?.o.+h....
 11680 22462846 5b6a9847 00283ff4 65af2fb1  "F(F[j.G.(?.e./.
 11690 3b680c22 6c493846 5b689847 069a0021  ;h."lI8F[h.G...!
 116a0 019b2046 00261344 4ff40072 9946059b  .. F.&.DO..r.F..
 116b0 4fea8308 08f0d2f9 23464ff0 ff3208f2  O.......#FO..2..
 116c0 0728f821 b7f1000b 4fea582a 03f8011b  .(.!....O.X*....
 116d0 4fea9838 c4f80120 18bf4ff0 010bda60  O..8... ..O....`
 116e0 5a609a60 c3f80f20 02e00136 b24523d0  Z`.`... ...6.E#.
 116f0 b6fbf8f3 08fb1363 43b9bbf1 000f05d0  .......cC.......
 11700 3b680122 51493846 5b689847 2b6809eb  ;h."QI8F[h.G+h..
 11710 06012246 28465b6a 98470028 3ff41caf  .."F(F[j.G.(?...
 11720 002ee2d1 31464ff4 00722046 08f096f9  ....1FO..r F....
 11730 dbe78b46 217874e7 002f34d0 3b680222  ...F!xt../4.;h."
 11740 43493846 5b689847 059e079a 0736f608  CI8F[h.G.....6..
 11750 06f2ff13 b2eb532f 4fea5329 fff4fdae  ......S/O.S)....
 11760 4ff40072 00212046 08f078f9 07232370  O..r.! F..x..##p
 11770 b9f1000f 00f08a80 4ff00008 08e0b8f1  ........O.......
 11780 000f01d1 84f80080 08f10108 c1457bd9  .............E{.
 11790 039a2846 2b6802eb 08012246 5b6a9847  ..(F+h...."F[j.G
 117a0 0028ecd1 d8e6059e 079a0736 f60806f2  .(.........6....
 117b0 ff13b2eb 532f4fea 5329fff4 d4ae4ff4  ....S/O.S)....O.
 117c0 00723946 204608f0 49f90723 2370b9f1  .r9F F..I..##p..
 117d0 000fd1d1 039b079a 04989918 fff79afd  ................
 117e0 00283ff4 c0ae029a 4ff40073 9340049a  .(?.....O..s.@..
 117f0 92689a42 3ff6b7ae 4ff00208 029b4ff4  .h.B?...O.....O.
 11800 00720021 08fa03f9 039b2046 994408f0  .r.!...... F.D..
 11810 25f98122 03230499 09f1ff39 84f82020  %..".#.....9..  
 11820 82222370 84f84020 c4e90d86 4a684ff0  ."#p..@ ....JhO.
 11830 01086365 62648b68 a3650023 e3650ee0  ..cebd.h.e.#.e..
 11840 5c180020 0c180020 5c170020 181b0020  \.. ... \.. ... 
 11850 38180020 079b9845 3bd208f1 01082b68  8.. ...E;.....+h
 11860 09eb0801 22462846 5b6a9847 06460028  ...."F(F[j.G.F.(
 11870 3ff472ae b8f1010f ecd14ff4 00720021  ?.r.......O..r.!
 11880 204608f0 ebf8e8e7 002fa3d0 3b681622   F......./..;h."
 11890 14493846 5b689847 039b079a 04989918  .I8F[h.G........
 118a0 fff738fd 00283ff4 58ae029a 4ff40073  ..8..(?.X...O..s
 118b0 9340049a 92689a42 3ff64fae 0a493846  .@...h.B?.O..I8F
 118c0 fff7bafc 98e74ff4 8072cdf8 08800792  ......O..r......
 118d0 a1e5002f 3ff448ae 04493846 fff7acfc  .../?.H..I8F....
 118e0 42e600bf 24180020 3c180020 4c180020  B...$.. <.. L.. 
 118f0 2de9f84f 07468a46 91460029 42d0a1f1  -..O.F.F.F.)B...
 11900 0208d7f8 30344345 42d908f0 07030125  ....04CEB......%
 11910 c8f3c80b 9d40edb2 46464446 d7f82c14  .....@..FFDF..,.
 11920 00223846 01eb1431 f9f740fb e8b10bf1  ."8F...1..@.....
 11930 ff3b8344 00f2ff10 1bf8011f 0ae04a45  .;.D..........JE
 11940 2bd0a045 10d0d7f8 3054a542 14d913f0  +..E....0T.B....
 11950 ff050cd0 01342942 4fea4503 a4eb0602  .....4)BO.E.....
 11960 edd0a045 2646eed1 0120bde8 f88f5845  ...E&F... ....XE
 11970 4ff00105 e0d101e0 00263446 01254ff0  O........&4F.%O.
 11980 000bcbe7 d0f82084 d7f83034 4345bcd8  ...... ...04CE..
 11990 4ff00008 0125c346 bee7baf1 000f04d1  O....%.F........
 119a0 b9f1010f 08bfc7f8 2064b01c bde8f88f  ........ d......
 119b0 2de9f843 8046881e 15461e46 8318d8f8  -..C.F...F.F....
 119c0 30249342 37d8cebb d8f82034 834288bf  0$.B7..... 4.B..
 119d0 c8f82004 00f00703 0124d8f8 2c74c0f3  .. ......$..,t..
 119e0 c8099c40 07eb1031 e4b20122 40468f18  ...@...1..."@F..
 119f0 f9f7dcfa f8b109f1 ff3e8644 00f2ff10  .........>.D....
 11a00 1ef801cf 1cea040f 8cea040c 4fea4404  ............O.D.
 11a10 14bf0122 0022b242 0dd0013d 8ef800c0  ...".".B...=....
 11a20 18d014f0 ff04edd1 7045a146 4ff00104  ........pE.FO...
 11a30 e6d13946 d9e70020 bde8f883 d8f82014  ..9F... ...... .
 11a40 8b42c7d9 8142c5d3 934228bf 0023c8f8  .B...B...B(..#..
 11a50 2034bfe7 0120bde8 f88300bf f8b5d0f8   4... ..........
 11a60 30340133 8b4201d2 0020f8bd 07460c46  04.3.B... ...F.F
 11a70 00f50476 002505e0 d7f83034 01350133  ...v.%....04.5.3
 11a80 a342f1d3 d7f82414 00223046 01ebd411  .B....$.."0F....
 11a90 f9f78cfa a4000028 e6d0c4f3 08040459  .......(.......Y
 11aa0 631ce9d1 681cf8bd 38b50c46 0b6890f8  c...h...8..F.h..
 11ab0 45c400f5 0470d0f8 2812023b 656803fa  E....p..(..;eh..
 11ac0 0cf32940 03eb5123 d0f81c12 1944f9f7  ..)@..Q#.....D..
 11ad0 6dfa18b1 6368c3f3 08031844 38bd00bf  m...ch.....D8...
 11ae0 2de9f843 0c46d0f8 38344968 0b401144  -..C.F..84Ih.@.D
 11af0 61601344 90f84514 01f10902 d2b2d340  a`.D..E........@
 11b00 2bb38046 5d1e00f5 047905e0 2368013d  +..F]....y..#h.=
 11b10 03f10103 23601ad3 267a002e f6d1d8f8  ....#`..&z......
 11b20 30343246 27684846 01339f42 12d8d8f8  042F'hHF.3.B....
 11b30 241401eb d711f9f7 39fabf00 50b1c7f3  $.......9...P...
 11b40 0807c359 5a1c09d0 013d2360 e4d20120  ...YZ....=#`... 
 11b50 bde8f883 4ff0ff30 bde8f883 3046bde8  ....O..0....0F..
 11b60 f88300bf 38b5d0f8 30340133 8b4202d2  ....8...04.3.B..
 11b70 4ff0ff30 38bd0c46 d0f82414 154600f5  O..08..F..$..F..
 11b80 04700022 01ebd411 f9f710fa 0028efd0  .p.".........(..
 11b90 a400c4f3 08040359 5a1c02d0 01202b60  .......YZ.... +`
 11ba0 38bd0020 38bd00bf 01291bd9 38b5d0f8  8.. 8....)..8...
 11bb0 30340c46 01338b42 01d20020 38bdd0f8  04.F.3.B... 8...
 11bc0 24141546 00f50470 012201eb d411f9f7  $..F...p."......
 11bd0 edf90346 0028f0d0 a4000120 c4f30804  ...F.(..... ....
 11be0 1d5138bd 00207047 d0f83034 01339942  .Q8.. pG..04.3.B
 11bf0 01d90020 70472de9 f04f0026 83b00546  ... pG-..O.&...F
 11c00 0c4600f5 04790f46 b046d5f8 24140022  .F...y.F.F..$.."
 11c10 48464fea d41b01eb d411f9f7 c7f990b1  HFO.............
 11c20 a300c3f3 0803c258 0193531c 16bf1646  .......X..S....F
 11c30 4ff0000a 4ff0010a 012c04d9 d5f83024  O...O....,....0$
 11c40 01329442 03d90020 03b0bde8 f08fd5f8  .2.B... ........
 11c50 24140122 48465944 f9f7a8f9 0028f2d0  $.."HFYD.....(..
 11c60 019b40f8 0380baf1 000f12d0 0134b442  ..@..........4.B
 11c70 08d00023 e21b3946 2846fff7 99fe0028  ...#..9F(F.....(
 11c80 e1d03746 d5f83034 01339e42 dbd83446  ..7F..04.3.B..4F
 11c90 bbe7621c 53463946 2846d21b 03b0bde8  ..b.SF9F(F......
 11ca0 f04ffff7 85be00bf 2de9f843 00250646  .O......-..C.%.F
 11cb0 d0f82c14 00f50478 2c460022 40464f1c  ..,....x,F."@FO.
 11cc0 f9f774f9 a8b100f1 ff3e04f5 8059d6f8  ..t......>...Y..
 11cd0 300405e0 79b90834 844209d2 4c4516d0  0...y..4.B..LE..
 11ce0 1ef8011f ff29f5d1 08340835 8442f5d3  .....)...4.5.B..
 11cf0 401bbde8 f8830822 01231942 4fea430c  @......".#.BO.C.
 11d00 18bf0135 013a5ffa 8cf3f6d1 e3e73946  ...5.:_.......9F
 11d10 d3e700bf f8b50023 4ff0ff36 00f50477  .......#O..6...w
 11d20 1546c0f8 40140446 41601a46 c0f81412  .F..@..FA`.F....
 11d30 194680f8 44340370 c66080f8 1032c0f8  .F..D4.p.`...2..
 11d40 1c623846 f9f732f9 042d0dd8 064658b1  .b8F..2..-...FX.
 11d50 bdb16b1e 00eb0313 93f8be21 12f07f02  ..k........!....
 11d60 02d193f8 c2310bb9 0020f8bd 00eb0516  .....1... ......
 11d70 3846d6f8 b6512946 f9f718f9 06460028  8F...Q)F.....F.(
 11d80 f2d00522 1a49f01c 05f042fb 0028ebd1  ...".I....B..(..
 11d90 96f86c30 092be7d1 336d0146 2b44c4f8  ..l0.+..3m.F+D..
 11da0 2434736d c4f82834 b36d2b44 0125c4f8  $4sm..(4.m+D.%..
 11db0 2c34f36d c4f83034 336ec4f8 343496f8  ,4.m..043n..44..
 11dc0 6d20c4f8 20042046 02f10903 84f84524  m .. . F......E$
 11dd0 05fa03f3 5a1ec4f8 3c34c4f8 38242a46  ....Z...<4..8$*F
 11de0 fff786fd 40232846 84f84434 f8bd00bf  ....@#(F..D4....
 11df0 6c180020 10b50446 d0f83414 fff72efe  l.. ...F..4.....
 11e00 94f84534 0933dbb2 984010bd ff220270  ..E4.3...@...".p
 11e10 42707047 90f86120 90f86030 4ab1012a  BppG..a ..`0J..*
 11e20 4ad19fed 327a43b1 012b4ad1 dfed307a  J...2zC..+J...0z
 11e30 05e09fed 307a002b f6d1dfed 2f7ab0f9  ....0z.+..../z..
 11e40 543004ee 103ab0f9 563004ee 903ab0f9  T0...:..V0...:..
 11e50 5830b8ee c44a05ee 103ab0f9 4c30f8ee  X0...J...:..L0..
 11e60 e44a05ee 903ab0f9 4e30b8ee c55a06ee  .J...:..N0...Z..
 11e70 103ab0f9 5030f8ee e55a06ee 903ab8ee  .:..P0...Z...:..
 11e80 c66ac4ee 073af8ee e66a84ee 874ac5ee  .j...:...j...J..
 11e90 074a85ee a75ac0ed 053ac6ee 275a80ed  .J...Z...:..'Z..
 11ea0 064a86ee a77ac0ed 074a80ed 025ac0ed  .J...z...J...Z..
 11eb0 035a80ed 047a7047 022a07d1 9fed0f7a  .Z...zpG.*.....z
 11ec0 b1e7022b 0ad1dfed 0e7ab8e7 b7ee007a  ...+.....z.....z
 11ed0 dfed0c7a 032a07fe 877aa4e7 f7ee007a  ...z.*...z.....z
 11ee0 dfed096a 032b46fe a77aa8e7 33330342  ...j.+F..z..33.B
 11ef0 00008045 00008342 00000046 33338341  ...E...B...F33.A
 11f00 00000045 33330341 00008044 034b10b5  ...E33.A...D.K..
 11f10 04460360 00f014f9 204610bd a0220020  .F.`.... F...". 
 11f20 054b10b5 04460360 00f00af9 64212046  .K...F.`....d! F
 11f30 03f026fb 204610bd a0220020 70b50446  ..&. F...". p..F
 11f40 c06a82b0 0d461e46 20b11021 019203f0  .j...F.F ..!....
 11f50 17fb019a 10200192 03f010fb 29460546  ..... ......)F.F
 11f60 019af8f7 9ffa0121 2846e562 f8f7a4fa  .......!(F.b....
 11f70 054630b1 31462046 02b0bde8 704000f0  .F0.1F F....p@..
 11f80 f9bb1021 044803f0 0ffa0448 03f052fb  ...!.H.....H..R.
 11f90 284602b0 70bd00bf 74180020 10420020  (F..p...t.. .B. 
 11fa0 10b50446 00f0c0f8 014b2046 236010bd  ...F.....K F#`..
 11fb0 a0220020 00207047 704700bf 704700bf  .". . pGpG..pG..
 11fc0 704700bf 704700bf 704700bf 10b50446  pG..pG..pG.....F
 11fd0 102103f0 d5fa2046 10bd00bf 10b50446  .!.... F.......F
 11fe0 102103f0 cdfa2046 10bd00bf 10b50446  .!.... F.......F
 11ff0 102103f0 c5fa2046 10bd00bf 10b50446  .!.... F.......F
 12000 102103f0 bdfa2046 10bd00bf 38b50c46  .!.... F....8..F
 12010 20220021 054604f1 080007f0 1ffd0b22   ".!.F........."
 12020 07492046 05f03afa a8680123 0549064a  .I F..:..h.#.I.J
 12030 6361e161 a261c4e9 0330044b 236238bd  ca.a.a...0.K#b8.
 12040 ac180020 891993c3 89199343 23dbf93d  ... .......C#..=
 12050 38b50c46 20220021 054604f1 080007f0  8..F ".!.F......
 12060 fdfc0b22 08492046 05f018fa a8680122  ...".I F.....h."
 12070 04230649 6361064b e1612362 c4e90320  .#.Ica.K.a#b... 
 12080 044aa261 38bd00bf 88180020 b89e8bc2  .J.a8...... ....
 12090 7b138f34 b89e8b42 38b50c46 20220021  {..4...B8..F ".!
 120a0 054604f1 080007f0 d9fc0b22 08492046  .F.........".I F
 120b0 05f0f4f9 a8680122 02230649 6361064b  .....h.".#.Ica.K
 120c0 e1612362 c4e90320 044aa261 38bd00bf  .a#b... .J.a8...
 120d0 a0180020 002099c5 daac2a3f 00209945  ... . ....*?. .E
 120e0 38b50c46 20220021 054604f1 080007f0  8..F ".!.F......
 120f0 b5fc0b22 08492046 05f0d0f9 a8680122  ...".I F.....h."
 12100 0d230649 6361064b e1612362 c4e90320  .#.Ica.K.a#b... 
 12110 044aa261 38bd00bf 94180020 000020c2  .J.a8...... .. .
 12120 1e4b443b 0000aa42 00220449 c0e90b22  .KD;...B.".I..."
 12130 0160c0e9 0d22c0e9 0f227047 f8210020  .`..."..."pG.!. 
 12140 10b50c4b 0446406b 236010b1 03685b68  ...K.F@k#`...h[h
 12150 9847a06b 10b10368 5b689847 e06b10b1  .G.k...h[h.G.k..
 12160 03685b68 9847206c 10b10368 5b689847  .h[h.G l...h[h.G
 12170 204610bd f8210020 30b50023 8db00124   F...!. 0..#...$
 12180 7f220546 cde90234 cde90024 d0e90b12  .".F...4...$....
 12190 06a8f8f7 99fc0023 06a81a46 1946f8f7  .......#...F.F..
 121a0 f1fc0023 06220394 06a80092 cde90143  ...#.".........C
 121b0 d5e90b12 f8f788fc 07232246 06a904a8  .........#"F....
 121c0 f8f77efd 214604a8 f8f78cfd 142004f0  ..~.!F....... ..
 121d0 21fb01e0 04f01efb 04a8f8f7 75fd0346  !...........u..F
 121e0 0a20002b f6d13220 04f014fb 0db030bd  . .+..2 ......0.
 121f0 30b50023 97b00125 7f220446 cde90235  0..#...%.".F...5
 12200 cde90025 d0e90b12 10a8f8f7 5dfc0023  ...%........]..#
 12210 10a81a46 1946f8f7 b5fc0023 03952d22  ...F.F.....#..-"
 12220 17250aa8 0092cde9 0153d4e9 0b12f8f7  .%.......S......
 12230 4bfc2a46 04a90aa8 f8f7d0fc bdf81c30  K.*F...........0
 12240 bdf81220 5bbabdf8 101052ba bdf81f00  ... [.....R.....
 12250 9bb249ba a4f84e20 bdf81620 07ee903a  ..I...N ... ...:
 12260 a4f84c10 53babdf8 1820bdf8 1410f8ee  ..L.S.... ......
 12270 e77aa4f8 543052ba bdf81a30 49baa4f8  .z..T0R....0I...
 12280 56205bba 154aa4f8 5a00a4f8 58302368  V [..J..Z...X0#h
 12290 bdf82100 1b68a4f8 50109342 bdf82310  ..!..h..P..B..#.
 122a0 c4ed017a a4f85c00 a4f85e10 13d10025  ...z..\...^....%
 122b0 01237f22 10a8cde9 0253cde9 00232b46  .#.".....S...#+F
 122c0 d4e90b12 f8f700fc 2a462946 10a8f8f7  ........*F)F....
 122d0 59fc17b0 30bd2046 9847e8e7 b91f0100  Y...0. F.G......
 122e0 2de9f047 0e461f46 494b0446 1546ddf8  -..G.F.FIK.F.F..
 122f0 2080d3f8 00a0fff7 7bff2022 0021301d   .......{. ".!0.
 12300 4ff00109 07f0aafb d4ed027a 9fed417a  O..........z..Az
 12310 2022b4f8 44300021 67ee877a 281d7360   "..D0.!g..z(.s`
 12320 c6f810a0 c6ed057a d4ed037a 67ee877a  .......z...zg..z
 12330 c6ed067a d4ed047a c6f80090 67ee877a  ...z...z....g..z
 12340 c6f80890 c6ed077a 07f088fb d4ed057a  .......z.......z
 12350 9fed317a 2022b4f8 46300021 67ee877a  ..1z "..F0.!g..z
 12360 c5f80090 6b600423 c5f810a0 c5ed057a  ....k`.#.......z
 12370 f818d4ed 067a67ee 877ac5ed 067ad4ed  .....zg..z...z..
 12380 077aab60 67ee877a c5ed077a 07f066fb  .z.`g..z...z..f.
 12390 94ed016a b3ee055b b4f84a30 b7eec66a  ...j...[..J0...j
 123a0 c7f810a0 7b602423 9fed174b 3b600d23  ....{`$#...K;`.#
 123b0 86ee047b bb6037ee 057bb7ee c77b87ed  ...{.`7..{...{..
 123c0 057ab8f1 000f19d0 20220021 08f10400  .z...... ".!....
 123d0 07f044fb 236ab4f8 4820c8f8 1430636a  ..D.#j..H ...0cj
 123e0 c8f80420 0222c8f8 1830a36a c8f810a0  ... ."...0.j....
 123f0 c8f80090 c8f80820 c8f81c30 0120bde8  ....... ...0. ..
 12400 f08700bf aff30080 52b81e85 ebdd7440  ........R.....t@
 12410 94b30020 0ae81c41 35fa8e3c 70b50546  ... ...A5..<p..F
 12420 0c46c068 fff7e4fe ed68114b 20220021  .F.h.....h.K ".!
 12430 201d1e68 07f012fb d5ed027a 01209fed   ..h.......z. ..
 12440 0d7ab5f8 443067ee 877a2661 a060c4ed  .z..D0g..z&a.`..
 12450 057ad5ed 037a67ee 877ac4e9 0003c4ed  .z...zg..z......
 12460 067ad5ed 047a67ee 877ac4ed 077a70bd  .z...zg..z...zp.
 12470 94b30020 0ae81c41 70b50546 0c46c068  ... ...Ap..F.F.h
 12480 fff7b6fe ed68124b 20220021 201d1e68  .....h.K ".! ..h
 12490 07f0e4fa d5ed057a 01209fed 0e7ab5f8  .......z. ...z..
 124a0 463067ee 877a2661 63600423 2060c4ed  F0g..z&ac`.# `..
 124b0 057ad5ed 067aa360 67ee877a c4ed067a  .z...z.`g..z...z
 124c0 d5ed077a 67ee877a c4ed077a 70bd00bf  ...zg..z...zp...
 124d0 94b30020 35fa8e3c 70b50546 0c46c068  ... 5..<p..F.F.h
 124e0 fff786fe ed680b4b 20220021 201d1e68  .....h.K ".! ..h
 124f0 07f0b4fa 2b6a0120 b5f84820 63616b6a  ....+j. ..H cakj
 12500 6260a361 ab6a2661 e3610223 2060a360  b`.a.j&a.a.# `.`
 12510 70bd00bf 94b30020 70b50546 0c46c068  p...... p..F.F.h
 12520 fff766fe ed68124b 20220021 201d1e68  ..f..h.K ".! ..h
 12530 07f094fa 95ed016a b3ee055b b5f84a10  .......j...[..J.
 12540 2422b7ee c66a0d23 01206160 26612260  $"...j.#. a`&a"`
 12550 a3609fed 054b86ee 047b37ee 057bb7ee  .`...K...{7..{..
 12560 c77b84ed 057a70bd 52b81e85 ebdd7440  .{...zp.R.....t@
 12570 94b30020 2de9f041 002592b0 01264ff0  ... -..A.%...&O.
 12580 7f080446 0f462b46 0196cdf8 0080cde9  ...F.F+F........
 12590 0256d0e9 0b120ca8 f8f796fa 2a462021  .V..........*F !
 125a0 0ca8f8f7 effa1423 019606a8 00932b46  .......#......+F
 125b0 cde90256 d4e90b12 f8f786fa 334606a9  ...V........3F..
 125c0 022204a8 f8f77cfb 394604a8 f8f78afb  ."....|.9F......
 125d0 84f86070 2b460196 cdf80080 0ca8cde9  ..`p+F..........
 125e0 0256d4e9 0b12f8f7 6ffa2a46 29460ca8  .V......o.*F)F..
 125f0 f8f7c8fa 12b0bde8 f08100bf 2de9f041  ............-..A
 12600 002592b0 01264ff0 7f080446 0f462b46  .%...&O....F.F+F
 12610 0196cdf8 0080cde9 0256d0e9 0b120ca8  .........V......
 12620 f8f752fa 2a462021 0ca8f8f7 abfa2b46  ..R.*F !......+F
 12630 06a8cde9 0256cde9 0066d4e9 0b12f8f7  .....V...f......
 12640 43fa3346 06a90222 04a8f8f7 39fb3946  C.3F..."....9.9F
 12650 04a8f8f7 47fb84f8 61702b46 0196cdf8  ....G...ap+F....
 12660 00800ca8 cde90256 d4e90b12 f8f72cfa  .......V......,.
 12670 2a462946 0ca8f8f7 85fa12b0 bde8f081  *F)F............
 12680 2de9f041 002490b0 01264ff0 7f080546  -..A.$...&O....F
 12690 23460f46 0196cdf8 0080cde9 0246d0e9  #F.F.........F..
 126a0 0b120aa8 f8f710fa 22462021 0aa8f8f7  ........"F !....
 126b0 69fa1023 022204a8 cde90032 cde90266  i..#.".....2...f
 126c0 2346d5e9 0b12f8f7 fff92246 394604a8  #F........"F9F..
 126d0 f8f758fa 23460196 0aa8cdf8 0080cde9  ..X.#F..........
 126e0 0246d5e9 0b12f8f7 eff92246 21460aa8  .F........"F!F..
 126f0 f8f748fa 10b0bde8 f08100bf 2de9f041  ..H.........-..A
 12700 002490b0 01264ff0 7f080546 23460f46  .$...&O....F#F.F
 12710 0196cdf8 0080cde9 0246d0e9 0b120aa8  .........F......
 12720 f8f7d2f9 22462021 0aa8f8f7 2bfa2346  ...."F !....+.#F
 12730 04a8cde9 0246cde9 0046d5e9 0b12f8f7  .....F...F......
 12740 c3f92246 394604a8 f8f71cfa 23460196  .."F9F......#F..
 12750 0aa8cdf8 0080cde9 0246d5e9 0b12f8f7  .........F......
 12760 b3f92246 21460aa8 f8f70cfa 10b0bde8  .."F!F..........
 12770 f08100bf f0b50025 93b00127 04462b46  .......%...'.F+F
 12780 0e46cde9 0257cde9 0057d0e9 0b1206a8  .F...W...W......
 12790 f8f79af9 7f230397 0ca80093 2b460197  .....#......+F..
 127a0 0295d4e9 0b12f8f7 8ff92a46 29460ca8  ..........*F)F..
 127b0 f8f7e8f9 06a8f8f7 61fac0b2 e12804d0  ........a....(..
 127c0 ea2802d0 284613b0 f0bd0125 b1b20627  .(..(F.....%...'
 127d0 00264b19 a4f84410 2046a4f8 46308b1c  .&K...D. F..F0..
 127e0 0331a4f8 4830a4f8 4a10fff7 c5fc3346  .1..H0..J.....3F
 127f0 0ca8cde9 0265cde9 0075d4e9 0b12f8f7  .....e...u......
 12800 63f93b46 2a460ca9 04a8f8f7 59fa3146  c.;F*F......Y.1F
 12810 04a8f8f7 67fa2046 0321fff7 effe2046  ....g. F.!.... F
 12820 0321fff7 a7fe2046 0a21fff7 67ff1421  .!.... F.!..g..!
 12830 2046fff7 25ff1020 02f0a0fe 17490346   F..%.. .....I.F
 12840 40f20d22 01608260 20641020 dc6002f0  @..".`.` d. .`..
 12850 95fe1349 034640f2 0a220160 82606063  ...I.F@..".`.``c
 12860 1020dc60 02f08afe 0e490346 40f20b22  . .`.....I.F@.."
 12870 01608260 a0631020 dc6002f0 7ffe0a49  .`.`.c. .`.....I
 12880 03464ff4 03720160 8260e063 1420dc60  .FO..r.`.`.c. .`
 12890 03f0c0ff 284613b0 f0bd00bf d4220020  ....(F.......". 
 128a0 0c230020 b8220020 f0220020 90f8a230  .#. .". .". ...0
 128b0 90f8a320 9a4202d9 1844807e 70474ff0  ... .B...D.~pGO.
 128c0 ff307047 704700bf 0346b0f8 300178b1  .0pGpG...F..0.x.
 128d0 93f82f21 882a03d9 01220020 5a607047  ../!.*...". Z`pG
 128e0 02f1010c 01201a44 83f82fc1 82f8a510  ..... .D../.....
 128f0 704700bf 38b5b0f8 30410cb9 204638bd  pG..8...0A.. F8.
 12900 90f82f31 0546c3f1 8904a242 0dd81446  ../1.F.....B...F
 12910 05f1a500 22461844 08f0e2ff 95f82f31  ...."F.D....../1
 12920 20462344 85f82f31 38bd0122 4260efe7   F#D../18.."B`..
 12930 38b50025 13464ff4 7a720446 c0e90152  8..%.FO.zr.F...R
 12940 15488822 21612946 206004f1 1a006361  .H."!a)F `....ca
 12950 25732576 657607f0 81f88922 294604f1  %s%vev.....")F..
 12960 a50084f8 a25084f8 a35084f8 a45007f0  .....P...P...P..
 12970 75f82046 84f82e51 84f82f51 84f83051  u. F...Q../Q..0Q
 12980 84f83151 84f83251 84f83351 84f83451  ..1Q..2Q..3Q..4Q
 12990 c4e94e55 38bd00bf a4250020 704700bf  ..NU8....%. pG..
 129a0 2de9f04f d0f814a0 1524017e 8146437e  -..O.....$.~.FC~
 129b0 83b00aeb 0111384a 0aeb0313 374f097a  ......8J....7O.z
 129c0 93f82830 02eb0115 0901e868 52f80180  ..(0.......hR...
 129d0 02eb0311 d5f804b0 1b01ce68 d558cbf8  ...........h.X..
 129e0 0040c8f8 8400d8f8 04304a68 03432c49  .@.......0Jh.C,I
 129f0 0192c8f8 04301460 c5f88460 6b683343  .....0.`...`kh3C
 12a00 6b60284b 4c683a68 a3fb0232 920c02eb  k`(KLh:h...2....
 12a10 82025200 4b681b1b 9a42fbd8 4ff0090c  ..R.Kh...B..O...
 12a20 1f4adff8 80e0d8f8 08300342 02d0ab68  .J.......0.B...h
 12a30 33422fd1 c5f88860 54683968 aefb0131  3B/....`Th9h...1
 12a40 890c01eb 81015368 1b1b9942 fbd8c5f8  ......Sh...B....
 12a50 84605468 3968aefb 0131890c 01eb8101  .`Th9h...1......
 12a60 53681b1b 9942fbd8 bcf1010c dbd16046  Sh...B........`F
 12a70 99f81830 019a0aeb 0313db68 cbf80030  ...0.......h...0
 12a80 99f81930 0aeb031a daf82c30 136003b0  ...0......,0.`..
 12a90 bde8f08f 0120ebe7 c82b0020 0c420020  ..... ...+. .B. 
 12aa0 001000e0 83de1b43 0e4a10b5 11680469  .......C.J...h.i
 12ab0 05e0db01 07d41368 5b1a102b 08d86369  .......h[..+..ci
 12ac0 13f0007f f5d14ff4 fe430120 636110bd  ......O..C. ca..
 12ad0 fff766ff 0028fad0 4ff4fe43 01206361  ..f..(..O..C. ca
 12ae0 f5e700bf 94b30020 2de9f047 90f82fa1  ....... -..G../.
 12af0 baf1000f 58d08146 8846fff7 d5ff0028  ....X..F.F.....(
 12b00 52d0374e 00243768 16e06b69 1a0544d4  R.7N.$7h..ki..D.
 12b10 580558d4 99044cd4 3268d21b 322a48d8  X.X...L.2h..2*H.
 12b20 544507d9 ea6d5207 04d19b05 55d4b8f1  TE...mR.....U...
 12b30 000f52d0 02f0a0f8 5445d9f8 1050e4d8  ..R.....TE...P..
 12b40 ea6d5107 02f00703 dfd413e0 99f8a520  .mQ............ 
 12b50 01330224 42f48062 042b2a66 27d08a45  .3.$B..b.+*f'..E
 12b60 03f10103 09eb0102 0ed992f8 a520042b  ............. .+
 12b70 2a66cad0 0121002c e8d02146 01330134  *f...!.,..!F.3.4
 12b80 8a4509eb 0102f0d8 b8f1000f bdd04ff4  .E............O.
 12b90 00732b66 6b691a05 bad52b69 042043f4  .s+fki....+i. C.
 12ba0 40732b61 bde8f087 0420bde8 f0870124  @s+a..... .....$
 12bb0 abe72b69 4ff40072 042043f4 40732b61  ..+iO..r. C.@s+a
 12bc0 2a66bde8 f0872b69 4ff40072 022043f4  *f....+iO..r. C.
 12bd0 40732b61 2a66bde8 f0870020 e5e700bf  @s+a*f..... ....
 12be0 94b30020 2de9f047 82460c46 15461f46  ... -..G.F.F.F.F
 12bf0 fff75aff 002800f0 8f806300 0021012d  ..Z..(....c..!.-
 12c00 dff81c81 dbb240f2 014638bf 01250c46  ......@..F8..%.F
 12c10 1e43d8f8 0090aaf8 a2101ee0 9af8a330  .C.............0
 12c20 872b3dd9 51690b05 57d411f4 105f67d1  .+=.Qi..W...._g.
 12c30 d8f80030 a3eb0903 322b61d8 9af8a330  ...0....2+a....0
 12c40 ab4208d3 022c06d9 d36d5807 03d18b05  .B...,...mX.....
 12c50 47d4002f 45d002f0 0ff8022c daf81020  G../E......,... 
 12c60 dcd8d36d 590703f0 0700d7d4 21466c1e  ...mY.......!Fl.
 12c70 084444f4 807441b9 16660131 431a032b  .DD..tA..f.1C..+
 12c80 01d80229 f7d90c46 c8e70129 31d017b1  ...)...F...)1...
 12c90 4ff40073 13669af8 a3300324 872bc1d8  O..s.f...0.$.+..
 12ca0 d16d11f4 e02fc1f3 024ebbd0 591c9e44  .m.../...N..Y..D
 12cb0 1933c9b2 5ffa8efe 5afa83f3 d2f870c0  .3.._...Z.....p.
 12cc0 481c7145 8af8a310 c1b203f8 01cfa9d0  H.qE............
 12cd0 8929f3d1 51690b05 a7d51369 43f44073  .)..Qi.....iC.@s
 12ce0 1361d36d 13f4e02f 05d19af8 a300bde8  .a.m.../........
 12cf0 f0871466 c1e71369 43f40073 1361f4e7  ...f...iC..s.a..
 12d00 13694ff4 007143f4 40731361 1166d36d  .iO..qC.@s.a.f.m
 12d10 13f4e02f e9d0eee7 0420bde8 f08700bf  .../..... ......
 12d20 94b30020 036970b5 d3f81451 044615f4  ... .ip....Q.F..
 12d30 706201d0 c3f81421 ae070bd5 d3f87011  pb.....!......p.
 12d40 08043ed5 00220120 84f8a220 224484f8  ..>..". ... "D..
 12d50 a3009176 ea0710d5 94f83061 f6b194f8  ...v......0a....
 12d60 2e6194f8 2f21b242 27d9721c 264484f8  .a../!.B'.r.&D..
 12d70 2e2196f8 a520c3f8 6021ab05 0dd594f8  .!... ..`!......
 12d80 a30018b1 d4f83c31 03b19847 0023a4f8  ......<1...G.#..
 12d90 a230a4f8 2e3184f8 303170bd d4f83821  .0...1..01p...8!
 12da0 0ab19047 23690022 84f82e21 012284f8  ...G#i."...!."..
 12db0 302194f8 2f21b242 d7d80022 c3f86021  0!../!.B..."..`!
 12dc0 dbe794f8 a320872a c4d8501c c0b2bde7  ..... .*..P.....
 12dd0 0148fff7 a7bf00bf 40990020 0148fff7  .H......@.. .H..
 12de0 a1bf00bf 809a0020 0148fff7 9bbf00bf  ....... .H......
 12df0 c09b0020 08b5084a 08490948 fff798fd  ... ...J.I.H....
 12e00 084a0949 0948fff7 93fd094a 09490a48  .J.I.H.....J.I.H
 12e10 fff78efd 08bd00bf f82f0060 00003f40  ........./.`..?@
 12e20 40990020 a82f0060 00803f40 809a0020  @.. ./.`..?@... 
 12e30 582f0060 00c03f40 c09b0020 30b472b6  X/.`..?@... 0.r.
 12e40 21b90368 13b10279 0f2a3bd9 244c2188  !..h...y.*;.$L!.
 12e50 002341fa 03f212f0 010208d0 0133102b  .#A..........3.+
 12e60 f7d162b6 00220371 026030bc 70474ff0  ..b..".q.`0.pGO.
 12e70 010c0cfa 03fc41ea 0c012180 62b61949  ......A...!.b..I
 12e80 5ffa83fc 184c1944 80f804c0 4b01e16f  _....L.D....K..o
 12e90 41f0c001 e16740f2 82441449 0c6081f8  A....g@..D.I.`..
 12ea0 1ac081f8 1ec081f8 18c081f8 1fc00360  ...............`
 12eb0 30bcc3e9 0022c3e9 0222c3e9 0422c3e9  0...."..."..."..
 12ec0 06227047 064c2188 41fa02f5 ed07bfd5  ."pG.L!.A.......
 12ed0 044d1544 b3eb451f bad162b6 c5e700bf  .M.D..E...b.....
 12ee0 e2b30020 80740002 00c00f40 00800e40  ... .t.....@...@
 12ef0 03790f2b 11d8094a 937672b6 08490122  .y.+...J.vr..I."
 12f00 90f804c0 0b8802fa 0cf223ea 02030b80  ..........#.....
 12f10 62b61022 00230271 03607047 00800e40  b..".#.q.`pG...@
 12f20 e2b30020 836bf0b4 1bb15368 43f40043  ... .k....ShC..C
 12f30 536072b6 446b3cb3 1a4b2260 d3f8b041  S`r.Dk<..K"`...A
 12f40 0c421dd1 184e7768 04e07468 e41bb4f5  .B...Nwh..th....
 12f50 166f0bd2 d3f84041 44f48044 c3f84041  .o....@AD..D..@A
 12f60 d3f8b851 d3f84041 6404eed5 0d4007d1  ...Q..@Ad....@..
 12f70 0c4cc0e9 0225d4f8 b0310b43 c4f8b031  .L...%...1.C...1
 12f80 426362b6 f0bc7047 064dc0e9 0224d5f8  Bcb...pG.M...$..
 12f90 b0310b43 c5f8b031 02634263 62b6f0bc  .1.C...1.cBcb...
 12fa0 704700bf 00002e40 001000e0 70b5056b  pG.....@....p..k
 12fb0 9db10646 2a460024 03e01268 0134012a  ...F*F.$...h.4.*
 12fc0 0cd05368 13f08003 f7d03263 2cb12846  ..Sh......2c,.(F
 12fd0 b36b2d68 9847013c f9d170bd c6e90c33  .k-h.G.<..p....3
 12fe0 f4e700bf 30b4d9b9 1f4c204b 0021204a  ....0....L K.! J
 12ff0 01254ff0 01109960 1d60c4e9 02318024  .%O....`.`...1.$
 13000 5c60c2f8 bc01d2f8 b0311a48 2b43c2f8  \`.......1.H+C..
 13010 b0310160 d2f8b031 002bfbd1 30bc7047  .1.`...1.+..0.pG
 13020 0904154b 104c0125 41f08001 9860104a  ...K.L.%A....`.J
 13030 596000f5 80511d60 d96000f5 0051a364  Y`...Q.`.`...Q.d
 13040 196100f5 405100f5 80405961 00219861  .a..@Q...@Ya.!.a
 13050 e164d2f8 b03143f4 8033c2f8 b031d2f8  .d...1C..3...1..
 13060 b031002b fbd1c0e7 00000020 208f0020  .1.+.......  .. 
 13070 00002e40 f4a50020 408f0020 08490122  ...@... @.. .I."
 13080 0b7802fa 00f023ea 00000870 30b9054a  .x....#....p0..J
 13090 d2f84831 23f08003 c2f84831 704700bf  ..H1#.....H1pG..
 130a0 09b40020 00002e40 2de9f04f 994c83b0  ... ...@-..O.L..
 130b0 d4f84461 f107c4f8 44616ad5 d4f8ac31  ..Da....Daj....1
 130c0 002b61d0 dff87882 934ddff8 6cb208f5  .+a...x..M..l...
 130d0 805adff8 7092914f c4f8ac31 d5e90a20  .Z..p..O...1... 
 130e0 d4f84031 43f40053 c4f84031 d4f84031  ..@1C..S..@1..@1
 130f0 9b04f5d5 d4f84031 23f40053 c4f84031  ......@1#..S..@1
 13100 4ff00113 c4f8b431 d4f8b431 13f00113  O......1...1....
 13110 fad191b2 40f2816c cbf80030 614500f2  ....@..l...0aE..
 13120 d480b1f5 d06f80f0 6681b1f5 817f00f0  .....o..f.......
 13130 948140f2 a68040f2 023c6145 00f0b781  ..@...@..<aE....
 13140 b1f5a06f 40f0bc80 7549eb64 8b600123  ...o@...uI.d.`.#
 13150 a9640b60 80234b60 4ff00113 c4f8bc31  .d.`.#K`O......1
 13160 d4f8b031 43f48033 c4f8b031 d4f8b031  ...1C..3...1...1
 13170 002bfbd1 130c5b06 43f08073 c4f85431  .+....[.C..s..T1
 13180 d4f8ac31 002ba7d1 624bd3f8 bc71002f  ...1.+..bK...q./
 13190 45d17206 16d55f4b d3f8ac21 c3f8ac21  E.r..._K...!...!
 131a0 d3f8bc21 c3f8bc21 d3f8b041 002cfbd1  ...!...!...A.,..
 131b0 4ff0ff32 c3f8b421 d3f88431 01f076ff  O..2...!...1..v.
 131c0 584b1c60 f40103d5 574b1b68 03b19847  XK.`....WK.h...G
 131d0 b00103d5 554b1b68 03b19847 710708d5  ....UK.h...Gq...
 131e0 4c4bd3f8 843113f4 007315d0 504b0122  LK...1...s..PK."
 131f0 1a70484b d3f84831 1a060ad5 330608d5  .pHK..H1....3...
 13200 4c4a1378 2bb1013b dbb21370 002b00f0  LJ.x+..;...p.+..
 13210 5c8203b0 bde8f08f 454a1370 e9e74649  \.......EJ.p..FI
 13220 c3f8bc71 08680742 40f07481 3d4b1b68  ...q.h.B@.t.=K.h
 13230 1f40aed0 5fea1748 10d0374d 4ff00109  .@.._..H..7MO...
 13240 98faa8f4 b4fa84f4 05ebc410 09fa04f4  ................
 13250 4030fff7 abfe38ea 0408f1d1 bfb2002f  @0....8......../
 13260 97d02d4d 4ff00108 97faa7f4 b4fa84f4  ..-MO...........
 13270 05ebc410 08fa04f4 fff798fe a743f3d1  .............C..
 13280 87e78029 00f0b180 822919d1 83b210f0  ...).....)......
 13290 780015d1 03f07f02 57f82210 274a1080  x.......W.".'J..
 132a0 180600f1 0282cb07 01d50123 13700221  ...........#.p.!
 132b0 2248fff7 97fe63e7 010c0729 00f05b81  "H....c....)..[.
 132c0 4ff00113 c4f8c031 5ae742f2 210c6145  O......1Z.B.!.aE
 132d0 f2d039d9 42f22123 99426fd0 42f22133  ..9.B.!#.Bo.B.!3
 132e0 9942edd1 0e4b0022 9a60ea64 0122ab64  .B...K.".`.d.".d
 132f0 1a608022 5a604ff0 0113c4f8 bc31d4f8  .`."Z`O......1..
 13300 b03143f4 8033c4f8 b031d4f8 b031002b  .1C..3...1...1.+
 13310 fbd135e7 00002e40 00000020 c0012e40  ..5....@... ...@
 13320 208f0020 f8a50020 d0b30020 d4b30020   .. ... ... ... 
 13330 14b40020 15b40020 f4a50020 fcb10020  ... ... ... ... 
 13340 eca50020 408f0020 b1f5086f 45d0b1f5  ... @.. ...oE...
 13350 106fb5d1 c2f3074c a64aa749 4ff0c810  .o.....L.J.IO...
 13360 82f800c0 a54a0093 c4f8c801 c4f8cc11  .....J..........
 13370 c4f8d001 c4f8d411 c4f8d821 01f098fe  ...........!....
 13380 01f008fb 00f00afd 9d4a0121 009baa64  .........J.!...d
 13390 11608021 93605160 4ff00112 eb64c4f8  .`.!.`Q`O....d..
 133a0 bc21d4f8 b02142f4 8032c4f8 b021cbf8  .!...!B..2...!..
 133b0 0030d4f8 b031002b fbd1e1e6 80b20028  .0...1.+.......(
 133c0 00f09f80 02288dd1 8e4bc2f3 07421968  .....(...K...B.h
 133d0 8d4b1960 8d4b1a70 84e7864b 01218c48  .K.`.K.p...K.!.H
 133e0 1b780370 fff7fefd cae68948 02210380  .x.p.......H.!..
 133f0 fff7f8fd c4e6874b 59680029 3ff460af  .......KYh.)?.`.
 13400 4fea124e 82b204e0 19690c33 00293ff4  O..N.....i.3.)?.
 13410 57afb3f8 00c0f445 f6d1b3f8 02c09445  W......E.......E
 13420 f2d14fea 1e22032a 00f01081 1a89000c  ..O..".*........
 13430 824228bf 0246bef5 007f40f0 0c81764b  .B(..F....@...vK
 13440 76491878 764b0092 002818bf 19467548  vI.xvK...(...FuH
 13450 08f046fa 734b009a 12e110f0 780f83b2  ..F.sK......x...
 13460 7ff42eaf 03f07f02 13f0800f 57f82230  ............W."0
 13470 14bf23f4 803323f0 010347f8 22300022  ..#..3#...G."0."
 13480 5f4bea64 9a600122 ab641a60 80225a60  _K.d.`.".d.`."Z`
 13490 4ff00113 c4f8bc31 d4f8b031 43f48033  O......1...1C..3
 134a0 c4f8b031 d4f8b031 002bfbd1 68e610f0  ...1...1.+..h...
 134b0 780f83b2 7ff404af 03f07f02 13f0800f  x...............
 134c0 57f82230 14bf43f4 803343f0 010347f8  W."0..C..3C...G.
 134d0 22300022 4a4bea64 9a600122 ab641a60  "0."JK.d.`.".d.`
 134e0 80225a60 4ff00113 c4f8bc31 d4f8b031  ."Z`O......1...1
 134f0 43f48033 c4f8b031 d4f8b031 002bfbd1  C..3...1...1.+..
 13500 3ee6404b c2f30742 1968474b 1960474b  >.@K...B.hGK.`GK
 13510 1a70e7e6 00200860 45480488 416842f2  .p... .`EH..AhB.
 13520 21008442 7ff482ae 89b20029 00f0ca80  !..B.......)....
 13530 02297ff4 7bae3f49 3f4c03c9 a1808628  .)..{.?I?L.....(
 13540 4fea1141 2060a171 7ff470ae 72b63b48  O..A `.q..p.r.;H
 13550 017841f0 20010170 d3f84811 0d0605d4  .xA. ..p..H.....
 13560 80200143 c3f84401 c3f84811 62b6344b  . .C..D...H.b.4K
 13570 50211970 5ae6eb60 01232d49 c9f80030  P!.pZ..`.#-I...0
 13580 304b0a60 c9f80430 2f4b4860 c9f81030  0K.`...0/KH`...0
 13590 c5f80890 c9e9028a d4f8b021 42f00102  ...........!B...
 135a0 c4f8b021 03f58052 03f50053 c9f81420  ...!...R...S... 
 135b0 c9f81830 d4f8b031 002bfbd1 104aeb64  ...0...1.+...J.d
 135c0 93600123 aa641360 48f28003 53604ff0  .`.#.d.`H...S`O.
 135d0 0113c4f8 bc31d4f8 b03143f4 8033c4f8  .....1...1C..3..
 135e0 b0314ff4 8033cbf8 0030d4f8 b031002b  .1O..3...0...1.+
 135f0 fbd1c5e5 13b40020 0200cc00 cc000200  ....... ........
 13600 208f0020 94b30020 c0b30020 11b40020   .. ... ... ... 
 13610 fcb10020 30400020 14b40020 7c300060  ... 0@. ... |0.`
 13620 2c310060 a0bc2020 ccb30020 12b40020  ,1.`..  ... ... 
 13630 60930020 eca50020 b8b30020 09b40020  `.. ... ... ... 
 13640 15b40020 80000700 ecc50020 000c0a78  ... ....... ...x
 13650 824228bf 0246bef5 e06f2ad1 1d4b1e48  .B(..F...o*..K.H
 13660 93f800c0 1d491e4b bcf1000f 18bf0146  .....I.K.......F
 13670 00921846 08f034f9 07210346 4170009a  ...F..4..!.FAp..
 13680 23f01f01 1344bff3 4f8f4ff0 e020c0f8  #....D..O.O.. ..
 13690 701f2031 8b42fad8 bff34f8f bff36f8f  p. 1.B....O...o.
 136a0 0f481146 fff79efc 6ae5c903 3ff5fdad  .H.F....j...?...
 136b0 fde50b4b 1846cde9 002308f0 11f9dde9  ...K.F...#......
 136c0 0023dde7 0749084c 37e70520 fff7d6fc  .#...I.L7.. ....
 136d0 0cf03ef8 14b40020 7c300060 2c310060  ..>.... |0.`,1.`
 136e0 a0bc2020 eca50020 c4b30020 2de9f047  ..  ... ... -..G
 136f0 1f46831e 042b01d9 bde8f087 dff84c90  .F...+........L.
 13700 15460c46 3c2209eb c0180646 4feac01a  .F.F<".....FO...
 13710 002108f1 04002404 06f0a0f9 b5fa85f2  .!....$.........
 13720 01235209 44ea4274 49f80a40 c8f83870  .#R.D.BtI..@..8p
 13730 c8f80830 002fdfd0 034ab340 11680b43  ...0./...J.@.h.C
 13740 1360bde8 f08700bf f8a50020 00000020  .`......... ... 
 13750 2de9f047 0d46811e 042901d9 bde8f087  -..G.F...)......
 13760 c701dff8 4c909246 04464037 3c220021  ....L..F.F@7<".!
 13770 1e4609eb 07082d04 08f10400 06f06ef9  .F....-.......n.
 13780 bafa8af2 520945ea 427249f8 07200122  ....R.E.BrI.. ."
 13790 c8f83860 c8f80820 002edfd0 034b1034  ..8`... .....K.4
 137a0 1968a240 0a431a60 bde8f087 f8a50020  .h.@.C.`....... 
 137b0 00000020 12048160 c36101f5 405342f0  ... ...`.a..@SB.
 137c0 800210b4 01244260 01f50052 046001f5  .....$B`...R.`..
 137d0 805401f5 8041c460 81615df8 044bc0e9  .T...A.`.a]..K..
 137e0 04237047 831e0a46 042b00d9 7047064b  .#pG...F.+..pG.K
 137f0 00f11001 4ff0010c 03ebc010 0cfa01f1  ....O...........
 13800 4030fff7 8fbb00bf 00000020 831e0a46  @0......... ...F
 13810 042b00d9 70470121 024b8140 03ebc010  .+..pG.!.K.@....
 13820 fff780bb 00000020 40687047 a249a34b  ....... @hpG.I.K
 13830 88422de9 f047a24c 5e699a69 d4f80c80  .B-..G.L^i.i....
 13840 1bd9a04b 984240f2 0281c31a 9e491b0a  ...K.B@......I..
 13850 a1fb0313 40f22761 db0903eb 830303eb  ....@.'a........
 13860 830303f2 e2438b42 28bf0b46 a3f54877  .....C.B(..F..Hw
 13870 964ba3fb 0737ff08 04e0954f b8428cbf  .K...7.....O.B..
 13880 0e270627 8d4908f0 1f09d1f8 8030b945  .'.'.I.......0.E
 13890 43f0c003 c1f88030 0cd228f0 1f08a1f5  C......0..(.....
 138a0 f82148ea 0708c1f8 0c800b68 002bfcda  .!H........h.+..
 138b0 08f01f09 16f00073 24d18649 0c698649  .......s$..I.i.I
 138c0 a14300f0 ea8082f4 80513446 4ff48055  .C.......Q4FO..U
 138d0 14f0605f 04d026f0 60561e43 774b5e61  ..`_..&.`V.CwK^a
 138e0 11f4405f 07d022f4 40527449 2a438a61  ..@_..".@RtI*C.a
 138f0 8b6c1a07 fcd446f0 0076704a 5661936c  .l....F..vpJVa.l
 13900 9b06fcd4 754ca042 00f2ce80 4ff0010c  ....uL.B....O...
 13910 01466346 03fb0112 03f1010e 0cf10105  .FcF............
 13920 a24218d8 bef1080f 4ff00103 40f08d80  .B......O...@...
 13930 bcf1040f 00f29180 0a18a242 00f2a480  ...........B....
 13940 05fb00f1 ac4603f1 010e03fb 01120cf1  .....F..........
 13950 0105a242 e6d90cf1 ff318c02 86ea8121  ...B.....1.....!
 13960 5f481044 5f4a9042 7fd9dff8 a4a16c22  _H.D_J.B......l"
 13970 5d48584d b0fbfef0 d5f800e0 b0fbfcf0  ]HXM............
 13980 dff890c1 0eea0c0c d44509d0 42f40052  .........E..B..R
 13990 4ff4805c c5f800c0 2a602a68 002afcda  O..\....*`*h.*..
 139a0 464a1569 05f00705 9d4203d0 1361936c  FJ.i.....B...a.l
 139b0 dd03fcd4 11f4e05f 09d026f4 e05604f4  ......._..&..V..
 139c0 e0543e4a 26435661 936c9907 fcd44749  .T>J&CVa.l....GI
 139d0 474a0144 91423cd8 464bc909 a3fb0131  GJ.D.B<.FK.....1
 139e0 090b4b1e 1b0286ea 030212f4 407f06d0  ..K.........@...
 139f0 26f44076 03f44073 304a3343 53612f4a  &.@v..@s0J3CSa/J
 13a00 536923f0 00735361 936c9b06 fcd43a4b  Si#..sSa.l....:K
 13a10 4f45a3fb 00234ff0 ff324fea 9343b0fb  OE...#O..2O..C..
 13a20 f1f1b2fb f3f3354a 1060354a 1160354a  ......5J.`5J.`5J
 13a30 136008d2 28f01f08 214a48ea 0707d760  .`..(...!JH....`
 13a40 1368002b fcdabde8 f0877346 62e71227  .h.+......sFb..'
 13a50 18e74ff4 40730421 c5e70cf1 ff312048  ..O.@s.!.....1 H
 13a60 07238c02 104486ea 8121274a dff8a8a0  .#...D...!'J....
 13a70 a2fb0020 020d2548 362a38bf 362202fb  ... ..%H6*8.6"..
 13a80 00f042ea 0a0a74e7 4fea8c24 002386ea  ..B...t.O..$.#..
 13a90 8c214ff0 010eac46 62e71d46 86f0c054  .!O....Fb..F...T
 13aa0 11464ff0 c05313e7 00244ff0 010c0246  .FO..S...$O....F
 13ab0 31462346 e64653e7 00a4781f 00c00f40  1F#F.FS...x....@
 13ac0 00000840 0046c323 23b24c00 1f85eb51  ...@.F.##.L....Q
 13ad0 00366e01 00800d40 40300080 ffb19f26  .6n....@@0.....&
 13ae0 808d5b00 ff7ef64d 00643f4d 7fd1f008  ..[..~.M.d?M....
 13af0 7f17b42c 9f10e500 83de1b43 0c420020  ...,.......C.B. 
 13b00 08420020 88b20020 819f5e16 001bb700  .B. ... ..^.....
 13b10 6c200080 7f300180 00200080 362816d8  l ...0... ..6(..
 13b20 0201104b 03eb0010 9b5810b4 c2685c68  ...K.....X...h\h
 13b30 144205d0 61b95df8 044bc3f8 88207047  .B..a.]..K... pG
 13b40 836851b1 084a5df8 044b1a60 70477047  .hQ..J]..K.`pGpG
 13b50 5df8044b c3f88420 7047044a 5df8044b  ]..K... pG.J]..K
 13b60 1a607047 c82b0020 38f00100 38300100  .`pG.+. 8...80..
 13b70 36280bd8 064b0201 03eb0010 9a58c368  6(...K.......X.h
 13b80 92681a42 14bf0120 00207047 00207047  .h.B... . pG. pG
 13b90 c82b0020 362829d8 164b0201 012903eb  .+. 6()..K...)..
 13ba0 00109a58 10b45368 c4680ed0 04290cd0  ...X..Sh.h...)..
 13bb0 23ea0403 53608368 a9b10229 17d00329  #...S`.h...)...)
 13bc0 0cbf0d4a 0d4a1a60 07e02343 01295360  ...J.J.`..#C.)S`
 13bd0 836808d0 40f63802 1a604368 15225df8  .h..@.8..`Ch."].
 13be0 044b1a60 70473822 1a60f6e7 7047044a  .K.`pG8".`..pG.J
 13bf0 1a60f2e7 c82b0020 38300100 38000100  .`...+. 80..8...
 13c00 38f00100 704700bf 704700bf 704700bf  8...pG..pG..pG..
 13c10 704700bf 38b5064c a4f16005 54f8083c  pG..8..L..`.T..<
 13c20 2046183c db689847 ac42f7d1 38bd00bf   F.<.h.G.B..8...
 13c30 105f0020 f8b50368 43b3154c 0746154e  ._. ...hC..L.F.N
 13c40 1c442411 04eb4405 ed007359 05f10800  .D$...D...sY....
 13c50 db683044 9847104b 00210122 73513b68  .h0D.G.K.!."sQ;h
 13c60 9960da60 ff230d4a 13551378 50789478  .`.`.#.J.U.xPx.x
 13c70 834228bf 0346d078 094aa342 28bf2346  .B(..F.x.J.B(.#F
 13c80 834228bf 034682f8 7a303960 f8bd00bf  .B(..F..z09`....
 13c90 00bff7bf c05e0020 40200020 24520020  .....^. @ . $R. 
 13ca0 00e400e0 10b4064b 0020064c 064a1c60  .......K. .L.J.`
 13cb0 9c611c63 9c640549 5df8044b 03f002b8  .a.c.d.I]..K....
 13cc0 c05e0020 40200020 50520020 153c0100  .^. @ . PR. .<..
 13cd0 074a506a 936a1946 8446506a 936a9942  .JPj.j.F.FPj.j.B
 13ce0 f9d18445 f7d1db0b 43ea4040 704700bf  ...E....C.@@pG..
 13cf0 00400d40 024a0349 034802f0 e3bf00bf  .@.@.J.I.H......
 13d00 50520020 d9180000 20420020 0a4a10b4  PR. .... B. .J..
 13d10 1378c469 0133042b 06d8d9b2 07481170  .x.i.3.+.....H.p
 13d20 c4545df8 044b7047 00210448 0b461170  .T]..KpG.!.H.F.p
 13d30 c4545df8 044b7047 03b40020 4cb20020  .T]..KpG... L.. 
 13d40 c0eb8022 13490346 114470b5 21f01f02  ...".I.F.Dp.!...
 13d50 01f2ff3c bff34f8f 4ff0e024 c4f85c2f  ...<..O.O..$..\/
 13d60 20329445 fad8bff3 4f8fbff3 6f8f0a4d   2.E....O...o..M
 13d70 4ff40036 40f2ff32 05eb4315 c4f88c61  O..6@..2..C....a
 13d80 2846fff7 17fd2946 0620fff7 3ffdc4f8  (F....)F. ..?...
 13d90 0c6170bd a06c2020 608f0020 00218022  .ap..l  `.. .!."
 13da0 154810b5 0c4605f0 59fe8022 13482146  .H...F..Y..".H!F
 13db0 05f054fe 1249134a 23461348 14702246  ..T..I.J#F.H.p"F
 13dc0 0c7040f2 ff310470 0520fff7 c1fc2246  .p@..1.p. ...."F
 13dd0 0e4b40f2 ff310620 fff788fc 2046fff7  .K@..1. .... F..
 13de0 afff0120 fff7acff 0220fff7 a9ff0320  ... ..... ..... 
 13df0 bde81040 fff7a4bf e0910020 608f0020  ...@....... `.. 
 13e00 0cb40020 03b40020 06b40020 0d3d0100  ... ... ... .=..
 13e10 eff31082 72b6437f 5bb9017f 012930b4  ....r.C.[....)0.
 13e20 0bd00329 13d00123 437702b9 62b630bc  ...)...#Cw..b.0.
 13e30 70470ab9 62b67047 7047124c 2168b1b1  pG..b.pGpG.L!h..
 13e40 11494361 0b680860 83615861 ebe70f4d  .ICa.h.`.aXa...M
 13e50 0f492c68 8cb14361 0b688361 58614ff0  .I,h..Ca.h.aXaO.
 13e60 e0234ff0 80540860 c3f8044d dbe7064b  .#O..T.`...M...K
 13e70 20601860 c0e90511 d5e7c0e9 05442860   `.`.........D(`
 13e80 ede700bf d09e0020 dc9e0020 d89e0020  ....... ... ... 
 13e90 d49e0020 70b5eff3 108272b6 0c4c2068  ... p.....r..L h
 13ea0 80b10c4e 00254369 236073b1 9d6102b9  ...N.%Ci#`s..a..
 13eb0 62b68368 45779847 eff31082 72b62068  b..hEw.G....r. h
 13ec0 0028f0d1 02b962b6 70bd3360 efe700bf  .(....b.p.3`....
 13ed0 d89e0020 d49e0020 fff7dcbf eff31082  ... ... ........
 13ee0 72b6437f 63b1017f 012930b4 0cd00329  r.C.c....)0....)
 13ef0 11d00021 417702b9 62b61846 30bc7047  ...!Aw..b..F0.pG
 13f00 02b962b6 18467047 d0e90541 61b14c61  ..b..FpG...Aa.La
 13f10 6cb1a161 ede7d0e9 054159b1 4c61002c  l..a.....AY.La.,
 13f20 f7d1074c 2160e4e7 064d2c60 f0e7064c  ...L!`...M,`...L
 13f30 2160dee7 054d2c60 002cead1 f1e700bf  !`...M,`.,......
 13f40 d49e0020 d09e0020 dc9e0020 d89e0020  ... ... ... ... 
 13f50 037f012b 0ed0032b 00d07047 437f33b1  ...+...+..pGC.3.
 13f60 d0e90523 c3b15a61 62b90e4a 13600023  ...#..Zab..J.`.#
 13f70 03777047 437f002b f9d0d0e9 05232bb1  .wpGC..+.....#+.
 13f80 5a6132b1 93610023 03777047 06490a60  Za2..a.#.wpG.I.`
 13f90 f7e7064a 1360eae7 05490a60 002af1d1  ...J.`...I.`.*..
 13fa0 e3e700bf d49e0020 d09e0020 dc9e0020  ....... ... ... 
 13fb0 d89e0020 0449054a 4968054b 19601368  ... .I.JIh.K.`.h
 13fc0 01331360 704700bf 001000e0 94b30020  .3.`pG......... 
 13fd0 90b30020 01f1ff3c 70b56646 002400e0  ... ...<p.fF.$..
 13fe0 0134b0fb f2f502fb 1503092b 03f1370e  .4.........+..7.
 13ff0 03f13003 5ffa8efe 98bf5ffa 83fe9042  ..0._....._....B
 14000 284606f8 01efebd2 631c0022 c818ca54  (F......c.."...T
 14010 7cb16246 1cf8015f 10f8016d a1eb0c03  |.bF..._...m....
 14020 02328cf8 0060013b 521a0570 23449a42  .2...`.;R..p#D.B
 14030 efdb0846 70bd00bf 08b5d0e9 00325bb1  ...Fp........2[.
 14040 bab10f4b a3fb0213 db0803eb 4303b2eb  ...K........C...
 14050 83030ad1 012008bd 094ba3fb 0213db08  ..... ...K......
 14060 03eb4303 b2eb8303 01d0d21a 4260f02a  ..C.........B`.*
 14070 f0d803f0 bffb1c22 03460020 1a6008bd  .......".F. .`..
 14080 abaaaaaa 70b50446 38b319b1 b2fa82f6  ....p..F8.......
 14090 7609a2b9 206800b3 6268f2b1 184b1949  v... h..bh...K.I
 140a0 02fb03f3 b1ebb30f 17d3a368 e3b90022  ...........h..."
 140b0 01232260 6260a260 e2601846 70bd1d46  .#"`b`.`.`.Fp..F
 140c0 049bc0e9 0012c360 fff7b6ff 03460028  .......`.....F.(
 140d0 f3d06db9 01231846 70bd03f0 8bfb1622  ..m..#.Fp......"
 140e0 00230260 184670bd 002105f0 b7fcdee7  .#.`.Fp..!......
 140f0 62683146 2068a560 05f0b0fc 0123dce7  bh1F h.`.....#..
 14100 abaaaaaa 55555515 4ff0010c 0cfa01fc  ....UUU.O.......
 14110 01eb4101 00eb4111 70b5b1f8 0ee01ffa  ..A...A.p.......
 14120 8cf5254c 1ffa8efe 24782e01 0efb0333  ..%L....$x.....3
 14130 06f0f006 e340b0f8 88417345 a4b228bf  .....@...AsE..(.
 14140 73463443 012aa0f8 88410dd0 022a28d0  sF4C.*...A...*(.
 14150 c2b10cf0 0f02b0f8 88c11ffa 8cfc4cea  ..............L.
 14160 020ca0f8 88c170bd 9bb20cf0 0f022d02  ......p.......-.
 14170 cb82b0f8 803105f4 70659bb2 2b43a0f8  .....1..pe..+C..
 14180 8031e8e7 aeeb030e 0cf00f02 1ffa8efe  .1..............
 14190 a1f80ae0 b0f88031 9bb21343 a0f88031  .......1...C...1
 141a0 d9e79bb2 0cf00f02 cb83b0f8 80319bb2  .............1..
 141b0 1e43a0f8 8061cee7 495a0020 01eb4103  .C...a..IZ. ..A.
 141c0 f6ee006a 00eb4313 b3f80ec0 314b1ffa  ...j..C.....1K..
 141d0 8cfc93ed 007ab8ee 477a70b5 c7ee007a  .....z..Gzp....z
 141e0 4ff0010e 4e000efa 01fe1ffa 8ef577ee  O...N.........w.
 141f0 a67afcee e77a17ee 903ab3f5 803f46d3  .z...z...:...?F.
 14200 00224ff6 ff745b08 0132a342 01d9062a  ."O..t[..2.B...*
 14210 f9d91201 42f48062 92b2022b 4ff6ff74  ....B..b...+O..t
 14220 4fea0515 314438bf 02230ef0 0f0eedb2  O...1D8..#......
 14230 a34200eb 411128bf 2346b0f8 8841a4b2  .B..A.(.#F...A..
 14240 2c43a0f8 8841ca80 5a1e92b2 ca814a89  ,C...A..Z.....J.
 14250 92b203fb 02f2b2fb fcf292b2 4a81ca8a  ............J...
 14260 92b203fb 02f2b2fb fcf292b2 ca82ca8b  ................
 14270 92b202fb 03f3b3fb fcf39bb2 cb83b0f8  ................
 14280 88319bb2 43ea0e03 a0f88831 70bd4ff4  .1..C......1p.O.
 14290 8062c2e7 08420020 214bf6ee 006a4ff6  .b...B. !K...jO.
 142a0 fe7c93ed 007ab8ee 477ac7ee 007a77ee  .|...z..Gz...zw.
 142b0 a67afcee e77a17ee 903a6345 2cd90022  .z...z...:cE,.."
 142c0 5b080132 634501d9 062af9d9 083242f2  [..2cE...*...2B.
 142d0 260c4cea 422c1ffa 8cfc022b 00eb4111  &.L.B,.....+..A.
 142e0 4ff6fe70 38bf0223 0a8a8342 92b228bf  O..p8..#...B..(.
 142f0 0346c888 80b2c0f1 01101044 03fb02f2  .F.........D....
 14300 b2fbf0f2 9b1a92b2 c3f10103 9bb2cb80  ................
 14310 0a82a1f8 0cc07047 43f2260c dde700bf  ......pGC.&.....
 14320 08420020 36284bd8 f8b52a4d 044615f8  .B. 6(K...*M.F..
 14330 202005eb 8005012a 2dd0022a 3fd16b78    .....*-..*?.kx
 14340 c3f30110 03283ed0 234a02eb 803203f0  .....(>.#J...2..
 14350 030c2248 89b26346 02eb4c1c 0678bcf8  .."H..cF..L..x..
 14360 06e05801 bcf81030 1ffa8efe cef1011e  ..X....0........
 14370 1efa83f3 03f1ff3e 0efb01f1 f1408e45  .......>.....@.E
 14380 23d95b1a c3f10103 9bb289b2 0244acf8  #.[..........D..
 14390 06301182 0de06a78 c2f30113 032b10d0  .0....jx.....+..
 143a0 0f4800eb 83308bb2 02f00301 aa78fff7  .H...0.......x..
 143b0 abfe0c4b ea7803eb 04135b68 1a60f8bd  ...K.x....[h.`..
 143c0 70470948 efe7094a c1e7991e 4ff6ff73  pG.H...J....O..s
 143d0 dbe700bf a0350020 00c01d40 495a0020  .....5. ...@IZ. 
 143e0 00c03d40 c82b0020 00803e40 00801e40  ..=@.+. ..>@...@
 143f0 362808d8 154b13f8 202003eb 8003012a  6(...K..  .....*
 14400 02d0022a 0dd07047 5978c1f3 0112032a  ...*..pGYx.....*
 14410 13d00f48 01f00301 00eb8230 9a78fff7  ...H.......0.x..
 14420 cdbe5978 c1f30113 032b0cd0 094800eb  ..Yx.....+...H..
 14430 833001f0 0301fff7 2fbf0748 01f00301  .0....../..H....
 14440 9a78fff7 bbbe0548 f3e700bf a0350020  .x.....H.....5. 
 14450 00c03d40 00c01d40 00803e40 00801e40  ..=@...@..>@...@
 14460 00230f22 48f2b82c 194610b5 4ff47044  .#."H..,.F..O.pD
 14470 4ff4806e a0f88c41 4ff46044 a0f88e21  O..n...AO.`D...!
 14480 0a46a0f8 9031b0f8 88319bb2 43f0f003  .F...1...1..C...
 14490 a0f88831 01eb4103 013100eb 43130429  ...1..A..1..C..)
 144a0 9c80a3f8 06e05a84 1a865a80 5a81a3f8  ......Z...Z.Z...
 144b0 0ec05a82 da825a83 da83ebd1 b0f88831  ..Z...Z........1
 144c0 9bb243f0 0f03a0f8 8831b0f8 88319bb2  ..C......1...1..
 144d0 43f47063 a0f88831 10bd00bf 374b384a  C.pc...1....7K8J
 144e0 996f3848 41f47f01 70b59967 41f20106  .o8HA...p..gA...
 144f0 d3f88010 45f6c055 43f22604 0a43c3f8  ....E..UC.&..C..
 14500 8020fff7 adff00f5 8040fff7 a9ff00f5  . .......@......
 14510 8040fff7 a5ff00f5 8040fff7 a1ff0022  .@.......@....."
 14520 a0f50310 4ff00f0e 114600eb 42134fea  ....O....F..B.O.
 14530 421c0132 9981042a 5981a3f8 0ee09e82  B..2...*Y.......
 14540 dd8020f8 0c101982 9c81eed1 00221e48  .. ..........".H
 14550 4ff00f0e 41f20106 114645f6 c05543f2  O...A....FE..UC.
 14560 260400eb 42134fea 421c0132 9981042a  &...B.O.B..2...*
 14570 5981a3f8 0ee09e82 dd8020f8 0c101982  Y......... .....
 14580 9c81eed1 00221148 0f2641f2 01051146  .....".H.&A....F
 14590 45f6c054 43f2260e 00eb4213 4fea421c  E..TC.&...B.O.B.
 145a0 01329981 042a5981 de819d82 dc8020f8  .2...*Y....... .
 145b0 0c101982 a3f80ce0 eed170bd 00c00f40  ..........p....@
 145c0 000003fc 00c03d40 00001e40 00401e40  ......=@...@.@.@
 145d0 57280fd8 83290dd8 21f0010c 084ac907  W(...)..!....J..
 145e0 3cf80230 9bb206d4 03f47f43 03439bb2  <..0.......C.C..
 145f0 2cf80230 7047dbb2 43ea0023 9bb2f7e7  ,..0pG..C..#....
 14600 00c03b40 72b6eff3 0583524c c4f88430  ..;@r.....RL...0
 14610 1ef0040f 0cbfeff3 0882eff3 09824ff0  ..............O.
 14620 e0234d4e 4d4dd3f8 280dd3f8 2c1dc4e9  .#MNMM..(...,...
 14630 2201d3f8 341dd3f8 383dc4e9 24139369  "...4...8=..$..i
 14640 c4f89830 d369c4f8 9c3000f0 25fa84ed  ...0.i...0..%...
 14650 280afff7 3dfb0b21 4ff0ff32 c4f8a400  (...=..!O..2....
 14660 0b46c4f8 80103e49 301d5a40 202402f0  .F....>I0.Z@ $..
 14670 0103013c 01fb03f3 83ea5202 f7d1a842  ...<......R....B
 14680 02d07368 0646efe7 324bc3f8 a820bff3  ..sh.F..2K... ..
 14690 4f8f4ff0 e0233049 324ac3f8 701fc3f8  O.O..#0I2J..p...
 146a0 702fbff3 4f8fbff3 6f8f2f4a 02252f48  p/..O...o./J.%/H
 146b0 d36e2f49 43f44053 d3660560 d3692d48  .n/IC.@S.f.`.i-H
 146c0 23f07f03 43f04003 d3610b68 83423dd8  #...C.@..a.h.B=.
 146d0 264d0021 4ff0e023 4ff0ff32 29600126  &M.!O..#O..2)`.&
 146e0 c5f80811 2449c5f8 0011c5f8 0861c3f8  ....$I.......a..
 146f0 8021c3f8 8421c3f8 8821c3f8 8c21c3f8  .!...!...!...!..
 14700 902101e0 fef7d0fc d5f80c31 002bf9d0  .!.........1.+..
 14710 0134c5f8 0c614f2c f4d9184b 02201849  .4...aO,...K. .I
 14720 4ff00042 c1f84001 5a63d5f8 0c313bb9  O..B..@.Zc...1;.
 14730 14481549 0d4a0163 d2f80c31 002bfad0  .H.I.J.c...1.+..
 14740 4ff0e023 114ac3f8 0c2dfee7 fff76ef8  O..#.J...-....n.
 14750 bee700bf 00ff2720 80ff2720 a8ff2720  ......' ..' ..' 
 14760 2083b8ed a0ff2720 00c00f40 00400840   .....' ...@.@.@
 14770 0c420020 803dcd0b 009f2400 00900d40  .B. .=....$....@
 14780 00002e40 00800f40 f100ad0b 0400fa05  ...@...@........
 14790 0a490a68 38b108b5 13180948 834204d8  .I.h8......H.B..
 147a0 10460b60 08bd1046 704703f0 23f80c23  .F.`...FpG..#..#
 147b0 4ff0ff32 03601046 08bd00bf 4c520020  O..2.`.F....LR. 
 147c0 00002820 00207047 4ff0ff30 704700bf  ..( . pGO..0pG..
 147d0 4ff40053 00204b60 704700bf 01207047  O..S. K`pG... pG
 147e0 4ff0ff30 704700bf 30bffde7 30bffde7  O..0pG..0...0...
 147f0 f8b5144c 4ff0e025 134e4ff4 003204eb  ...LO..%.NO..2..
 14800 4024124f 06eb4016 0346c5f8 8c212146  @$.O..@..F...!!F
 14810 3a883046 fef7ceff 3b882344 bff34f8f  :.0F....;.#D..O.
 14820 c5f85c4f 2034a342 fad8bff3 4f8fbff3  ..\O 4.B....O...
 14830 6f8f0420 3146fef7 e9ff4ff4 0033c5f8  o.. 1F....O..3..
 14840 0c31f8bd a08c2020 e08f0020 e6b30020  .1....  ... ... 
 14850 244b2de9 f0411c88 4368c569 c3f30e43  $K-..A..Ch.i...C
 14860 e41a002c 24dd2049 20480a78 0078d3b2  ...,$. I H.x.x..
 14870 1f4e8242 1f4807d0 10f80380 36f81870  .N.B.H......6..p
 14880 c7f50072 944218d9 01330022 26f81540  ...r.B...3."&..@
 14890 082b194e 88bf1346 26f81520 98bfdab2  .+.N...F&.. ....
 148a0 c554164b 0a701a68 14441c60 bde8f081  .T.K.p.h.D.`....
 148b0 2846bde8 f041fff7 9bbf07eb 48201049  (F...A......H .I
 148c0 22462744 084401eb 452107f0 09f80b4a  "F'D.D..E!.....J
 148d0 284626f8 18701368 2344bde8 f0411360  (F&..p.h#D...A.`
 148e0 fff786bf e6b30020 04b40020 07b40020  ....... ... ... 
 148f0 0cb20020 54b20020 2cb20020 04b20020  ... T.. ,.. ... 
 14900 a08c2020 1d4b1a78 002a36d1 02f0ff03  ..  .K.x.*6.....
 14910 1b4a1278 8ab32de9 f0411a4d 2a8852b3  .J.x..-..A.M*.R.
 14920 194ec2f5 0068194f 3278194c 07eb4217  .N...h.O2x.L..B.
 14930 04ebc224 42463846 2146fef7 3bff04eb  ...$BF8F!F..;...
 14940 0802bff3 4f8f4ff0 e023c3f8 704f2034  ....O.O..#..pO 4
 14950 a242fad8 bff34f8f bff36f8f 04203946  .B....O...o.. 9F
 14960 fef740ff 33780133 dbb2032b 88bf0023  ..@.3x.3...+...#
 14970 33700023 2b80bde8 f0817047 0fb40020  3p.#+.....pG... 
 14980 13b40020 eab30020 0db40020 60920020  ... ... ... `.. 
 14990 a09c2020 2d4b0021 80222d48 70b51b78  ..  -K.!."-Hp..x
 149a0 00242c4d 8b422c4e 0cbf4023 4ff40073  .$,M.B,N..@#O..s
 149b0 2b803380 05f052f8 284a2146 284b1470  +.3...R.(J!F(K.p
 149c0 4ff48072 27481c80 05f048f8 264a1021  O..r'H....H.&J.!
 149d0 264b0320 c2e90044 c2e90244 244ac3e9  &K. ...D...D$J..
 149e0 00441470 234ac3e9 0244234b 1c702346  .D.p#J...D#K.p#F
 149f0 14602246 fef7acfe 22463188 04201f4b  .`"F...."F1.. .K
 14a00 fef774fe 23460122 29880420 fef7a0fe  ..t.#F.").. ....
 14a10 20460134 fff7ecfe 082cf9d1 184b0021   F.4.....,...K.!
 14a20 4a221848 184c0460 c3f88c10 c3f88820  J".H.L.`....... 
 14a30 d3f84821 154942f0 0072c3f8 482121b1  ..H!.IB..r..H!!.
 14a40 134a1378 43f00803 137070bd 14b40020  .J.xC....pp.... 
 14a50 60920020 eeb30020 e6b30020 0db40020  `.. ... ... ... 
 14a60 eab30020 e08f0020 0cb20020 2cb20020  ... ... ... ,.. 
 14a70 04b40020 04b20020 07b40020 51480100  ... ... ... QH..
 14a80 00002e40 d4b30020 05490100 00000000  ...@... .I......
 14a90 16b40020 fff7b6bd 124ad2f8 80305b07  ... .....J...0[.
 14aa0 fbd5d2f8 80301048 c3f30b23 0f4990ed  .....0.H...#.I..
 14ab0 007a07ee 903a91ed 006ab8ee 477a0c4a  .z...:...j..Gz.J
 14ac0 f8eee77a 0b4bd2ed 006a77ee c77a93ed  ...z.K...jw..z..
 14ad0 007ab8ee 477a67ee 867a87ee a60a37ee  .z..Gzg..z....7.
 14ae0 400a7047 00810d40 70b20020 78b20020  @.pG...@p.. x.. 
 14af0 84b20020 74b20020 704700bf 362858d8  ... t.. pG..6(X.
 14b00 0001f0b4 344c354d 2358ab42 56d049d8  ....4L5M#X.BV.I.
 14b10 b3f1844f 4bd0a5f5 8045ab42 40d1304d  ...OK....E.B@.0M
 14b20 2044304e 304cc4f8 b462d0e9 01c4c068   D0N0L...b.....h
 14b30 4ff0e026 4ff00057 042ac6f8 10712fd8  O..&O..W.*...q/.
 14b40 5e6926ea 00065e61 4ff00506 ccf80060  ^i&...^aO......`
 14b50 266846f4 80362660 5c6824ea 00045c60  &hF..6&`\h$...\`
 14b60 224c54f8 224090fa a0f2b2fa 82f245f8  "LT."@........E.
 14b70 22106fea 00011dd0 dd690f2a 01ea0501  ".o......i.*....
 14b80 d9611ddc 52000325 d9689440 05fa02f2  .a..R..%.h.@....
 14b90 21ea0202 2243da60 98615a69 02435a61  !..."C.`.aZi.CZa
 14ba0 f0bc7047 124dab42 fad1124d b8e7124d  ..pG.M.B...M...M
 14bb0 b6e77047 da690243 da61ede7 0f4dafe7  ..pG.i.C.a...M..
 14bc0 103a0325 19695200 944005fa 02f221ea  .:.%.iR..@....!.
 14bd0 02022243 1a61dfe7 c82b0020 00800042  .."C.a...+. ...B
 14be0 8c580020 21000000 005c0020 48070020  .X. !....\. H.. 
 14bf0 00c00042 8c590020 0c580020 0c590020  ...B.Y. .X. .Y. 
 14c00 362809d8 054b0201 03eb0010 9a58c168  6(...K.......X.h
 14c10 536923ea 01035361 704700bf c82b0020  Si#...SapG...+. 
 14c20 124a134b d2f82002 20f07f40 984210b5  .J.K.. . ..@.B..
 14c30 84b002d2 00eb8000 40000e4c 01a90a22  ........@..L..."
 14c40 fff7c8f9 01a90023 204611f8 012b0133  .......# F...+.3
 14c50 3ab10a2b 20f8022f f7d11623 237004b0  :..+ ../...##p..
 14c60 10bd5b00 dbb22370 04b010bd 00441f40  ..[...#p.....D.@
 14c70 80969800 2c5a0020 2de9f843 2d4b1e78  ....,Z. -..C-K.x
 14c80 66b12d4f 3b784bb9 0123f107 3b7043d4  f.-O;xK..#..;pC.
 14c90 b20726d4 00233b70 730701d4 bde8f883  ..&..#;ps.......
 14ca0 264b1a68 002af9d0 eff30582 002af5d1  &K.h.*.......*..
 14cb0 eff31085 72b61868 002834d0 204c2178  ....r..h.(4. L!x
 14cc0 002930d1 01222270 42691a60 002a2ed0  .)0..""pBi.`.*..
 14cd0 916105b9 62b60025 83684577 98472570  .a..b..%.hEw.G%p
 14ce0 dce7dff8 648098f8 0030002b d2d00025  ....d....0.+...%
 14cf0 dff85890 2b4659f8 23400135 23682046  ..X.+FY.#@.5#h F
 14d00 1b699847 10b16369 9b689847 98f80020  .i.G..ci.h.G... 
 14d10 ebb29a42 efd8bde7 00f0dcfa 0028b7d0  ...B.........(..
 14d20 aff30080 b4e7002d b8d162b6 b6e7054b  .......-..b....K
 14d30 1a60cee7 16b40020 fbb30020 d09e0020  .`..... ... ... 
 14d40 f7b30020 dc9e0020 f8b30020 e09e0020  ... ... ... ... 
 14d50 f8b5144c 4ff0e025 134e4ff4 003204eb  ...LO..%.NO..2..
 14d60 4024124f 06eb4016 0346c5f8 8c212146  @$.O..@..F...!!F
 14d70 3a883046 fef71efd 3b882344 bff34f8f  :.0F....;.#D..O.
 14d80 c5f85c4f 2034a342 fad8bff3 4f8fbff3  ..\O 4.B....O...
 14d90 6f8f0220 3146fef7 39fd4ff4 0033c5f8  o.. 1F..9.O..3..
 14da0 0c31f8bd 60bd2020 e0900020 e8b30020  .1..`.  ... ... 
 14db0 244b2de9 f0411c88 4368c569 c3f30e43  $K-..A..Ch.i...C
 14dc0 e41a002c 24dd2049 20480a78 0078d3b2  ...,$. I H.x.x..
 14dd0 1f4e8242 1f4807d0 10f80380 36f81870  .N.B.H......6..p
 14de0 c7f50072 944218d9 01330022 26f81540  ...r.B...3."&..@
 14df0 082b194e 88bf1346 26f81520 98bfdab2  .+.N...F&.. ....
 14e00 c554164b 0a701a68 14441c60 bde8f081  .T.K.p.h.D.`....
 14e10 2846bde8 f041fff7 9bbf07eb 48201049  (F...A......H .I
 14e20 22462744 084401eb 452106f0 59fd0b4a  "F'D.D..E!..Y..J
 14e30 284626f8 18701368 2344bde8 f0411360  (F&..p.h#D...A.`
 14e40 fff786bf e8b30020 05b40020 08b40020  ....... ... ... 
 14e50 1cb20020 60b20020 3cb20020 08b20020  ... `.. <.. ... 
 14e60 60bd2020 1d4b1a78 002a36d1 02f0ff03  `.  .K.x.*6.....
 14e70 1b4a1278 8ab32de9 f0411a4d 2a8852b3  .J.x..-..A.M*.R.
 14e80 194ec2f5 0068194f 3278194c 07eb4217  .N...h.O2x.L..B.
 14e90 04ebc224 42463846 2146fef7 8bfc04eb  ...$BF8F!F......
 14ea0 0802bff3 4f8f4ff0 e023c3f8 704f2034  ....O.O..#..pO 4
 14eb0 a242fad8 bff34f8f bff36f8f 02203946  .B....O...o.. 9F
 14ec0 fef790fc 33780133 dbb2032b 88bf0023  ....3x.3...+...#
 14ed0 33700023 2b80bde8 f0817047 10b40020  3p.#+.....pG... 
 14ee0 13b40020 ecb30020 0eb40020 e0920020  ... ... ... ... 
 14ef0 60cd2020 2de9f04f 85b0cde9 01100029  `.  -..O.......)
 14f00 00f0bf80 0023604c dff89881 dff898a1  .....#`L........
 14f10 5e4f0093 01235e4a 23705e4b 1978b8f8  ^O...#^J#p^K.x..
 14f20 003002eb 4119002b 40f0a780 1e461d46  .0..A..+@....F.F
 14f30 9b464846 fef778fc 10f08000 00f08c80  .FHF..x.........
 14f40 bff34f8f 9af80030 84f800b0 05b93e68  ..O....0......>h
 14f50 002b7dd1 3b689b1b 782b00f2 87804e4b  .+}.;h..x+....NK
 14f60 1b78002b 74d0fff7 87fe0122 b8f80030  .x.+t......"...0
 14f70 15462270 002bdcd0 464ac3f5 00601178  .F"p.+..FJ...`.x
 14f80 1a4600eb c120454d c9022844 019d9542  .F... EM..(D...B
 14f90 17d20393 dde90151 2a4606f0 a1fc039b  .......Q*F......
 14fa0 4ff04042 5b1ba8f8 00303d4b c3f88420  O.@B[....0=K... 
 14fb0 bff34f8f 00980023 28442370 05b0bde8  ..O....#(D#p....
 14fc0 f08f364b cd180299 06f08afc 00234ff4  ..6K.........#O.
 14fd0 00622946 4846fef7 edfbbff3 4f8f05f1  .b)FHF......O...
 14fe0 200205f5 00639342 34bf0123 40234ff0   ....c.B4..#@#O.
 14ff0 e02205eb 4313c2f8 705f2035 ab42fad1  ."..C...p_ 5.B..
 15000 bff34f8f bff36f8f 02204946 fef7eafb  ..O...o.. IF....
 15010 204a1378 0133dbb2 032b84bf 00231d4a   J.x.3...+...#.J
 15020 1370b8f8 0030019a d11a009a 1a440191  .p...0.......D..
 15030 0092029a 1a440023 0292194a a8f80030  .....D.#...J...0
 15040 c2f88430 bff34f8f 23700029 7ff462af  ...0..O.#p.)..b.
 15050 009805b0 bde8f08f 4ff40062 0d4b8af8  ........O..b.K..
 15060 00001978 1346a8f8 00208ae7 01230098  ...x.F... ...#..
 15070 8af80030 05b0bde8 f08f1a46 c3f50060  ...0.......F...`
 15080 7fe70198 e5e700bf 10b40020 94b30020  ........... ... 
 15090 e0920020 0eb40020 13b40020 60cd2020  ... ... ... `.  
 150a0 00002e40 ecb30020 0bb40020 704700bf  ...@... ... pG..
 150b0 2d4b0021 80222d48 70b51b78 00242c4d  -K.!."-Hp..x.$,M
 150c0 8b422c4e 0cbf4023 4ff40073 2b803380  .B,N..@#O..s+.3.
 150d0 04f0c4fc 284a2146 284b1470 4ff48072  ....(J!F(K.pO..r
 150e0 27481c80 04f0bafc 264a1021 264b0120  'H......&J.!&K. 
 150f0 c2e90044 c2e90244 244ac3e9 00441470  ...D...D$J...D.p
 15100 234ac3e9 0244234b 1c702346 14602246  #J...D#K.p#F.`"F
 15110 fef71efb 22463188 02201f4b fef7e6fa  ...."F1.. .K....
 15120 23460122 29880220 fef712fb 20460134  #F.").. .... F.4
 15130 fff70efe 082cf9d1 184b0021 4a221848  .....,...K.!J".H
 15140 184c0460 c3f88410 c3f88020 d3f84821  .L.`....... ..H!
 15150 154942f0 8072c3f8 482121b1 134a1378  .IB..r..H!!..J.x
 15160 43f00103 137070bd 14b40020 e0920020  C....pp.... ... 
 15170 f0b30020 e8b30020 0eb40020 ecb30020  ... ... ... ... 
 15180 e0900020 1cb20020 3cb20020 05b40020  ... ... <.. ... 
 15190 08b20020 08b40020 b14d0100 00002e40  ... ... .M.....@
 151a0 d0b30020 654e0100 00000000 16b40020  ... eN......... 
 151b0 2de9f04f 4ff0e023 4ff40032 dff8c8a0  -..OO..#O..2....
 151c0 83b0c3f8 8c218b46 9af80040 00294fd0  .....!.F...@.)O.
 151d0 8046e4b2 0027dff8 b490264b abeb0702  .F...'....&K....
 151e0 25491b78 a34204f1 01043fd0 092c234b  %I.x.B....?..,#K
 151f0 404628bf 00241e5d 39f816c0 0ceb4623  @F(..$.]9.....F#
 15200 19441f4b 33f81650 a5eb0c05 aa421cd2  .D.K3..P.....B..
 15210 0ceb462c 18491b4c 61440192 06f060fb  ..F,.I.LaD....`.
 15220 216839f8 16505846 019aa1eb 0b012a44  !h9..PXF......*D
 15230 394429f8 16202160 4ff0e023 4ff40032  9D).. !`O..#O..2
 15240 c3f80c21 03b0bde8 f08f2a46 2f4406f0  ...!......*F/D..
 15250 47fb0c49 e3b23046 0a68a844 521b0a60  G..I..0F.h.DR..`
 15260 8af80030 fff774fd bb45b6d8 3846e3e7  ...0..t..E..8F..
 15270 0846e1e7 05b40020 60bd2020 60b20020  .F..... `.  `.. 
 15280 1cb20020 08b20020 08b40020 3cb20020  ... ... ... <.. 
 15290 0b4b0c4a 12781978 d3b28a42 0dd00133  .K.J.x.x...B...3
 152a0 09480a4a 092b0a49 28bf0023 c35c31f8  .H.J.+.I(..#.\1.
 152b0 131002eb 4323585c 70474ff0 ff307047  ....C#X\pGO..0pG
 152c0 05b40020 08b40020 60b20020 60bd2020  ... ... `.. `.  
 152d0 3cb20020 044b10b5 1c680cb1 204610bd  <.. .K...h.. F..
 152e0 fff7cafc 204610bd 08b20020 2de9f84f  .... F..... -..O
 152f0 144e154d 33782a78 934221d0 dcb2dff8  .N.M3x*x.B!.....
 15300 5090dff8 50b0dff8 5080104f 0134082c  P...P...P..O.4.,
 15310 5ffa84fa 01d90024 a24619f8 0400dbf8  _......$.F......
 15320 003038f8 102037f8 1010521a 9b1acbf8  .08.. 7...R.....
 15330 0030fff7 0dfd86f8 00a02b78 a342e5d1  .0........+x.B..
 15340 bde8f88f 08b40020 05b40020 3cb20020  ....... ... <.. 
 15350 60b20020 08b20020 1cb20020 00b583b0  `.. ... ... ....
 15360 01210df1 0700fff7 23ff20b1 9df80700  .!......#. .....
 15370 03b05df8 04fb4ff0 ff30f9e7 094b00b5  ..]...O..0...K..
 15380 83b01b78 8df80700 3bb10121 0df10700  ...x....;..!....
 15390 fff7b0fd 03b05df8 04fb03f0 ff0003b0  ......].........
 153a0 5df804fb 13b40020 044b1b78 03f0ff02  ]...... .K.x....
 153b0 0bb1fff7 9fbd1046 704700bf 13b40020  .......FpG..... 
 153c0 2de9f041 0024dff8 44800123 0d4d2746  -..A.$..D..#.M'F
 153d0 0d4e88f8 00303378 28462035 a34204f1  .N...03x(F 5.B..
 153e0 010405d0 fef720fa 030658bf 07f50067  ...... ...X....g
 153f0 042cf0d1 bff34f8f 00233846 88f80030  .,....O..#8F...0
 15400 bde8f081 e0920020 0eb40020 10b40020  ....... ... ... 
 15410 2de9f843 1d4b1b78 13b11d4d 2a880ab9  -..C.K.x...M*...
 15420 bde8f883 1b4ec2f5 00691b49 33784a46  .....N...i.I3xJF
 15430 1a4c01eb 43181a4f 04ebc324 01234046  .L..C..O...$.#@F
 15440 3b702146 0023fef7 b5f904eb 0902bff3  ;p!F.#..........
 15450 4f8f4ff0 e023c3f8 704f2034 a242fad8  O.O..#..pO 4.B..
 15460 bff34f8f bff36f8f 02204146 fef7baf9  ..O...o.. AF....
 15470 33780133 dbb2032b 88bf0023 33700023  3x.3...+...#3p.#
 15480 2b80bff3 4f8f3b70 bde8f883 13b40020  +...O.;p....... 
 15490 ecb30020 0eb40020 e0920020 60cd2020  ... ... ... `.  
 154a0 10b40020 f8b50026 0446c0e9 00668660  ... ...&.F...f.`
 154b0 29b10846 0d4606f0 c3fa0746 08b92046  )..F.F.....F.. F
 154c0 f8bd0130 03f03eff 0028f8d0 29460670  ...0..>..(..)F.p
 154d0 2060c4e9 017704f0 47fc2046 f8bd00bf   `...w..G. F....
 154e0 10b50446 006803f0 35ff2046 10bd00bf  ...F.h..5. F....
 154f0 f8b50446 154632b9 036803b1 1a700023  ...F.F2..h...p.#
 15500 2046a360 f8bd4368 0e469a42 1cd9511c   F.`..Ch.F.B..Q.
 15510 006805f0 9ff80746 60b1a368 c4e90005  .h.....F`..h....
 15520 0bb90370 27683146 3846a560 04f01cfc  ...p'h1F8F.`....
 15530 2046f8bd 206810b1 03f00cff 27600023   F.. h......'`.#
 15540 2046c4e9 0133f8bd 07683146 a5603846   F...3...h1F.`8F
 15550 04f00afc ece700bf 38b50546 0c4649b1  ........8..F.FI.
 15560 084606f0 6dfa2146 02462846 fff7c0ff  .F..m.!F.F(F....
 15570 284638bd 2846a960 38bd00bf 03f0e2be  (F8.(F.`8.......
 15580 03f0e8be f8b50c46 71b182b1 06468f18  .......Fq....F..
 15590 00253368 304614f8 011b1b68 9847bc42  .%3h0F.....h.G.B
 155a0 0544f6d1 2846f8bd 0d462846 f8bd1546  .D..(F...F(F...F
 155b0 f8e700bf 012a70b5 08bf0a22 8ab091b3  .....*p...."....
 155c0 4ff0210e 01e05ffa 86fe0ef1 ff36b1fb  O.!..._......6..
 155d0 f2f502fb 15145ffa 84fc092c 0cf13704  ......_....,..7.
 155e0 0cf1300c 98bf5ffa 8cf40ef1 280c88bf  ..0..._.....(...
 155f0 e4b29142 ec442946 0cf8244c e3d24bb1  ...B.D)F..$L..K.
 15600 0ef1ff3e 2d225ffa 8efe0ef1 28036b44  ...>-"_.....(.kD
 15610 03f8242c 036801a9 cef12202 5b687144  ..$,.h....".[hqD
 15620 98470ab0 70bd3022 4ff0210e 8df82520  .G..p.0"O.!...% 
 15630 e5e700bf 00b50368 83b040f6 0d2c0222  .......h..@..,."
 15640 01a95b68 adf804c0 984703b0 5df804fb  ..[h.....G..]...
 15650 054b0228 88bf0346 10b41c68 18466368  .K.(...F...h.Fch
 15660 5df8044b 184700bf 10420020 0eb430b5  ]..K.G...B. ..0.
 15670 adf5816d 04464ff4 80610df2 144302a8  ...m.FO..a...C..
 15680 53f8042b 019300f0 7dfd0546 02a806f0  S..+....}..F....
 15690 d7f92368 024602a9 20465b68 98472846  ..#h.F.. F[h.G(F
 156a0 0df5816d bde83040 03b07047 32b90368  ...m..0@..pG2..h
 156b0 c9b200b5 1b685df8 04eb1847 fff77abf  .....h]....G..z.
 156c0 70b50446 0d46c61d 00230846 0a2214f8  p..F.F...#.F."..
 156d0 041ffff7 ebff2b68 2e212846 1b689847  ......+h.!(F.h.G
 156e0 14f8011f 00230a22 2846fff7 dfffb442  .....#."(F.....B
 156f0 f1d10420 70bd00bf 9a4238bf 88547047  ... p....B8..TpG
 15700 704700bf 2de9f84f 9a460d9b 17460646  pG..-..O.F...F.F
 15710 9a078b46 ddf82880 11d1dde9 0b329342  ...F..(......2.B
 15720 0dd23c46 dde90b23 9d1a3d44 22460134  ..<F...#..=D"F.4
 15730 53465946 2020b047 ac42f7d1 00e03d46  SFYF  .G.B....=F
 15740 0b9b7bb1 0b9b08eb 030404eb 0509a9eb  ..{.............
 15750 040214f8 010d5346 5946b047 4445f6d1  ......SFYF.GDE..
 15760 0b9b1d44 0d9b9b07 0dd5ef1b 0c9bbb42  ...D...........B
 15770 09d91c46 01372a46 53465946 20200135  ...F.7*FSFYF  .5
 15780 b047a742 f6d32846 bde8f88f 2de9f04f  .G.B..(F....-..O
 15790 0f9eddf8 24e016f0 020f0a9c 9df82c90  ....$.........,.
 157a0 0e9ddde9 0c872ed1 002d6fd1 1f2c06f0  .........-o..,..
 157b0 010a0dd8 bc420bd2 04f1ff3c 4ff0300b  .....B.....<O.0.
 157c0 f4440134 0cf801bf a74201d9 1f2cf8d9  .D.4.....B...,..
 157d0 baf1000f 17d01f2c 8cbf4ff0 000c4ff0  .......,..O...O.
 157e0 010ca542 0fd9bcf1 000f0cd0 04f1ff3c  ...B...........<
 157f0 4ff0300a f44401e0 1f2c04d8 01340cf8  O.0..D...,...4..
 15800 01afac42 f8d316f0 100f2ed0 16f4806f  ...B...........o
 15810 18d0b8f1 100f73d0 b8f1020f 08d11f2c  ......s........,
 15820 06d80eeb 04074ff0 620c0134 87f800c0  ......O.b..4....
 15830 202c13d1 cde90b56 cde909e4 bde8f04f   ,.....V.......O
 15840 fff760bf 002c51d1 b8f1100f 79d0b8f1  ..`..,Q.....y...
 15850 020f7dd1 62248ef8 00400124 0eeb0407  ..}.b$...@.$....
 15860 4ff0300c 013487f8 00c0202c e2d0b9f1  O.0..4.... ,....
 15870 000f20d0 2d270ef8 04700134 cde90b56  .. .-'...p.4...V
 15880 cde909e4 bde8f04f fff73cbf 16f0010a  .......O..<.....
 15890 26d0b9f1 000f48d1 16f00c0f 45d11f2c  &.....H.....E..,
 158a0 8cbf4ff0 000c4ff0 010cbc42 99d2bcf1  ..O...O....B....
 158b0 000f81d1 95e77707 06d43707 bad52027  ......w...7... '
 158c0 0ef80470 0134b5e7 2b270ef8 04700134  ...p.4..+'...p.4
 158d0 cde90b56 cde909e4 bde8f04f fff712bf  ...V.......O....
 158e0 1f2c90d8 bc42fff4 67af8ce7 bc4201d0  .,...B..g....B..
 158f0 ac428ed1 671e22d0 b8f1100f 1fd1023c  .B..g."........<
 15900 1f2c8cbf 00270127 16f0200c 00d177b9  .,...'.'.. ...w.
 15910 bcf1000f 8cd0002f 8ad00eeb 04074ff0  ......./......O.
 15920 580c0134 87f800c0 82e7013d b7e70eeb  X..4.......=....
 15930 04074ff0 780c0134 87f800c0 78e73c46  ..O.x..4....x.<F
 15940 67e7b406 0cd47824 8ef80040 012485e7  g.....x$...@.$..
 15950 30248ef8 00400124 b9f1000f abd089e7  0$...@.$........
 15960 58248ef8 00400124 78e700bf 2de9f04f  X$...@.$x...-..O
 15970 93b09df8 74501c9c 0995ddf8 84a01e9d  ....tP..........
 15980 ccb92af0 10061af4 806fb246 13d02646  ..*......o.F..&F
 15990 0df1280b 209ccdf8 18a00594 1f9ccdf8  ..(. ...........
 159a0 00b0cde9 0354099c cde90164 fff7eefe  .....T.....d....
 159b0 13b0bde8 f08f1af0 200f0df1 280b4ff0  ........ ...(.O.
 159c0 000614bf 4ff04109 4ff06109 d846a9f1  ....O.A.O.a..F..
 159d0 0a090136 b4fbf5fe 05fb1e4c 5ffa8cf7  ...6.......L_...
 159e0 bcf1090f 07eb090c 07f13007 8cbf5ffa  ..........0..._.
 159f0 8cf7ffb2 ac427446 08f8017b cad31f2e  .....BtF...{....
 15a00 e7d9c7e7 2de9f04f 2ded048b 93b09b46  ....-..O-......F
 15a10 08ee100a 08ee901a 9df88830 09ee102a  ...........0...*
 15a20 209d219c 089355ea 0403dde9 247823d1   .!...U.....$x#.
 15a30 289b289a 23f01003 28935305 1cd50aab  (.(.#...(.S.....
 15a40 00260993 289b19ee 102a099c 18ee901a  .&..(....*......
 15a50 069318ee 100a279b 00940593 269bcde9  ......'.....&...
 15a60 0373089b cde90163 5b46fff7 8ffe13b0  .s.....c[F......
 15a70 bdec048b bde8f08f 289b0026 13f0200f  ........(..&.. .
 15a80 0aab14bf 4ff0410a 4ff0610a 99460993  ....O.A.O.a..F..
 15a90 aaf10a0a 21462846 3a464346 01f03afb  ....!F(F:FCF..:.
 15aa0 0136d2b2 092a02eb 0a0302f1 3002dbb2  .6...*......0...
 15ab0 98bfd3b2 bd420546 74eb0804 09f8013b  .....B.Ft......;
 15ac0 0c46bfd3 1f2ee5d9 bce700bf 00000000  .F..............
 15ad0 b4ee400b 2de9f04f f1ee10fa 05461446  ..@.-..O.....F.F
 15ae0 2ded028b 8bb0dde9 167a189e 40f0bf80  -........z..@...
 15af0 9fedb17b b4eec70b f1ee10fa 00f3b780  ...{............
 15b00 9fedaf7b b4eec70b f1ee10fa 00f1af80  ...{............
 15b10 b5eec00b f1ee10fa 00f13581 b0ee404b  ..........5...@K
 15b20 14ee900a 14ee108a b7ee085b 16f48062  ...........[...b
 15b30 c0f30a5c c0f31300 b6ee006b 08bf0627  ...\.......k...'
 15b40 acf2ff3c 40f07f59 07ee90ca 49f44019  ...<@..Y....I.@.
 15b50 9fed9d8b b8eee77b 9fed9d3b 9fed9e1b  .......{...;....
 15b60 9fed9f2b a7ee083b 49ec188b 38ee455b  ...+...;I...8.E[
 15b70 4ff00008 9fed9c7b a5ee013b 9fed9c1b  O......{...;....
 15b80 fdeec35b b2ee0c3b 15ee90ba b8eee55b  ...[...;.......[
 15b90 a5ee026b bdeec66b b8eec62b 16ee100a  ...k...k...+....
 15ba0 b1ee086b 00f2ff30 27ee427b 4fea0059  ...k...0'.B{O..Y
 15bb0 b2ee042b a5ee017b 27ee078b 37ee071b  ...+...{'...7...
 15bc0 88ee035b 35ee025b 88ee053b b0ee005b  ...[5..[...;...[
 15bd0 35ee477b b7ee005b 33ee063b 88ee036b  5.G{...[3..;...k
 15be0 36ee076b 81ee067b 49ec168b 37ee057b  6..k...{I...7..{
 15bf0 27ee067b b4eec47b f1ee10fa 43dcb0ee  '..{...{....C...
 15c00 476b0bf1 6300c728 34bf4ff0 04084ff0  Gk..c..(4.O...O.
 15c10 05083005 3fd59fed 787bb4ee c74bf1ee  ..0.?...x{...K..
 15c20 10fa35db 9fed767b b4eec74b f1ee10fa  ..5...v{...K....
 15c30 2ed55f45 40f3b580 a7eb0b07 013f46f4  .._E@........?F.
 15c40 8062baf1 000f40f0 a380b5ee c00bf1ee  .b....@.........
 15c50 10fa00f1 a88026f4 0066b0ee 440b2246  ......&..f..D."F
 15c60 284646f4 8066cde9 167a1896 04e02246  (FF..f...z...."F
 15c70 28461697 cde917a6 0bb0bdec 028bbde8  (F..............
 15c80 f04f00f0 c1b887ee 026b0bf1 ff3bb8e7  .O.......k...;..
 15c90 0fb1002a 7ad1d045 60d3c6f3 40090022  ...*z..E`...@.."
 15ca0 b9f1000f 18bf0022 bbf1000f 61d084ee  ......."....a...
 15cb0 064b0120 0790b5ee c00bf1ee 10fa5fd4  .K. .........._.
 15cc0 b0ee440b 28460993 0891cde9 007226f4  ..D.(F.......r&.
 15cd0 00620292 224600f0 97f8079b 0746002b  .b.."F.......F.+
 15ce0 36d016f0 200f0899 0246099b 14bf4520  6... ....F....E 
 15cf0 65200791 0137a847 05200021 08f1ff32  e ...7.G. .!...2
 15d00 05900a20 099b0492 3a460893 cde90201  ... ....:F......
 15d10 4feadb70 07990190 8beaeb70 a0ebeb70  O..p.......p...p
 15d20 00902846 fff722fe 0746b9f1 000f0fd0  ..(F.."..F......
 15d30 041ba245 0cd90799 089b0e46 98460134  ...E.......F.F.4
 15d40 3a464346 31462020 0137a847 a245f6d8  :FCF1F  .7.G.E..
 15d50 38460bb0 bdec028b bde8f08f c6f34009  8F............@.
 15d60 aaeb0802 b9f1000f 18bf0022 bbf1000f  ..........."....
 15d70 9dd1b5ee c00b0120 0790f1ee 10fa9fd5  ....... ........
 15d80 b1ee444b 9ce7b1ee 404bc9e6 013f82e7  ..DK....@K...?..
 15d90 4ff0000b 16465246 d846d946 cdf81cb0  O....FRF.F.F....
 15da0 89e70027 4be71646 d0465246 d146d346  ...'K..F.FRF.F.F
 15db0 cdf81ca0 e4e700bf ffffffff ffffef7f  ................
 15dc0 ffffffff ffffefff fb799f50 1344d33f  .........y.P.D.?
 15dd0 b3c8608b 288ac63f 61436f63 a787d23f  ..`.(..?aCoc...?
 15de0 71a37909 4f930a40 ef39fafe 422ee63f  q.y.O..@.9..B..?
 15df0 1655b5bb b16b0240 2d431ceb e2361a3f  .U...k.@-C...6.?
 15e00 00000000 80842e41 b4ee400b 2de9f04f  .......A..@.-..O
 15e10 f1ee10fa 91b0dde9 1a4a1c9e 059040f0  .........J....@.
 15e20 c8809fed bf7bb4ee c70bf1ee 10fa00f1  .....{..........
 15e30 e2809fed bd7bb4ee c70bf1ee 10fa00f3  .....{..........
 15e40 a5800f46 90469946 9fedb97b b4eec70b  ...F.F.F...{....
 15e50 f1ee10fa 00f3c380 9fedb77b b4eec70b  ...........{....
 15e60 f1ee10fa 00f1bb80 9fedb57b b4eec70b  ...........{....
 15e70 f1ee10fa 00f1a880 00230793 16f48060  .........#.....`
 15e80 00f0ec80 092c40f2 6f8108ab 00203022  .....,@.o.... 0"
 15e90 06930130 013c03f8 012b1f28 01d8092c  ...0.<...+.(...,
 15ea0 f7d89fed a36bfdee c07bb6ee 005b17ee  .....k...{...[..
 15eb0 90cab8ee e77b30ee 477b27ee 067bfcee  .....{0.G{'..{..
 15ec0 c74b14ee 903ab8ee 644b37ee 447bb4ee  .K...:..dK7.D{..
 15ed0 c57bf1ee 10fa40f3 bb800133 07ee903a  .{....@....3...:
 15ee0 b8ee677b b4eec67b f1ee10fa 02db0cf1  ..g{...{........
 15ef0 010c0023 002c40f0 898007ee 90cab6ee  ...#.,@.........
 15f00 006bb8ee e77b30ee 470bb4ee c60bf1ee  .k...{0.G.......
 15f10 10fa5ed5 5ddc421e 069b8d49 1a4481fb  ..^.].B....I.D..
 15f20 0c342028 4feaec73 00f10100 c3eba403  .4 (O..s........
 15f30 00f08880 03eb8304 aceb4404 9c4604f1  ..........D..F..
 15f40 300302f8 013fbcf1 000fe8d1 06f00303  0....?..........
 15f50 012b00f0 dc802028 0ad0079b 002b00f0  .+.... (.....+..
 15f60 838000f1 40032d22 01306b44 03f8202c  ....@.-".0kD.. ,
 15f70 01904b46 42463946 dde90504 cde902a6  ..KFBF9F........
 15f80 0094fff7 bffb11b0 bde8f08f cde902a6  ................
 15f90 06f00406 6f4d704c 002e08bf 2c460094  ....oMpL....,F..
 15fa0 14bf0424 03240194 fff7acfb 11b0bde8  ...$.$..........
 15fb0 f08f0324 0194694c cde902a6 0094fff7  ...$..iL........
 15fc0 a1fb11b0 bde8f08f 012337ee 400b0793  .........#7.@...
 15fd0 54e71cf0 010f9ed0 0cf1010c 9be74b46  T.............KF
 15fe0 42463946 05981a94 cde91ba6 11b0bde8  BF9F............
 15ff0 f04ffff7 6dbd0424 0194594c cde902a6  .O..m..$..YL....
 16000 0094fff7 7ffb11b0 bde8f08f 411e069a  ............A...
 16010 114411e0 534d092b a5fb03e5 4fead505  .D..SM.+....O...
 16020 05eb850e a3eb4e0e 2b460ef1 300e01f8  ......N.+F..0...
 16030 01ef26d9 5c461046 202804f1 ff3b00f1  ..&.\F.F (...;..
 16040 0102e7d1 06f00303 012b41d0 20208fe7  .........+A.  ..
 16050 3ff550af 002b37d1 01334be7 08ab0624  ?.P..+7..3K....$
 16060 9fed396b 06931ee7 720725d4 33077ff5  ..9k....r.%.3...
 16070 7faf00f1 40032022 01306b44 03f8202c  ....@. ".0kD.. ,
 16080 76e7202a ded0bbf1 000f76d0 069b3025  v. *......v...0%
 16090 19181046 013001f8 015f231a 202803f1  ...F.0..._#. (..
 160a0 ff33cfd0 da42f5d1 00f14003 2e220130  .3...B....@..".0
 160b0 6b4403f8 202c2ee7 00f14003 2b220130  kD.. ,....@.+".0
 160c0 6b4403f8 202c53e7 d9077ff5 13afc3e7  kD.. ,S.........
 160d0 baf1000f bad00023 2020079a 12b916f0  .......#  ......
 160e0 0c0f01d0 0af1ff3a 5045bff4 34af002b  .......:PE..4..+
 160f0 3ff431af 069a431e 13443022 013003f8  ?.1...C..D0".0..
 16100 012f5045 bff427af 1f28f7d9 23e7baf1  ./PE..'..(..#...
 16110 000f3ff4 20af1f28 8cbf0023 0123dce7  ..?. ..(...#.#..
 16120 ffffffff ffffefff ffffffff ffffef7f  ................
 16130 00000000 65cdcd41 00000000 65cdcdc1  ....e..A....e...
 16140 00000000 00000000 00000000 80842e41  ...............A
 16150 67666666 c8290020 c0290020 cc290020  gfff.). .). .). 
 16160 d0290020 cdcccccc 054b0020 03ebc403  .). .....K. ....
 16170 93ed006b 08ab0693 95e61046 94e700bf  ...k.......F....
 16180 d8060020 2de9f04f 1446b0f1 000a9c4a  ... -..O.F.....J
 16190 91b09846 20789b4b 18bf1346 8b460b93  ...F x.K...F.F..
 161a0 002800f0 62820025 99460ae0 6e1c2a46  .(..b..%.F..n.*F
 161b0 5b465146 01343546 c8472078 002800f0  [FQF.45F.G x.(..
 161c0 bb802528 f2d1631c 4ff0000c 1c4613f8  ..%(..c.O....F..
 161d0 010ba0f1 2002102a 0ad8dfe8 02f08c09  .... ..*........
 161e0 09890909 09090909 09860983 09098000  ................
 161f0 a0f13003 092b40f2 bc802a28 00f0c680  ..0..+@...*(....
 16200 00262e28 00f0a780 0027a0f1 6803122b  .&.(.....'..h..+
 16210 18d8dfe8 13f0f900 1700ef00 1700e700  ................
 16220 17001700 17001700 17001700 17001300  ................
 16230 17001700 17001700 17001300 60784cf4  ............`xL.
 16240 807c0134 672859d8 24286ad9 a0f12503  .|.4g(Y.$(j...%.
 16250 422b66d8 dfe813f0 f6006500 65006500  B+f.......e.e.e.
 16260 65006500 65006500 65006500 65006500  e.e.e.e.e.e.e.e.
 16270 65006500 65006500 65006500 65006500  e.e.e.e.e.e.e.e.
 16280 65006500 65006500 65006500 65006500  e.e.e.e.e.e.e.e.
 16290 65006500 65006500 a100e000 a1006500  e.e.e.e.......e.
 162a0 65006500 65006500 65006500 65006500  e.e.e.e.e.e.e.e.
 162b0 65006500 65006500 65006500 6500f101  e.e.e.e.e.e.e...
 162c0 65006500 65006500 65006500 65006500  e.e.e.e.e.e.e.e.
 162d0 6500f101 ff00f101 a100e000 a1004cf0  e.............L.
 162e0 010c73e7 4cf0020c 70e74cf0 040c6de7  ..s.L...p.L...m.
 162f0 4cf0100c 6ae74cf0 080c67e7 a0f16903  L...j.L...g...i.
 16300 dbb20f2b 0dd80122 49f24101 9a400a40  ...+..."I.A..@.@
 16310 0a9240f0 15810a2b 00f0cd80 072b00f0  ..@....+.....+..
 16320 b4806b1c 01342a46 51461d46 5b46c847  ..k..4*FQF.F[F.G
 16330 20780028 7ff445af 2c46ab45 01d80bf1   x.(..E.,F.E....
 16340 ff352a46 5b465146 00200b9d a8472046  .5*F[FQF. ...G F
 16350 11b0bde8 f08f6078 4cf4806c 621ca0f1  ......`xL..lb...
 16360 3003092b 40f22f81 2a2800f0 3b811446  0..+@./.*(..;..F
 16370 4ae70026 06eb8606 00eb4606 14f8010f  J..&......F.....
 16380 a0f13003 303e092b f4d93ae7 58f8046b  ..0.0>.+..:.X..k
 16390 002e21db 60780134 33e700f0 df0300f0  ..!.`x.43.......
 163a0 fd0008f1 07082a46 472b5146 28f00708  ......*FG+QF(...
 163b0 5b4608bf 4cf4006c 45284846 04f10104  [F..L..lE(HF....
 163c0 08bf4cf0 200cb8ec 020bcde9 016c0097  ..L. ........l..
 163d0 fff77efb 0546f0e6 60784cf0 020c7642  ..~..F..`xL...vB
 163e0 01340ee7 60786c28 00f03a81 4cf4807c  .4..`xl(..:.L..|
 163f0 013427e7 60784cf4 007c0134 22e700bf  .4'.`xL..|.4"...
 16400 f9560100 01570100 60786828 00f02381  .V...W..`xh(..#.
 16410 4cf0800c 013415e7 462808f1 07082a46  L....4..F(....*F
 16420 5b4608bf 4cf0200c 28f00708 51464846  [F..L. .(...QFHF
 16430 0134b8ec 020bcde9 016c0097 fff7e4fc  .4.......l......
 16440 0546bae6 6b1c2a46 51462520 1d465b46  .F..k.*FQF% .F[F
 16450 0134c847 b1e61cf0 020f00f0 098158f8  .4.G..........X.
 16460 040b5b46 2a465146 c0b26f1c c847012e  ..[F*FQF..o..G..
 16470 40f24981 35443a46 01375b46 51462020  @.I.5D:F.7[FQF  
 16480 c847af42 f7d10134 97e60a9b 2a460397  .G.B...4....*F..
 16490 51460193 4cf02103 48460134 05930823  QF..L.!.HF.4...#
 164a0 04931023 029358f8 043b0093 5b46fff7  ...#..X..;..[F..
 164b0 5dfa0546 81e64346 53f8048b 98f80000  ]..F..CFS.......
 164c0 0c93002f 40f09580 70b16ff0 01010131  .../@...p.o....1
 164d0 43464144 01e08b42 03d013f8 012f002a  CFAD...B...../.*
 164e0 f9d1a3eb 08030a93 1cf48063 0d9304d0  ...........c....
 164f0 0a9bbb42 28bf3b46 0a931cf0 02030e93  ...B(.;F........
 16500 00f0dc80 002800f0 c9800f96 2a460d9e  .....(......*F..
 16510 00e02a46 5b465146 1eb107f1 ff3c37b1  ..*F[FQF.....<7.
 16520 6746c847 18f8010f 01350028 f1d1dde9  gF.G.....5.(....
 16530 0e36002b 40f0b280 0134ddf8 30803ce6  .6.+@....4..0.<.
 16540 00f0df03 582b00f0 18816f28 00f0d180  ....X+....o(....
 16550 622800f0 25812cf0 100c4ff0 0a0e6928  b(..%.,...O...i(
 16560 01d06428 74d11cf4 806f18bf 2cf0010c  ..d(t....o..,...
 16570 692843d0 a0f16400 b0fa80f0 40090028  i(C...d.....@..(
 16580 3cd11cf4 007340f0 e1801cf4 807f40f0  <....s@.......@.
 16590 f7801cf0 400f58f8 043b40f0 b2801cf0  ....@.X..;@.....
 165a0 800f18bf 9bb20093 2a460023 cde9046c  ........*F.#...l
 165b0 cde902e7 01935b46 51464846 0134fff7  ......[FQFHF.4..
 165c0 d5f90546 f9e50027 07eb8707 00eb4700  ...F...'......G.
 165d0 a0f13007 12f8010f a0f13003 092bf3d9  ..0.......0..+..
 165e0 144612e6 58f8047b 02342078 27eae777  .F..X..{.4 x'..w
 165f0 0be60028 3ff478af 791e68e7 1cf4007f  ...(?.x.y.h.....
 16600 40f08380 1cf4807f 40f0cd80 1cf0400f  @.......@.....@.
 16610 72d11cf0 800f00f0 db8038f9 043b83ea  r.........8..;..
 16620 e372a2eb e37292b2 db0f0092 2a460193  .r...r......*F..
 16630 cde9046c cde902e7 bde700f0 df03582b  ...l..........X+
 16640 86d15828 40f09980 4cf0200c 4ff0100e  ..X(@...L. .O...
 16650 2cf00c0c 87e7a078 4cf0c00c 0234f1e5  ,......xL....4..
 16660 a0784cf4 407c0234 ece50446 054664e6  .xL.@|.4...F.Fd.
 16670 012e40f2 b4806b1e 1e442a46 01355b46  ..@...k..D*F.5[F
 16680 51462020 c847b542 f7d158f8 040b5b46  QF  .G.B..X...[F
 16690 32465146 c0b2751c c847f4e6 0a9b2f46  2FQF..u..G..../F
 166a0 9e427ff6 49af3544 ed1a3a46 01375b46  .B..I.5D..:F.7[F
 166b0 51462020 c847af42 f7d13de7 0a9a9642  QF  .G.B..=....B
 166c0 02f10103 40f28d80 73190a94 9b1a1c46  ....@...s......F
 166d0 2a460135 5b465146 2020c847 a542f7d1  *F.5[FQF  .G.B..
 166e0 731c98f8 00000a9c 0a930028 7ff40daf  s..........(....
 166f0 22e74ff0 080eabe7 58f8043b dbb21a46  ".O.....X..;...F
 16700 92e7dbb2 4fe73d46 bde608f1 070828f0  ....O.=F......(.
 16710 0708d8f8 043058f8 082bd90f 002b0697  .....0X..+...+..
 16720 02914ff0 0001cdf8 10e00591 cde9076c  ..O............l
 16730 02da5242 63eb4303 51464846 cde90023  ..RBc.C.QFHF...#
 16740 2a465b46 fff75ef9 05469ce6 08f10708  *F[F..^..F......
 16750 05900290 2a4628f0 07080697 cdf810e0  ....*F(.........
 16760 5b465146 4846cde9 076cf8e8 0267cde9  [FQFHF...l...g..
 16770 0067fff7 47f90546 85e64ff0 100eeee6  .g..G..F..O.....
 16780 01932a46 5b464846 cde9046c cde902e7  ..*F[FHF...l....
 16790 58f8041b 00915146 fff7e8f8 054672e6  X.....QF.....Fr.
 167a0 4ff0020e 54e758f8 040b2a46 5b465146  O...T.X...*F[FQF
 167b0 00284fea d075b8bf 40420195 00904846  .(O..u..@B....HF
 167c0 cde9046c cde902e7 fff7d0f8 05465ae6  ...l.........FZ.
 167d0 58f8043b 83eae372 a2ebe372 24e72e46  X..;...r...r$..F
 167e0 53e70a93 00287ff4 90aea5e6 fef77ebd  S....(........~.
 167f0 fef74ebd fef7b2bd fef76cbd fef708be  ..N.......l.....
 16800 fef7debd 08461146 fef7cebd 0846fef7  .....F.F.....F..
 16810 b5bd00bf 00b97047 2de9f84f 01218146  ......pG-..O.!.F
 16820 214c224d 224e54e8 003f2a68 306844e8  !L"M"NT..?*h0hD.
 16830 0013002b f7d11f49 4b684ff4 7a7bdff8  ...+...IKhO.z{..
 16840 78a01b1a 01270bfb 02f8daf8 0020a3fb  x....'....... ..
 16850 02325a45 94bf9044 d84454e8 003f2a68  .2ZE...D.DT..?*h
 16860 306844e8 0073002b f7d14b68 daf800c0  0hD..s.+..Kh....
 16870 1b1a0bfb 02f2a3fb 0c3cbcf5 7a7f94bf  .........<..z...
 16880 624402f5 7a72a2eb 0802b2f5 7a7f06d3  bD..zr......z...
 16890 b9f10109 08f57a78 dfd1bde8 f88ffef7  ......zx........
 168a0 ebf90449 d9e700bf 98b30020 94b30020  ...I....... ... 
 168b0 90b30020 001000e0 88b20020 30b40f4b  ... ....... 0..K
 168c0 4ff0010c 0e4d0f4c 53e8002f 28682168  O....M.LS../(h!h
 168d0 43e800c2 002af7d1 0b4b5b68 0b4a5b1a  C....*...K[h.J[.
 168e0 4ff47a71 126801fb 00f0a3fb 023230bc  O.zq.h.......20.
 168f0 8a4294bf 80184018 704700bf 98b30020  .B....@.pG..... 
 16900 94b30020 90b30020 001000e0 88b20020  ... ... ....... 
 16910 10b50023 82b00446 00f12802 011d0093  ...#...F..(.....
 16920 00f14c03 c030fbf7 dbfca169 e269e36b  ..L..0.....i.i.k
 16930 206a2167 6267216c 626ce367 236ea067   j!gbg!lbl.g#n.g
 16940 c4f88010 c4f88420 c4f88830 02b010bd  ....... ...0....
 16950 00234ff0 7e51164a 10b50446 03674367  .#O.~Q.J...F.gCg
 16960 8367c367 c0f88030 c0f88430 c0f88830  .g.g...0...0...0
 16970 c0f88c30 c0f89030 c0f89430 c0f89830  ...0...0...0...0
 16980 c0f89c30 c0f8a030 c0f8a430 c0f8a830  ...0...0...0...0
 16990 c0f8ac30 c0f8b030 c0f8b430 c0f8b830  ...0...0...0...0
 169a0 c0f8bc10 40f8c02b fbf7fafa 204610bd  ....@..+.... F..
 169b0 c8250020 024b0349 034ac3e9 00127047  .%. .K.I.J....pG
 169c0 a89e0020 40420f00 070000c0 002300f1  ... @B.......#..
 169d0 540110b5 044682b0 03650846 0191eff7  T....F...e.F....
 169e0 d9fa0199 04f5b270 f3f70afd 204602b0  .......p.... F..
 169f0 10bd00bf 10b500f5 b27084b0 00210024  .........p...!.$
 16a00 0390f3f7 fffc0421 3c230522 0398cde9  .......!<#."....
 16a10 00140221 f3f710fd 08b104b0 10bd1621  ...!...........!
 16a20 0448fef7 c1fc0448 04b0bde8 1040fef7  .H.....H.....@..
 16a30 01be00bf 58200020 10420020 00b54ff4  ....X . .B. ..O.
 16a40 163283b0 044b00f5 b2700449 0092f3f7  .2...K...p.I....
 16a50 e9fc03b0 5df804fb 60ed2020 60452320  ....]...`.  `E# 
 16a60 f8b5074c 074f084e 04f51635 34f8022f  ...L.O.N...54../
 16a70 39463046 fef7fafd ac42f7d1 f8bd00bf  9F0F.....B......
 16a80 5e452320 50200020 10420020 002280ed  ^E# P . .B. ."..
 16a90 000ac0ed 010a80ed 021a4261 8261c0ed  ..........Ba.a..
 16aa0 031a80ed 042a7047 10b5054c 2046fbf7  .....*pG...L F..
 16ab0 77fa2046 034a0449 bde81040 00f002b9  w. F.J.I...@....
 16ac0 34af0020 50520020 0d1f0100 10b50446  4.. PR. .......F
 16ad0 84b09fed 1d1ab2ee 042a0698 faee041a  .........*......
 16ae0 21600021 dfed190a 9fed190a 21746260  !`.!........!tb`
 16af0 8ded031a cded020a 8ded010a c4e90230  ...............0
 16b00 04f11400 fff7c2ff 9ded031a dded020a  ................
 16b10 b2ee042a 9ded010a faee041a 04f13000  ...*..........0.
 16b20 fff7b4ff b2ee042a faee041a 9ded031a  .......*........
 16b30 dded020a 04f14c00 9ded010a fff7a6ff  ......L.........
 16b40 204604b0 10bd00bf cdcc4c3d 0ad7233c   F........L=..#<
 16b50 cdcccc3d 704700bf 08b50748 fbf756f9  ...=pG.....H..V.
 16b60 0648fbf7 53f90648 fbf750f9 0548bde8  .H..S..H..P..H..
 16b70 0840fbf7 4bb900bf 14a60020 18a60020  .@..K...... ... 
 16b80 1ca60020 20a60020 704700bf 054a064b  ...  .. pG...J.K
 16b90 10b50446 026040f8 c03ffbf7 d1fa2046  ...F.`@..?.... F
 16ba0 10bd00bf c8250020 a0220020 f8b5134d  .....%. .". ...M
 16bb0 0024134f 2846134e fff71cff 2846fff7  .$.O(F.N....(F..
 16bc0 3dff07fb 04f30621 0f48b6eb f30f04f1  =......!.H......
 16bd0 01040ed3 fef7e8fb 0c48fef7 2bfd2846  .........H..+.(F
 16be0 fff73eff 04210a48 fef7defb 0748fef7  ..>..!.H.....H..
 16bf0 21fd4ff4 fa70fff7 0dfedfe7 70a30020  !.O..p......p.. 
 16c00 cdcccccc 66666606 c4310020 10420020  ....fff..1. .B. 
 16c10 cc310020 f0b5224f 83b0224e 3846224c  .1. .."O.."N8F"L
 16c20 fff798ff 3046fff7 93fe2049 204a3046  ....0F.... I J0F
 16c30 00f048f8 1f4b204d 5b682846 23600023  ..H..K M[h(F#`.#
 16c40 c4f8a430 c4f8a830 c4f8ac30 c4f8b030  ...0...0...0...0
 16c50 c4f8b430 c4f8b830 c4f8bc30 c4f8c030  ...0...0...0...0
 16c60 c4f8c430 c4f8c830 c4f8cc30 c4f8d030  ...0...0...0...0
 16c70 c4f8d430 c4f8d830 c4f8dc30 c4f8e030  ...0...0...0...0
 16c80 fff7a4fe 0a4a2846 0c4900f0 1bf82346  .....J(F.I....#F
 16c90 32463946 00950a48 fff718ff 03b0f0bd  2F9F...H........
 16ca0 8cb30020 98af0020 c8b00020 8d6b0100  ... ... ... .k..
 16cb0 50520020 001000e0 70a30020 896b0100  PR. ....p.. .k..
 16cc0 84a60020 03460846 194602f0 19bf00bf  ... .F.F.F......
 16cd0 38b5084c 4ff41e65 2846e560 02f032fb  8..LO..e(F.`..2.
 16ce0 a06020b1 0023c0e9 00536060 38bde060  .` ..#...S``8..`
 16cf0 606038bd c09e0020 08b52ded 028bb0ee  ``8.... ..-.....
 16d00 408a00f0 a7f9b4ee 488af1ee 10fa0fd6  @.......H.......
 16d10 b5eec08a f1ee10fa 0ad8b5ee 408af1ee  ............@...
 16d20 10fa08d1 00f066fd 22239fed 090a0360  ......f."#.....`
 16d30 bdec028b 08bd00f0 5dfdbdec 028b0346  ........]......F
 16d40 21221a60 0348bde8 084000f0 77b800bf  !".`.H...@..w...
 16d50 000080ff a01e0020 10ee103a 40f22a41  ....... ...:@.*A
 16d60 c3f30a52 8a42b7ee c03a32d8 b7ee000b  ...R.B...:2.....
 16d70 2d4b93ed 4a2b93ed 481bb0ee 417ba2ee  -K..J+..H...A{..
 16d80 037b17ee 100a37ee 417b00f0 1f0203eb  .{....7.A{......
 16d90 c20130b4 92ee037b 93ed4c4b 53f83240  ..0....{..LKS.2@
 16da0 4d6893ed 4e6b93ed 505ba4ee 076b27ee  Mh..Nk..P[...k'.
 16db0 074b0021 0a1905eb c033a5ee 070b43ec  .K.!.....3....C.
 16dc0 172ba6ee 040b30bc 20ee070b b7eec00b  .+....0. .......
 16dd0 704713f5 000f20d0 b2f5ff6f 1ad2dfed  pG.... ....o....
 16de0 137ab4ee e70af1ee 10fa10dc dfed107a  .z.............z
 16df0 b4eee70a f1ee10fa 12d4dfed 0e7ab4ee  .............z..
 16e00 e70af1ee 10fab1d5 002000f0 f5b80020  ......... ..... 
 16e10 00f0f8b8 30ee000a 70479fed 070a7047  ....0...pG....pG
 16e20 002000f0 e3b800bf 80030020 1772b142  . ......... .r.B
 16e30 b4f1cfc2 cf8ecec2 00000000 9fed010a  ................
 16e40 704700bf 0000c07f 10ee103a b3f17e5f  pG.........:..~_
 16e50 10ee102a 38d0a3f5 0001b1f1 fe4f36d2  ...*8........O6.
 16e60 bfee000b 02f14043 264903f5 4d03c3f3  ......@C&I..M...
 16e70 c34001eb 001091ed 404b91ed 445b91ed  .@......@K..D[..
 16e80 467b91ed 426bd90d c90590ed 002b521a  F{..Bk.......+R.
 16e90 03ee902a 90ed021b db15b7ee e33aa2ee  ...*.........:..
 16ea0 030b03ee 903a20ee 002ba5ee 007bb8ee  .....: ..+...{..
 16eb0 e33ba6ee 027ba3ee 041b30ee 010ba2ee  .;...{....0.....
 16ec0 070bb7ee c00b7047 9fed0f0a 70475900  ......pG....pGY.
 16ed0 14d0b3f1 ff4f14d0 002b0bdb b1f17f4f  .....O...+.....O
 16ee0 08d2dfed 0a7a60ee 277a17ee 903aa3f1  .....z`.'z...:..
 16ef0 3862b5e7 00ee103a 00f09cb8 012000f0  8b.....:..... ..
 16f00 87b87047 c8040020 00000000 0000004b  ..pG... .......K
 16f10 70b510ee 104ac4f3 c7537f3b 162b0646  p....J...S.;.+.F
 16f20 0ddc002b 1fdb144a 42fa03f3 1c4212d1  ...+...JB....B..
