
build/./libraries/FlexIO_t4/FlexSerial.cpp.o:     file format elf32-littlearm

SYMBOL TABLE:
00000000 l    df *ABS*	00000000 FlexSerial.cpp
00000000 l    d  .text	00000000 .text
00000000 l    d  .data	00000000 .data
00000000 l    d  .bss	00000000 .bss
00000000 l    d  .text._ZN10FlexSerial9availableEv	00000000 .text._ZN10FlexSerial9availableEv
00000000 l    d  .text._ZN10FlexSerial4peekEv	00000000 .text._ZN10FlexSerial4peekEv
00000000 l    d  .text._ZN10FlexSerial4readEv	00000000 .text._ZN10FlexSerial4readEv
00000000 l    d  .text._ZN10FlexSerial17availableForWriteEv	00000000 .text._ZN10FlexSerial17availableForWriteEv
00000000 l    d  .text._ZN10FlexSerial9call_backEP13FlexIOHandler	00000000 .text._ZN10FlexSerial9call_backEP13FlexIOHandler
00000000 l     F .text._ZN10FlexSerial9call_backEP13FlexIOHandler	00000168 .LTHUNK0
00000000 l    d  .text._ZThn16_N10FlexSerial9call_backEP13FlexIOHandler	00000000 .text._ZThn16_N10FlexSerial9call_backEP13FlexIOHandler
00000000 l    d  .text._ZN10FlexSerial3endEv	00000000 .text._ZN10FlexSerial3endEv
00000000 l    d  .text._ZN10FlexSerial5flushEv	00000000 .text._ZN10FlexSerial5flushEv
00000000 l    d  .text._ZN10FlexSerial5writeEh	00000000 .text._ZN10FlexSerial5writeEh
00000000 l    d  .text._ZN10FlexSerialcvbEv	00000000 .text._ZN10FlexSerialcvbEv
00000000 l    d  .flashmem	00000000 .flashmem
00000000 l    d  .text._ZN10FlexSerial5clearEv	00000000 .text._ZN10FlexSerial5clearEv
00000000 l    d  .rodata._ZTV10FlexSerial	00000000 .rodata._ZTV10FlexSerial
00000000 l    d  .comment	00000000 .comment
00000000 l    d  .ARM.attributes	00000000 .ARM.attributes
00000000 g     F .text._ZN10FlexSerial9availableEv	00000016 _ZN10FlexSerial9availableEv
00000000 g     F .text._ZN10FlexSerial4peekEv	00000024 _ZN10FlexSerial4peekEv
00000000 g     F .text._ZN10FlexSerial4readEv	0000003e _ZN10FlexSerial4readEv
00000000 g     F .text._ZN10FlexSerial17availableForWriteEv	0000001a _ZN10FlexSerial17availableForWriteEv
00000000 g     F .text._ZN10FlexSerial9call_backEP13FlexIOHandler	00000168 _ZN10FlexSerial9call_backEP13FlexIOHandler
00000000 g     F .text._ZThn16_N10FlexSerial9call_backEP13FlexIOHandler	00000008 _ZThn16_N10FlexSerial9call_backEP13FlexIOHandler
00000000 g     F .text._ZN10FlexSerial3endEv	0000002e _ZN10FlexSerial3endEv
00000000         *UND*	00000000 _ZN13FlexIOHandler10freeTimersEhh
00000000         *UND*	00000000 _ZN13FlexIOHandler11freeShifterEh
00000000         *UND*	00000000 _ZN13FlexIOHandler23removeIOHandlerCallbackEP21FlexIOHandlerCallback
00000000 g     F .text._ZN10FlexSerial5flushEv	0000002c _ZN10FlexSerial5flushEv
00000000         *UND*	00000000 yield
00000000         *UND*	00000000 systick_millis_count
00000000 g     F .text._ZN10FlexSerial5writeEh	0000006e _ZN10FlexSerial5writeEh
00000000 g     F .text._ZN10FlexSerialcvbEv	0000002e _ZN10FlexSerialcvbEv
00000000 g     F .flashmem	000002d8 _ZN10FlexSerial5beginEmt
00000000         *UND*	00000000 _ZN13FlexIOHandler13requestTimersEh
00000000         *UND*	00000000 _ZN13FlexIOHandler14requestShifterEh
00000000         *UND*	00000000 _ZN13FlexIOHandler16computeClockRateEv
00000000         *UND*	00000000 _ZN13FlexIOHandler18setIOPinToFlexModeEh
00000000         *UND*	00000000 _ZN13FlexIOHandler20addIOHandlerCallbackEP21FlexIOHandlerCallback
00000000         *UND*	00000000 delay
00000000         *UND*	00000000 _ZN13FlexIOHandler10claimTimerEh
00000000         *UND*	00000000 _ZN13FlexIOHandler12claimShifterEh
00000000         *UND*	00000000 _ZN13FlexIOHandler23mapIOPinToFlexIOHandlerEhRh
00000000         *UND*	00000000 _ZN13FlexIOHandler18shiftersDMAChannelEh
000002d8 g     F .flashmem	0000002a _ZN10FlexSerial4initEv
00000304 g     F .flashmem	000000a0 _ZN10FlexSerial8setClockEf
00000000         *UND*	00000000 _ZN13FlexIOHandler8setClockEf
00000000         *UND*	00000000 _ZN13FlexIOHandler13usesSameClockEPKS_
000003a4 g     F .flashmem	000000a0 _ZN10FlexSerial21setClockUsingAudioPLLEf
00000000         *UND*	00000000 _ZN13FlexIOHandler21setClockUsingAudioPLLEf
00000444 g     F .flashmem	000000a0 _ZN10FlexSerial21setClockUsingVideoPLLEf
00000000         *UND*	00000000 _ZN13FlexIOHandler21setClockUsingVideoPLLEf
00000000 g     F .text._ZN10FlexSerial5clearEv	00000002 _ZN10FlexSerial5clearEv
00000000 g     O .rodata._ZTV10FlexSerial	00000040 _ZTV10FlexSerial
00000000         *UND*	00000000 _ZN5Print5writeEPKhj


Contents of section .text._ZN10FlexSerial9availableEv:
 0000 b0f89a30 b0f89c00 9bb280b2 834238bf  ...0.........B8.
 0010 2833181a 704700bf                    (3..pG..        
Contents of section .text._ZN10FlexSerial4peekEv:
 0000 b0f89a20 b0f89c30 92b29bb2 9a4206d0  ... ...0.....B..
 0010 b0f89c30 10fa83f3 93f87200 70474ff0  ...0......r.pGO.
 0020 ff307047                             .0pG            
Contents of section .text._ZN10FlexSerial4readEv:
 0000 b0f89a10 0346b0f8 9c2089b2 92b29142  .....F... .....B
 0010 12d0b0f8 9c2092b2 511c0244 89b2a0f8  ..... ..Q..D....
 0020 9c10b0f8 9c1092f8 72008ab2 272a05d9  ........r...'*..
 0030 0022a3f8 9c207047 4ff0ff30 704700bf  ."... pGO..0pG..
Contents of section .text._ZN10FlexSerial17availableForWriteEv:
 0000 b0f86630 b0f86820 98b293b2 98422cbf  ..f0..h .....B,.
 0010 3f3303f1 ff33181a 704700bf           ?3...3..pG..    
Contents of section .text._ZN10FlexSerial9call_backEP13FlexIOHandler:
 0000 c36e0a68 8b4230b4 07d0036a 8b4225d0  .n.h.B0....j.B%.
 0010 bff34f8f 002030bc 70471369 90f871c0  ..O.. 0.pG.i..q.
 0020 1cea030f f1d0437f c03352f8 2350b0f8  ......C..3R.#P..
 0030 9a30b0f8 9cc09bb2 1ffa8cfc 0133282b  .0...........3(+
 0040 28bf0023 9c45e0d0 b0f89a40 9bb210fa  (..#.E.....@....
 0050 84f484f8 7250a0f8 9a30d6e7 116990f8  ....rP...0...i..
 0060 25301942 58d0116a 0b4255d0 b0f86610  %0.BX..j.BU...f.
 0070 b0f86830 89b29bb2 994215d0 b0f86830  ..h0.....B....h0
 0080 c17f9bb2 80315c1c 0344a4b2 a0f86840  .....1\..D....h@
 0090 93f82630 42f82130 b0f86830 9bb23f2b  ..&0B.!0..h0..?+
 00a0 02d90023 a0f86830 b0f86610 b0f86830  ...#..h0..f...h0
 00b0 89b29bb2 994249d1 72b6136a 90f82510  .....BI.r..j..%.
 00c0 23ea0103 1362916a 90f86b30 0b439362  #....b.j..k0.C.b
 00d0 90f86b30 936162b6 90f82530 51691942  ..k0.ab...%0Qi.B
 00e0 96d072b6 90f82530 536190f8 25301361  ..r...%0Sa..%0.a
 00f0 b0f86610 b0f86830 89b29bb2 994205d1  ..f...h0.....B..
 0100 136a90f8 251023ea 01031362 62b6bff3  .j..%.#....bb...
 0110 4f8f0020 30bc7047 916a9469 90f86bc0  O.. 0.pG.j.i..k.
 0120 214011ea 0c0fd9d0 72b690f8 6a30012b  !@......r...j0.+
 0130 13d9936a 002190f8 6b4023ea 04039362  ...j.!..k@#....b
 0140 80f86a10 90f86b30 936162b6 90f82530  ..j...k0.ab...%0
 0150 51691942 3ff45caf c3e790f8 6a300133  Qi.B?.\.....j0.3
 0160 dbb280f8 6a30ede7                    ....j0..        
Contents of section .text._ZThn16_N10FlexSerial9call_backEP13FlexIOHandler:
 0000 a0f11000 fff7febf                    ........        
Contents of section .text._ZN10FlexSerial3endEv:
 0000 38b50446 006a88b1 ff250122 a17ffff7  8..F.j...%."....
 0010 feffe17f 206aa577 fff7feff 04f11001  .... j.w........
 0020 206ae577 fff7feff 00232362 38bd00bf   j.w.....##b8...
Contents of section .text._ZN10FlexSerial5flushEv:
 0000 70b5094d 2e6890f8 6a305bb1 044604e0  p..M.h..j0[..F..
 0010 fff7feff 94f86a30 23b12b68 9b1bb3f5  ......j0#.+h....
 0020 7a7ff5d9 70bd00bf 00000000           z...p.......    
Contents of section .text._ZN10FlexSerial5writeEh:
 0000 f8b5b0f8 66500446 0e46adb2 01353f2d  ....fP.F.F...5?-
 0010 2bd90027 3d46b4f8 68309bb2 9d4206d1  +..'=F..h0...B..
 0020 fff7feff b4f86830 9bb2ab42 f8d0b4f8  ......h0...B....
 0030 663014fa 83f383f8 266072b6 0120236a  f0......&`r.. #j
 0040 94f82520 84f86a00 1b68a4f8 6670196a  ..% ..j..h..fp.j
 0050 0a431a62 9a6a94f8 6b1022ea 01029a62  .C.b.j..k."....b
 0060 94f86b20 9a6162b6 f8bdafb2 d3e700bf  ..k .ab.........
Contents of section .text._ZN10FlexSerialcvbEv:
 0000 036a13b1 837f072b 0cd9c36e 43b1037f  .j.....+...nC...
 0010 072b05d8 407f0728 8cbf0020 01207047  .+..@..(... . pG
 0020 00207047 c37f072b efd80120 704700bf  . pG...+... pG..
Contents of section .flashmem:
 0000 f8b5036a 04460d46 002b00f0 3881e36e  ...j.F.F.+..8..n
 0010 002b00f0 3e81a369 013300f0 1881206a  .+..>..i.3.... j
 0020 002800f0 04816369 013303d0 e36e002b  .(....ci.3...n.+
 0030 00f0fd80 a17f0668 072940f2 f9800121  .......h.)@....!
 0040 fff7feff ff28a077 00f0f180 e17f0729  .....(.w.......)
 0050 40f2f680 ff21206a fff7feff ff28e077  @....! j.....(.w
 0060 00f0e580 0127a37f 07fa00f0 07fa03f3  .....'..........
 0070 84f82500 84f86b30 206afff7 feff05fa  ..%...k0 j......
 0080 07f307ee 900a3222 07ee103a e37ff8ee  ......2"...:....
 0090 676ab8ee 477a4033 46f82320 c6ee877a  gj..Gz@3F.# ...z
 00a0 94f82430 a27f1b02 e17f1206 03f4f853  ..$0...........S
 00b0 203102f0 e0621343 834a1a43 46f82120   1...b.C.J.CF.! 
 00c0 a27f02f5 a072f8fe 677afcee e77a17ee  .....r..gz...z..
 00d0 903aff2b 28bfff23 43f47063 46f82230  .:.+(..#C.pcF."0
 00e0 42f22222 a37f03f5 907346f8 2320e37f  B."".....sF.# ..
 00f0 94f82420 07eb8303 a17f1202 1b0601f5  ..$ ............
 0100 807102f4 f85203f0 7c531343 6f4a1a43  .q...R..|S.CoJ.C
 0110 46f82120 72b6b760 336a94f8 252023ea  F.! r..`3j..% #.
 0120 02033362 62b6217e 206afff7 feff04f1  ..3bb.!~ j......
 0130 1001206a fff7feff 3846fff7 feffe36e  .. j....8F.....n
 0140 002b74d0 217f1e68 072900f2 8f801846  .+t.!..h.).....F
 0150 fff7feff 00286ad0 617f0729 40f2a580  .....(j.a..)@...
 0160 226ae36e 9a4200f0 a780ff21 1846fff7  "j.n.B.....!.F..
 0170 feffff28 60775ad0 012700f1 40033222  ...(`wZ..'..@.2"
 0180 07fa00f0 bd4084f8 710046f8 2320237f  .....@..q.F.# #.
 0190 94f87020 1b06617f 1202e06e 03f0e063  ..p ..a....n...c
 01a0 203102f4 f8521343 494a1a43 46f82120   1...R.CIJ.CF.! 
 01b0 fff7feff 07ee900a 227ff8ee 676a07ee  ........"...gj..
 01c0 905a02f5 a072217d b8ee677a e06ec6ee  .Z...r!}..gz.n..
 01d0 877af8fe 677afcee e77a17ee 903aff2b  .z..gz...z...:.+
 01e0 28bfff23 43f47063 46f82230 237f394a  (..#C.pcF."0#.9J
 01f0 03f59073 46f82320 94f87030 227f1b02  ...sF.# ..p0"...
 0200 02f58072 03f4f853 43f08103 46f82230  ...r...SC...F."0
 0210 b760fff7 feff04f1 1001e06e fff7feff  .`.........n....
 0220 72b6326a 94f87130 13433362 62b6f8bd  r.2j..q0.C3bb...
 0230 fff7feff 0028fad0 e17f0729 3ff60aaf  .....(.....)?...
 0240 206afff7 feff0028 f1d0e07f 0ae76369   j.....(......ci
 0250 013325d0 e36e002b e9d0206a 00287ff4  .3%..n.+.. j.(..
 0260 e9ae217f 1e680729 7ff671af 01211846  ..!..h.)..q..!.F
 0270 fff7feff ff282077 7ff46eaf f8bd00f1  .....( w..n.....
 0280 2401007e fff7feff e36e2062 002b7ff4  $..~.....n b.+..
 0290 c2ae04f1 7001207d fff7feff e066bae6  ....p. }.....f..
 02a0 206a0028 3ff44baf c4e6e06e fff7feff   j.(?.K....n....
 02b0 0028bcd0 607f5fe7 1846e17f fff7feff  .(..`._..F......
 02c0 e36e0146 52e700bf 02000300 0100c000  .n.FR...........
 02d0 01008000 22240402 036a10b5 04464bb1  ...."$...j...FK.
 02e0 e36e03b1 10bd04f1 7001207d fff7feff  .n......p. }....
 02f0 e06610bd 00f12401 007efff7 feff2062  .f....$..~.... b
 0300 eee700bf 016a10b5 04462ded 028bb0ee  .....j...F-.....
 0310 408aa9b1 c06ef0b9 04f17001 207dfff7  @....n....p. }..
 0320 feff216a e0660029 36d0a0b9 0846b0ee  ..!j.f.)6....F..
 0330 480afff7 feffe06e c0b9bdec 028b10bd  H......n........
 0340 00f12401 007efff7 feff0146 e06e2162  ..$..~.....F.n!b
 0350 0028e1d0 51b1fff7 feff78b1 216a0029  .(..Q.....x.!j.)
 0360 e4d1e06e 9fed0e0a 0028e6d0 b0ee480a  ...n.....(....H.
 0370 bdec028b bde81040 fff7febf 206ab0ee  .......@.... j..
 0380 480afff7 feffb0ee 480ae06e bdec028b  H.......H..n....
 0390 bde81040 fff7febf 9fed010a cce700bf  ...@............
 03a0 00000000 016a10b5 04462ded 028bb0ee  .....j...F-.....
 03b0 408aa9b1 c06ef0b9 04f17001 207dfff7  @....n....p. }..
 03c0 feff216a e0660029 36d0a0b9 0846b0ee  ..!j.f.)6....F..
 03d0 480afff7 feffe06e c0b9bdec 028b10bd  H......n........
 03e0 00f12401 007efff7 feff0146 e06e2162  ..$..~.....F.n!b
 03f0 0028e1d0 51b1fff7 feff78b1 216a0029  .(..Q.....x.!j.)
 0400 e4d1e06e 9fed0e0a 0028e6d0 b0ee480a  ...n.....(....H.
 0410 bdec028b bde81040 fff7febf 206ab0ee  .......@.... j..
 0420 480afff7 feffb0ee 480ae06e bdec028b  H.......H..n....
 0430 bde81040 fff7febf 9fed010a cce700bf  ...@............
 0440 00000000 016a10b5 04462ded 028bb0ee  .....j...F-.....
 0450 408aa9b1 c06ef0b9 04f17001 207dfff7  @....n....p. }..
 0460 feff216a e0660029 36d0a0b9 0846b0ee  ..!j.f.)6....F..
 0470 480afff7 feffe06e c0b9bdec 028b10bd  H......n........
 0480 00f12401 007efff7 feff0146 e06e2162  ..$..~.....F.n!b
 0490 0028e1d0 51b1fff7 feff78b1 216a0029  .(..Q.....x.!j.)
 04a0 e4d1e06e 9fed0e0a 0028e6d0 b0ee480a  ...n.....(....H.
 04b0 bdec028b bde81040 fff7febf 206ab0ee  .......@.... j..
 04c0 480afff7 feffb0ee 480ae06e bdec028b  H.......H..n....
 04d0 bde81040 fff7febf 9fed010a cce700bf  ...@............
 04e0 00000000                             ....            
Contents of section .text._ZN10FlexSerial5clearEv:
 0000 704700bf                             pG..            
Contents of section .rodata._ZTV10FlexSerial:
 0000 00000000 00000000 00000000 00000000  ................
 0010 00000000 00000000 00000000 00000000  ................
 0020 00000000 00000000 00000000 00000000  ................
 0030 00000000 f0ffffff 00000000 00000000  ................
Contents of section .comment:
 0000 00474343 3a202841 726d2047 4e552054  .GCC: (Arm GNU T
 0010 6f6f6c63 6861696e 2031312e 332e5265  oolchain 11.3.Re
 0020 6c312920 31312e33 2e312032 30323230  l1) 11.3.1 20220
 0030 37313200                             712.            
Contents of section .ARM.attributes:
 0000 41310000 00616561 62690001 27000000  A1...aeabi..'...
 0010 0537452d 4d00060d 074d0902 0a081204  .7E-M....M......
 0020 14011501 17031801 19011a01 1c011e02  ................
 0030 2201                                 ".              

Disassembly of section .text._ZN10FlexSerial9availableEv:

00000000 <_ZN10FlexSerial9availableEv>:
   0:	f8b0 309a 	ldrh.w	r3, [r0, #154]	; 0x9a
   4:	f8b0 009c 	ldrh.w	r0, [r0, #156]	; 0x9c
   8:	b29b      	uxth	r3, r3
   a:	b280      	uxth	r0, r0
   c:	4283      	cmp	r3, r0
   e:	bf38      	it	cc
  10:	3328      	addcc	r3, #40	; 0x28
  12:	1a18      	subs	r0, r3, r0
  14:	4770      	bx	lr
  16:	bf00      	nop

Disassembly of section .text._ZN10FlexSerial4peekEv:

00000000 <_ZN10FlexSerial4peekEv>:
   0:	f8b0 209a 	ldrh.w	r2, [r0, #154]	; 0x9a
   4:	f8b0 309c 	ldrh.w	r3, [r0, #156]	; 0x9c
   8:	b292      	uxth	r2, r2
   a:	b29b      	uxth	r3, r3
   c:	429a      	cmp	r2, r3
   e:	d006      	beq.n	1e <_ZN10FlexSerial4peekEv+0x1e>
  10:	f8b0 309c 	ldrh.w	r3, [r0, #156]	; 0x9c
  14:	fa10 f383 	uxtah	r3, r0, r3
  18:	f893 0072 	ldrb.w	r0, [r3, #114]	; 0x72
  1c:	4770      	bx	lr
  1e:	f04f 30ff 	mov.w	r0, #4294967295	; 0xffffffff
  22:	4770      	bx	lr

Disassembly of section .text._ZN10FlexSerial4readEv:

00000000 <_ZN10FlexSerial4readEv>:
   0:	f8b0 109a 	ldrh.w	r1, [r0, #154]	; 0x9a
   4:	4603      	mov	r3, r0
   6:	f8b0 209c 	ldrh.w	r2, [r0, #156]	; 0x9c
   a:	b289      	uxth	r1, r1
   c:	b292      	uxth	r2, r2
   e:	4291      	cmp	r1, r2
  10:	d012      	beq.n	38 <_ZN10FlexSerial4readEv+0x38>
  12:	f8b0 209c 	ldrh.w	r2, [r0, #156]	; 0x9c
  16:	b292      	uxth	r2, r2
  18:	1c51      	adds	r1, r2, #1
  1a:	4402      	add	r2, r0
  1c:	b289      	uxth	r1, r1
  1e:	f8a0 109c 	strh.w	r1, [r0, #156]	; 0x9c
  22:	f8b0 109c 	ldrh.w	r1, [r0, #156]	; 0x9c
  26:	f892 0072 	ldrb.w	r0, [r2, #114]	; 0x72
  2a:	b28a      	uxth	r2, r1
  2c:	2a27      	cmp	r2, #39	; 0x27
  2e:	d905      	bls.n	3c <_ZN10FlexSerial4readEv+0x3c>
  30:	2200      	movs	r2, #0
  32:	f8a3 209c 	strh.w	r2, [r3, #156]	; 0x9c
  36:	4770      	bx	lr
  38:	f04f 30ff 	mov.w	r0, #4294967295	; 0xffffffff
  3c:	4770      	bx	lr
  3e:	bf00      	nop

Disassembly of section .text._ZN10FlexSerial17availableForWriteEv:

00000000 <_ZN10FlexSerial17availableForWriteEv>:
   0:	f8b0 3066 	ldrh.w	r3, [r0, #102]	; 0x66
   4:	f8b0 2068 	ldrh.w	r2, [r0, #104]	; 0x68
   8:	b298      	uxth	r0, r3
   a:	b293      	uxth	r3, r2
   c:	4298      	cmp	r0, r3
   e:	bf2c      	ite	cs
  10:	333f      	addcs	r3, #63	; 0x3f
  12:	f103 33ff 	addcc.w	r3, r3, #4294967295	; 0xffffffff
  16:	1a18      	subs	r0, r3, r0
  18:	4770      	bx	lr
  1a:	bf00      	nop

Disassembly of section .text._ZN10FlexSerial9call_backEP13FlexIOHandler:

00000000 <_ZN10FlexSerial9call_backEP13FlexIOHandler>:
   0:	6ec3      	ldr	r3, [r0, #108]	; 0x6c
   2:	680a      	ldr	r2, [r1, #0]
   4:	428b      	cmp	r3, r1
   6:	b430      	push	{r4, r5}
   8:	d007      	beq.n	1a <_ZN10FlexSerial9call_backEP13FlexIOHandler+0x1a>
   a:	6a03      	ldr	r3, [r0, #32]
   c:	428b      	cmp	r3, r1
   e:	d025      	beq.n	5c <_ZN10FlexSerial9call_backEP13FlexIOHandler+0x5c>
  10:	f3bf 8f4f 	dsb	sy
  14:	2000      	movs	r0, #0
  16:	bc30      	pop	{r4, r5}
  18:	4770      	bx	lr
  1a:	6913      	ldr	r3, [r2, #16]
  1c:	f890 c071 	ldrb.w	ip, [r0, #113]	; 0x71
  20:	ea1c 0f03 	tst.w	ip, r3
  24:	d0f1      	beq.n	a <_ZN10FlexSerial9call_backEP13FlexIOHandler+0xa>
  26:	7f43      	ldrb	r3, [r0, #29]
  28:	33c0      	adds	r3, #192	; 0xc0
  2a:	f852 5023 	ldr.w	r5, [r2, r3, lsl #2]
  2e:	f8b0 309a 	ldrh.w	r3, [r0, #154]	; 0x9a
  32:	f8b0 c09c 	ldrh.w	ip, [r0, #156]	; 0x9c
  36:	b29b      	uxth	r3, r3
  38:	fa1f fc8c 	uxth.w	ip, ip
  3c:	3301      	adds	r3, #1
  3e:	2b28      	cmp	r3, #40	; 0x28
  40:	bf28      	it	cs
  42:	2300      	movcs	r3, #0
  44:	459c      	cmp	ip, r3
  46:	d0e0      	beq.n	a <_ZN10FlexSerial9call_backEP13FlexIOHandler+0xa>
  48:	f8b0 409a 	ldrh.w	r4, [r0, #154]	; 0x9a
  4c:	b29b      	uxth	r3, r3
  4e:	fa10 f484 	uxtah	r4, r0, r4
  52:	f884 5072 	strb.w	r5, [r4, #114]	; 0x72
  56:	f8a0 309a 	strh.w	r3, [r0, #154]	; 0x9a
  5a:	e7d6      	b.n	a <_ZN10FlexSerial9call_backEP13FlexIOHandler+0xa>
  5c:	6911      	ldr	r1, [r2, #16]
  5e:	f890 3025 	ldrb.w	r3, [r0, #37]	; 0x25
  62:	4219      	tst	r1, r3
  64:	d058      	beq.n	118 <_ZN10FlexSerial9call_backEP13FlexIOHandler+0x118>
  66:	6a11      	ldr	r1, [r2, #32]
  68:	420b      	tst	r3, r1
  6a:	d055      	beq.n	118 <_ZN10FlexSerial9call_backEP13FlexIOHandler+0x118>
  6c:	f8b0 1066 	ldrh.w	r1, [r0, #102]	; 0x66
  70:	f8b0 3068 	ldrh.w	r3, [r0, #104]	; 0x68
  74:	b289      	uxth	r1, r1
  76:	b29b      	uxth	r3, r3
  78:	4299      	cmp	r1, r3
  7a:	d015      	beq.n	a8 <_ZN10FlexSerial9call_backEP13FlexIOHandler+0xa8>
  7c:	f8b0 3068 	ldrh.w	r3, [r0, #104]	; 0x68
  80:	7fc1      	ldrb	r1, [r0, #31]
  82:	b29b      	uxth	r3, r3
  84:	3180      	adds	r1, #128	; 0x80
  86:	1c5c      	adds	r4, r3, #1
  88:	4403      	add	r3, r0
  8a:	b2a4      	uxth	r4, r4
  8c:	f8a0 4068 	strh.w	r4, [r0, #104]	; 0x68
  90:	f893 3026 	ldrb.w	r3, [r3, #38]	; 0x26
  94:	f842 3021 	str.w	r3, [r2, r1, lsl #2]
  98:	f8b0 3068 	ldrh.w	r3, [r0, #104]	; 0x68
  9c:	b29b      	uxth	r3, r3
  9e:	2b3f      	cmp	r3, #63	; 0x3f
  a0:	d902      	bls.n	a8 <_ZN10FlexSerial9call_backEP13FlexIOHandler+0xa8>
  a2:	2300      	movs	r3, #0
  a4:	f8a0 3068 	strh.w	r3, [r0, #104]	; 0x68
  a8:	f8b0 1066 	ldrh.w	r1, [r0, #102]	; 0x66
  ac:	f8b0 3068 	ldrh.w	r3, [r0, #104]	; 0x68
  b0:	b289      	uxth	r1, r1
  b2:	b29b      	uxth	r3, r3
  b4:	4299      	cmp	r1, r3
  b6:	d149      	bne.n	14c <_ZN10FlexSerial9call_backEP13FlexIOHandler+0x14c>
  b8:	b672      	cpsid	i
  ba:	6a13      	ldr	r3, [r2, #32]
  bc:	f890 1025 	ldrb.w	r1, [r0, #37]	; 0x25
  c0:	ea23 0301 	bic.w	r3, r3, r1
  c4:	6213      	str	r3, [r2, #32]
  c6:	6a91      	ldr	r1, [r2, #40]	; 0x28
  c8:	f890 306b 	ldrb.w	r3, [r0, #107]	; 0x6b
  cc:	430b      	orrs	r3, r1
  ce:	6293      	str	r3, [r2, #40]	; 0x28
  d0:	f890 306b 	ldrb.w	r3, [r0, #107]	; 0x6b
  d4:	6193      	str	r3, [r2, #24]
  d6:	b662      	cpsie	i
  d8:	f890 3025 	ldrb.w	r3, [r0, #37]	; 0x25
  dc:	6951      	ldr	r1, [r2, #20]
  de:	4219      	tst	r1, r3
  e0:	d096      	beq.n	10 <_ZN10FlexSerial9call_backEP13FlexIOHandler+0x10>
  e2:	b672      	cpsid	i
  e4:	f890 3025 	ldrb.w	r3, [r0, #37]	; 0x25
  e8:	6153      	str	r3, [r2, #20]
  ea:	f890 3025 	ldrb.w	r3, [r0, #37]	; 0x25
  ee:	6113      	str	r3, [r2, #16]
  f0:	f8b0 1066 	ldrh.w	r1, [r0, #102]	; 0x66
  f4:	f8b0 3068 	ldrh.w	r3, [r0, #104]	; 0x68
  f8:	b289      	uxth	r1, r1
  fa:	b29b      	uxth	r3, r3
  fc:	4299      	cmp	r1, r3
  fe:	d105      	bne.n	10c <_ZN10FlexSerial9call_backEP13FlexIOHandler+0x10c>
 100:	6a13      	ldr	r3, [r2, #32]
 102:	f890 1025 	ldrb.w	r1, [r0, #37]	; 0x25
 106:	ea23 0301 	bic.w	r3, r3, r1
 10a:	6213      	str	r3, [r2, #32]
 10c:	b662      	cpsie	i
 10e:	f3bf 8f4f 	dsb	sy
 112:	2000      	movs	r0, #0
 114:	bc30      	pop	{r4, r5}
 116:	4770      	bx	lr
 118:	6a91      	ldr	r1, [r2, #40]	; 0x28
 11a:	6994      	ldr	r4, [r2, #24]
 11c:	f890 c06b 	ldrb.w	ip, [r0, #107]	; 0x6b
 120:	4021      	ands	r1, r4
 122:	ea11 0f0c 	tst.w	r1, ip
 126:	d0d9      	beq.n	dc <_ZN10FlexSerial9call_backEP13FlexIOHandler+0xdc>
 128:	b672      	cpsid	i
 12a:	f890 306a 	ldrb.w	r3, [r0, #106]	; 0x6a
 12e:	2b01      	cmp	r3, #1
 130:	d913      	bls.n	15a <_ZN10FlexSerial9call_backEP13FlexIOHandler+0x15a>
 132:	6a93      	ldr	r3, [r2, #40]	; 0x28
 134:	2100      	movs	r1, #0
 136:	f890 406b 	ldrb.w	r4, [r0, #107]	; 0x6b
 13a:	ea23 0304 	bic.w	r3, r3, r4
 13e:	6293      	str	r3, [r2, #40]	; 0x28
 140:	f880 106a 	strb.w	r1, [r0, #106]	; 0x6a
 144:	f890 306b 	ldrb.w	r3, [r0, #107]	; 0x6b
 148:	6193      	str	r3, [r2, #24]
 14a:	b662      	cpsie	i
 14c:	f890 3025 	ldrb.w	r3, [r0, #37]	; 0x25
 150:	6951      	ldr	r1, [r2, #20]
 152:	4219      	tst	r1, r3
 154:	f43f af5c 	beq.w	10 <_ZN10FlexSerial9call_backEP13FlexIOHandler+0x10>
 158:	e7c3      	b.n	e2 <_ZN10FlexSerial9call_backEP13FlexIOHandler+0xe2>
 15a:	f890 306a 	ldrb.w	r3, [r0, #106]	; 0x6a
 15e:	3301      	adds	r3, #1
 160:	b2db      	uxtb	r3, r3
 162:	f880 306a 	strb.w	r3, [r0, #106]	; 0x6a
 166:	e7ed      	b.n	144 <_ZN10FlexSerial9call_backEP13FlexIOHandler+0x144>

Disassembly of section .text._ZThn16_N10FlexSerial9call_backEP13FlexIOHandler:

00000000 <_ZThn16_N10FlexSerial9call_backEP13FlexIOHandler>:
   0:	f1a0 0010 	sub.w	r0, r0, #16
   4:	f7ff bffe 	b.w	0 <_ZThn16_N10FlexSerial9call_backEP13FlexIOHandler>

Disassembly of section .text._ZN10FlexSerial3endEv:

00000000 <_ZN10FlexSerial3endEv>:
   0:	b538      	push	{r3, r4, r5, lr}
   2:	4604      	mov	r4, r0
   4:	6a00      	ldr	r0, [r0, #32]
   6:	b188      	cbz	r0, 2c <_ZN10FlexSerial3endEv+0x2c>
   8:	25ff      	movs	r5, #255	; 0xff
   a:	2201      	movs	r2, #1
   c:	7fa1      	ldrb	r1, [r4, #30]
   e:	f7ff fffe 	bl	0 <_ZN13FlexIOHandler10freeTimersEhh>
  12:	7fe1      	ldrb	r1, [r4, #31]
  14:	6a20      	ldr	r0, [r4, #32]
  16:	77a5      	strb	r5, [r4, #30]
  18:	f7ff fffe 	bl	0 <_ZN13FlexIOHandler11freeShifterEh>
  1c:	f104 0110 	add.w	r1, r4, #16
  20:	6a20      	ldr	r0, [r4, #32]
  22:	77e5      	strb	r5, [r4, #31]
  24:	f7ff fffe 	bl	0 <_ZN13FlexIOHandler23removeIOHandlerCallbackEP21FlexIOHandlerCallback>
  28:	2300      	movs	r3, #0
  2a:	6223      	str	r3, [r4, #32]
  2c:	bd38      	pop	{r3, r4, r5, pc}
  2e:	bf00      	nop

Disassembly of section .text._ZN10FlexSerial5flushEv:

00000000 <_ZN10FlexSerial5flushEv>:
   0:	b570      	push	{r4, r5, r6, lr}
   2:	4d09      	ldr	r5, [pc, #36]	; (28 <_ZN10FlexSerial5flushEv+0x28>)
   4:	682e      	ldr	r6, [r5, #0]
   6:	f890 306a 	ldrb.w	r3, [r0, #106]	; 0x6a
   a:	b15b      	cbz	r3, 24 <_ZN10FlexSerial5flushEv+0x24>
   c:	4604      	mov	r4, r0
   e:	e004      	b.n	1a <_ZN10FlexSerial5flushEv+0x1a>
  10:	f7ff fffe 	bl	0 <yield>
  14:	f894 306a 	ldrb.w	r3, [r4, #106]	; 0x6a
  18:	b123      	cbz	r3, 24 <_ZN10FlexSerial5flushEv+0x24>
  1a:	682b      	ldr	r3, [r5, #0]
  1c:	1b9b      	subs	r3, r3, r6
  1e:	f5b3 7f7a 	cmp.w	r3, #1000	; 0x3e8
  22:	d9f5      	bls.n	10 <_ZN10FlexSerial5flushEv+0x10>
  24:	bd70      	pop	{r4, r5, r6, pc}
  26:	bf00      	nop
  28:	00000000 	.word	0x00000000

Disassembly of section .text._ZN10FlexSerial5writeEh:

00000000 <_ZN10FlexSerial5writeEh>:
   0:	b5f8      	push	{r3, r4, r5, r6, r7, lr}
   2:	f8b0 5066 	ldrh.w	r5, [r0, #102]	; 0x66
   6:	4604      	mov	r4, r0
   8:	460e      	mov	r6, r1
   a:	b2ad      	uxth	r5, r5
   c:	3501      	adds	r5, #1
   e:	2d3f      	cmp	r5, #63	; 0x3f
  10:	d92b      	bls.n	6a <_ZN10FlexSerial5writeEh+0x6a>
  12:	2700      	movs	r7, #0
  14:	463d      	mov	r5, r7
  16:	f8b4 3068 	ldrh.w	r3, [r4, #104]	; 0x68
  1a:	b29b      	uxth	r3, r3
  1c:	429d      	cmp	r5, r3
  1e:	d106      	bne.n	2e <_ZN10FlexSerial5writeEh+0x2e>
  20:	f7ff fffe 	bl	0 <yield>
  24:	f8b4 3068 	ldrh.w	r3, [r4, #104]	; 0x68
  28:	b29b      	uxth	r3, r3
  2a:	42ab      	cmp	r3, r5
  2c:	d0f8      	beq.n	20 <_ZN10FlexSerial5writeEh+0x20>
  2e:	f8b4 3066 	ldrh.w	r3, [r4, #102]	; 0x66
  32:	fa14 f383 	uxtah	r3, r4, r3
  36:	f883 6026 	strb.w	r6, [r3, #38]	; 0x26
  3a:	b672      	cpsid	i
  3c:	2001      	movs	r0, #1
  3e:	6a23      	ldr	r3, [r4, #32]
  40:	f894 2025 	ldrb.w	r2, [r4, #37]	; 0x25
  44:	f884 006a 	strb.w	r0, [r4, #106]	; 0x6a
  48:	681b      	ldr	r3, [r3, #0]
  4a:	f8a4 7066 	strh.w	r7, [r4, #102]	; 0x66
  4e:	6a19      	ldr	r1, [r3, #32]
  50:	430a      	orrs	r2, r1
  52:	621a      	str	r2, [r3, #32]
  54:	6a9a      	ldr	r2, [r3, #40]	; 0x28
  56:	f894 106b 	ldrb.w	r1, [r4, #107]	; 0x6b
  5a:	ea22 0201 	bic.w	r2, r2, r1
  5e:	629a      	str	r2, [r3, #40]	; 0x28
  60:	f894 206b 	ldrb.w	r2, [r4, #107]	; 0x6b
  64:	619a      	str	r2, [r3, #24]
  66:	b662      	cpsie	i
  68:	bdf8      	pop	{r3, r4, r5, r6, r7, pc}
  6a:	b2af      	uxth	r7, r5
  6c:	e7d3      	b.n	16 <_ZN10FlexSerial5writeEh+0x16>
  6e:	bf00      	nop

Disassembly of section .text._ZN10FlexSerialcvbEv:

00000000 <_ZN10FlexSerialcvbEv>:
   0:	6a03      	ldr	r3, [r0, #32]
   2:	b113      	cbz	r3, a <_ZN10FlexSerialcvbEv+0xa>
   4:	7f83      	ldrb	r3, [r0, #30]
   6:	2b07      	cmp	r3, #7
   8:	d90c      	bls.n	24 <_ZN10FlexSerialcvbEv+0x24>
   a:	6ec3      	ldr	r3, [r0, #108]	; 0x6c
   c:	b143      	cbz	r3, 20 <_ZN10FlexSerialcvbEv+0x20>
   e:	7f03      	ldrb	r3, [r0, #28]
  10:	2b07      	cmp	r3, #7
  12:	d805      	bhi.n	20 <_ZN10FlexSerialcvbEv+0x20>
  14:	7f40      	ldrb	r0, [r0, #29]
  16:	2807      	cmp	r0, #7
  18:	bf8c      	ite	hi
  1a:	2000      	movhi	r0, #0
  1c:	2001      	movls	r0, #1
  1e:	4770      	bx	lr
  20:	2000      	movs	r0, #0
  22:	4770      	bx	lr
  24:	7fc3      	ldrb	r3, [r0, #31]
  26:	2b07      	cmp	r3, #7
  28:	d8ef      	bhi.n	a <_ZN10FlexSerialcvbEv+0xa>
  2a:	2001      	movs	r0, #1
  2c:	4770      	bx	lr
  2e:	bf00      	nop

Disassembly of section .flashmem:

00000000 <_ZN10FlexSerial5beginEmt>:
   0:	b5f8      	push	{r3, r4, r5, r6, r7, lr}
   2:	6a03      	ldr	r3, [r0, #32]
   4:	4604      	mov	r4, r0
   6:	460d      	mov	r5, r1
   8:	2b00      	cmp	r3, #0
   a:	f000 8138 	beq.w	27e <_ZN10FlexSerial5beginEmt+0x27e>
   e:	6ee3      	ldr	r3, [r4, #108]	; 0x6c
  10:	2b00      	cmp	r3, #0
  12:	f000 813e 	beq.w	292 <_ZN10FlexSerial5beginEmt+0x292>
  16:	69a3      	ldr	r3, [r4, #24]
  18:	3301      	adds	r3, #1
  1a:	f000 8118 	beq.w	24e <_ZN10FlexSerial5beginEmt+0x24e>
  1e:	6a20      	ldr	r0, [r4, #32]
  20:	2800      	cmp	r0, #0
  22:	f000 8104 	beq.w	22e <_ZN10FlexSerial5beginEmt+0x22e>
  26:	6963      	ldr	r3, [r4, #20]
  28:	3301      	adds	r3, #1
  2a:	d003      	beq.n	34 <_ZN10FlexSerial5beginEmt+0x34>
  2c:	6ee3      	ldr	r3, [r4, #108]	; 0x6c
  2e:	2b00      	cmp	r3, #0
  30:	f000 80fd 	beq.w	22e <_ZN10FlexSerial5beginEmt+0x22e>
  34:	7fa1      	ldrb	r1, [r4, #30]
  36:	6806      	ldr	r6, [r0, #0]
  38:	2907      	cmp	r1, #7
  3a:	f240 80f9 	bls.w	230 <_ZN10FlexSerial5beginEmt+0x230>
  3e:	2101      	movs	r1, #1
  40:	f7ff fffe 	bl	0 <_ZN13FlexIOHandler13requestTimersEh>
  44:	28ff      	cmp	r0, #255	; 0xff
  46:	77a0      	strb	r0, [r4, #30]
  48:	f000 80f1 	beq.w	22e <_ZN10FlexSerial5beginEmt+0x22e>
  4c:	7fe1      	ldrb	r1, [r4, #31]
  4e:	2907      	cmp	r1, #7
  50:	f240 80f6 	bls.w	240 <_ZN10FlexSerial5beginEmt+0x240>
  54:	21ff      	movs	r1, #255	; 0xff
  56:	6a20      	ldr	r0, [r4, #32]
  58:	f7ff fffe 	bl	0 <_ZN13FlexIOHandler14requestShifterEh>
  5c:	28ff      	cmp	r0, #255	; 0xff
  5e:	77e0      	strb	r0, [r4, #31]
  60:	f000 80e5 	beq.w	22e <_ZN10FlexSerial5beginEmt+0x22e>
  64:	2701      	movs	r7, #1
  66:	7fa3      	ldrb	r3, [r4, #30]
  68:	fa07 f000 	lsl.w	r0, r7, r0
  6c:	fa07 f303 	lsl.w	r3, r7, r3
  70:	f884 0025 	strb.w	r0, [r4, #37]	; 0x25
  74:	f884 306b 	strb.w	r3, [r4, #107]	; 0x6b
  78:	6a20      	ldr	r0, [r4, #32]
  7a:	f7ff fffe 	bl	0 <_ZN13FlexIOHandler16computeClockRateEv>
  7e:	fa05 f307 	lsl.w	r3, r5, r7
  82:	ee07 0a90 	vmov	s15, r0
  86:	2232      	movs	r2, #50	; 0x32
  88:	ee07 3a10 	vmov	s14, r3
  8c:	7fe3      	ldrb	r3, [r4, #31]
  8e:	eef8 6a67 	vcvt.f32.u32	s13, s15
  92:	eeb8 7a47 	vcvt.f32.u32	s14, s14
  96:	3340      	adds	r3, #64	; 0x40
  98:	f846 2023 	str.w	r2, [r6, r3, lsl #2]
  9c:	eec6 7a87 	vdiv.f32	s15, s13, s14
  a0:	f894 3024 	ldrb.w	r3, [r4, #36]	; 0x24
  a4:	7fa2      	ldrb	r2, [r4, #30]
  a6:	021b      	lsls	r3, r3, #8
  a8:	7fe1      	ldrb	r1, [r4, #31]
  aa:	0612      	lsls	r2, r2, #24
  ac:	f403 53f8 	and.w	r3, r3, #7936	; 0x1f00
  b0:	3120      	adds	r1, #32
  b2:	f002 62e0 	and.w	r2, r2, #117440512	; 0x7000000
  b6:	4313      	orrs	r3, r2
  b8:	4a83      	ldr	r2, [pc, #524]	; (2c8 <_ZN10FlexSerial5beginEmt+0x2c8>)
  ba:	431a      	orrs	r2, r3
  bc:	f846 2021 	str.w	r2, [r6, r1, lsl #2]
  c0:	7fa2      	ldrb	r2, [r4, #30]
  c2:	f502 72a0 	add.w	r2, r2, #320	; 0x140
  c6:	fef8 7a67 	vrinta.f32	s15, s15
  ca:	eefc 7ae7 	vcvt.u32.f32	s15, s15
  ce:	ee17 3a90 	vmov	r3, s15
  d2:	2bff      	cmp	r3, #255	; 0xff
  d4:	bf28      	it	cs
  d6:	23ff      	movcs	r3, #255	; 0xff
  d8:	f443 6370 	orr.w	r3, r3, #3840	; 0xf00
  dc:	f846 3022 	str.w	r3, [r6, r2, lsl #2]
  e0:	f242 2222 	movw	r2, #8738	; 0x2222
  e4:	7fa3      	ldrb	r3, [r4, #30]
  e6:	f503 7390 	add.w	r3, r3, #288	; 0x120
  ea:	f846 2023 	str.w	r2, [r6, r3, lsl #2]
  ee:	7fe3      	ldrb	r3, [r4, #31]
  f0:	f894 2024 	ldrb.w	r2, [r4, #36]	; 0x24
  f4:	eb07 0383 	add.w	r3, r7, r3, lsl #2
  f8:	7fa1      	ldrb	r1, [r4, #30]
  fa:	0212      	lsls	r2, r2, #8
  fc:	061b      	lsls	r3, r3, #24
  fe:	f501 7180 	add.w	r1, r1, #256	; 0x100
 102:	f402 52f8 	and.w	r2, r2, #7936	; 0x1f00
 106:	f003 537c 	and.w	r3, r3, #1056964608	; 0x3f000000
 10a:	4313      	orrs	r3, r2
 10c:	4a6f      	ldr	r2, [pc, #444]	; (2cc <_ZN10FlexSerial5beginEmt+0x2cc>)
 10e:	431a      	orrs	r2, r3
 110:	f846 2021 	str.w	r2, [r6, r1, lsl #2]
 114:	b672      	cpsid	i
 116:	60b7      	str	r7, [r6, #8]
 118:	6a33      	ldr	r3, [r6, #32]
 11a:	f894 2025 	ldrb.w	r2, [r4, #37]	; 0x25
 11e:	ea23 0302 	bic.w	r3, r3, r2
 122:	6233      	str	r3, [r6, #32]
 124:	b662      	cpsie	i
 126:	7e21      	ldrb	r1, [r4, #24]
 128:	6a20      	ldr	r0, [r4, #32]
 12a:	f7ff fffe 	bl	0 <_ZN13FlexIOHandler18setIOPinToFlexModeEh>
 12e:	f104 0110 	add.w	r1, r4, #16
 132:	6a20      	ldr	r0, [r4, #32]
 134:	f7ff fffe 	bl	0 <_ZN13FlexIOHandler20addIOHandlerCallbackEP21FlexIOHandlerCallback>
 138:	4638      	mov	r0, r7
 13a:	f7ff fffe 	bl	0 <delay>
 13e:	6ee3      	ldr	r3, [r4, #108]	; 0x6c
 140:	2b00      	cmp	r3, #0
 142:	d074      	beq.n	22e <_ZN10FlexSerial5beginEmt+0x22e>
 144:	7f21      	ldrb	r1, [r4, #28]
 146:	681e      	ldr	r6, [r3, #0]
 148:	2907      	cmp	r1, #7
 14a:	f200 808f 	bhi.w	26c <_ZN10FlexSerial5beginEmt+0x26c>
 14e:	4618      	mov	r0, r3
 150:	f7ff fffe 	bl	0 <_ZN13FlexIOHandler10claimTimerEh>
 154:	2800      	cmp	r0, #0
 156:	d06a      	beq.n	22e <_ZN10FlexSerial5beginEmt+0x22e>
 158:	7f61      	ldrb	r1, [r4, #29]
 15a:	2907      	cmp	r1, #7
 15c:	f240 80a5 	bls.w	2aa <_ZN10FlexSerial5beginEmt+0x2aa>
 160:	6a22      	ldr	r2, [r4, #32]
 162:	6ee3      	ldr	r3, [r4, #108]	; 0x6c
 164:	429a      	cmp	r2, r3
 166:	f000 80a7 	beq.w	2b8 <_ZN10FlexSerial5beginEmt+0x2b8>
 16a:	21ff      	movs	r1, #255	; 0xff
 16c:	4618      	mov	r0, r3
 16e:	f7ff fffe 	bl	0 <_ZN13FlexIOHandler14requestShifterEh>
 172:	28ff      	cmp	r0, #255	; 0xff
 174:	7760      	strb	r0, [r4, #29]
 176:	d05a      	beq.n	22e <_ZN10FlexSerial5beginEmt+0x22e>
 178:	2701      	movs	r7, #1
 17a:	f100 0340 	add.w	r3, r0, #64	; 0x40
 17e:	2232      	movs	r2, #50	; 0x32
 180:	fa07 f000 	lsl.w	r0, r7, r0
 184:	40bd      	lsls	r5, r7
 186:	f884 0071 	strb.w	r0, [r4, #113]	; 0x71
 18a:	f846 2023 	str.w	r2, [r6, r3, lsl #2]
 18e:	7f23      	ldrb	r3, [r4, #28]
 190:	f894 2070 	ldrb.w	r2, [r4, #112]	; 0x70
 194:	061b      	lsls	r3, r3, #24
 196:	7f61      	ldrb	r1, [r4, #29]
 198:	0212      	lsls	r2, r2, #8
 19a:	6ee0      	ldr	r0, [r4, #108]	; 0x6c
 19c:	f003 63e0 	and.w	r3, r3, #117440512	; 0x7000000
 1a0:	3120      	adds	r1, #32
 1a2:	f402 52f8 	and.w	r2, r2, #7936	; 0x1f00
 1a6:	4313      	orrs	r3, r2
 1a8:	4a49      	ldr	r2, [pc, #292]	; (2d0 <_ZN10FlexSerial5beginEmt+0x2d0>)
 1aa:	431a      	orrs	r2, r3
 1ac:	f846 2021 	str.w	r2, [r6, r1, lsl #2]
 1b0:	f7ff fffe 	bl	0 <_ZN13FlexIOHandler16computeClockRateEv>
 1b4:	ee07 0a90 	vmov	s15, r0
 1b8:	7f22      	ldrb	r2, [r4, #28]
 1ba:	eef8 6a67 	vcvt.f32.u32	s13, s15
 1be:	ee07 5a90 	vmov	s15, r5
 1c2:	f502 72a0 	add.w	r2, r2, #320	; 0x140
 1c6:	7d21      	ldrb	r1, [r4, #20]
 1c8:	eeb8 7a67 	vcvt.f32.u32	s14, s15
 1cc:	6ee0      	ldr	r0, [r4, #108]	; 0x6c
 1ce:	eec6 7a87 	vdiv.f32	s15, s13, s14
 1d2:	fef8 7a67 	vrinta.f32	s15, s15
 1d6:	eefc 7ae7 	vcvt.u32.f32	s15, s15
 1da:	ee17 3a90 	vmov	r3, s15
 1de:	2bff      	cmp	r3, #255	; 0xff
 1e0:	bf28      	it	cs
 1e2:	23ff      	movcs	r3, #255	; 0xff
 1e4:	f443 6370 	orr.w	r3, r3, #3840	; 0xf00
 1e8:	f846 3022 	str.w	r3, [r6, r2, lsl #2]
 1ec:	7f23      	ldrb	r3, [r4, #28]
 1ee:	4a39      	ldr	r2, [pc, #228]	; (2d4 <_ZN10FlexSerial5beginEmt+0x2d4>)
 1f0:	f503 7390 	add.w	r3, r3, #288	; 0x120
 1f4:	f846 2023 	str.w	r2, [r6, r3, lsl #2]
 1f8:	f894 3070 	ldrb.w	r3, [r4, #112]	; 0x70
 1fc:	7f22      	ldrb	r2, [r4, #28]
 1fe:	021b      	lsls	r3, r3, #8
 200:	f502 7280 	add.w	r2, r2, #256	; 0x100
 204:	f403 53f8 	and.w	r3, r3, #7936	; 0x1f00
 208:	f043 0381 	orr.w	r3, r3, #129	; 0x81
 20c:	f846 3022 	str.w	r3, [r6, r2, lsl #2]
 210:	60b7      	str	r7, [r6, #8]
 212:	f7ff fffe 	bl	0 <_ZN13FlexIOHandler18setIOPinToFlexModeEh>
 216:	f104 0110 	add.w	r1, r4, #16
 21a:	6ee0      	ldr	r0, [r4, #108]	; 0x6c
 21c:	f7ff fffe 	bl	0 <_ZN13FlexIOHandler20addIOHandlerCallbackEP21FlexIOHandlerCallback>
 220:	b672      	cpsid	i
 222:	6a32      	ldr	r2, [r6, #32]
 224:	f894 3071 	ldrb.w	r3, [r4, #113]	; 0x71
 228:	4313      	orrs	r3, r2
 22a:	6233      	str	r3, [r6, #32]
 22c:	b662      	cpsie	i
 22e:	bdf8      	pop	{r3, r4, r5, r6, r7, pc}
 230:	f7ff fffe 	bl	0 <_ZN13FlexIOHandler10claimTimerEh>
 234:	2800      	cmp	r0, #0
 236:	d0fa      	beq.n	22e <_ZN10FlexSerial5beginEmt+0x22e>
 238:	7fe1      	ldrb	r1, [r4, #31]
 23a:	2907      	cmp	r1, #7
 23c:	f63f af0a 	bhi.w	54 <_ZN10FlexSerial5beginEmt+0x54>
 240:	6a20      	ldr	r0, [r4, #32]
 242:	f7ff fffe 	bl	0 <_ZN13FlexIOHandler12claimShifterEh>
 246:	2800      	cmp	r0, #0
 248:	d0f1      	beq.n	22e <_ZN10FlexSerial5beginEmt+0x22e>
 24a:	7fe0      	ldrb	r0, [r4, #31]
 24c:	e70a      	b.n	64 <_ZN10FlexSerial5beginEmt+0x64>
 24e:	6963      	ldr	r3, [r4, #20]
 250:	3301      	adds	r3, #1
 252:	d025      	beq.n	2a0 <_ZN10FlexSerial5beginEmt+0x2a0>
 254:	6ee3      	ldr	r3, [r4, #108]	; 0x6c
 256:	2b00      	cmp	r3, #0
 258:	d0e9      	beq.n	22e <_ZN10FlexSerial5beginEmt+0x22e>
 25a:	6a20      	ldr	r0, [r4, #32]
 25c:	2800      	cmp	r0, #0
 25e:	f47f aee9 	bne.w	34 <_ZN10FlexSerial5beginEmt+0x34>
 262:	7f21      	ldrb	r1, [r4, #28]
 264:	681e      	ldr	r6, [r3, #0]
 266:	2907      	cmp	r1, #7
 268:	f67f af71 	bls.w	14e <_ZN10FlexSerial5beginEmt+0x14e>
 26c:	2101      	movs	r1, #1
 26e:	4618      	mov	r0, r3
 270:	f7ff fffe 	bl	0 <_ZN13FlexIOHandler13requestTimersEh>
 274:	28ff      	cmp	r0, #255	; 0xff
 276:	7720      	strb	r0, [r4, #28]
 278:	f47f af6e 	bne.w	158 <_ZN10FlexSerial5beginEmt+0x158>
 27c:	bdf8      	pop	{r3, r4, r5, r6, r7, pc}
 27e:	f100 0124 	add.w	r1, r0, #36	; 0x24
 282:	7e00      	ldrb	r0, [r0, #24]
 284:	f7ff fffe 	bl	0 <_ZN13FlexIOHandler23mapIOPinToFlexIOHandlerEhRh>
 288:	6ee3      	ldr	r3, [r4, #108]	; 0x6c
 28a:	6220      	str	r0, [r4, #32]
 28c:	2b00      	cmp	r3, #0
 28e:	f47f aec2 	bne.w	16 <_ZN10FlexSerial5beginEmt+0x16>
 292:	f104 0170 	add.w	r1, r4, #112	; 0x70
 296:	7d20      	ldrb	r0, [r4, #20]
 298:	f7ff fffe 	bl	0 <_ZN13FlexIOHandler23mapIOPinToFlexIOHandlerEhRh>
 29c:	66e0      	str	r0, [r4, #108]	; 0x6c
 29e:	e6ba      	b.n	16 <_ZN10FlexSerial5beginEmt+0x16>
 2a0:	6a20      	ldr	r0, [r4, #32]
 2a2:	2800      	cmp	r0, #0
 2a4:	f43f af4b 	beq.w	13e <_ZN10FlexSerial5beginEmt+0x13e>
 2a8:	e6c4      	b.n	34 <_ZN10FlexSerial5beginEmt+0x34>
 2aa:	6ee0      	ldr	r0, [r4, #108]	; 0x6c
 2ac:	f7ff fffe 	bl	0 <_ZN13FlexIOHandler12claimShifterEh>
 2b0:	2800      	cmp	r0, #0
 2b2:	d0bc      	beq.n	22e <_ZN10FlexSerial5beginEmt+0x22e>
 2b4:	7f60      	ldrb	r0, [r4, #29]
 2b6:	e75f      	b.n	178 <_ZN10FlexSerial5beginEmt+0x178>
 2b8:	4618      	mov	r0, r3
 2ba:	7fe1      	ldrb	r1, [r4, #31]
 2bc:	f7ff fffe 	bl	0 <_ZN13FlexIOHandler18shiftersDMAChannelEh>
 2c0:	6ee3      	ldr	r3, [r4, #108]	; 0x6c
 2c2:	4601      	mov	r1, r0
 2c4:	e752      	b.n	16c <_ZN10FlexSerial5beginEmt+0x16c>
 2c6:	bf00      	nop
 2c8:	00030002 	.word	0x00030002
 2cc:	00c00001 	.word	0x00c00001
 2d0:	00800001 	.word	0x00800001
 2d4:	02042422 	.word	0x02042422

000002d8 <_ZN10FlexSerial4initEv>:
 2d8:	6a03      	ldr	r3, [r0, #32]
 2da:	b510      	push	{r4, lr}
 2dc:	4604      	mov	r4, r0
 2de:	b14b      	cbz	r3, 2f4 <_ZN10FlexSerial4initEv+0x1c>
 2e0:	6ee3      	ldr	r3, [r4, #108]	; 0x6c
 2e2:	b103      	cbz	r3, 2e6 <_ZN10FlexSerial4initEv+0xe>
 2e4:	bd10      	pop	{r4, pc}
 2e6:	f104 0170 	add.w	r1, r4, #112	; 0x70
 2ea:	7d20      	ldrb	r0, [r4, #20]
 2ec:	f7ff fffe 	bl	0 <_ZN13FlexIOHandler23mapIOPinToFlexIOHandlerEhRh>
 2f0:	66e0      	str	r0, [r4, #108]	; 0x6c
 2f2:	bd10      	pop	{r4, pc}
 2f4:	f100 0124 	add.w	r1, r0, #36	; 0x24
 2f8:	7e00      	ldrb	r0, [r0, #24]
 2fa:	f7ff fffe 	bl	0 <_ZN13FlexIOHandler23mapIOPinToFlexIOHandlerEhRh>
 2fe:	6220      	str	r0, [r4, #32]
 300:	e7ee      	b.n	2e0 <_ZN10FlexSerial4initEv+0x8>
 302:	bf00      	nop

00000304 <_ZN10FlexSerial8setClockEf>:
 304:	6a01      	ldr	r1, [r0, #32]
 306:	b510      	push	{r4, lr}
 308:	4604      	mov	r4, r0
 30a:	ed2d 8b02 	vpush	{d8}
 30e:	eeb0 8a40 	vmov.f32	s16, s0
 312:	b1a9      	cbz	r1, 340 <_ZN10FlexSerial8setClockEf+0x3c>
 314:	6ec0      	ldr	r0, [r0, #108]	; 0x6c
 316:	b9f0      	cbnz	r0, 356 <_ZN10FlexSerial8setClockEf+0x52>
 318:	f104 0170 	add.w	r1, r4, #112	; 0x70
 31c:	7d20      	ldrb	r0, [r4, #20]
 31e:	f7ff fffe 	bl	0 <_ZN13FlexIOHandler23mapIOPinToFlexIOHandlerEhRh>
 322:	6a21      	ldr	r1, [r4, #32]
 324:	66e0      	str	r0, [r4, #108]	; 0x6c
 326:	2900      	cmp	r1, #0
 328:	d036      	beq.n	398 <_ZN10FlexSerial8setClockEf+0x94>
 32a:	b9a0      	cbnz	r0, 356 <_ZN10FlexSerial8setClockEf+0x52>
 32c:	4608      	mov	r0, r1
 32e:	eeb0 0a48 	vmov.f32	s0, s16
 332:	f7ff fffe 	bl	0 <_ZN13FlexIOHandler8setClockEf>
 336:	6ee0      	ldr	r0, [r4, #108]	; 0x6c
 338:	b9c0      	cbnz	r0, 36c <_ZN10FlexSerial8setClockEf+0x68>
 33a:	ecbd 8b02 	vpop	{d8}
 33e:	bd10      	pop	{r4, pc}
 340:	f100 0124 	add.w	r1, r0, #36	; 0x24
 344:	7e00      	ldrb	r0, [r0, #24]
 346:	f7ff fffe 	bl	0 <_ZN13FlexIOHandler23mapIOPinToFlexIOHandlerEhRh>
 34a:	4601      	mov	r1, r0
 34c:	6ee0      	ldr	r0, [r4, #108]	; 0x6c
 34e:	6221      	str	r1, [r4, #32]
 350:	2800      	cmp	r0, #0
 352:	d0e1      	beq.n	318 <_ZN10FlexSerial8setClockEf+0x14>
 354:	b151      	cbz	r1, 36c <_ZN10FlexSerial8setClockEf+0x68>
 356:	f7ff fffe 	bl	0 <_ZN13FlexIOHandler13usesSameClockEPKS_>
 35a:	b178      	cbz	r0, 37c <_ZN10FlexSerial8setClockEf+0x78>
 35c:	6a21      	ldr	r1, [r4, #32]
 35e:	2900      	cmp	r1, #0
 360:	d1e4      	bne.n	32c <_ZN10FlexSerial8setClockEf+0x28>
 362:	6ee0      	ldr	r0, [r4, #108]	; 0x6c
 364:	ed9f 0a0e 	vldr	s0, [pc, #56]	; 3a0 <_ZN10FlexSerial8setClockEf+0x9c>
 368:	2800      	cmp	r0, #0
 36a:	d0e6      	beq.n	33a <_ZN10FlexSerial8setClockEf+0x36>
 36c:	eeb0 0a48 	vmov.f32	s0, s16
 370:	ecbd 8b02 	vpop	{d8}
 374:	e8bd 4010 	ldmia.w	sp!, {r4, lr}
 378:	f7ff bffe 	b.w	0 <_ZN13FlexIOHandler8setClockEf>
 37c:	6a20      	ldr	r0, [r4, #32]
 37e:	eeb0 0a48 	vmov.f32	s0, s16
 382:	f7ff fffe 	bl	0 <_ZN13FlexIOHandler8setClockEf>
 386:	eeb0 0a48 	vmov.f32	s0, s16
 38a:	6ee0      	ldr	r0, [r4, #108]	; 0x6c
 38c:	ecbd 8b02 	vpop	{d8}
 390:	e8bd 4010 	ldmia.w	sp!, {r4, lr}
 394:	f7ff bffe 	b.w	0 <_ZN13FlexIOHandler8setClockEf>
 398:	ed9f 0a01 	vldr	s0, [pc, #4]	; 3a0 <_ZN10FlexSerial8setClockEf+0x9c>
 39c:	e7cc      	b.n	338 <_ZN10FlexSerial8setClockEf+0x34>
 39e:	bf00      	nop
 3a0:	00000000 	.word	0x00000000

000003a4 <_ZN10FlexSerial21setClockUsingAudioPLLEf>:
 3a4:	6a01      	ldr	r1, [r0, #32]
 3a6:	b510      	push	{r4, lr}
 3a8:	4604      	mov	r4, r0
 3aa:	ed2d 8b02 	vpush	{d8}
 3ae:	eeb0 8a40 	vmov.f32	s16, s0
 3b2:	b1a9      	cbz	r1, 3e0 <_ZN10FlexSerial21setClockUsingAudioPLLEf+0x3c>
 3b4:	6ec0      	ldr	r0, [r0, #108]	; 0x6c
 3b6:	b9f0      	cbnz	r0, 3f6 <_ZN10FlexSerial21setClockUsingAudioPLLEf+0x52>
 3b8:	f104 0170 	add.w	r1, r4, #112	; 0x70
 3bc:	7d20      	ldrb	r0, [r4, #20]
 3be:	f7ff fffe 	bl	0 <_ZN13FlexIOHandler23mapIOPinToFlexIOHandlerEhRh>
 3c2:	6a21      	ldr	r1, [r4, #32]
 3c4:	66e0      	str	r0, [r4, #108]	; 0x6c
 3c6:	2900      	cmp	r1, #0
 3c8:	d036      	beq.n	438 <_ZN10FlexSerial21setClockUsingAudioPLLEf+0x94>
 3ca:	b9a0      	cbnz	r0, 3f6 <_ZN10FlexSerial21setClockUsingAudioPLLEf+0x52>
 3cc:	4608      	mov	r0, r1
 3ce:	eeb0 0a48 	vmov.f32	s0, s16
 3d2:	f7ff fffe 	bl	0 <_ZN13FlexIOHandler21setClockUsingAudioPLLEf>
 3d6:	6ee0      	ldr	r0, [r4, #108]	; 0x6c
 3d8:	b9c0      	cbnz	r0, 40c <_ZN10FlexSerial21setClockUsingAudioPLLEf+0x68>
 3da:	ecbd 8b02 	vpop	{d8}
 3de:	bd10      	pop	{r4, pc}
 3e0:	f100 0124 	add.w	r1, r0, #36	; 0x24
 3e4:	7e00      	ldrb	r0, [r0, #24]
 3e6:	f7ff fffe 	bl	0 <_ZN13FlexIOHandler23mapIOPinToFlexIOHandlerEhRh>
 3ea:	4601      	mov	r1, r0
 3ec:	6ee0      	ldr	r0, [r4, #108]	; 0x6c
 3ee:	6221      	str	r1, [r4, #32]
 3f0:	2800      	cmp	r0, #0
 3f2:	d0e1      	beq.n	3b8 <_ZN10FlexSerial21setClockUsingAudioPLLEf+0x14>
 3f4:	b151      	cbz	r1, 40c <_ZN10FlexSerial21setClockUsingAudioPLLEf+0x68>
 3f6:	f7ff fffe 	bl	0 <_ZN13FlexIOHandler13usesSameClockEPKS_>
 3fa:	b178      	cbz	r0, 41c <_ZN10FlexSerial21setClockUsingAudioPLLEf+0x78>
 3fc:	6a21      	ldr	r1, [r4, #32]
 3fe:	2900      	cmp	r1, #0
 400:	d1e4      	bne.n	3cc <_ZN10FlexSerial21setClockUsingAudioPLLEf+0x28>
 402:	6ee0      	ldr	r0, [r4, #108]	; 0x6c
 404:	ed9f 0a0e 	vldr	s0, [pc, #56]	; 440 <_ZN10FlexSerial21setClockUsingAudioPLLEf+0x9c>
 408:	2800      	cmp	r0, #0
 40a:	d0e6      	beq.n	3da <_ZN10FlexSerial21setClockUsingAudioPLLEf+0x36>
 40c:	eeb0 0a48 	vmov.f32	s0, s16
 410:	ecbd 8b02 	vpop	{d8}
 414:	e8bd 4010 	ldmia.w	sp!, {r4, lr}
 418:	f7ff bffe 	b.w	0 <_ZN13FlexIOHandler21setClockUsingAudioPLLEf>
 41c:	6a20      	ldr	r0, [r4, #32]
 41e:	eeb0 0a48 	vmov.f32	s0, s16
 422:	f7ff fffe 	bl	0 <_ZN13FlexIOHandler21setClockUsingAudioPLLEf>
 426:	eeb0 0a48 	vmov.f32	s0, s16
 42a:	6ee0      	ldr	r0, [r4, #108]	; 0x6c
 42c:	ecbd 8b02 	vpop	{d8}
 430:	e8bd 4010 	ldmia.w	sp!, {r4, lr}
 434:	f7ff bffe 	b.w	0 <_ZN13FlexIOHandler21setClockUsingAudioPLLEf>
 438:	ed9f 0a01 	vldr	s0, [pc, #4]	; 440 <_ZN10FlexSerial21setClockUsingAudioPLLEf+0x9c>
 43c:	e7cc      	b.n	3d8 <_ZN10FlexSerial21setClockUsingAudioPLLEf+0x34>
 43e:	bf00      	nop
 440:	00000000 	.word	0x00000000

00000444 <_ZN10FlexSerial21setClockUsingVideoPLLEf>:
 444:	6a01      	ldr	r1, [r0, #32]
 446:	b510      	push	{r4, lr}
 448:	4604      	mov	r4, r0
 44a:	ed2d 8b02 	vpush	{d8}
 44e:	eeb0 8a40 	vmov.f32	s16, s0
 452:	b1a9      	cbz	r1, 480 <_ZN10FlexSerial21setClockUsingVideoPLLEf+0x3c>
 454:	6ec0      	ldr	r0, [r0, #108]	; 0x6c
 456:	b9f0      	cbnz	r0, 496 <_ZN10FlexSerial21setClockUsingVideoPLLEf+0x52>
 458:	f104 0170 	add.w	r1, r4, #112	; 0x70
 45c:	7d20      	ldrb	r0, [r4, #20]
 45e:	f7ff fffe 	bl	0 <_ZN13FlexIOHandler23mapIOPinToFlexIOHandlerEhRh>
 462:	6a21      	ldr	r1, [r4, #32]
 464:	66e0      	str	r0, [r4, #108]	; 0x6c
 466:	2900      	cmp	r1, #0
 468:	d036      	beq.n	4d8 <_ZN10FlexSerial21setClockUsingVideoPLLEf+0x94>
 46a:	b9a0      	cbnz	r0, 496 <_ZN10FlexSerial21setClockUsingVideoPLLEf+0x52>
 46c:	4608      	mov	r0, r1
 46e:	eeb0 0a48 	vmov.f32	s0, s16
 472:	f7ff fffe 	bl	0 <_ZN13FlexIOHandler21setClockUsingVideoPLLEf>
 476:	6ee0      	ldr	r0, [r4, #108]	; 0x6c
 478:	b9c0      	cbnz	r0, 4ac <_ZN10FlexSerial21setClockUsingVideoPLLEf+0x68>
 47a:	ecbd 8b02 	vpop	{d8}
 47e:	bd10      	pop	{r4, pc}
 480:	f100 0124 	add.w	r1, r0, #36	; 0x24
 484:	7e00      	ldrb	r0, [r0, #24]
 486:	f7ff fffe 	bl	0 <_ZN13FlexIOHandler23mapIOPinToFlexIOHandlerEhRh>
 48a:	4601      	mov	r1, r0
 48c:	6ee0      	ldr	r0, [r4, #108]	; 0x6c
 48e:	6221      	str	r1, [r4, #32]
 490:	2800      	cmp	r0, #0
 492:	d0e1      	beq.n	458 <_ZN10FlexSerial21setClockUsingVideoPLLEf+0x14>
 494:	b151      	cbz	r1, 4ac <_ZN10FlexSerial21setClockUsingVideoPLLEf+0x68>
 496:	f7ff fffe 	bl	0 <_ZN13FlexIOHandler13usesSameClockEPKS_>
 49a:	b178      	cbz	r0, 4bc <_ZN10FlexSerial21setClockUsingVideoPLLEf+0x78>
 49c:	6a21      	ldr	r1, [r4, #32]
 49e:	2900      	cmp	r1, #0
 4a0:	d1e4      	bne.n	46c <_ZN10FlexSerial21setClockUsingVideoPLLEf+0x28>
 4a2:	6ee0      	ldr	r0, [r4, #108]	; 0x6c
 4a4:	ed9f 0a0e 	vldr	s0, [pc, #56]	; 4e0 <_ZN10FlexSerial21setClockUsingVideoPLLEf+0x9c>
 4a8:	2800      	cmp	r0, #0
 4aa:	d0e6      	beq.n	47a <_ZN10FlexSerial21setClockUsingVideoPLLEf+0x36>
 4ac:	eeb0 0a48 	vmov.f32	s0, s16
 4b0:	ecbd 8b02 	vpop	{d8}
 4b4:	e8bd 4010 	ldmia.w	sp!, {r4, lr}
 4b8:	f7ff bffe 	b.w	0 <_ZN13FlexIOHandler21setClockUsingVideoPLLEf>
 4bc:	6a20      	ldr	r0, [r4, #32]
 4be:	eeb0 0a48 	vmov.f32	s0, s16
 4c2:	f7ff fffe 	bl	0 <_ZN13FlexIOHandler21setClockUsingVideoPLLEf>
 4c6:	eeb0 0a48 	vmov.f32	s0, s16
 4ca:	6ee0      	ldr	r0, [r4, #108]	; 0x6c
 4cc:	ecbd 8b02 	vpop	{d8}
 4d0:	e8bd 4010 	ldmia.w	sp!, {r4, lr}
 4d4:	f7ff bffe 	b.w	0 <_ZN13FlexIOHandler21setClockUsingVideoPLLEf>
 4d8:	ed9f 0a01 	vldr	s0, [pc, #4]	; 4e0 <_ZN10FlexSerial21setClockUsingVideoPLLEf+0x9c>
 4dc:	e7cc      	b.n	478 <_ZN10FlexSerial21setClockUsingVideoPLLEf+0x34>
 4de:	bf00      	nop
 4e0:	00000000 	.word	0x00000000

Disassembly of section .text._ZN10FlexSerial5clearEv:

00000000 <_ZN10FlexSerial5clearEv>:
   0:	4770      	bx	lr
   2:	bf00      	nop
