
build/./libraries/FlexIO_t4/FlexIOSPI.cpp.o:     file format elf32-littlearm

SYMBOL TABLE:
00000000 l    df *ABS*	00000000 FlexIOSPI.cpp
00000000 l    d  .text	00000000 .text
00000000 l    d  .data	00000000 .data
00000000 l    d  .bss	00000000 .bss
00000000 l    d  .text._ZN9FlexIOSPI9call_backEP13FlexIOHandler	00000000 .text._ZN9FlexIOSPI9call_backEP13FlexIOHandler
00000000 l    d  .text._ZN14EventResponder12triggerEventEiPv	00000000 .text._ZN14EventResponder12triggerEventEiPv
00000000 l    d  .text._ZN9FlexIOSPI11_dma_rxISR1Ev	00000000 .text._ZN9FlexIOSPI11_dma_rxISR1Ev
00000000 l    d  .text._ZN9FlexIOSPI11_dma_rxISR0Ev	00000000 .text._ZN9FlexIOSPI11_dma_rxISR0Ev
00000000 l    d  .text._ZN9FlexIOSPI5beginEv	00000000 .text._ZN9FlexIOSPI5beginEv
00000000 l    d  .text._ZN9FlexIOSPI3endEv	00000000 .text._ZN9FlexIOSPI3endEv
00000000 l    d  .text._ZN9FlexIOSPI16beginTransactionE17FlexIOSPISettings	00000000 .text._ZN9FlexIOSPI16beginTransactionE17FlexIOSPISettings
00000000 l    d  .text._ZN9FlexIOSPI14endTransactionEv	00000000 .text._ZN9FlexIOSPI14endTransactionEv
00000000 l    d  .text._ZN9FlexIOSPI17setShiftBufferOutEmh	00000000 .text._ZN9FlexIOSPI17setShiftBufferOutEmh
00000000 l    d  .text._ZN9FlexIOSPI17setShiftBufferOutEPKvhj	00000000 .text._ZN9FlexIOSPI17setShiftBufferOutEPKvhj
00000000 l    d  .text._ZN9FlexIOSPI16getShiftBufferInEh	00000000 .text._ZN9FlexIOSPI16getShiftBufferInEh
00000000 l    d  .text._ZN9FlexIOSPI16getShiftBufferInEPvhj	00000000 .text._ZN9FlexIOSPI16getShiftBufferInEPvhj
00000000 l    d  .text._ZN9FlexIOSPI13transferNBitsEmh	00000000 .text._ZN9FlexIOSPI13transferNBitsEmh
00000000 l    d  .text._ZN9FlexIOSPI19transferBufferNBitsEPKvPvjh	00000000 .text._ZN9FlexIOSPI19transferBufferNBitsEPKvPvjh
00000000 l    d  .text._ZN9FlexIOSPI15initDMAChannelsEv	00000000 .text._ZN9FlexIOSPI15initDMAChannelsEv
00000000 l    d  .text._ZN9FlexIOSPI8transferEPKvPvjR14EventResponder	00000000 .text._ZN9FlexIOSPI8transferEPKvPvjR14EventResponder
00000000 l    d  .bss._ZL10bit_bucket	00000000 .bss._ZL10bit_bucket
00000000 l     O .bss._ZL10bit_bucket	00000001 _ZL10bit_bucket
00000000 l    d  .bss._ZN9FlexIOSPI17_dmaActiveObjectsE	00000000 .bss._ZN9FlexIOSPI17_dmaActiveObjectsE
00000000 l    d  .rodata._ZTV9FlexIOSPI	00000000 .rodata._ZTV9FlexIOSPI
00000000 l    d  .comment	00000000 .comment
00000000 l    d  .ARM.attributes	00000000 .ARM.attributes
00000000 l    d  .group	00000000 .group
00000000 g     F .text._ZN9FlexIOSPI9call_backEP13FlexIOHandler	00000004 _ZN9FlexIOSPI9call_backEP13FlexIOHandler
00000000  w    F .text._ZN14EventResponder12triggerEventEiPv	00000016 _ZN14EventResponder12triggerEventEiPv
00000000         *UND*	00000000 _ZN14EventResponder24triggerEventNotImmediateEv
00000000 g     F .text._ZN9FlexIOSPI11_dma_rxISR1Ev	0000010c _ZN9FlexIOSPI11_dma_rxISR1Ev
00000000 g     F .text._ZN9FlexIOSPI11_dma_rxISR0Ev	0000010c _ZN9FlexIOSPI11_dma_rxISR0Ev
00000000 g     F .text._ZN9FlexIOSPI5beginEv	000002b8 _ZN9FlexIOSPI5beginEv
00000000         *UND*	00000000 _ZN13FlexIOHandler23mapIOPinToFlexIOHandlerEhRh
00000000         *UND*	00000000 _ZN13FlexIOHandler17mapIOPinToFlexPinEh
00000000         *UND*	00000000 _ZN13FlexIOHandler13requestTimersEh
00000000         *UND*	00000000 _ZN13FlexIOHandler14requestShifterEh
00000000         *UND*	00000000 _ZN13FlexIOHandler18shiftersDMAChannelEh
00000000         *UND*	00000000 _ZN13FlexIOHandler18setIOPinToFlexModeEh
00000000         *UND*	00000000 _ZN13FlexIOHandler20addIOHandlerCallbackEP21FlexIOHandlerCallback
00000000         *UND*	00000000 _ZN13FlexIOHandler10freeTimersEhh
00000000         *UND*	00000000 _ZN13FlexIOHandler11freeShifterEh
00000000         *UND*	00000000 digital_pin_to_info_PGM
00000000 g     F .text._ZN9FlexIOSPI3endEv	00000046 _ZN9FlexIOSPI3endEv
00000000         *UND*	00000000 _ZN13FlexIOHandler23removeIOHandlerCallbackEP21FlexIOHandlerCallback
00000000 g     F .text._ZN9FlexIOSPI16beginTransactionE17FlexIOSPISettings	000000b4 _ZN9FlexIOSPI16beginTransactionE17FlexIOSPISettings
00000000         *UND*	00000000 _ZN13FlexIOHandler16computeClockRateEv
00000000 g     F .text._ZN9FlexIOSPI14endTransactionEv	00000002 _ZN9FlexIOSPI14endTransactionEv
00000000 g     F .text._ZN9FlexIOSPI17setShiftBufferOutEmh	00000032 _ZN9FlexIOSPI17setShiftBufferOutEmh
00000000 g     F .text._ZN9FlexIOSPI17setShiftBufferOutEPKvhj	0000005a _ZN9FlexIOSPI17setShiftBufferOutEPKvhj
00000000 g     F .text._ZN9FlexIOSPI16getShiftBufferInEh	00000026 _ZN9FlexIOSPI16getShiftBufferInEh
00000000 g     F .text._ZN9FlexIOSPI16getShiftBufferInEPvhj	000000e4 _ZN9FlexIOSPI16getShiftBufferInEPvhj
00000000 g     F .text._ZN9FlexIOSPI13transferNBitsEmh	000000b2 _ZN9FlexIOSPI13transferNBitsEmh
00000000 g     F .text._ZN9FlexIOSPI19transferBufferNBitsEPKvPvjh	000000e4 _ZN9FlexIOSPI19transferBufferNBitsEPKvPvjh
00000000 g     F .text._ZN9FlexIOSPI15initDMAChannelsEv	00000148 _ZN9FlexIOSPI15initDMAChannelsEv
00000000         *UND*	00000000 _Znwj
00000000         *UND*	00000000 _ZN10DMAChannel5beginEb
00000000         *UND*	00000000 _ZN13FlexIOHandler11FlexIOIndexEv
00000000         *UND*	00000000 _VectorsRam
00000000 g     F .text._ZN9FlexIOSPI8transferEPKvPvjR14EventResponder	000003b0 _ZN9FlexIOSPI8transferEPKvPvjR14EventResponder
00000000         *UND*	00000000 _ZN14EventResponder10clearEventEv
00000000         *UND*	00000000 yield
00000000 g     O .rodata._ZTV9FlexIOSPI	0000000c _ZTV9FlexIOSPI
00000000 g     O .bss._ZN9FlexIOSPI17_dmaActiveObjectsE	0000000c _ZN9FlexIOSPI17_dmaActiveObjectsE


Contents of section .group:
 0000 01000000 06000000 07000000           ............    
Contents of section .text._ZN9FlexIOSPI9call_backEP13FlexIOHandler:
 0000 00207047                             . pG            
Contents of section .text._ZN14EventResponder12triggerEventEiPv:
 0000 90f81cc0 4160bcf1 020fc260 01d18368  ....A`.....`...h
 0010 1847fff7 febf00bf                    .G......        
Contents of section .text._ZN9FlexIOSPI11_dma_rxISR1Ev:
 0000 3e4b3f4a 5b6830b4 1d6c2979 d177dc6b  >K?J[h0..l)y.w.k
 0010 20791077 11779a6b 52b1b2f5 004f23d3   y.w.w.kR....O#.
 0020 384c1444 364a9c63 d176d076 30bc7047  8L.D6J.c.v.v0.pG
 0030 986a93f8 32100568 93f83440 586c0c43  .j..2..h..4@Xl.C
 0040 296b21ea 04010468 29630321 246883f8  )k!....h)c.!$h..
 0050 35102d4b 9c421dd1 037f4260 022bc260  5.-K.B....B`.+.`
 0060 1cd18368 30bc1847 2468b4f8 1ec01cf4  ...h0..G$h......
 0070 004f16d1 2d681ffa 82fca4f8 1ec0a4f8  .O..-h..........
 0080 16c0ec8b 240435d4 a5f81ec0 a5f816c0  ....$.5.........
 0090 0024c7e7 23461146 30bc1847 30bcfff7  .$..#F.F0..G0...
 00a0 febfb2f5 007f1ed2 1ffa82fc e28b2d68  ..............-h
 00b0 02f47e42 4cea0202 e283e28a 02f47e42  ..~BL.........~B
 00c0 4cea0202 e282ea8b 1204ddd5 ea8b02f4  L...............
 00d0 7e424cea 0202ea83 ea8a02f4 7e424cea  ~BL.........~BL.
 00e0 0202ea82 d4e72d68 ec8b2404 d0d41ffa  ......-h..$.....
 00f0 82fcc9e7 b2f5007f e8d3c9e7 00000000  ................
 0100 00800e40 0180ffff 00000000           ...@........    
Contents of section .text._ZN9FlexIOSPI11_dma_rxISR0Ev:
 0000 3e4b3f4a 1b6830b4 1d6c2979 d177dc6b  >K?J.h0..l)y.w.k
 0010 20791077 11779a6b 52b1b2f5 004f23d3   y.w.w.kR....O#.
 0020 384c1444 364a9c63 d176d076 30bc7047  8L.D6J.c.v.v0.pG
 0030 986a93f8 32100568 93f83440 586c0c43  .j..2..h..4@Xl.C
 0040 296b21ea 04010468 29630321 246883f8  )k!....h)c.!$h..
 0050 35102d4b 9c421dd1 037f4260 022bc260  5.-K.B....B`.+.`
 0060 1cd18368 30bc1847 2468b4f8 1ec01cf4  ...h0..G$h......
 0070 004f16d1 2d681ffa 82fca4f8 1ec0a4f8  .O..-h..........
 0080 16c0ec8b 240435d4 a5f81ec0 a5f816c0  ....$.5.........
 0090 0024c7e7 23461146 30bc1847 30bcfff7  .$..#F.F0..G0...
 00a0 febfb2f5 007f1ed2 1ffa82fc e28b2d68  ..............-h
 00b0 02f47e42 4cea0202 e283e28a 02f47e42  ..~BL.........~B
 00c0 4cea0202 e282ea8b 1204ddd5 ea8b02f4  L...............
 00d0 7e424cea 0202ea83 ea8a02f4 7e424cea  ~BL.........~BL.
 00e0 0202ea82 d4e72d68 ec8b2404 d0d41ffa  ......-h..$.....
 00f0 82fcc9e7 b2f5007f e8d3c9e7 00000000  ................
 0100 00800e40 0180ffff 00000000           ...@........    
Contents of section .text._ZN9FlexIOSPI5beginEv:
 0000 f8b50446 00f12c01 0079fff7 feffa062  ...F..,..y.....b
 0010 002800f0 0181217a fff7feff 0346217b  .(....!z.....F!{
 0020 a06a84f8 2d30fff7 feff94f8 2d2084f8  .j..-0......- ..
 0030 2e00ff2a 00f00281 ff2800f0 ce802169  ...*.....(....!i
 0040 4a1c40f0 eb80a06a 01210568 fff7feff  J.@....j.!.h....
 0050 0346ff21 a06a84f8 3030fff7 feffa66a  .F.!.j..00.....j
 0060 014684f8 31003046 fff7feff 01463046  .F..1.0F.....F0F
 0070 fff7feff ff2884f8 330000f0 068194f8  .....(..3.......
 0080 3010ff29 00f0e680 94f83100 ff2800f0  0..)......1..(..
 0090 e18094f8 3360ff2e 00f0dc80 012284f8  ....3`......."..
 00a0 322040b1 0346013b 520013f0 ff03d2b2  2 @..F.;R.......
 00b0 f9d184f8 32200122 84f83420 46b13346  ....2 ."..4 F.3F
 00c0 013b5200 13f0ff03 d2b2f9d1 84f83420  .;R...........4 
 00d0 05eb8000 4ff0000c 0a06714f c0f800c1  ....O.....qO....
 00e0 05eb8606 94f82c30 02f0e062 05eb8101  ......,0...b....
 00f0 1b0203f4 f8531343 1f43c0f8 8070c6f8  .....S.C.C...p..
 0100 00c194f8 2e301b02 03f4f853 1343654a  .....0.....S.CeJ
 0110 43f00103 c6f88030 40f60173 c1f80035  C......0@..s...5
 0120 94f82d30 1b0203f4 f8531a43 23690133  ..-0.....S.C#i.3
 0130 c1f80024 00f0b080 5b4a4ff6 ff73c1f8  ...$....[JO..s..
 0140 8024c1f8 04354ff4 8853584a c1f88434  .$...5O..SXJ...4
 0150 94f82f30 1b0203f4 f8531a43 c1f80424  ../0.....S.C...$
 0160 01232179 a06aab60 fff7feff 217aa06a  .#!y.j.`....!z.j
 0170 fff7feff 217ba06a fff7feff 61684c4b  ....!{.j....ahLK
 0180 b820d4e9 022503eb 011103eb 02128968  . ...%.........h
 0190 03eb0513 92689b68 08602169 10604ef2  .....h.h.`!i.`N.
 01a0 b8021a60 4b1c03d0 c9b2a06a fff7feff  ...`K......j....
 01b0 2146a06a fff7feff 0120a26a 94f83130  !F.j..... .j..10
 01c0 94f83310 2077e033 1268a031 02eb8303  ..3. w.3.h.1....
 01d0 02eb8102 c4e90823 f8bd04f1 2e01fff7  .......#........
 01e0 feffa062 c0b12179 fff7feff 0346217a  ...b..!y.....F!z
 01f0 84f82c30 a06afff7 feff0346 217b84f8  ..,0.j.....F!{..
 0200 2d30a06a fff7feff 94f82d30 84f82e00  -0.j......-0....
 0210 ff2b01d0 ff2817d1 0020f8bd c9b2a06a  .+...(... .....j
 0220 fff7feff ff2884f8 2f00f5d0 2369a06a  .....(../...#i.j
 0230 01330568 14bf0221 012107e7 04f12d01  .3.h...!.!....-.
 0240 1046fff7 feffcce7 94f82c30 ff2b7ff4  .F........,0.+..
 0250 f6aee1e7 2369ff25 a06a0133 14bf0222  ....#i.%.j.3..."
 0260 0122fff7 feff94f8 3110a06a 84f83050  ."......1..j..0P
 0270 fff7feff a06a94f8 3310fff7 feff0020  .....j..3...... 
 0280 84f83150 84f83350 f8bd0146 a06afff7  ..1P..3P...F.j..
 0290 feff84f8 3300f2e6 064bc1f8 80345fe7  ....3....K...4_.
 02a0 02008300 0100c301 22220001 83000300  ........""......
 02b0 00000000 00220001                    ....."..        
Contents of section .text._ZN9FlexIOSPI3endEv:
 0000 38b50446 806ae8b1 2369ff25 94f83010  8..F.j..#i.%..0.
 0010 013314bf 02220122 fff7feff 94f83110  .3..."."......1.
 0020 a06a84f8 3050fff7 feff94f8 3310a06a  .j..0P......3..j
 0030 fff7feff 2146a06a 84f83150 fff7feff  ....!F.j..1P....
 0040 0023a362 38bd00bf                    .#.b8...        
Contents of section .text._ZN9FlexIOSPI16beginTransactionE17FlexIOSPISettings:
 0000 10b582b0 044602ab 03e90600 82690b46  .....F.......i.F
 0010 8a4238d0 9df80620 a361531e 9df80510  .B8.... .aS.....
 0020 a27748bf 931da06a 6177db10 0133dbb2  .wH....jaw...3..
 0030 032b08bf 0423e377 fff7feff a3694008  .+...#.w.....i@.
 0040 8342b0fb f3f205d8 b0fbf2f0 834228bf  .B...........B(.
 0050 02f1ff32 94f91d10 002902db fab1012a  ...2.....).....*
 0060 1fd0a37f a06a5b02 94f83010 0068a3f5  .....j[...0..h..
 0070 807301f5 a0711343 40f82130 9df80430  .s...q.C@.!0...0
 0080 237702b0 10bd0199 c069084a 41400a40  #w.......i.JA@.@
 0090 002abfd1 9df80430 237702b0 10bd0122  .*.....0#w....."
 00a0 dfe70349 8b4288bf 0222dae7 00ffff00  ...I.B..."......
 00b0 80c3c901                             ....            
Contents of section .text._ZN9FlexIOSPI14endTransactionEv:
 0000 704700bf                             pG..            
Contents of section .text._ZN9FlexIOSPI17setShiftBufferOutEmh:
 0000 037f012b 07d0826a 90f83130 12688033  ...+...j..10.h.3
 0010 42f82310 704710b4 c2f12002 846a90f8  B.#.pG.... ..j..
 0020 31309140 2068a033 5df8044b 40f82310  10.@ h.3]..K@.#.
 0030 704700bf                             pG..            
Contents of section .text._ZN9FlexIOSPI17setShiftBufferOutEPKvhj:
 0000 013b032b 27d8dfe8 03f02224 0e020b68  .;.+'....."$...h
 0010 017f0129 0dd0816a 90f83120 09688032  ...)...j..1 .h.2
 0020 41f82230 70470b68 017f23f0 7f430129  A."0pG.h..#..C.)
 0030 f1d1c2f1 200210b4 846a9340 90f83110  .... ....j.@..1.
 0040 2068a031 5df8044b 40f82130 70470b78   h.1]..K@.!0pG.x
 0050 dee70b88 dce70023 dae700bf           .......#....    
Contents of section .text._ZN9FlexIOSPI16getShiftBufferInEh:
 0000 037f826a 012b90f8 333007d0 12688033  ...j.+..30...h.3
 0010 c1f12001 52f82300 c8407047 1268a033  .. .R.#..@pG.h.3
 0020 52f82300 704700bf                    R.#.pG..        
Contents of section .text._ZN9FlexIOSPI16getShiftBufferInEPvhj:
 0000 013b10b4 032b14d8 dfe803f0 39270216  .;...+......9'..
 0010 037f012b 45d090f8 3330c2f1 2002846a  ...+E...30.. ..j
 0020 80332068 50f82330 23fa02f2 130c0a80  .3 hP.#0#.......
 0030 8b705df8 044b7047 037f012b 39d090f8  .p]..KpG...+9...
 0040 3330c2f1 2002846a 80332068 50f82330  30.. ..j.3 hP.#0
 0050 d3405df8 044b0b60 7047037f 012b39d0  .@]..K.`pG...+9.
 0060 90f83330 c2f12002 846a8033 206850f8  ..30.. ..j.3 hP.
 0070 233023fa 02f25df8 044b0a80 7047037f  #0#...]..K..pG..
 0080 012b1ed0 90f83330 c2f12002 846a8033  .+....30.. ..j.3
 0090 206850f8 233023fa 02f20a70 5df8044b   hP.#0#....p]..K
 00a0 7047826a 90f83330 1268a033 52f82320  pG.j..30.h.3R.# 
 00b0 bce7826a 90f83330 1268a033 52f82330  ...j..30.h.3R.#0
 00c0 c7e7826a 90f83330 1268a033 52f82320  ...j..30.h.3R.# 
 00d0 0a70e3e7 826a90f8 33301268 a03352f8  .p...j..30.h.3R.
 00e0 2320c8e7                             # ..            
Contents of section .text._ZN9FlexIOSPI13transferNBitsEmh:
 0000 836a70b5 1c685302 90f830e0 a3f58073  .jp..hS...0....s
 0010 04eb8e0e def80055 eeb2adb2 3343cef8  .......U....3C..
 0020 00352369 90f834c0 067f13ea 0c0f32d1  .5#i..4.......2.
 0030 012e19d0 90f83130 803344f8 23104ff6  ......10.3D.#.O.
 0040 ff7300e0 2bb12169 013b1cea 010f9bb2  .s..+.!i.;......
 0050 f8d02369 1cea030f 10d1ff20 cef80055  ..#i....... ...U
 0060 70bda033 54f82330 90f83130 c2f12006  p..3T.#0..10.. .
 0070 a033b140 012644f8 2310e0e7 012e90f8  .3.@.&D.#.......
 0080 333010d0 8033c2f1 200254f8 2300cef8  30...3.. .T.#...
 0090 0055d040 70bd012e 90f83330 e1d08033  .U.@p.....30...3
 00a0 54f82330 c6e7a033 54f82300 cef80055  T.#0...3T.#....U
 00b0 70bd00bf                             p...            
Contents of section .text._ZN9FlexIOSPI19transferBufferNBitsEPKvPvjh:
 0000 2de9f04f 83b00646 88469146 9df830b0  -..O...F.F.F..0.
 0010 1f46bbf1 000f01d1 90f81eb0 bbf10103  .F..............
 0020 48bf0bf1 0603db10 0133dbb2 032b08bf  H........3...+..
 0030 0423002f 4fd0b26a 96f834a0 96f83250  .#./O..j..4...2P
 0040 14684aea 05026261 22692a42 fcd0b8f1  .hJ...ba"i*B....
 0050 000f07d0 41465a46 30469844 0193fff7  ....AFZF0F.D....
 0060 feff019b 013f27d0 9a462169 2942fcd0  .....?'..F!i)B..
 0070 b8f1000f 06d04146 53465a46 3046d044  ......AFSFZF0F.D
 0080 fff7feff 013f96f8 34502169 2942fcd0  .....?..4P!i)B..
 0090 b9f1000f 08d04946 53465a46 3046fff7  ......IFSFZF0F..
 00a0 feffb36a d1441c68 c7b196f8 3250dce7  ...j.D.h....2P..
 00b0 62691aea 020f03d1 226912ea 0a0ff7d0  bi......"i......
 00c0 b9f1000f 07d05a46 49463046 03b0bde8  ......ZFIF0F....
 00d0 f04ffff7 febf03b0 bde8f08f 534696f8  .O..........SF..
 00e0 34a0e9e7                             4...            
Contents of section .text._ZN9FlexIOSPI15initDMAChannelsEv:
 0000 f8b50446 0820fff7 feff0546 0021fff7  ...F. .....F.!..
 0010 feffe563 0820fff7 feff0546 0021fff7  ...c. .....F.!..
 0020 feff2564 a06afff7 feff276c 3f4b0021  ..%d.j....'l?K.!
 0030 3a790546 9a76226a 3b68b2f1 804f1a60  :y.F.v"j;h...O.`
 0040 9980d971 5dd39a68 002a5ad0 9a8b0026  ...q]..h.*Z....&
 0050 a06a92b2 de6042f0 08029a83 94f83310  .j...`B.......3.
 0060 fff7feff 00f07f03 397943f0 0043304a  ........9yC..C0J
 0070 42f82160 42f82130 236c002d 44d11979  B.!`B.!0#l.-D..y
 0080 01202c4a 01f01f06 2b4d02eb 51121031  . ,J....+M..Q..1
 0090 b0402a4e 920045f8 21601060 284a1460  .@*N..E.!`.`(J.`
 00a0 1a680021 e56b938b 20489bb2 43f00203  .h.!.k.. H..C...
 00b0 93832b79 8376626a 2b68b2f1 804f1a61  ..+y.vbj+h...O.a
 00c0 99829971 01d39a68 0ab90122 9a609a8b  ...q...h...".`..
 00d0 0026a06a 92b29e61 42f00802 9a8394f8  .&.j...aB.......
 00e0 3110fff7 feff00f0 7f032979 0120104a  1.........)y. .J
 00f0 43f00043 42f82160 42f82130 84f83500  C..CB.!`B.!0..5.
 0100 f8bd0122 9a60a1e7 19790120 094a01f0  ...".`...y. .J..
 0110 1f06094d 02eb5112 1031b040 094e9200  ...M..Q..1.@.N..
 0120 45f82160 1060064a 5460b9e7 00800e40  E.!`.`.JT`.....@
 0130 00c00e40 40380038 00000000 00000000  ...@@8.8........
 0140 00000000 00000000                    ........        
Contents of section .text._ZN9FlexIOSPI8transferEPKvPvjR14EventResponder:
 0000 2de9f041 1d4682b0 90f83530 04460e46  -..A.F....50.F.F
 0010 9046089f 002b32d0 022b2cd0 3846fff7  .F...+2..+,.8F..
 0020 feff012d 40f2f980 b5f5004f 2ed39d4b  ...-@......O...K
 0030 2b4447f6 ff75a363 002e00f0 3d81e36b  +DG..u.c....=..k
 0040 01221b68 9a809a60 00221e60 da71da60  .".h...`.".`.q.`
 0050 aab2da83 da82944a 964219d8 e27f102a  .......J.B.....*
 0060 00f0f480 042a00f0 7481022a 00f09081  .....*..t..*....
 0070 01219980 2de00020 02b0bde8 f081fff7  .!..-.. ........
 0080 feff0028 f7d094f8 3530c5e7 0023d2e7  ...(....50...#..
 0090 26f01f03 2e44bff3 4f8f4ff0 e022c2f8  &....D..O.O.."..
 00a0 683f2033 9e42fad8 bff34f8f bff36f8f  h? 3.B....O...o.
 00b0 e36b1b68 b3f90410 e27f102a 71d0042a  .k.h.......*q..*
 00c0 00f02f81 022a00f0 51810120 98600029  ../..*..Q.. .`.)
 00d0 ced1b3f9 141009b1 01219982 d98821f4  .........!....!.
 00e0 e06121f0 070189b2 d980236c b8f1000f  .a!.......#l....
 00f0 6ed01b68 00200121 98719861 a8b2c3f8  n..h. .!.q.a....
 0100 1080d883 d8826848 99828045 996014d9  ......hH...E.`..
 0110 28f01f03 4544bff3 4f8f4ff0 e022c2f8  (...ED..O.O.."..
 0120 5c3f2033 9d42fad8 bff34f8f bff36f8f  \? 3.B....O...o.
 0130 236ce27f 1b68b3f9 1410102a 00f08a80  #l...h.....*....
 0140 042a00f0 9c80022a 00f0d980 0122b3f9  .*.....*....."..
 0150 04009a60 00b19a80 09b10122 9a82da88  ...`......."....
 0160 22f4e062 22f00702 92b2da80 6764fff7  "..b".......gd..
 0170 feffa16a 94f83220 096894f8 3430206c  ...j..2 .h..40 l
 0180 13430a6b 1343494a 0b630223 01790120  .C.k.CIJ.c.#.y. 
 0190 d176e16b 0979d176 84f83530 02b0bde8  .v.k.y.v..50....
 01a0 f0819a60 002952d1 b3f91420 0ab11022  ...`.)R.... ..."
 01b0 9a82da88 40f20441 22f4e062 22f00702  ....@..A"..b"...
 01c0 11431022 89b2d980 236cb8f1 000f90d1  .C."....#l......
 01d0 37481968 b0f1804f 0861a1f8 148081f8  7H.h...O.a......
 01e0 068049d3 88680028 46d01b68 00208861  ..I..h.(F..h. .a
 01f0 d98b0904 40f1a780 b5f5007f 0ad2d98b  ....@...........
 0200 adb201f4 7e412943 d983d98a 01f47e41  ....~A)C......~A
 0210 0d43dd82 b3f91410 8fe72046 00242b46  .C........ F.$+F
 0220 42463146 0094fff7 feff3b68 214a1b68  BF1F......;h!J.h
 0230 934240f0 b7803b7f 7c60022b fc6040f0  .B@...;.|`.+.`@.
 0240 90803846 bb689847 012015e7 9a601022  ..8F.h.G. ...`."
 0250 9a80a9e7 b3f90400 9a6000b1 9a8009b1  .........`......
 0260 10229a82 d98840f2 044221f4 e06121f0  ."....@..B!..a!.
 0270 07010a43 92b278e7 01208860 b5e7b3f9  ...C..x.. .`....
 0280 04009a60 00b19a80 09b10422 9a82d988  ...`......."....
 0290 40f20222 21f4e061 21f00701 0a4392b2  @.."!..a!....C..
 02a0 63e700bf 0180ffff ffff1f20 00800e40  c.......... ...@
 02b0 00000000 00000000 e16b04f1 14030a68  .........k.....h
 02c0 b3f1804f 13609680 d67146d2 01239360  ...O.`...qF..#.`
 02d0 0b680021 d160da8b 12045dd5 b5f5007f  .h.!.`....].....
 02e0 0ad2da8b a9b202f4 7e420a43 da83da8a  ........~B.C....
 02f0 02f47e42 1143d982 b3f90410 dce6b3f9  ..~B.C..........
 0300 04009a60 00b19a80 09b10222 9a82d988  ...`......."....
 0310 40f20112 21f4e061 21f00701 0a4392b2  @...!..a!....C..
 0320 23e79a60 b1b9b3f9 14200ab1 04229a82  #..`..... ..."..
 0330 da8840f2 022122f4 e06222f0 07021143  ..@..!"..b"....C
 0340 042289b2 d0e6adb2 b3f91410 dd83dd82  ."..............
 0350 f3e69a60 04229a80 e5e79368 002bb7d1  ...`.".....h.+..
 0360 b4e73846 fff7feff 012085e6 9a6081b9  ..8F..... ...`..
 0370 b3f91420 0ab10222 9a82da88 40f20111  ... ..."....@...
 0380 22f4e062 22f00702 11430222 89b2abe6  "..b"....C."....
 0390 9a600222 9a80ebe7 aab2b3f9 0410da83  .`."............
 03a0 da8289e6 38462246 21469847 012063e6  ....8F"F!F.G. c.
Contents of section .rodata._ZTV9FlexIOSPI:
 0000 00000000 00000000 00000000           ............    
Contents of section .comment:
 0000 00474343 3a202841 726d2047 4e552054  .GCC: (Arm GNU T
 0010 6f6f6c63 6861696e 2031312e 332e5265  oolchain 11.3.Re
 0020 6c312920 31312e33 2e312032 30323230  l1) 11.3.1 20220
 0030 37313200                             712.            
Contents of section .ARM.attributes:
 0000 41310000 00616561 62690001 27000000  A1...aeabi..'...
 0010 0537452d 4d00060d 074d0902 0a081204  .7E-M....M......
 0020 14011501 17031801 19011a01 1c011e02  ................
 0030 2201                                 ".              

Disassembly of section .text._ZN9FlexIOSPI9call_backEP13FlexIOHandler:

00000000 <_ZN9FlexIOSPI9call_backEP13FlexIOHandler>:
   0:	2000      	movs	r0, #0
   2:	4770      	bx	lr

Disassembly of section .text._ZN14EventResponder12triggerEventEiPv:

00000000 <_ZN14EventResponder12triggerEventEiPv>:
   0:	f890 c01c 	ldrb.w	ip, [r0, #28]
   4:	6041      	str	r1, [r0, #4]
   6:	f1bc 0f02 	cmp.w	ip, #2
   a:	60c2      	str	r2, [r0, #12]
   c:	d101      	bne.n	12 <_ZN14EventResponder12triggerEventEiPv+0x12>
   e:	6883      	ldr	r3, [r0, #8]
  10:	4718      	bx	r3
  12:	f7ff bffe 	b.w	0 <_ZN14EventResponder24triggerEventNotImmediateEv>
  16:	bf00      	nop

Disassembly of section .text._ZN9FlexIOSPI11_dma_rxISR1Ev:

00000000 <_ZN9FlexIOSPI11_dma_rxISR1Ev>:
   0:	4b3e      	ldr	r3, [pc, #248]	; (fc <_ZN9FlexIOSPI11_dma_rxISR1Ev+0xfc>)
   2:	4a3f      	ldr	r2, [pc, #252]	; (100 <_ZN9FlexIOSPI11_dma_rxISR1Ev+0x100>)
   4:	685b      	ldr	r3, [r3, #4]
   6:	b430      	push	{r4, r5}
   8:	6c1d      	ldr	r5, [r3, #64]	; 0x40
   a:	7929      	ldrb	r1, [r5, #4]
   c:	77d1      	strb	r1, [r2, #31]
   e:	6bdc      	ldr	r4, [r3, #60]	; 0x3c
  10:	7920      	ldrb	r0, [r4, #4]
  12:	7710      	strb	r0, [r2, #28]
  14:	7711      	strb	r1, [r2, #28]
  16:	6b9a      	ldr	r2, [r3, #56]	; 0x38
  18:	b152      	cbz	r2, 30 <_ZN9FlexIOSPI11_dma_rxISR1Ev+0x30>
  1a:	f5b2 4f00 	cmp.w	r2, #32768	; 0x8000
  1e:	d323      	bcc.n	68 <_ZN9FlexIOSPI11_dma_rxISR1Ev+0x68>
  20:	4c38      	ldr	r4, [pc, #224]	; (104 <_ZN9FlexIOSPI11_dma_rxISR1Ev+0x104>)
  22:	4414      	add	r4, r2
  24:	4a36      	ldr	r2, [pc, #216]	; (100 <_ZN9FlexIOSPI11_dma_rxISR1Ev+0x100>)
  26:	639c      	str	r4, [r3, #56]	; 0x38
  28:	76d1      	strb	r1, [r2, #27]
  2a:	76d0      	strb	r0, [r2, #27]
  2c:	bc30      	pop	{r4, r5}
  2e:	4770      	bx	lr
  30:	6a98      	ldr	r0, [r3, #40]	; 0x28
  32:	f893 1032 	ldrb.w	r1, [r3, #50]	; 0x32
  36:	6805      	ldr	r5, [r0, #0]
  38:	f893 4034 	ldrb.w	r4, [r3, #52]	; 0x34
  3c:	6c58      	ldr	r0, [r3, #68]	; 0x44
  3e:	430c      	orrs	r4, r1
  40:	6b29      	ldr	r1, [r5, #48]	; 0x30
  42:	ea21 0104 	bic.w	r1, r1, r4
  46:	6804      	ldr	r4, [r0, #0]
  48:	6329      	str	r1, [r5, #48]	; 0x30
  4a:	2103      	movs	r1, #3
  4c:	6824      	ldr	r4, [r4, #0]
  4e:	f883 1035 	strb.w	r1, [r3, #53]	; 0x35
  52:	4b2d      	ldr	r3, [pc, #180]	; (108 <_ZN9FlexIOSPI11_dma_rxISR1Ev+0x108>)
  54:	429c      	cmp	r4, r3
  56:	d11d      	bne.n	94 <_ZN9FlexIOSPI11_dma_rxISR1Ev+0x94>
  58:	7f03      	ldrb	r3, [r0, #28]
  5a:	6042      	str	r2, [r0, #4]
  5c:	2b02      	cmp	r3, #2
  5e:	60c2      	str	r2, [r0, #12]
  60:	d11c      	bne.n	9c <_ZN9FlexIOSPI11_dma_rxISR1Ev+0x9c>
  62:	6883      	ldr	r3, [r0, #8]
  64:	bc30      	pop	{r4, r5}
  66:	4718      	bx	r3
  68:	6824      	ldr	r4, [r4, #0]
  6a:	f8b4 c01e 	ldrh.w	ip, [r4, #30]
  6e:	f41c 4f00 	tst.w	ip, #32768	; 0x8000
  72:	d116      	bne.n	a2 <_ZN9FlexIOSPI11_dma_rxISR1Ev+0xa2>
  74:	682d      	ldr	r5, [r5, #0]
  76:	fa1f fc82 	uxth.w	ip, r2
  7a:	f8a4 c01e 	strh.w	ip, [r4, #30]
  7e:	f8a4 c016 	strh.w	ip, [r4, #22]
  82:	8bec      	ldrh	r4, [r5, #30]
  84:	0424      	lsls	r4, r4, #16
  86:	d435      	bmi.n	f4 <_ZN9FlexIOSPI11_dma_rxISR1Ev+0xf4>
  88:	f8a5 c01e 	strh.w	ip, [r5, #30]
  8c:	f8a5 c016 	strh.w	ip, [r5, #22]
  90:	2400      	movs	r4, #0
  92:	e7c7      	b.n	24 <_ZN9FlexIOSPI11_dma_rxISR1Ev+0x24>
  94:	4623      	mov	r3, r4
  96:	4611      	mov	r1, r2
  98:	bc30      	pop	{r4, r5}
  9a:	4718      	bx	r3
  9c:	bc30      	pop	{r4, r5}
  9e:	f7ff bffe 	b.w	0 <_ZN14EventResponder24triggerEventNotImmediateEv>
  a2:	f5b2 7f00 	cmp.w	r2, #512	; 0x200
  a6:	d21e      	bcs.n	e6 <_ZN9FlexIOSPI11_dma_rxISR1Ev+0xe6>
  a8:	fa1f fc82 	uxth.w	ip, r2
  ac:	8be2      	ldrh	r2, [r4, #30]
  ae:	682d      	ldr	r5, [r5, #0]
  b0:	f402 427e 	and.w	r2, r2, #65024	; 0xfe00
  b4:	ea4c 0202 	orr.w	r2, ip, r2
  b8:	83e2      	strh	r2, [r4, #30]
  ba:	8ae2      	ldrh	r2, [r4, #22]
  bc:	f402 427e 	and.w	r2, r2, #65024	; 0xfe00
  c0:	ea4c 0202 	orr.w	r2, ip, r2
  c4:	82e2      	strh	r2, [r4, #22]
  c6:	8bea      	ldrh	r2, [r5, #30]
  c8:	0412      	lsls	r2, r2, #16
  ca:	d5dd      	bpl.n	88 <_ZN9FlexIOSPI11_dma_rxISR1Ev+0x88>
  cc:	8bea      	ldrh	r2, [r5, #30]
  ce:	f402 427e 	and.w	r2, r2, #65024	; 0xfe00
  d2:	ea4c 0202 	orr.w	r2, ip, r2
  d6:	83ea      	strh	r2, [r5, #30]
  d8:	8aea      	ldrh	r2, [r5, #22]
  da:	f402 427e 	and.w	r2, r2, #65024	; 0xfe00
  de:	ea4c 0202 	orr.w	r2, ip, r2
  e2:	82ea      	strh	r2, [r5, #22]
  e4:	e7d4      	b.n	90 <_ZN9FlexIOSPI11_dma_rxISR1Ev+0x90>
  e6:	682d      	ldr	r5, [r5, #0]
  e8:	8bec      	ldrh	r4, [r5, #30]
  ea:	0424      	lsls	r4, r4, #16
  ec:	d4d0      	bmi.n	90 <_ZN9FlexIOSPI11_dma_rxISR1Ev+0x90>
  ee:	fa1f fc82 	uxth.w	ip, r2
  f2:	e7c9      	b.n	88 <_ZN9FlexIOSPI11_dma_rxISR1Ev+0x88>
  f4:	f5b2 7f00 	cmp.w	r2, #512	; 0x200
  f8:	d3e8      	bcc.n	cc <_ZN9FlexIOSPI11_dma_rxISR1Ev+0xcc>
  fa:	e7c9      	b.n	90 <_ZN9FlexIOSPI11_dma_rxISR1Ev+0x90>
  fc:	00000000 	.word	0x00000000
 100:	400e8000 	.word	0x400e8000
 104:	ffff8001 	.word	0xffff8001
 108:	00000000 	.word	0x00000000

Disassembly of section .text._ZN9FlexIOSPI11_dma_rxISR0Ev:

00000000 <_ZN9FlexIOSPI11_dma_rxISR0Ev>:
   0:	4b3e      	ldr	r3, [pc, #248]	; (fc <_ZN9FlexIOSPI11_dma_rxISR0Ev+0xfc>)
   2:	4a3f      	ldr	r2, [pc, #252]	; (100 <_ZN9FlexIOSPI11_dma_rxISR0Ev+0x100>)
   4:	681b      	ldr	r3, [r3, #0]
   6:	b430      	push	{r4, r5}
   8:	6c1d      	ldr	r5, [r3, #64]	; 0x40
   a:	7929      	ldrb	r1, [r5, #4]
   c:	77d1      	strb	r1, [r2, #31]
   e:	6bdc      	ldr	r4, [r3, #60]	; 0x3c
  10:	7920      	ldrb	r0, [r4, #4]
  12:	7710      	strb	r0, [r2, #28]
  14:	7711      	strb	r1, [r2, #28]
  16:	6b9a      	ldr	r2, [r3, #56]	; 0x38
  18:	b152      	cbz	r2, 30 <_ZN9FlexIOSPI11_dma_rxISR0Ev+0x30>
  1a:	f5b2 4f00 	cmp.w	r2, #32768	; 0x8000
  1e:	d323      	bcc.n	68 <_ZN9FlexIOSPI11_dma_rxISR0Ev+0x68>
  20:	4c38      	ldr	r4, [pc, #224]	; (104 <_ZN9FlexIOSPI11_dma_rxISR0Ev+0x104>)
  22:	4414      	add	r4, r2
  24:	4a36      	ldr	r2, [pc, #216]	; (100 <_ZN9FlexIOSPI11_dma_rxISR0Ev+0x100>)
  26:	639c      	str	r4, [r3, #56]	; 0x38
  28:	76d1      	strb	r1, [r2, #27]
  2a:	76d0      	strb	r0, [r2, #27]
  2c:	bc30      	pop	{r4, r5}
  2e:	4770      	bx	lr
  30:	6a98      	ldr	r0, [r3, #40]	; 0x28
  32:	f893 1032 	ldrb.w	r1, [r3, #50]	; 0x32
  36:	6805      	ldr	r5, [r0, #0]
  38:	f893 4034 	ldrb.w	r4, [r3, #52]	; 0x34
  3c:	6c58      	ldr	r0, [r3, #68]	; 0x44
  3e:	430c      	orrs	r4, r1
  40:	6b29      	ldr	r1, [r5, #48]	; 0x30
  42:	ea21 0104 	bic.w	r1, r1, r4
  46:	6804      	ldr	r4, [r0, #0]
  48:	6329      	str	r1, [r5, #48]	; 0x30
  4a:	2103      	movs	r1, #3
  4c:	6824      	ldr	r4, [r4, #0]
  4e:	f883 1035 	strb.w	r1, [r3, #53]	; 0x35
  52:	4b2d      	ldr	r3, [pc, #180]	; (108 <_ZN9FlexIOSPI11_dma_rxISR0Ev+0x108>)
  54:	429c      	cmp	r4, r3
  56:	d11d      	bne.n	94 <_ZN9FlexIOSPI11_dma_rxISR0Ev+0x94>
  58:	7f03      	ldrb	r3, [r0, #28]
  5a:	6042      	str	r2, [r0, #4]
  5c:	2b02      	cmp	r3, #2
  5e:	60c2      	str	r2, [r0, #12]
  60:	d11c      	bne.n	9c <_ZN9FlexIOSPI11_dma_rxISR0Ev+0x9c>
  62:	6883      	ldr	r3, [r0, #8]
  64:	bc30      	pop	{r4, r5}
  66:	4718      	bx	r3
  68:	6824      	ldr	r4, [r4, #0]
  6a:	f8b4 c01e 	ldrh.w	ip, [r4, #30]
  6e:	f41c 4f00 	tst.w	ip, #32768	; 0x8000
  72:	d116      	bne.n	a2 <_ZN9FlexIOSPI11_dma_rxISR0Ev+0xa2>
  74:	682d      	ldr	r5, [r5, #0]
  76:	fa1f fc82 	uxth.w	ip, r2
  7a:	f8a4 c01e 	strh.w	ip, [r4, #30]
  7e:	f8a4 c016 	strh.w	ip, [r4, #22]
  82:	8bec      	ldrh	r4, [r5, #30]
  84:	0424      	lsls	r4, r4, #16
  86:	d435      	bmi.n	f4 <_ZN9FlexIOSPI11_dma_rxISR0Ev+0xf4>
  88:	f8a5 c01e 	strh.w	ip, [r5, #30]
  8c:	f8a5 c016 	strh.w	ip, [r5, #22]
  90:	2400      	movs	r4, #0
  92:	e7c7      	b.n	24 <_ZN9FlexIOSPI11_dma_rxISR0Ev+0x24>
  94:	4623      	mov	r3, r4
  96:	4611      	mov	r1, r2
  98:	bc30      	pop	{r4, r5}
  9a:	4718      	bx	r3
  9c:	bc30      	pop	{r4, r5}
  9e:	f7ff bffe 	b.w	0 <_ZN14EventResponder24triggerEventNotImmediateEv>
  a2:	f5b2 7f00 	cmp.w	r2, #512	; 0x200
  a6:	d21e      	bcs.n	e6 <_ZN9FlexIOSPI11_dma_rxISR0Ev+0xe6>
  a8:	fa1f fc82 	uxth.w	ip, r2
  ac:	8be2      	ldrh	r2, [r4, #30]
  ae:	682d      	ldr	r5, [r5, #0]
  b0:	f402 427e 	and.w	r2, r2, #65024	; 0xfe00
  b4:	ea4c 0202 	orr.w	r2, ip, r2
  b8:	83e2      	strh	r2, [r4, #30]
  ba:	8ae2      	ldrh	r2, [r4, #22]
  bc:	f402 427e 	and.w	r2, r2, #65024	; 0xfe00
  c0:	ea4c 0202 	orr.w	r2, ip, r2
  c4:	82e2      	strh	r2, [r4, #22]
  c6:	8bea      	ldrh	r2, [r5, #30]
  c8:	0412      	lsls	r2, r2, #16
  ca:	d5dd      	bpl.n	88 <_ZN9FlexIOSPI11_dma_rxISR0Ev+0x88>
  cc:	8bea      	ldrh	r2, [r5, #30]
  ce:	f402 427e 	and.w	r2, r2, #65024	; 0xfe00
  d2:	ea4c 0202 	orr.w	r2, ip, r2
  d6:	83ea      	strh	r2, [r5, #30]
  d8:	8aea      	ldrh	r2, [r5, #22]
  da:	f402 427e 	and.w	r2, r2, #65024	; 0xfe00
  de:	ea4c 0202 	orr.w	r2, ip, r2
  e2:	82ea      	strh	r2, [r5, #22]
  e4:	e7d4      	b.n	90 <_ZN9FlexIOSPI11_dma_rxISR0Ev+0x90>
  e6:	682d      	ldr	r5, [r5, #0]
  e8:	8bec      	ldrh	r4, [r5, #30]
  ea:	0424      	lsls	r4, r4, #16
  ec:	d4d0      	bmi.n	90 <_ZN9FlexIOSPI11_dma_rxISR0Ev+0x90>
  ee:	fa1f fc82 	uxth.w	ip, r2
  f2:	e7c9      	b.n	88 <_ZN9FlexIOSPI11_dma_rxISR0Ev+0x88>
  f4:	f5b2 7f00 	cmp.w	r2, #512	; 0x200
  f8:	d3e8      	bcc.n	cc <_ZN9FlexIOSPI11_dma_rxISR0Ev+0xcc>
  fa:	e7c9      	b.n	90 <_ZN9FlexIOSPI11_dma_rxISR0Ev+0x90>
  fc:	00000000 	.word	0x00000000
 100:	400e8000 	.word	0x400e8000
 104:	ffff8001 	.word	0xffff8001
 108:	00000000 	.word	0x00000000

Disassembly of section .text._ZN9FlexIOSPI5beginEv:

00000000 <_ZN9FlexIOSPI5beginEv>:
   0:	b5f8      	push	{r3, r4, r5, r6, r7, lr}
   2:	4604      	mov	r4, r0
   4:	f100 012c 	add.w	r1, r0, #44	; 0x2c
   8:	7900      	ldrb	r0, [r0, #4]
   a:	f7ff fffe 	bl	0 <_ZN13FlexIOHandler23mapIOPinToFlexIOHandlerEhRh>
   e:	62a0      	str	r0, [r4, #40]	; 0x28
  10:	2800      	cmp	r0, #0
  12:	f000 8101 	beq.w	218 <_ZN9FlexIOSPI5beginEv+0x218>
  16:	7a21      	ldrb	r1, [r4, #8]
  18:	f7ff fffe 	bl	0 <_ZN13FlexIOHandler17mapIOPinToFlexPinEh>
  1c:	4603      	mov	r3, r0
  1e:	7b21      	ldrb	r1, [r4, #12]
  20:	6aa0      	ldr	r0, [r4, #40]	; 0x28
  22:	f884 302d 	strb.w	r3, [r4, #45]	; 0x2d
  26:	f7ff fffe 	bl	0 <_ZN13FlexIOHandler17mapIOPinToFlexPinEh>
  2a:	f894 202d 	ldrb.w	r2, [r4, #45]	; 0x2d
  2e:	f884 002e 	strb.w	r0, [r4, #46]	; 0x2e
  32:	2aff      	cmp	r2, #255	; 0xff
  34:	f000 8102 	beq.w	23c <_ZN9FlexIOSPI5beginEv+0x23c>
  38:	28ff      	cmp	r0, #255	; 0xff
  3a:	f000 80ce 	beq.w	1da <_ZN9FlexIOSPI5beginEv+0x1da>
  3e:	6921      	ldr	r1, [r4, #16]
  40:	1c4a      	adds	r2, r1, #1
  42:	f040 80eb 	bne.w	21c <_ZN9FlexIOSPI5beginEv+0x21c>
  46:	6aa0      	ldr	r0, [r4, #40]	; 0x28
  48:	2101      	movs	r1, #1
  4a:	6805      	ldr	r5, [r0, #0]
  4c:	f7ff fffe 	bl	0 <_ZN13FlexIOHandler13requestTimersEh>
  50:	4603      	mov	r3, r0
  52:	21ff      	movs	r1, #255	; 0xff
  54:	6aa0      	ldr	r0, [r4, #40]	; 0x28
  56:	f884 3030 	strb.w	r3, [r4, #48]	; 0x30
  5a:	f7ff fffe 	bl	0 <_ZN13FlexIOHandler14requestShifterEh>
  5e:	6aa6      	ldr	r6, [r4, #40]	; 0x28
  60:	4601      	mov	r1, r0
  62:	f884 0031 	strb.w	r0, [r4, #49]	; 0x31
  66:	4630      	mov	r0, r6
  68:	f7ff fffe 	bl	0 <_ZN13FlexIOHandler18shiftersDMAChannelEh>
  6c:	4601      	mov	r1, r0
  6e:	4630      	mov	r0, r6
  70:	f7ff fffe 	bl	0 <_ZN13FlexIOHandler14requestShifterEh>
  74:	28ff      	cmp	r0, #255	; 0xff
  76:	f884 0033 	strb.w	r0, [r4, #51]	; 0x33
  7a:	f000 8106 	beq.w	28a <_ZN9FlexIOSPI5beginEv+0x28a>
  7e:	f894 1030 	ldrb.w	r1, [r4, #48]	; 0x30
  82:	29ff      	cmp	r1, #255	; 0xff
  84:	f000 80e6 	beq.w	254 <_ZN9FlexIOSPI5beginEv+0x254>
  88:	f894 0031 	ldrb.w	r0, [r4, #49]	; 0x31
  8c:	28ff      	cmp	r0, #255	; 0xff
  8e:	f000 80e1 	beq.w	254 <_ZN9FlexIOSPI5beginEv+0x254>
  92:	f894 6033 	ldrb.w	r6, [r4, #51]	; 0x33
  96:	2eff      	cmp	r6, #255	; 0xff
  98:	f000 80dc 	beq.w	254 <_ZN9FlexIOSPI5beginEv+0x254>
  9c:	2201      	movs	r2, #1
  9e:	f884 2032 	strb.w	r2, [r4, #50]	; 0x32
  a2:	b140      	cbz	r0, b6 <_ZN9FlexIOSPI5beginEv+0xb6>
  a4:	4603      	mov	r3, r0
  a6:	3b01      	subs	r3, #1
  a8:	0052      	lsls	r2, r2, #1
  aa:	f013 03ff 	ands.w	r3, r3, #255	; 0xff
  ae:	b2d2      	uxtb	r2, r2
  b0:	d1f9      	bne.n	a6 <_ZN9FlexIOSPI5beginEv+0xa6>
  b2:	f884 2032 	strb.w	r2, [r4, #50]	; 0x32
  b6:	2201      	movs	r2, #1
  b8:	f884 2034 	strb.w	r2, [r4, #52]	; 0x34
  bc:	b146      	cbz	r6, d0 <_ZN9FlexIOSPI5beginEv+0xd0>
  be:	4633      	mov	r3, r6
  c0:	3b01      	subs	r3, #1
  c2:	0052      	lsls	r2, r2, #1
  c4:	f013 03ff 	ands.w	r3, r3, #255	; 0xff
  c8:	b2d2      	uxtb	r2, r2
  ca:	d1f9      	bne.n	c0 <_ZN9FlexIOSPI5beginEv+0xc0>
  cc:	f884 2034 	strb.w	r2, [r4, #52]	; 0x34
  d0:	eb05 0080 	add.w	r0, r5, r0, lsl #2
  d4:	f04f 0c00 	mov.w	ip, #0
  d8:	060a      	lsls	r2, r1, #24
  da:	4f71      	ldr	r7, [pc, #452]	; (2a0 <_ZN9FlexIOSPI5beginEv+0x2a0>)
  dc:	f8c0 c100 	str.w	ip, [r0, #256]	; 0x100
  e0:	eb05 0686 	add.w	r6, r5, r6, lsl #2
  e4:	f894 302c 	ldrb.w	r3, [r4, #44]	; 0x2c
  e8:	f002 62e0 	and.w	r2, r2, #117440512	; 0x7000000
  ec:	eb05 0181 	add.w	r1, r5, r1, lsl #2
  f0:	021b      	lsls	r3, r3, #8
  f2:	f403 53f8 	and.w	r3, r3, #7936	; 0x1f00
  f6:	4313      	orrs	r3, r2
  f8:	431f      	orrs	r7, r3
  fa:	f8c0 7080 	str.w	r7, [r0, #128]	; 0x80
  fe:	f8c6 c100 	str.w	ip, [r6, #256]	; 0x100
 102:	f894 302e 	ldrb.w	r3, [r4, #46]	; 0x2e
 106:	021b      	lsls	r3, r3, #8
 108:	f403 53f8 	and.w	r3, r3, #7936	; 0x1f00
 10c:	4313      	orrs	r3, r2
 10e:	4a65      	ldr	r2, [pc, #404]	; (2a4 <_ZN9FlexIOSPI5beginEv+0x2a4>)
 110:	f043 0301 	orr.w	r3, r3, #1
 114:	f8c6 3080 	str.w	r3, [r6, #128]	; 0x80
 118:	f640 7301 	movw	r3, #3841	; 0xf01
 11c:	f8c1 3500 	str.w	r3, [r1, #1280]	; 0x500
 120:	f894 302d 	ldrb.w	r3, [r4, #45]	; 0x2d
 124:	021b      	lsls	r3, r3, #8
 126:	f403 53f8 	and.w	r3, r3, #7936	; 0x1f00
 12a:	431a      	orrs	r2, r3
 12c:	6923      	ldr	r3, [r4, #16]
 12e:	3301      	adds	r3, #1
 130:	f8c1 2400 	str.w	r2, [r1, #1024]	; 0x400
 134:	f000 80b0 	beq.w	298 <_ZN9FlexIOSPI5beginEv+0x298>
 138:	4a5b      	ldr	r2, [pc, #364]	; (2a8 <_ZN9FlexIOSPI5beginEv+0x2a8>)
 13a:	f64f 73ff 	movw	r3, #65535	; 0xffff
 13e:	f8c1 2480 	str.w	r2, [r1, #1152]	; 0x480
 142:	f8c1 3504 	str.w	r3, [r1, #1284]	; 0x504
 146:	f44f 5388 	mov.w	r3, #4352	; 0x1100
 14a:	4a58      	ldr	r2, [pc, #352]	; (2ac <_ZN9FlexIOSPI5beginEv+0x2ac>)
 14c:	f8c1 3484 	str.w	r3, [r1, #1156]	; 0x484
 150:	f894 302f 	ldrb.w	r3, [r4, #47]	; 0x2f
 154:	021b      	lsls	r3, r3, #8
 156:	f403 53f8 	and.w	r3, r3, #7936	; 0x1f00
 15a:	431a      	orrs	r2, r3
 15c:	f8c1 2404 	str.w	r2, [r1, #1028]	; 0x404
 160:	2301      	movs	r3, #1
 162:	7921      	ldrb	r1, [r4, #4]
 164:	6aa0      	ldr	r0, [r4, #40]	; 0x28
 166:	60ab      	str	r3, [r5, #8]
 168:	f7ff fffe 	bl	0 <_ZN13FlexIOHandler18setIOPinToFlexModeEh>
 16c:	7a21      	ldrb	r1, [r4, #8]
 16e:	6aa0      	ldr	r0, [r4, #40]	; 0x28
 170:	f7ff fffe 	bl	0 <_ZN13FlexIOHandler18setIOPinToFlexModeEh>
 174:	7b21      	ldrb	r1, [r4, #12]
 176:	6aa0      	ldr	r0, [r4, #40]	; 0x28
 178:	f7ff fffe 	bl	0 <_ZN13FlexIOHandler18setIOPinToFlexModeEh>
 17c:	6861      	ldr	r1, [r4, #4]
 17e:	4b4c      	ldr	r3, [pc, #304]	; (2b0 <_ZN9FlexIOSPI5beginEv+0x2b0>)
 180:	20b8      	movs	r0, #184	; 0xb8
 182:	e9d4 2502 	ldrd	r2, r5, [r4, #8]
 186:	eb03 1101 	add.w	r1, r3, r1, lsl #4
 18a:	eb03 1202 	add.w	r2, r3, r2, lsl #4
 18e:	6889      	ldr	r1, [r1, #8]
 190:	eb03 1305 	add.w	r3, r3, r5, lsl #4
 194:	6892      	ldr	r2, [r2, #8]
 196:	689b      	ldr	r3, [r3, #8]
 198:	6008      	str	r0, [r1, #0]
 19a:	6921      	ldr	r1, [r4, #16]
 19c:	6010      	str	r0, [r2, #0]
 19e:	f24e 02b8 	movw	r2, #57528	; 0xe0b8
 1a2:	601a      	str	r2, [r3, #0]
 1a4:	1c4b      	adds	r3, r1, #1
 1a6:	d003      	beq.n	1b0 <_ZN9FlexIOSPI5beginEv+0x1b0>
 1a8:	b2c9      	uxtb	r1, r1
 1aa:	6aa0      	ldr	r0, [r4, #40]	; 0x28
 1ac:	f7ff fffe 	bl	0 <_ZN13FlexIOHandler18setIOPinToFlexModeEh>
 1b0:	4621      	mov	r1, r4
 1b2:	6aa0      	ldr	r0, [r4, #40]	; 0x28
 1b4:	f7ff fffe 	bl	0 <_ZN13FlexIOHandler20addIOHandlerCallbackEP21FlexIOHandlerCallback>
 1b8:	2001      	movs	r0, #1
 1ba:	6aa2      	ldr	r2, [r4, #40]	; 0x28
 1bc:	f894 3031 	ldrb.w	r3, [r4, #49]	; 0x31
 1c0:	f894 1033 	ldrb.w	r1, [r4, #51]	; 0x33
 1c4:	7720      	strb	r0, [r4, #28]
 1c6:	33e0      	adds	r3, #224	; 0xe0
 1c8:	6812      	ldr	r2, [r2, #0]
 1ca:	31a0      	adds	r1, #160	; 0xa0
 1cc:	eb02 0383 	add.w	r3, r2, r3, lsl #2
 1d0:	eb02 0281 	add.w	r2, r2, r1, lsl #2
 1d4:	e9c4 2308 	strd	r2, r3, [r4, #32]
 1d8:	bdf8      	pop	{r3, r4, r5, r6, r7, pc}
 1da:	f104 012e 	add.w	r1, r4, #46	; 0x2e
 1de:	f7ff fffe 	bl	0 <_ZN13FlexIOHandler23mapIOPinToFlexIOHandlerEhRh>
 1e2:	62a0      	str	r0, [r4, #40]	; 0x28
 1e4:	b1c0      	cbz	r0, 218 <_ZN9FlexIOSPI5beginEv+0x218>
 1e6:	7921      	ldrb	r1, [r4, #4]
 1e8:	f7ff fffe 	bl	0 <_ZN13FlexIOHandler17mapIOPinToFlexPinEh>
 1ec:	4603      	mov	r3, r0
 1ee:	7a21      	ldrb	r1, [r4, #8]
 1f0:	f884 302c 	strb.w	r3, [r4, #44]	; 0x2c
 1f4:	6aa0      	ldr	r0, [r4, #40]	; 0x28
 1f6:	f7ff fffe 	bl	0 <_ZN13FlexIOHandler17mapIOPinToFlexPinEh>
 1fa:	4603      	mov	r3, r0
 1fc:	7b21      	ldrb	r1, [r4, #12]
 1fe:	f884 302d 	strb.w	r3, [r4, #45]	; 0x2d
 202:	6aa0      	ldr	r0, [r4, #40]	; 0x28
 204:	f7ff fffe 	bl	0 <_ZN13FlexIOHandler17mapIOPinToFlexPinEh>
 208:	f894 302d 	ldrb.w	r3, [r4, #45]	; 0x2d
 20c:	f884 002e 	strb.w	r0, [r4, #46]	; 0x2e
 210:	2bff      	cmp	r3, #255	; 0xff
 212:	d001      	beq.n	218 <_ZN9FlexIOSPI5beginEv+0x218>
 214:	28ff      	cmp	r0, #255	; 0xff
 216:	d117      	bne.n	248 <_ZN9FlexIOSPI5beginEv+0x248>
 218:	2000      	movs	r0, #0
 21a:	bdf8      	pop	{r3, r4, r5, r6, r7, pc}
 21c:	b2c9      	uxtb	r1, r1
 21e:	6aa0      	ldr	r0, [r4, #40]	; 0x28
 220:	f7ff fffe 	bl	0 <_ZN13FlexIOHandler17mapIOPinToFlexPinEh>
 224:	28ff      	cmp	r0, #255	; 0xff
 226:	f884 002f 	strb.w	r0, [r4, #47]	; 0x2f
 22a:	d0f5      	beq.n	218 <_ZN9FlexIOSPI5beginEv+0x218>
 22c:	6923      	ldr	r3, [r4, #16]
 22e:	6aa0      	ldr	r0, [r4, #40]	; 0x28
 230:	3301      	adds	r3, #1
 232:	6805      	ldr	r5, [r0, #0]
 234:	bf14      	ite	ne
 236:	2102      	movne	r1, #2
 238:	2101      	moveq	r1, #1
 23a:	e707      	b.n	4c <_ZN9FlexIOSPI5beginEv+0x4c>
 23c:	f104 012d 	add.w	r1, r4, #45	; 0x2d
 240:	4610      	mov	r0, r2
 242:	f7ff fffe 	bl	0 <_ZN13FlexIOHandler23mapIOPinToFlexIOHandlerEhRh>
 246:	e7cc      	b.n	1e2 <_ZN9FlexIOSPI5beginEv+0x1e2>
 248:	f894 302c 	ldrb.w	r3, [r4, #44]	; 0x2c
 24c:	2bff      	cmp	r3, #255	; 0xff
 24e:	f47f aef6 	bne.w	3e <_ZN9FlexIOSPI5beginEv+0x3e>
 252:	e7e1      	b.n	218 <_ZN9FlexIOSPI5beginEv+0x218>
 254:	6923      	ldr	r3, [r4, #16]
 256:	25ff      	movs	r5, #255	; 0xff
 258:	6aa0      	ldr	r0, [r4, #40]	; 0x28
 25a:	3301      	adds	r3, #1
 25c:	bf14      	ite	ne
 25e:	2202      	movne	r2, #2
 260:	2201      	moveq	r2, #1
 262:	f7ff fffe 	bl	0 <_ZN13FlexIOHandler10freeTimersEhh>
 266:	f894 1031 	ldrb.w	r1, [r4, #49]	; 0x31
 26a:	6aa0      	ldr	r0, [r4, #40]	; 0x28
 26c:	f884 5030 	strb.w	r5, [r4, #48]	; 0x30
 270:	f7ff fffe 	bl	0 <_ZN13FlexIOHandler11freeShifterEh>
 274:	6aa0      	ldr	r0, [r4, #40]	; 0x28
 276:	f894 1033 	ldrb.w	r1, [r4, #51]	; 0x33
 27a:	f7ff fffe 	bl	0 <_ZN13FlexIOHandler11freeShifterEh>
 27e:	2000      	movs	r0, #0
 280:	f884 5031 	strb.w	r5, [r4, #49]	; 0x31
 284:	f884 5033 	strb.w	r5, [r4, #51]	; 0x33
 288:	bdf8      	pop	{r3, r4, r5, r6, r7, pc}
 28a:	4601      	mov	r1, r0
 28c:	6aa0      	ldr	r0, [r4, #40]	; 0x28
 28e:	f7ff fffe 	bl	0 <_ZN13FlexIOHandler14requestShifterEh>
 292:	f884 0033 	strb.w	r0, [r4, #51]	; 0x33
 296:	e6f2      	b.n	7e <_ZN9FlexIOSPI5beginEv+0x7e>
 298:	4b06      	ldr	r3, [pc, #24]	; (2b4 <_ZN9FlexIOSPI5beginEv+0x2b4>)
 29a:	f8c1 3480 	str.w	r3, [r1, #1152]	; 0x480
 29e:	e75f      	b.n	160 <_ZN9FlexIOSPI5beginEv+0x160>
 2a0:	00830002 	.word	0x00830002
 2a4:	01c30001 	.word	0x01c30001
 2a8:	01002222 	.word	0x01002222
 2ac:	00030083 	.word	0x00030083
 2b0:	00000000 	.word	0x00000000
 2b4:	01002200 	.word	0x01002200

Disassembly of section .text._ZN9FlexIOSPI3endEv:

00000000 <_ZN9FlexIOSPI3endEv>:
   0:	b538      	push	{r3, r4, r5, lr}
   2:	4604      	mov	r4, r0
   4:	6a80      	ldr	r0, [r0, #40]	; 0x28
   6:	b1e8      	cbz	r0, 44 <_ZN9FlexIOSPI3endEv+0x44>
   8:	6923      	ldr	r3, [r4, #16]
   a:	25ff      	movs	r5, #255	; 0xff
   c:	f894 1030 	ldrb.w	r1, [r4, #48]	; 0x30
  10:	3301      	adds	r3, #1
  12:	bf14      	ite	ne
  14:	2202      	movne	r2, #2
  16:	2201      	moveq	r2, #1
  18:	f7ff fffe 	bl	0 <_ZN13FlexIOHandler10freeTimersEhh>
  1c:	f894 1031 	ldrb.w	r1, [r4, #49]	; 0x31
  20:	6aa0      	ldr	r0, [r4, #40]	; 0x28
  22:	f884 5030 	strb.w	r5, [r4, #48]	; 0x30
  26:	f7ff fffe 	bl	0 <_ZN13FlexIOHandler11freeShifterEh>
  2a:	f894 1033 	ldrb.w	r1, [r4, #51]	; 0x33
  2e:	6aa0      	ldr	r0, [r4, #40]	; 0x28
  30:	f7ff fffe 	bl	0 <_ZN13FlexIOHandler11freeShifterEh>
  34:	4621      	mov	r1, r4
  36:	6aa0      	ldr	r0, [r4, #40]	; 0x28
  38:	f884 5031 	strb.w	r5, [r4, #49]	; 0x31
  3c:	f7ff fffe 	bl	0 <_ZN13FlexIOHandler23removeIOHandlerCallbackEP21FlexIOHandlerCallback>
  40:	2300      	movs	r3, #0
  42:	62a3      	str	r3, [r4, #40]	; 0x28
  44:	bd38      	pop	{r3, r4, r5, pc}
  46:	bf00      	nop

Disassembly of section .text._ZN9FlexIOSPI16beginTransactionE17FlexIOSPISettings:

00000000 <_ZN9FlexIOSPI16beginTransactionE17FlexIOSPISettings>:
   0:	b510      	push	{r4, lr}
   2:	b082      	sub	sp, #8
   4:	4604      	mov	r4, r0
   6:	ab02      	add	r3, sp, #8
   8:	e903 0006 	stmdb	r3, {r1, r2}
   c:	6982      	ldr	r2, [r0, #24]
   e:	460b      	mov	r3, r1
  10:	428a      	cmp	r2, r1
  12:	d038      	beq.n	86 <_ZN9FlexIOSPI16beginTransactionE17FlexIOSPISettings+0x86>
  14:	f89d 2006 	ldrb.w	r2, [sp, #6]
  18:	61a3      	str	r3, [r4, #24]
  1a:	1e53      	subs	r3, r2, #1
  1c:	f89d 1005 	ldrb.w	r1, [sp, #5]
  20:	77a2      	strb	r2, [r4, #30]
  22:	bf48      	it	mi
  24:	1d93      	addmi	r3, r2, #6
  26:	6aa0      	ldr	r0, [r4, #40]	; 0x28
  28:	7761      	strb	r1, [r4, #29]
  2a:	10db      	asrs	r3, r3, #3
  2c:	3301      	adds	r3, #1
  2e:	b2db      	uxtb	r3, r3
  30:	2b03      	cmp	r3, #3
  32:	bf08      	it	eq
  34:	2304      	moveq	r3, #4
  36:	77e3      	strb	r3, [r4, #31]
  38:	f7ff fffe 	bl	0 <_ZN13FlexIOHandler16computeClockRateEv>
  3c:	69a3      	ldr	r3, [r4, #24]
  3e:	0840      	lsrs	r0, r0, #1
  40:	4283      	cmp	r3, r0
  42:	fbb0 f2f3 	udiv	r2, r0, r3
  46:	d805      	bhi.n	54 <_ZN9FlexIOSPI16beginTransactionE17FlexIOSPISettings+0x54>
  48:	fbb0 f0f2 	udiv	r0, r0, r2
  4c:	4283      	cmp	r3, r0
  4e:	bf28      	it	cs
  50:	f102 32ff 	addcs.w	r2, r2, #4294967295	; 0xffffffff
  54:	f994 101d 	ldrsb.w	r1, [r4, #29]
  58:	2900      	cmp	r1, #0
  5a:	db02      	blt.n	62 <_ZN9FlexIOSPI16beginTransactionE17FlexIOSPISettings+0x62>
  5c:	b1fa      	cbz	r2, 9e <_ZN9FlexIOSPI16beginTransactionE17FlexIOSPISettings+0x9e>
  5e:	2a01      	cmp	r2, #1
  60:	d01f      	beq.n	a2 <_ZN9FlexIOSPI16beginTransactionE17FlexIOSPISettings+0xa2>
  62:	7fa3      	ldrb	r3, [r4, #30]
  64:	6aa0      	ldr	r0, [r4, #40]	; 0x28
  66:	025b      	lsls	r3, r3, #9
  68:	f894 1030 	ldrb.w	r1, [r4, #48]	; 0x30
  6c:	6800      	ldr	r0, [r0, #0]
  6e:	f5a3 7380 	sub.w	r3, r3, #256	; 0x100
  72:	f501 71a0 	add.w	r1, r1, #320	; 0x140
  76:	4313      	orrs	r3, r2
  78:	f840 3021 	str.w	r3, [r0, r1, lsl #2]
  7c:	f89d 3004 	ldrb.w	r3, [sp, #4]
  80:	7723      	strb	r3, [r4, #28]
  82:	b002      	add	sp, #8
  84:	bd10      	pop	{r4, pc}
  86:	9901      	ldr	r1, [sp, #4]
  88:	69c0      	ldr	r0, [r0, #28]
  8a:	4a08      	ldr	r2, [pc, #32]	; (ac <_ZN9FlexIOSPI16beginTransactionE17FlexIOSPISettings+0xac>)
  8c:	4041      	eors	r1, r0
  8e:	400a      	ands	r2, r1
  90:	2a00      	cmp	r2, #0
  92:	d1bf      	bne.n	14 <_ZN9FlexIOSPI16beginTransactionE17FlexIOSPISettings+0x14>
  94:	f89d 3004 	ldrb.w	r3, [sp, #4]
  98:	7723      	strb	r3, [r4, #28]
  9a:	b002      	add	sp, #8
  9c:	bd10      	pop	{r4, pc}
  9e:	2201      	movs	r2, #1
  a0:	e7df      	b.n	62 <_ZN9FlexIOSPI16beginTransactionE17FlexIOSPISettings+0x62>
  a2:	4903      	ldr	r1, [pc, #12]	; (b0 <_ZN9FlexIOSPI16beginTransactionE17FlexIOSPISettings+0xb0>)
  a4:	428b      	cmp	r3, r1
  a6:	bf88      	it	hi
  a8:	2202      	movhi	r2, #2
  aa:	e7da      	b.n	62 <_ZN9FlexIOSPI16beginTransactionE17FlexIOSPISettings+0x62>
  ac:	00ffff00 	.word	0x00ffff00
  b0:	01c9c380 	.word	0x01c9c380

Disassembly of section .text._ZN9FlexIOSPI14endTransactionEv:

00000000 <_ZN9FlexIOSPI14endTransactionEv>:
   0:	4770      	bx	lr
   2:	bf00      	nop

Disassembly of section .text._ZN9FlexIOSPI17setShiftBufferOutEmh:

00000000 <_ZN9FlexIOSPI17setShiftBufferOutEmh>:
   0:	7f03      	ldrb	r3, [r0, #28]
   2:	2b01      	cmp	r3, #1
   4:	d007      	beq.n	16 <_ZN9FlexIOSPI17setShiftBufferOutEmh+0x16>
   6:	6a82      	ldr	r2, [r0, #40]	; 0x28
   8:	f890 3031 	ldrb.w	r3, [r0, #49]	; 0x31
   c:	6812      	ldr	r2, [r2, #0]
   e:	3380      	adds	r3, #128	; 0x80
  10:	f842 1023 	str.w	r1, [r2, r3, lsl #2]
  14:	4770      	bx	lr
  16:	b410      	push	{r4}
  18:	f1c2 0220 	rsb	r2, r2, #32
  1c:	6a84      	ldr	r4, [r0, #40]	; 0x28
  1e:	f890 3031 	ldrb.w	r3, [r0, #49]	; 0x31
  22:	4091      	lsls	r1, r2
  24:	6820      	ldr	r0, [r4, #0]
  26:	33a0      	adds	r3, #160	; 0xa0
  28:	f85d 4b04 	ldr.w	r4, [sp], #4
  2c:	f840 1023 	str.w	r1, [r0, r3, lsl #2]
  30:	4770      	bx	lr
  32:	bf00      	nop

Disassembly of section .text._ZN9FlexIOSPI17setShiftBufferOutEPKvhj:

00000000 <_ZN9FlexIOSPI17setShiftBufferOutEPKvhj>:
   0:	3b01      	subs	r3, #1
   2:	2b03      	cmp	r3, #3
   4:	d827      	bhi.n	56 <_ZN9FlexIOSPI17setShiftBufferOutEPKvhj+0x56>
   6:	e8df f003 	tbb	[pc, r3]
   a:	2422      	.short	0x2422
   c:	020e      	.short	0x020e
   e:	680b      	ldr	r3, [r1, #0]
  10:	7f01      	ldrb	r1, [r0, #28]
  12:	2901      	cmp	r1, #1
  14:	d00d      	beq.n	32 <_ZN9FlexIOSPI17setShiftBufferOutEPKvhj+0x32>
  16:	6a81      	ldr	r1, [r0, #40]	; 0x28
  18:	f890 2031 	ldrb.w	r2, [r0, #49]	; 0x31
  1c:	6809      	ldr	r1, [r1, #0]
  1e:	3280      	adds	r2, #128	; 0x80
  20:	f841 3022 	str.w	r3, [r1, r2, lsl #2]
  24:	4770      	bx	lr
  26:	680b      	ldr	r3, [r1, #0]
  28:	7f01      	ldrb	r1, [r0, #28]
  2a:	f023 437f 	bic.w	r3, r3, #4278190080	; 0xff000000
  2e:	2901      	cmp	r1, #1
  30:	d1f1      	bne.n	16 <_ZN9FlexIOSPI17setShiftBufferOutEPKvhj+0x16>
  32:	f1c2 0220 	rsb	r2, r2, #32
  36:	b410      	push	{r4}
  38:	6a84      	ldr	r4, [r0, #40]	; 0x28
  3a:	4093      	lsls	r3, r2
  3c:	f890 1031 	ldrb.w	r1, [r0, #49]	; 0x31
  40:	6820      	ldr	r0, [r4, #0]
  42:	31a0      	adds	r1, #160	; 0xa0
  44:	f85d 4b04 	ldr.w	r4, [sp], #4
  48:	f840 3021 	str.w	r3, [r0, r1, lsl #2]
  4c:	4770      	bx	lr
  4e:	780b      	ldrb	r3, [r1, #0]
  50:	e7de      	b.n	10 <_ZN9FlexIOSPI17setShiftBufferOutEPKvhj+0x10>
  52:	880b      	ldrh	r3, [r1, #0]
  54:	e7dc      	b.n	10 <_ZN9FlexIOSPI17setShiftBufferOutEPKvhj+0x10>
  56:	2300      	movs	r3, #0
  58:	e7da      	b.n	10 <_ZN9FlexIOSPI17setShiftBufferOutEPKvhj+0x10>
  5a:	bf00      	nop

Disassembly of section .text._ZN9FlexIOSPI16getShiftBufferInEh:

00000000 <_ZN9FlexIOSPI16getShiftBufferInEh>:
   0:	7f03      	ldrb	r3, [r0, #28]
   2:	6a82      	ldr	r2, [r0, #40]	; 0x28
   4:	2b01      	cmp	r3, #1
   6:	f890 3033 	ldrb.w	r3, [r0, #51]	; 0x33
   a:	d007      	beq.n	1c <_ZN9FlexIOSPI16getShiftBufferInEh+0x1c>
   c:	6812      	ldr	r2, [r2, #0]
   e:	3380      	adds	r3, #128	; 0x80
  10:	f1c1 0120 	rsb	r1, r1, #32
  14:	f852 0023 	ldr.w	r0, [r2, r3, lsl #2]
  18:	40c8      	lsrs	r0, r1
  1a:	4770      	bx	lr
  1c:	6812      	ldr	r2, [r2, #0]
  1e:	33a0      	adds	r3, #160	; 0xa0
  20:	f852 0023 	ldr.w	r0, [r2, r3, lsl #2]
  24:	4770      	bx	lr
  26:	bf00      	nop

Disassembly of section .text._ZN9FlexIOSPI16getShiftBufferInEPvhj:

00000000 <_ZN9FlexIOSPI16getShiftBufferInEPvhj>:
   0:	3b01      	subs	r3, #1
   2:	b410      	push	{r4}
   4:	2b03      	cmp	r3, #3
   6:	d814      	bhi.n	32 <_ZN9FlexIOSPI16getShiftBufferInEPvhj+0x32>
   8:	e8df f003 	tbb	[pc, r3]
   c:	16022739 	.word	0x16022739
  10:	7f03      	ldrb	r3, [r0, #28]
  12:	2b01      	cmp	r3, #1
  14:	d045      	beq.n	a2 <_ZN9FlexIOSPI16getShiftBufferInEPvhj+0xa2>
  16:	f890 3033 	ldrb.w	r3, [r0, #51]	; 0x33
  1a:	f1c2 0220 	rsb	r2, r2, #32
  1e:	6a84      	ldr	r4, [r0, #40]	; 0x28
  20:	3380      	adds	r3, #128	; 0x80
  22:	6820      	ldr	r0, [r4, #0]
  24:	f850 3023 	ldr.w	r3, [r0, r3, lsl #2]
  28:	fa23 f202 	lsr.w	r2, r3, r2
  2c:	0c13      	lsrs	r3, r2, #16
  2e:	800a      	strh	r2, [r1, #0]
  30:	708b      	strb	r3, [r1, #2]
  32:	f85d 4b04 	ldr.w	r4, [sp], #4
  36:	4770      	bx	lr
  38:	7f03      	ldrb	r3, [r0, #28]
  3a:	2b01      	cmp	r3, #1
  3c:	d039      	beq.n	b2 <_ZN9FlexIOSPI16getShiftBufferInEPvhj+0xb2>
  3e:	f890 3033 	ldrb.w	r3, [r0, #51]	; 0x33
  42:	f1c2 0220 	rsb	r2, r2, #32
  46:	6a84      	ldr	r4, [r0, #40]	; 0x28
  48:	3380      	adds	r3, #128	; 0x80
  4a:	6820      	ldr	r0, [r4, #0]
  4c:	f850 3023 	ldr.w	r3, [r0, r3, lsl #2]
  50:	40d3      	lsrs	r3, r2
  52:	f85d 4b04 	ldr.w	r4, [sp], #4
  56:	600b      	str	r3, [r1, #0]
  58:	4770      	bx	lr
  5a:	7f03      	ldrb	r3, [r0, #28]
  5c:	2b01      	cmp	r3, #1
  5e:	d039      	beq.n	d4 <_ZN9FlexIOSPI16getShiftBufferInEPvhj+0xd4>
  60:	f890 3033 	ldrb.w	r3, [r0, #51]	; 0x33
  64:	f1c2 0220 	rsb	r2, r2, #32
  68:	6a84      	ldr	r4, [r0, #40]	; 0x28
  6a:	3380      	adds	r3, #128	; 0x80
  6c:	6820      	ldr	r0, [r4, #0]
  6e:	f850 3023 	ldr.w	r3, [r0, r3, lsl #2]
  72:	fa23 f202 	lsr.w	r2, r3, r2
  76:	f85d 4b04 	ldr.w	r4, [sp], #4
  7a:	800a      	strh	r2, [r1, #0]
  7c:	4770      	bx	lr
  7e:	7f03      	ldrb	r3, [r0, #28]
  80:	2b01      	cmp	r3, #1
  82:	d01e      	beq.n	c2 <_ZN9FlexIOSPI16getShiftBufferInEPvhj+0xc2>
  84:	f890 3033 	ldrb.w	r3, [r0, #51]	; 0x33
  88:	f1c2 0220 	rsb	r2, r2, #32
  8c:	6a84      	ldr	r4, [r0, #40]	; 0x28
  8e:	3380      	adds	r3, #128	; 0x80
  90:	6820      	ldr	r0, [r4, #0]
  92:	f850 3023 	ldr.w	r3, [r0, r3, lsl #2]
  96:	fa23 f202 	lsr.w	r2, r3, r2
  9a:	700a      	strb	r2, [r1, #0]
  9c:	f85d 4b04 	ldr.w	r4, [sp], #4
  a0:	4770      	bx	lr
  a2:	6a82      	ldr	r2, [r0, #40]	; 0x28
  a4:	f890 3033 	ldrb.w	r3, [r0, #51]	; 0x33
  a8:	6812      	ldr	r2, [r2, #0]
  aa:	33a0      	adds	r3, #160	; 0xa0
  ac:	f852 2023 	ldr.w	r2, [r2, r3, lsl #2]
  b0:	e7bc      	b.n	2c <_ZN9FlexIOSPI16getShiftBufferInEPvhj+0x2c>
  b2:	6a82      	ldr	r2, [r0, #40]	; 0x28
  b4:	f890 3033 	ldrb.w	r3, [r0, #51]	; 0x33
  b8:	6812      	ldr	r2, [r2, #0]
  ba:	33a0      	adds	r3, #160	; 0xa0
  bc:	f852 3023 	ldr.w	r3, [r2, r3, lsl #2]
  c0:	e7c7      	b.n	52 <_ZN9FlexIOSPI16getShiftBufferInEPvhj+0x52>
  c2:	6a82      	ldr	r2, [r0, #40]	; 0x28
  c4:	f890 3033 	ldrb.w	r3, [r0, #51]	; 0x33
  c8:	6812      	ldr	r2, [r2, #0]
  ca:	33a0      	adds	r3, #160	; 0xa0
  cc:	f852 2023 	ldr.w	r2, [r2, r3, lsl #2]
  d0:	700a      	strb	r2, [r1, #0]
  d2:	e7e3      	b.n	9c <_ZN9FlexIOSPI16getShiftBufferInEPvhj+0x9c>
  d4:	6a82      	ldr	r2, [r0, #40]	; 0x28
  d6:	f890 3033 	ldrb.w	r3, [r0, #51]	; 0x33
  da:	6812      	ldr	r2, [r2, #0]
  dc:	33a0      	adds	r3, #160	; 0xa0
  de:	f852 2023 	ldr.w	r2, [r2, r3, lsl #2]
  e2:	e7c8      	b.n	76 <_ZN9FlexIOSPI16getShiftBufferInEPvhj+0x76>

Disassembly of section .text._ZN9FlexIOSPI13transferNBitsEmh:

00000000 <_ZN9FlexIOSPI13transferNBitsEmh>:
   0:	6a83      	ldr	r3, [r0, #40]	; 0x28
   2:	b570      	push	{r4, r5, r6, lr}
   4:	681c      	ldr	r4, [r3, #0]
   6:	0253      	lsls	r3, r2, #9
   8:	f890 e030 	ldrb.w	lr, [r0, #48]	; 0x30
   c:	f5a3 7380 	sub.w	r3, r3, #256	; 0x100
  10:	eb04 0e8e 	add.w	lr, r4, lr, lsl #2
  14:	f8de 5500 	ldr.w	r5, [lr, #1280]	; 0x500
  18:	b2ee      	uxtb	r6, r5
  1a:	b2ad      	uxth	r5, r5
  1c:	4333      	orrs	r3, r6
  1e:	f8ce 3500 	str.w	r3, [lr, #1280]	; 0x500
  22:	6923      	ldr	r3, [r4, #16]
  24:	f890 c034 	ldrb.w	ip, [r0, #52]	; 0x34
  28:	7f06      	ldrb	r6, [r0, #28]
  2a:	ea13 0f0c 	tst.w	r3, ip
  2e:	d132      	bne.n	96 <_ZN9FlexIOSPI13transferNBitsEmh+0x96>
  30:	2e01      	cmp	r6, #1
  32:	d019      	beq.n	68 <_ZN9FlexIOSPI13transferNBitsEmh+0x68>
  34:	f890 3031 	ldrb.w	r3, [r0, #49]	; 0x31
  38:	3380      	adds	r3, #128	; 0x80
  3a:	f844 1023 	str.w	r1, [r4, r3, lsl #2]
  3e:	f64f 73ff 	movw	r3, #65535	; 0xffff
  42:	e000      	b.n	46 <_ZN9FlexIOSPI13transferNBitsEmh+0x46>
  44:	b12b      	cbz	r3, 52 <_ZN9FlexIOSPI13transferNBitsEmh+0x52>
  46:	6921      	ldr	r1, [r4, #16]
  48:	3b01      	subs	r3, #1
  4a:	ea1c 0f01 	tst.w	ip, r1
  4e:	b29b      	uxth	r3, r3
  50:	d0f8      	beq.n	44 <_ZN9FlexIOSPI13transferNBitsEmh+0x44>
  52:	6923      	ldr	r3, [r4, #16]
  54:	ea1c 0f03 	tst.w	ip, r3
  58:	d110      	bne.n	7c <_ZN9FlexIOSPI13transferNBitsEmh+0x7c>
  5a:	20ff      	movs	r0, #255	; 0xff
  5c:	f8ce 5500 	str.w	r5, [lr, #1280]	; 0x500
  60:	bd70      	pop	{r4, r5, r6, pc}
  62:	33a0      	adds	r3, #160	; 0xa0
  64:	f854 3023 	ldr.w	r3, [r4, r3, lsl #2]
  68:	f890 3031 	ldrb.w	r3, [r0, #49]	; 0x31
  6c:	f1c2 0620 	rsb	r6, r2, #32
  70:	33a0      	adds	r3, #160	; 0xa0
  72:	40b1      	lsls	r1, r6
  74:	2601      	movs	r6, #1
  76:	f844 1023 	str.w	r1, [r4, r3, lsl #2]
  7a:	e7e0      	b.n	3e <_ZN9FlexIOSPI13transferNBitsEmh+0x3e>
  7c:	2e01      	cmp	r6, #1
  7e:	f890 3033 	ldrb.w	r3, [r0, #51]	; 0x33
  82:	d010      	beq.n	a6 <_ZN9FlexIOSPI13transferNBitsEmh+0xa6>
  84:	3380      	adds	r3, #128	; 0x80
  86:	f1c2 0220 	rsb	r2, r2, #32
  8a:	f854 0023 	ldr.w	r0, [r4, r3, lsl #2]
  8e:	f8ce 5500 	str.w	r5, [lr, #1280]	; 0x500
  92:	40d0      	lsrs	r0, r2
  94:	bd70      	pop	{r4, r5, r6, pc}
  96:	2e01      	cmp	r6, #1
  98:	f890 3033 	ldrb.w	r3, [r0, #51]	; 0x33
  9c:	d0e1      	beq.n	62 <_ZN9FlexIOSPI13transferNBitsEmh+0x62>
  9e:	3380      	adds	r3, #128	; 0x80
  a0:	f854 3023 	ldr.w	r3, [r4, r3, lsl #2]
  a4:	e7c6      	b.n	34 <_ZN9FlexIOSPI13transferNBitsEmh+0x34>
  a6:	33a0      	adds	r3, #160	; 0xa0
  a8:	f854 0023 	ldr.w	r0, [r4, r3, lsl #2]
  ac:	f8ce 5500 	str.w	r5, [lr, #1280]	; 0x500
  b0:	bd70      	pop	{r4, r5, r6, pc}
  b2:	bf00      	nop

Disassembly of section .text._ZN9FlexIOSPI19transferBufferNBitsEPKvPvjh:

00000000 <_ZN9FlexIOSPI19transferBufferNBitsEPKvPvjh>:
   0:	e92d 4ff0 	stmdb	sp!, {r4, r5, r6, r7, r8, r9, sl, fp, lr}
   4:	b083      	sub	sp, #12
   6:	4606      	mov	r6, r0
   8:	4688      	mov	r8, r1
   a:	4691      	mov	r9, r2
   c:	f89d b030 	ldrb.w	fp, [sp, #48]	; 0x30
  10:	461f      	mov	r7, r3
  12:	f1bb 0f00 	cmp.w	fp, #0
  16:	d101      	bne.n	1c <_ZN9FlexIOSPI19transferBufferNBitsEPKvPvjh+0x1c>
  18:	f890 b01e 	ldrb.w	fp, [r0, #30]
  1c:	f1bb 0301 	subs.w	r3, fp, #1
  20:	bf48      	it	mi
  22:	f10b 0306 	addmi.w	r3, fp, #6
  26:	10db      	asrs	r3, r3, #3
  28:	3301      	adds	r3, #1
  2a:	b2db      	uxtb	r3, r3
  2c:	2b03      	cmp	r3, #3
  2e:	bf08      	it	eq
  30:	2304      	moveq	r3, #4
  32:	2f00      	cmp	r7, #0
  34:	d04f      	beq.n	d6 <_ZN9FlexIOSPI19transferBufferNBitsEPKvPvjh+0xd6>
  36:	6ab2      	ldr	r2, [r6, #40]	; 0x28
  38:	f896 a034 	ldrb.w	sl, [r6, #52]	; 0x34
  3c:	f896 5032 	ldrb.w	r5, [r6, #50]	; 0x32
  40:	6814      	ldr	r4, [r2, #0]
  42:	ea4a 0205 	orr.w	r2, sl, r5
  46:	6162      	str	r2, [r4, #20]
  48:	6922      	ldr	r2, [r4, #16]
  4a:	422a      	tst	r2, r5
  4c:	d0fc      	beq.n	48 <_ZN9FlexIOSPI19transferBufferNBitsEPKvPvjh+0x48>
  4e:	f1b8 0f00 	cmp.w	r8, #0
  52:	d007      	beq.n	64 <_ZN9FlexIOSPI19transferBufferNBitsEPKvPvjh+0x64>
  54:	4641      	mov	r1, r8
  56:	465a      	mov	r2, fp
  58:	4630      	mov	r0, r6
  5a:	4498      	add	r8, r3
  5c:	9301      	str	r3, [sp, #4]
  5e:	f7ff fffe 	bl	0 <_ZN9FlexIOSPI19transferBufferNBitsEPKvPvjh>
  62:	9b01      	ldr	r3, [sp, #4]
  64:	3f01      	subs	r7, #1
  66:	d027      	beq.n	b8 <_ZN9FlexIOSPI19transferBufferNBitsEPKvPvjh+0xb8>
  68:	469a      	mov	sl, r3
  6a:	6921      	ldr	r1, [r4, #16]
  6c:	4229      	tst	r1, r5
  6e:	d0fc      	beq.n	6a <_ZN9FlexIOSPI19transferBufferNBitsEPKvPvjh+0x6a>
  70:	f1b8 0f00 	cmp.w	r8, #0
  74:	d006      	beq.n	84 <_ZN9FlexIOSPI19transferBufferNBitsEPKvPvjh+0x84>
  76:	4641      	mov	r1, r8
  78:	4653      	mov	r3, sl
  7a:	465a      	mov	r2, fp
  7c:	4630      	mov	r0, r6
  7e:	44d0      	add	r8, sl
  80:	f7ff fffe 	bl	0 <_ZN9FlexIOSPI19transferBufferNBitsEPKvPvjh>
  84:	3f01      	subs	r7, #1
  86:	f896 5034 	ldrb.w	r5, [r6, #52]	; 0x34
  8a:	6921      	ldr	r1, [r4, #16]
  8c:	4229      	tst	r1, r5
  8e:	d0fc      	beq.n	8a <_ZN9FlexIOSPI19transferBufferNBitsEPKvPvjh+0x8a>
  90:	f1b9 0f00 	cmp.w	r9, #0
  94:	d008      	beq.n	a8 <_ZN9FlexIOSPI19transferBufferNBitsEPKvPvjh+0xa8>
  96:	4649      	mov	r1, r9
  98:	4653      	mov	r3, sl
  9a:	465a      	mov	r2, fp
  9c:	4630      	mov	r0, r6
  9e:	f7ff fffe 	bl	0 <_ZN9FlexIOSPI19transferBufferNBitsEPKvPvjh>
  a2:	6ab3      	ldr	r3, [r6, #40]	; 0x28
  a4:	44d1      	add	r9, sl
  a6:	681c      	ldr	r4, [r3, #0]
  a8:	b1c7      	cbz	r7, dc <_ZN9FlexIOSPI19transferBufferNBitsEPKvPvjh+0xdc>
  aa:	f896 5032 	ldrb.w	r5, [r6, #50]	; 0x32
  ae:	e7dc      	b.n	6a <_ZN9FlexIOSPI19transferBufferNBitsEPKvPvjh+0x6a>
  b0:	6962      	ldr	r2, [r4, #20]
  b2:	ea1a 0f02 	tst.w	sl, r2
  b6:	d103      	bne.n	c0 <_ZN9FlexIOSPI19transferBufferNBitsEPKvPvjh+0xc0>
  b8:	6922      	ldr	r2, [r4, #16]
  ba:	ea12 0f0a 	tst.w	r2, sl
  be:	d0f7      	beq.n	b0 <_ZN9FlexIOSPI19transferBufferNBitsEPKvPvjh+0xb0>
  c0:	f1b9 0f00 	cmp.w	r9, #0
  c4:	d007      	beq.n	d6 <_ZN9FlexIOSPI19transferBufferNBitsEPKvPvjh+0xd6>
  c6:	465a      	mov	r2, fp
  c8:	4649      	mov	r1, r9
  ca:	4630      	mov	r0, r6
  cc:	b003      	add	sp, #12
  ce:	e8bd 4ff0 	ldmia.w	sp!, {r4, r5, r6, r7, r8, r9, sl, fp, lr}
  d2:	f7ff bffe 	b.w	0 <_ZN9FlexIOSPI19transferBufferNBitsEPKvPvjh>
  d6:	b003      	add	sp, #12
  d8:	e8bd 8ff0 	ldmia.w	sp!, {r4, r5, r6, r7, r8, r9, sl, fp, pc}
  dc:	4653      	mov	r3, sl
  de:	f896 a034 	ldrb.w	sl, [r6, #52]	; 0x34
  e2:	e7e9      	b.n	b8 <_ZN9FlexIOSPI19transferBufferNBitsEPKvPvjh+0xb8>

Disassembly of section .text._ZN9FlexIOSPI15initDMAChannelsEv:

00000000 <_ZN9FlexIOSPI15initDMAChannelsEv>:
   0:	b5f8      	push	{r3, r4, r5, r6, r7, lr}
   2:	4604      	mov	r4, r0
   4:	2008      	movs	r0, #8
   6:	f7ff fffe 	bl	0 <_Znwj>
   a:	4605      	mov	r5, r0
   c:	2100      	movs	r1, #0
   e:	f7ff fffe 	bl	0 <_ZN10DMAChannel5beginEb>
  12:	63e5      	str	r5, [r4, #60]	; 0x3c
  14:	2008      	movs	r0, #8
  16:	f7ff fffe 	bl	0 <_Znwj>
  1a:	4605      	mov	r5, r0
  1c:	2100      	movs	r1, #0
  1e:	f7ff fffe 	bl	0 <_ZN10DMAChannel5beginEb>
  22:	6425      	str	r5, [r4, #64]	; 0x40
  24:	6aa0      	ldr	r0, [r4, #40]	; 0x28
  26:	f7ff fffe 	bl	0 <_ZN13FlexIOHandler11FlexIOIndexEv>
  2a:	6c27      	ldr	r7, [r4, #64]	; 0x40
  2c:	4b3f      	ldr	r3, [pc, #252]	; (12c <_ZN9FlexIOSPI15initDMAChannelsEv+0x12c>)
  2e:	2100      	movs	r1, #0
  30:	793a      	ldrb	r2, [r7, #4]
  32:	4605      	mov	r5, r0
  34:	769a      	strb	r2, [r3, #26]
  36:	6a22      	ldr	r2, [r4, #32]
  38:	683b      	ldr	r3, [r7, #0]
  3a:	f1b2 4f80 	cmp.w	r2, #1073741824	; 0x40000000
  3e:	601a      	str	r2, [r3, #0]
  40:	8099      	strh	r1, [r3, #4]
  42:	71d9      	strb	r1, [r3, #7]
  44:	d35d      	bcc.n	102 <_ZN9FlexIOSPI15initDMAChannelsEv+0x102>
  46:	689a      	ldr	r2, [r3, #8]
  48:	2a00      	cmp	r2, #0
  4a:	d05a      	beq.n	102 <_ZN9FlexIOSPI15initDMAChannelsEv+0x102>
  4c:	8b9a      	ldrh	r2, [r3, #28]
  4e:	2600      	movs	r6, #0
  50:	6aa0      	ldr	r0, [r4, #40]	; 0x28
  52:	b292      	uxth	r2, r2
  54:	60de      	str	r6, [r3, #12]
  56:	f042 0208 	orr.w	r2, r2, #8
  5a:	839a      	strh	r2, [r3, #28]
  5c:	f894 1033 	ldrb.w	r1, [r4, #51]	; 0x33
  60:	f7ff fffe 	bl	0 <_ZN13FlexIOHandler18shiftersDMAChannelEh>
  64:	f000 037f 	and.w	r3, r0, #127	; 0x7f
  68:	7939      	ldrb	r1, [r7, #4]
  6a:	f043 4300 	orr.w	r3, r3, #2147483648	; 0x80000000
  6e:	4a30      	ldr	r2, [pc, #192]	; (130 <_ZN9FlexIOSPI15initDMAChannelsEv+0x130>)
  70:	f842 6021 	str.w	r6, [r2, r1, lsl #2]
  74:	f842 3021 	str.w	r3, [r2, r1, lsl #2]
  78:	6c23      	ldr	r3, [r4, #64]	; 0x40
  7a:	2d00      	cmp	r5, #0
  7c:	d144      	bne.n	108 <_ZN9FlexIOSPI15initDMAChannelsEv+0x108>
  7e:	7919      	ldrb	r1, [r3, #4]
  80:	2001      	movs	r0, #1
  82:	4a2c      	ldr	r2, [pc, #176]	; (134 <_ZN9FlexIOSPI15initDMAChannelsEv+0x134>)
  84:	f001 061f 	and.w	r6, r1, #31
  88:	4d2b      	ldr	r5, [pc, #172]	; (138 <_ZN9FlexIOSPI15initDMAChannelsEv+0x138>)
  8a:	eb02 1251 	add.w	r2, r2, r1, lsr #5
  8e:	3110      	adds	r1, #16
  90:	40b0      	lsls	r0, r6
  92:	4e2a      	ldr	r6, [pc, #168]	; (13c <_ZN9FlexIOSPI15initDMAChannelsEv+0x13c>)
  94:	0092      	lsls	r2, r2, #2
  96:	f845 6021 	str.w	r6, [r5, r1, lsl #2]
  9a:	6010      	str	r0, [r2, #0]
  9c:	4a28      	ldr	r2, [pc, #160]	; (140 <_ZN9FlexIOSPI15initDMAChannelsEv+0x140>)
  9e:	6014      	str	r4, [r2, #0]
  a0:	681a      	ldr	r2, [r3, #0]
  a2:	2100      	movs	r1, #0
  a4:	6be5      	ldr	r5, [r4, #60]	; 0x3c
  a6:	8b93      	ldrh	r3, [r2, #28]
  a8:	4820      	ldr	r0, [pc, #128]	; (12c <_ZN9FlexIOSPI15initDMAChannelsEv+0x12c>)
  aa:	b29b      	uxth	r3, r3
  ac:	f043 0302 	orr.w	r3, r3, #2
  b0:	8393      	strh	r3, [r2, #28]
  b2:	792b      	ldrb	r3, [r5, #4]
  b4:	7683      	strb	r3, [r0, #26]
  b6:	6a62      	ldr	r2, [r4, #36]	; 0x24
  b8:	682b      	ldr	r3, [r5, #0]
  ba:	f1b2 4f80 	cmp.w	r2, #1073741824	; 0x40000000
  be:	611a      	str	r2, [r3, #16]
  c0:	8299      	strh	r1, [r3, #20]
  c2:	7199      	strb	r1, [r3, #6]
  c4:	d301      	bcc.n	ca <_ZN9FlexIOSPI15initDMAChannelsEv+0xca>
  c6:	689a      	ldr	r2, [r3, #8]
  c8:	b90a      	cbnz	r2, ce <_ZN9FlexIOSPI15initDMAChannelsEv+0xce>
  ca:	2201      	movs	r2, #1
  cc:	609a      	str	r2, [r3, #8]
  ce:	8b9a      	ldrh	r2, [r3, #28]
  d0:	2600      	movs	r6, #0
  d2:	6aa0      	ldr	r0, [r4, #40]	; 0x28
  d4:	b292      	uxth	r2, r2
  d6:	619e      	str	r6, [r3, #24]
  d8:	f042 0208 	orr.w	r2, r2, #8
  dc:	839a      	strh	r2, [r3, #28]
  de:	f894 1031 	ldrb.w	r1, [r4, #49]	; 0x31
  e2:	f7ff fffe 	bl	0 <_ZN13FlexIOHandler18shiftersDMAChannelEh>
  e6:	f000 037f 	and.w	r3, r0, #127	; 0x7f
  ea:	7929      	ldrb	r1, [r5, #4]
  ec:	2001      	movs	r0, #1
  ee:	4a10      	ldr	r2, [pc, #64]	; (130 <_ZN9FlexIOSPI15initDMAChannelsEv+0x130>)
  f0:	f043 4300 	orr.w	r3, r3, #2147483648	; 0x80000000
  f4:	f842 6021 	str.w	r6, [r2, r1, lsl #2]
  f8:	f842 3021 	str.w	r3, [r2, r1, lsl #2]
  fc:	f884 0035 	strb.w	r0, [r4, #53]	; 0x35
 100:	bdf8      	pop	{r3, r4, r5, r6, r7, pc}
 102:	2201      	movs	r2, #1
 104:	609a      	str	r2, [r3, #8]
 106:	e7a1      	b.n	4c <_ZN9FlexIOSPI15initDMAChannelsEv+0x4c>
 108:	7919      	ldrb	r1, [r3, #4]
 10a:	2001      	movs	r0, #1
 10c:	4a09      	ldr	r2, [pc, #36]	; (134 <_ZN9FlexIOSPI15initDMAChannelsEv+0x134>)
 10e:	f001 061f 	and.w	r6, r1, #31
 112:	4d09      	ldr	r5, [pc, #36]	; (138 <_ZN9FlexIOSPI15initDMAChannelsEv+0x138>)
 114:	eb02 1251 	add.w	r2, r2, r1, lsr #5
 118:	3110      	adds	r1, #16
 11a:	40b0      	lsls	r0, r6
 11c:	4e09      	ldr	r6, [pc, #36]	; (144 <_ZN9FlexIOSPI15initDMAChannelsEv+0x144>)
 11e:	0092      	lsls	r2, r2, #2
 120:	f845 6021 	str.w	r6, [r5, r1, lsl #2]
 124:	6010      	str	r0, [r2, #0]
 126:	4a06      	ldr	r2, [pc, #24]	; (140 <_ZN9FlexIOSPI15initDMAChannelsEv+0x140>)
 128:	6054      	str	r4, [r2, #4]
 12a:	e7b9      	b.n	a0 <_ZN9FlexIOSPI15initDMAChannelsEv+0xa0>
 12c:	400e8000 	.word	0x400e8000
 130:	400ec000 	.word	0x400ec000
 134:	38003840 	.word	0x38003840
 138:	00000000 	.word	0x00000000
 13c:	00000000 	.word	0x00000000
 140:	00000000 	.word	0x00000000
 144:	00000000 	.word	0x00000000

Disassembly of section .text._ZN9FlexIOSPI8transferEPKvPvjR14EventResponder:

00000000 <_ZN9FlexIOSPI8transferEPKvPvjR14EventResponder>:
   0:	e92d 41f0 	stmdb	sp!, {r4, r5, r6, r7, r8, lr}
   4:	461d      	mov	r5, r3
   6:	b082      	sub	sp, #8
   8:	f890 3035 	ldrb.w	r3, [r0, #53]	; 0x35
   c:	4604      	mov	r4, r0
   e:	460e      	mov	r6, r1
  10:	4690      	mov	r8, r2
  12:	9f08      	ldr	r7, [sp, #32]
  14:	2b00      	cmp	r3, #0
  16:	d032      	beq.n	7e <_ZN9FlexIOSPI8transferEPKvPvjR14EventResponder+0x7e>
  18:	2b02      	cmp	r3, #2
  1a:	d02c      	beq.n	76 <_ZN9FlexIOSPI8transferEPKvPvjR14EventResponder+0x76>
  1c:	4638      	mov	r0, r7
  1e:	f7ff fffe 	bl	0 <_ZN14EventResponder10clearEventEv>
  22:	2d01      	cmp	r5, #1
  24:	f240 80f9 	bls.w	21a <_ZN9FlexIOSPI8transferEPKvPvjR14EventResponder+0x21a>
  28:	f5b5 4f00 	cmp.w	r5, #32768	; 0x8000
  2c:	d32e      	bcc.n	8c <_ZN9FlexIOSPI8transferEPKvPvjR14EventResponder+0x8c>
  2e:	4b9d      	ldr	r3, [pc, #628]	; (2a4 <_ZN9FlexIOSPI8transferEPKvPvjR14EventResponder+0x2a4>)
  30:	442b      	add	r3, r5
  32:	f647 75ff 	movw	r5, #32767	; 0x7fff
  36:	63a3      	str	r3, [r4, #56]	; 0x38
  38:	2e00      	cmp	r6, #0
  3a:	f000 813d 	beq.w	2b8 <_ZN9FlexIOSPI8transferEPKvPvjR14EventResponder+0x2b8>
  3e:	6be3      	ldr	r3, [r4, #60]	; 0x3c
  40:	2201      	movs	r2, #1
  42:	681b      	ldr	r3, [r3, #0]
  44:	809a      	strh	r2, [r3, #4]
  46:	609a      	str	r2, [r3, #8]
  48:	2200      	movs	r2, #0
  4a:	601e      	str	r6, [r3, #0]
  4c:	71da      	strb	r2, [r3, #7]
  4e:	60da      	str	r2, [r3, #12]
  50:	b2aa      	uxth	r2, r5
  52:	83da      	strh	r2, [r3, #30]
  54:	82da      	strh	r2, [r3, #22]
  56:	4a94      	ldr	r2, [pc, #592]	; (2a8 <_ZN9FlexIOSPI8transferEPKvPvjR14EventResponder+0x2a8>)
  58:	4296      	cmp	r6, r2
  5a:	d819      	bhi.n	90 <_ZN9FlexIOSPI8transferEPKvPvjR14EventResponder+0x90>
  5c:	7fe2      	ldrb	r2, [r4, #31]
  5e:	2a10      	cmp	r2, #16
  60:	f000 80f4 	beq.w	24c <_ZN9FlexIOSPI8transferEPKvPvjR14EventResponder+0x24c>
  64:	2a04      	cmp	r2, #4
  66:	f000 8174 	beq.w	352 <_ZN9FlexIOSPI8transferEPKvPvjR14EventResponder+0x352>
  6a:	2a02      	cmp	r2, #2
  6c:	f000 8190 	beq.w	390 <_ZN9FlexIOSPI8transferEPKvPvjR14EventResponder+0x390>
  70:	2101      	movs	r1, #1
  72:	8099      	strh	r1, [r3, #4]
  74:	e02d      	b.n	d2 <_ZN9FlexIOSPI8transferEPKvPvjR14EventResponder+0xd2>
  76:	2000      	movs	r0, #0
  78:	b002      	add	sp, #8
  7a:	e8bd 81f0 	ldmia.w	sp!, {r4, r5, r6, r7, r8, pc}
  7e:	f7ff fffe 	bl	0 <_ZN9FlexIOSPI8transferEPKvPvjR14EventResponder>
  82:	2800      	cmp	r0, #0
  84:	d0f7      	beq.n	76 <_ZN9FlexIOSPI8transferEPKvPvjR14EventResponder+0x76>
  86:	f894 3035 	ldrb.w	r3, [r4, #53]	; 0x35
  8a:	e7c5      	b.n	18 <_ZN9FlexIOSPI8transferEPKvPvjR14EventResponder+0x18>
  8c:	2300      	movs	r3, #0
  8e:	e7d2      	b.n	36 <_ZN9FlexIOSPI8transferEPKvPvjR14EventResponder+0x36>
  90:	f026 031f 	bic.w	r3, r6, #31
  94:	442e      	add	r6, r5
  96:	f3bf 8f4f 	dsb	sy
  9a:	f04f 22e0 	mov.w	r2, #3758153728	; 0xe000e000
  9e:	f8c2 3f68 	str.w	r3, [r2, #3944]	; 0xf68
  a2:	3320      	adds	r3, #32
  a4:	429e      	cmp	r6, r3
  a6:	d8fa      	bhi.n	9e <_ZN9FlexIOSPI8transferEPKvPvjR14EventResponder+0x9e>
  a8:	f3bf 8f4f 	dsb	sy
  ac:	f3bf 8f6f 	isb	sy
  b0:	6be3      	ldr	r3, [r4, #60]	; 0x3c
  b2:	681b      	ldr	r3, [r3, #0]
  b4:	f9b3 1004 	ldrsh.w	r1, [r3, #4]
  b8:	7fe2      	ldrb	r2, [r4, #31]
  ba:	2a10      	cmp	r2, #16
  bc:	d071      	beq.n	1a2 <_ZN9FlexIOSPI8transferEPKvPvjR14EventResponder+0x1a2>
  be:	2a04      	cmp	r2, #4
  c0:	f000 812f 	beq.w	322 <_ZN9FlexIOSPI8transferEPKvPvjR14EventResponder+0x322>
  c4:	2a02      	cmp	r2, #2
  c6:	f000 8151 	beq.w	36c <_ZN9FlexIOSPI8transferEPKvPvjR14EventResponder+0x36c>
  ca:	2001      	movs	r0, #1
  cc:	6098      	str	r0, [r3, #8]
  ce:	2900      	cmp	r1, #0
  d0:	d1ce      	bne.n	70 <_ZN9FlexIOSPI8transferEPKvPvjR14EventResponder+0x70>
  d2:	f9b3 1014 	ldrsh.w	r1, [r3, #20]
  d6:	b109      	cbz	r1, dc <_ZN9FlexIOSPI8transferEPKvPvjR14EventResponder+0xdc>
  d8:	2101      	movs	r1, #1
  da:	8299      	strh	r1, [r3, #20]
  dc:	88d9      	ldrh	r1, [r3, #6]
  de:	f421 61e0 	bic.w	r1, r1, #1792	; 0x700
  e2:	f021 0107 	bic.w	r1, r1, #7
  e6:	b289      	uxth	r1, r1
  e8:	80d9      	strh	r1, [r3, #6]
  ea:	6c23      	ldr	r3, [r4, #64]	; 0x40
  ec:	f1b8 0f00 	cmp.w	r8, #0
  f0:	d06e      	beq.n	1d0 <_ZN9FlexIOSPI8transferEPKvPvjR14EventResponder+0x1d0>
  f2:	681b      	ldr	r3, [r3, #0]
  f4:	2000      	movs	r0, #0
  f6:	2101      	movs	r1, #1
  f8:	7198      	strb	r0, [r3, #6]
  fa:	6198      	str	r0, [r3, #24]
  fc:	b2a8      	uxth	r0, r5
  fe:	f8c3 8010 	str.w	r8, [r3, #16]
 102:	83d8      	strh	r0, [r3, #30]
 104:	82d8      	strh	r0, [r3, #22]
 106:	4868      	ldr	r0, [pc, #416]	; (2a8 <_ZN9FlexIOSPI8transferEPKvPvjR14EventResponder+0x2a8>)
 108:	8299      	strh	r1, [r3, #20]
 10a:	4580      	cmp	r8, r0
 10c:	6099      	str	r1, [r3, #8]
 10e:	d914      	bls.n	13a <_ZN9FlexIOSPI8transferEPKvPvjR14EventResponder+0x13a>
 110:	f028 031f 	bic.w	r3, r8, #31
 114:	4445      	add	r5, r8
 116:	f3bf 8f4f 	dsb	sy
 11a:	f04f 22e0 	mov.w	r2, #3758153728	; 0xe000e000
 11e:	f8c2 3f5c 	str.w	r3, [r2, #3932]	; 0xf5c
 122:	3320      	adds	r3, #32
 124:	429d      	cmp	r5, r3
 126:	d8fa      	bhi.n	11e <_ZN9FlexIOSPI8transferEPKvPvjR14EventResponder+0x11e>
 128:	f3bf 8f4f 	dsb	sy
 12c:	f3bf 8f6f 	isb	sy
 130:	6c23      	ldr	r3, [r4, #64]	; 0x40
 132:	7fe2      	ldrb	r2, [r4, #31]
 134:	681b      	ldr	r3, [r3, #0]
 136:	f9b3 1014 	ldrsh.w	r1, [r3, #20]
 13a:	2a10      	cmp	r2, #16
 13c:	f000 808a 	beq.w	254 <_ZN9FlexIOSPI8transferEPKvPvjR14EventResponder+0x254>
 140:	2a04      	cmp	r2, #4
 142:	f000 809c 	beq.w	27e <_ZN9FlexIOSPI8transferEPKvPvjR14EventResponder+0x27e>
 146:	2a02      	cmp	r2, #2
 148:	f000 80d9 	beq.w	2fe <_ZN9FlexIOSPI8transferEPKvPvjR14EventResponder+0x2fe>
 14c:	2201      	movs	r2, #1
 14e:	f9b3 0004 	ldrsh.w	r0, [r3, #4]
 152:	609a      	str	r2, [r3, #8]
 154:	b100      	cbz	r0, 158 <_ZN9FlexIOSPI8transferEPKvPvjR14EventResponder+0x158>
 156:	809a      	strh	r2, [r3, #4]
 158:	b109      	cbz	r1, 15e <_ZN9FlexIOSPI8transferEPKvPvjR14EventResponder+0x15e>
 15a:	2201      	movs	r2, #1
 15c:	829a      	strh	r2, [r3, #20]
 15e:	88da      	ldrh	r2, [r3, #6]
 160:	f422 62e0 	bic.w	r2, r2, #1792	; 0x700
 164:	f022 0207 	bic.w	r2, r2, #7
 168:	b292      	uxth	r2, r2
 16a:	80da      	strh	r2, [r3, #6]
 16c:	6467      	str	r7, [r4, #68]	; 0x44
 16e:	f7ff fffe 	bl	0 <yield>
 172:	6aa1      	ldr	r1, [r4, #40]	; 0x28
 174:	f894 2032 	ldrb.w	r2, [r4, #50]	; 0x32
 178:	6809      	ldr	r1, [r1, #0]
 17a:	f894 3034 	ldrb.w	r3, [r4, #52]	; 0x34
 17e:	6c20      	ldr	r0, [r4, #64]	; 0x40
 180:	4313      	orrs	r3, r2
 182:	6b0a      	ldr	r2, [r1, #48]	; 0x30
 184:	4313      	orrs	r3, r2
 186:	4a49      	ldr	r2, [pc, #292]	; (2ac <_ZN9FlexIOSPI8transferEPKvPvjR14EventResponder+0x2ac>)
 188:	630b      	str	r3, [r1, #48]	; 0x30
 18a:	2302      	movs	r3, #2
 18c:	7901      	ldrb	r1, [r0, #4]
 18e:	2001      	movs	r0, #1
 190:	76d1      	strb	r1, [r2, #27]
 192:	6be1      	ldr	r1, [r4, #60]	; 0x3c
 194:	7909      	ldrb	r1, [r1, #4]
 196:	76d1      	strb	r1, [r2, #27]
 198:	f884 3035 	strb.w	r3, [r4, #53]	; 0x35
 19c:	b002      	add	sp, #8
 19e:	e8bd 81f0 	ldmia.w	sp!, {r4, r5, r6, r7, r8, pc}
 1a2:	609a      	str	r2, [r3, #8]
 1a4:	2900      	cmp	r1, #0
 1a6:	d152      	bne.n	24e <_ZN9FlexIOSPI8transferEPKvPvjR14EventResponder+0x24e>
 1a8:	f9b3 2014 	ldrsh.w	r2, [r3, #20]
 1ac:	b10a      	cbz	r2, 1b2 <_ZN9FlexIOSPI8transferEPKvPvjR14EventResponder+0x1b2>
 1ae:	2210      	movs	r2, #16
 1b0:	829a      	strh	r2, [r3, #20]
 1b2:	88da      	ldrh	r2, [r3, #6]
 1b4:	f240 4104 	movw	r1, #1028	; 0x404
 1b8:	f422 62e0 	bic.w	r2, r2, #1792	; 0x700
 1bc:	f022 0207 	bic.w	r2, r2, #7
 1c0:	4311      	orrs	r1, r2
 1c2:	2210      	movs	r2, #16
 1c4:	b289      	uxth	r1, r1
 1c6:	80d9      	strh	r1, [r3, #6]
 1c8:	6c23      	ldr	r3, [r4, #64]	; 0x40
 1ca:	f1b8 0f00 	cmp.w	r8, #0
 1ce:	d190      	bne.n	f2 <_ZN9FlexIOSPI8transferEPKvPvjR14EventResponder+0xf2>
 1d0:	4837      	ldr	r0, [pc, #220]	; (2b0 <_ZN9FlexIOSPI8transferEPKvPvjR14EventResponder+0x2b0>)
 1d2:	6819      	ldr	r1, [r3, #0]
 1d4:	f1b0 4f80 	cmp.w	r0, #1073741824	; 0x40000000
 1d8:	6108      	str	r0, [r1, #16]
 1da:	f8a1 8014 	strh.w	r8, [r1, #20]
 1de:	f881 8006 	strb.w	r8, [r1, #6]
 1e2:	d349      	bcc.n	278 <_ZN9FlexIOSPI8transferEPKvPvjR14EventResponder+0x278>
 1e4:	6888      	ldr	r0, [r1, #8]
 1e6:	2800      	cmp	r0, #0
 1e8:	d046      	beq.n	278 <_ZN9FlexIOSPI8transferEPKvPvjR14EventResponder+0x278>
 1ea:	681b      	ldr	r3, [r3, #0]
 1ec:	2000      	movs	r0, #0
 1ee:	6188      	str	r0, [r1, #24]
 1f0:	8bd9      	ldrh	r1, [r3, #30]
 1f2:	0409      	lsls	r1, r1, #16
 1f4:	f140 80a7 	bpl.w	346 <_ZN9FlexIOSPI8transferEPKvPvjR14EventResponder+0x346>
 1f8:	f5b5 7f00 	cmp.w	r5, #512	; 0x200
 1fc:	d20a      	bcs.n	214 <_ZN9FlexIOSPI8transferEPKvPvjR14EventResponder+0x214>
 1fe:	8bd9      	ldrh	r1, [r3, #30]
 200:	b2ad      	uxth	r5, r5
 202:	f401 417e 	and.w	r1, r1, #65024	; 0xfe00
 206:	4329      	orrs	r1, r5
 208:	83d9      	strh	r1, [r3, #30]
 20a:	8ad9      	ldrh	r1, [r3, #22]
 20c:	f401 417e 	and.w	r1, r1, #65024	; 0xfe00
 210:	430d      	orrs	r5, r1
 212:	82dd      	strh	r5, [r3, #22]
 214:	f9b3 1014 	ldrsh.w	r1, [r3, #20]
 218:	e78f      	b.n	13a <_ZN9FlexIOSPI8transferEPKvPvjR14EventResponder+0x13a>
 21a:	4620      	mov	r0, r4
 21c:	2400      	movs	r4, #0
 21e:	462b      	mov	r3, r5
 220:	4642      	mov	r2, r8
 222:	4631      	mov	r1, r6
 224:	9400      	str	r4, [sp, #0]
 226:	f7ff fffe 	bl	0 <_ZN9FlexIOSPI8transferEPKvPvjR14EventResponder>
 22a:	683b      	ldr	r3, [r7, #0]
 22c:	4a21      	ldr	r2, [pc, #132]	; (2b4 <_ZN9FlexIOSPI8transferEPKvPvjR14EventResponder+0x2b4>)
 22e:	681b      	ldr	r3, [r3, #0]
 230:	4293      	cmp	r3, r2
 232:	f040 80b7 	bne.w	3a4 <_ZN9FlexIOSPI8transferEPKvPvjR14EventResponder+0x3a4>
 236:	7f3b      	ldrb	r3, [r7, #28]
 238:	607c      	str	r4, [r7, #4]
 23a:	2b02      	cmp	r3, #2
 23c:	60fc      	str	r4, [r7, #12]
 23e:	f040 8090 	bne.w	362 <_ZN9FlexIOSPI8transferEPKvPvjR14EventResponder+0x362>
 242:	4638      	mov	r0, r7
 244:	68bb      	ldr	r3, [r7, #8]
 246:	4798      	blx	r3
 248:	2001      	movs	r0, #1
 24a:	e715      	b.n	78 <_ZN9FlexIOSPI8transferEPKvPvjR14EventResponder+0x78>
 24c:	609a      	str	r2, [r3, #8]
 24e:	2210      	movs	r2, #16
 250:	809a      	strh	r2, [r3, #4]
 252:	e7a9      	b.n	1a8 <_ZN9FlexIOSPI8transferEPKvPvjR14EventResponder+0x1a8>
 254:	f9b3 0004 	ldrsh.w	r0, [r3, #4]
 258:	609a      	str	r2, [r3, #8]
 25a:	b100      	cbz	r0, 25e <_ZN9FlexIOSPI8transferEPKvPvjR14EventResponder+0x25e>
 25c:	809a      	strh	r2, [r3, #4]
 25e:	b109      	cbz	r1, 264 <_ZN9FlexIOSPI8transferEPKvPvjR14EventResponder+0x264>
 260:	2210      	movs	r2, #16
 262:	829a      	strh	r2, [r3, #20]
 264:	88d9      	ldrh	r1, [r3, #6]
 266:	f240 4204 	movw	r2, #1028	; 0x404
 26a:	f421 61e0 	bic.w	r1, r1, #1792	; 0x700
 26e:	f021 0107 	bic.w	r1, r1, #7
 272:	430a      	orrs	r2, r1
 274:	b292      	uxth	r2, r2
 276:	e778      	b.n	16a <_ZN9FlexIOSPI8transferEPKvPvjR14EventResponder+0x16a>
 278:	2001      	movs	r0, #1
 27a:	6088      	str	r0, [r1, #8]
 27c:	e7b5      	b.n	1ea <_ZN9FlexIOSPI8transferEPKvPvjR14EventResponder+0x1ea>
 27e:	f9b3 0004 	ldrsh.w	r0, [r3, #4]
 282:	609a      	str	r2, [r3, #8]
 284:	b100      	cbz	r0, 288 <_ZN9FlexIOSPI8transferEPKvPvjR14EventResponder+0x288>
 286:	809a      	strh	r2, [r3, #4]
 288:	b109      	cbz	r1, 28e <_ZN9FlexIOSPI8transferEPKvPvjR14EventResponder+0x28e>
 28a:	2204      	movs	r2, #4
 28c:	829a      	strh	r2, [r3, #20]
 28e:	88d9      	ldrh	r1, [r3, #6]
 290:	f240 2202 	movw	r2, #514	; 0x202
 294:	f421 61e0 	bic.w	r1, r1, #1792	; 0x700
 298:	f021 0107 	bic.w	r1, r1, #7
 29c:	430a      	orrs	r2, r1
 29e:	b292      	uxth	r2, r2
 2a0:	e763      	b.n	16a <_ZN9FlexIOSPI8transferEPKvPvjR14EventResponder+0x16a>
 2a2:	bf00      	nop
 2a4:	ffff8001 	.word	0xffff8001
 2a8:	201fffff 	.word	0x201fffff
 2ac:	400e8000 	.word	0x400e8000
 2b0:	00000000 	.word	0x00000000
 2b4:	00000000 	.word	0x00000000
 2b8:	6be1      	ldr	r1, [r4, #60]	; 0x3c
 2ba:	f104 0314 	add.w	r3, r4, #20
 2be:	680a      	ldr	r2, [r1, #0]
 2c0:	f1b3 4f80 	cmp.w	r3, #1073741824	; 0x40000000
 2c4:	6013      	str	r3, [r2, #0]
 2c6:	8096      	strh	r6, [r2, #4]
 2c8:	71d6      	strb	r6, [r2, #7]
 2ca:	d246      	bcs.n	35a <_ZN9FlexIOSPI8transferEPKvPvjR14EventResponder+0x35a>
 2cc:	2301      	movs	r3, #1
 2ce:	6093      	str	r3, [r2, #8]
 2d0:	680b      	ldr	r3, [r1, #0]
 2d2:	2100      	movs	r1, #0
 2d4:	60d1      	str	r1, [r2, #12]
 2d6:	8bda      	ldrh	r2, [r3, #30]
 2d8:	0412      	lsls	r2, r2, #16
 2da:	d55d      	bpl.n	398 <_ZN9FlexIOSPI8transferEPKvPvjR14EventResponder+0x398>
 2dc:	f5b5 7f00 	cmp.w	r5, #512	; 0x200
 2e0:	d20a      	bcs.n	2f8 <_ZN9FlexIOSPI8transferEPKvPvjR14EventResponder+0x2f8>
 2e2:	8bda      	ldrh	r2, [r3, #30]
 2e4:	b2a9      	uxth	r1, r5
 2e6:	f402 427e 	and.w	r2, r2, #65024	; 0xfe00
 2ea:	430a      	orrs	r2, r1
 2ec:	83da      	strh	r2, [r3, #30]
 2ee:	8ada      	ldrh	r2, [r3, #22]
 2f0:	f402 427e 	and.w	r2, r2, #65024	; 0xfe00
 2f4:	4311      	orrs	r1, r2
 2f6:	82d9      	strh	r1, [r3, #22]
 2f8:	f9b3 1004 	ldrsh.w	r1, [r3, #4]
 2fc:	e6dc      	b.n	b8 <_ZN9FlexIOSPI8transferEPKvPvjR14EventResponder+0xb8>
 2fe:	f9b3 0004 	ldrsh.w	r0, [r3, #4]
 302:	609a      	str	r2, [r3, #8]
 304:	b100      	cbz	r0, 308 <_ZN9FlexIOSPI8transferEPKvPvjR14EventResponder+0x308>
 306:	809a      	strh	r2, [r3, #4]
 308:	b109      	cbz	r1, 30e <_ZN9FlexIOSPI8transferEPKvPvjR14EventResponder+0x30e>
 30a:	2202      	movs	r2, #2
 30c:	829a      	strh	r2, [r3, #20]
 30e:	88d9      	ldrh	r1, [r3, #6]
 310:	f240 1201 	movw	r2, #257	; 0x101
 314:	f421 61e0 	bic.w	r1, r1, #1792	; 0x700
 318:	f021 0107 	bic.w	r1, r1, #7
 31c:	430a      	orrs	r2, r1
 31e:	b292      	uxth	r2, r2
 320:	e723      	b.n	16a <_ZN9FlexIOSPI8transferEPKvPvjR14EventResponder+0x16a>
 322:	609a      	str	r2, [r3, #8]
 324:	b9b1      	cbnz	r1, 354 <_ZN9FlexIOSPI8transferEPKvPvjR14EventResponder+0x354>
 326:	f9b3 2014 	ldrsh.w	r2, [r3, #20]
 32a:	b10a      	cbz	r2, 330 <_ZN9FlexIOSPI8transferEPKvPvjR14EventResponder+0x330>
 32c:	2204      	movs	r2, #4
 32e:	829a      	strh	r2, [r3, #20]
 330:	88da      	ldrh	r2, [r3, #6]
 332:	f240 2102 	movw	r1, #514	; 0x202
 336:	f422 62e0 	bic.w	r2, r2, #1792	; 0x700
 33a:	f022 0207 	bic.w	r2, r2, #7
 33e:	4311      	orrs	r1, r2
 340:	2204      	movs	r2, #4
 342:	b289      	uxth	r1, r1
 344:	e6d0      	b.n	e8 <_ZN9FlexIOSPI8transferEPKvPvjR14EventResponder+0xe8>
 346:	b2ad      	uxth	r5, r5
 348:	f9b3 1014 	ldrsh.w	r1, [r3, #20]
 34c:	83dd      	strh	r5, [r3, #30]
 34e:	82dd      	strh	r5, [r3, #22]
 350:	e6f3      	b.n	13a <_ZN9FlexIOSPI8transferEPKvPvjR14EventResponder+0x13a>
 352:	609a      	str	r2, [r3, #8]
 354:	2204      	movs	r2, #4
 356:	809a      	strh	r2, [r3, #4]
 358:	e7e5      	b.n	326 <_ZN9FlexIOSPI8transferEPKvPvjR14EventResponder+0x326>
 35a:	6893      	ldr	r3, [r2, #8]
 35c:	2b00      	cmp	r3, #0
 35e:	d1b7      	bne.n	2d0 <_ZN9FlexIOSPI8transferEPKvPvjR14EventResponder+0x2d0>
 360:	e7b4      	b.n	2cc <_ZN9FlexIOSPI8transferEPKvPvjR14EventResponder+0x2cc>
 362:	4638      	mov	r0, r7
 364:	f7ff fffe 	bl	0 <_ZN14EventResponder24triggerEventNotImmediateEv>
 368:	2001      	movs	r0, #1
 36a:	e685      	b.n	78 <_ZN9FlexIOSPI8transferEPKvPvjR14EventResponder+0x78>
 36c:	609a      	str	r2, [r3, #8]
 36e:	b981      	cbnz	r1, 392 <_ZN9FlexIOSPI8transferEPKvPvjR14EventResponder+0x392>
 370:	f9b3 2014 	ldrsh.w	r2, [r3, #20]
 374:	b10a      	cbz	r2, 37a <_ZN9FlexIOSPI8transferEPKvPvjR14EventResponder+0x37a>
 376:	2202      	movs	r2, #2
 378:	829a      	strh	r2, [r3, #20]
 37a:	88da      	ldrh	r2, [r3, #6]
 37c:	f240 1101 	movw	r1, #257	; 0x101
 380:	f422 62e0 	bic.w	r2, r2, #1792	; 0x700
 384:	f022 0207 	bic.w	r2, r2, #7
 388:	4311      	orrs	r1, r2
 38a:	2202      	movs	r2, #2
 38c:	b289      	uxth	r1, r1
 38e:	e6ab      	b.n	e8 <_ZN9FlexIOSPI8transferEPKvPvjR14EventResponder+0xe8>
 390:	609a      	str	r2, [r3, #8]
 392:	2202      	movs	r2, #2
 394:	809a      	strh	r2, [r3, #4]
 396:	e7eb      	b.n	370 <_ZN9FlexIOSPI8transferEPKvPvjR14EventResponder+0x370>
 398:	b2aa      	uxth	r2, r5
 39a:	f9b3 1004 	ldrsh.w	r1, [r3, #4]
 39e:	83da      	strh	r2, [r3, #30]
 3a0:	82da      	strh	r2, [r3, #22]
 3a2:	e689      	b.n	b8 <_ZN9FlexIOSPI8transferEPKvPvjR14EventResponder+0xb8>
 3a4:	4638      	mov	r0, r7
 3a6:	4622      	mov	r2, r4
 3a8:	4621      	mov	r1, r4
 3aa:	4798      	blx	r3
 3ac:	2001      	movs	r0, #1
 3ae:	e663      	b.n	78 <_ZN9FlexIOSPI8transferEPKvPvjR14EventResponder+0x78>
