
build/./src/dart/ServoController.cpp.o:     file format elf32-littlearm

SYMBOL TABLE:
00000000 l    df *ABS*	00000000 ServoController.cpp
00000000 l    d  .text	00000000 .text
00000000 l    d  .data	00000000 .data
00000000 l    d  .bss	00000000 .bss
00000000 l    d  .text._ZN15ServoControllerC2Ev	00000000 .text._ZN15ServoControllerC2Ev
00000000 l    d  .text._ZN15ServoController4initEv	00000000 .text._ZN15ServoController4initEv
00000000 l    d  .text._ZN15ServoController15set_servo_angleEif	00000000 .text._ZN15ServoController15set_servo_angleEif
00000000 l    d  .text._ZN15ServoController14set_all_servosEffff	00000000 .text._ZN15ServoController14set_all_servosEffff
00000000 l    d  .text.startup._GLOBAL__sub_I_fin1	00000000 .text.startup._GLOBAL__sub_I_fin1
00000000 l     F .text.startup._GLOBAL__sub_I_fin1	00000030 _GLOBAL__sub_I_fin1
00000000 l    d  .init_array	00000000 .init_array
00000000 l    d  .bss.fin1	00000000 .bss.fin1
00000000 l    d  .bss.fin2	00000000 .bss.fin2
00000000 l    d  .bss.fin3	00000000 .bss.fin3
00000000 l    d  .bss.fin4	00000000 .bss.fin4
00000000 l    d  .comment	00000000 .comment
00000000 l    d  .ARM.attributes	00000000 .ARM.attributes
00000000 g     F .text._ZN15ServoControllerC2Ev	00000002 _ZN15ServoControllerC2Ev
00000000 g     F .text._ZN15ServoControllerC2Ev	00000002 _ZN15ServoControllerC1Ev
00000000 g     F .text._ZN15ServoController4initEv	00000058 _ZN15ServoController4initEv
00000000         *UND*	00000000 _ZN8PWMServo6attachEiii
00000000 g     F .text._ZN15ServoController15set_servo_angleEif	00000084 _ZN15ServoController15set_servo_angleEif
00000000         *UND*	00000000 _ZN8PWMServo5writeEi
00000000 g     F .text._ZN15ServoController14set_all_servosEffff	00000064 _ZN15ServoController14set_all_servosEffff
00000000         *UND*	00000000 _ZN8PWMServoC1Ev
00000000 g     O .bss.fin4	00000004 fin4
00000000 g     O .bss.fin3	00000004 fin3
00000000 g     O .bss.fin2	00000004 fin2
00000000 g     O .bss.fin1	00000004 fin1


Contents of section .text._ZN15ServoControllerC2Ev:
 0000 704700bf                             pG..            
Contents of section .text._ZN15ServoController4initEv:
 0000 10b54ff4 16634ff4 08720221 0e48fff7  ..O..cO..r.!.H..
 0010 feff4ff4 16634ff4 08720321 0b48fff7  ..O..cO..r.!.H..
 0020 feff4ff4 16634ff4 08720421 0848fff7  ..O..cO..r.!.H..
 0030 feff4ff4 16634ff4 08720521 0548bde8  ..O..cO..r.!.H..
 0040 1040fff7 febf00bf 00000000 00000000  .@..............
 0050 00000000 00000000                    ........        
Contents of section .text._ZN15ServoController15set_servo_angleEif:
 0000 013900b5 83b00329 31d8dfe8 01f0251b  .9.....)1.....%.
 0010 0c02fdee c07a1748 17ee901a 03b05df8  .....z.H......].
 0020 04ebfff7 febffdee c07a17ee 901a1248  .........z.....H
 0030 0191fff7 feff0199 0e4803b0 5df804eb  .........H..]...
 0040 fff7febf fdeec07a 17ee901a 0b480191  .......z.....H..
 0050 fff7feff 0199eae7 fdeec07a 084817ee  ...........z.H..
 0060 901acded 017afff7 feff0199 eee703b0  .....z..........
 0070 5df804fb 00000000 00000000 00000000  ]...............
 0080 00000000                             ....            
Contents of section .text._ZN15ServoController14set_all_servosEffff:
 0000 fdeec07a 134808b5 2ded048b b0ee609a  ...z.H..-.....`.
 0010 17ee901a f0ee418a b0ee618a fff7feff  ......A...a.....
 0020 fdeec97a 0c4817ee 901afff7 fefffdee  ...z.H..........
 0030 e87a0a48 17ee901a fff7feff fdeec87a  .z.H...........z
 0040 0748bdec 048b17ee 901abde8 0840fff7  .H...........@..
 0050 febf00bf 00000000 00000000 00000000  ................
 0060 00000000                             ....            
Contents of section .text.startup._GLOBAL__sub_I_fin1:
 0000 08b50748 fff7feff 0648fff7 feff0648  ...H.....H.....H
 0010 fff7feff 0548bde8 0840fff7 febf00bf  .....H...@......
 0020 00000000 00000000 00000000 00000000  ................
Contents of section .init_array:
 0000 00000000                             ....            
Contents of section .comment:
 0000 00474343 3a202841 726d2047 4e552054  .GCC: (Arm GNU T
 0010 6f6f6c63 6861696e 2031312e 332e5265  oolchain 11.3.Re
 0020 6c312920 31312e33 2e312032 30323230  l1) 11.3.1 20220
 0030 37313200                             712.            
Contents of section .ARM.attributes:
 0000 41310000 00616561 62690001 27000000  A1...aeabi..'...
 0010 0537452d 4d00060d 074d0902 0a081204  .7E-M....M......
 0020 14011501 17031801 19011a01 1c011e02  ................
 0030 2201                                 ".              

Disassembly of section .text._ZN15ServoControllerC2Ev:

00000000 <_ZN15ServoControllerC1Ev>:
   0:	4770      	bx	lr
   2:	bf00      	nop

Disassembly of section .text._ZN15ServoController4initEv:

00000000 <_ZN15ServoController4initEv>:
   0:	b510      	push	{r4, lr}
   2:	f44f 6316 	mov.w	r3, #2400	; 0x960
   6:	f44f 7208 	mov.w	r2, #544	; 0x220
   a:	2102      	movs	r1, #2
   c:	480e      	ldr	r0, [pc, #56]	; (48 <_ZN15ServoController4initEv+0x48>)
   e:	f7ff fffe 	bl	0 <_ZN8PWMServo6attachEiii>
  12:	f44f 6316 	mov.w	r3, #2400	; 0x960
  16:	f44f 7208 	mov.w	r2, #544	; 0x220
  1a:	2103      	movs	r1, #3
  1c:	480b      	ldr	r0, [pc, #44]	; (4c <_ZN15ServoController4initEv+0x4c>)
  1e:	f7ff fffe 	bl	0 <_ZN8PWMServo6attachEiii>
  22:	f44f 6316 	mov.w	r3, #2400	; 0x960
  26:	f44f 7208 	mov.w	r2, #544	; 0x220
  2a:	2104      	movs	r1, #4
  2c:	4808      	ldr	r0, [pc, #32]	; (50 <_ZN15ServoController4initEv+0x50>)
  2e:	f7ff fffe 	bl	0 <_ZN8PWMServo6attachEiii>
  32:	f44f 6316 	mov.w	r3, #2400	; 0x960
  36:	f44f 7208 	mov.w	r2, #544	; 0x220
  3a:	2105      	movs	r1, #5
  3c:	4805      	ldr	r0, [pc, #20]	; (54 <_ZN15ServoController4initEv+0x54>)
  3e:	e8bd 4010 	ldmia.w	sp!, {r4, lr}
  42:	f7ff bffe 	b.w	0 <_ZN8PWMServo6attachEiii>
  46:	bf00      	nop
  48:	00000000 	.word	0x00000000
  4c:	00000000 	.word	0x00000000
  50:	00000000 	.word	0x00000000
  54:	00000000 	.word	0x00000000

Disassembly of section .text._ZN15ServoController15set_servo_angleEif:

00000000 <_ZN15ServoController15set_servo_angleEif>:
   0:	3901      	subs	r1, #1
   2:	b500      	push	{lr}
   4:	b083      	sub	sp, #12
   6:	2903      	cmp	r1, #3
   8:	d831      	bhi.n	6e <_ZN15ServoController15set_servo_angleEif+0x6e>
   a:	e8df f001 	tbb	[pc, r1]
   e:	1b25      	.short	0x1b25
  10:	020c      	.short	0x020c
  12:	eefd 7ac0 	vcvt.s32.f32	s15, s0
  16:	4817      	ldr	r0, [pc, #92]	; (74 <_ZN15ServoController15set_servo_angleEif+0x74>)
  18:	ee17 1a90 	vmov	r1, s15
  1c:	b003      	add	sp, #12
  1e:	f85d eb04 	ldr.w	lr, [sp], #4
  22:	f7ff bffe 	b.w	0 <_ZN8PWMServo5writeEi>
  26:	eefd 7ac0 	vcvt.s32.f32	s15, s0
  2a:	ee17 1a90 	vmov	r1, s15
  2e:	4812      	ldr	r0, [pc, #72]	; (78 <_ZN15ServoController15set_servo_angleEif+0x78>)
  30:	9101      	str	r1, [sp, #4]
  32:	f7ff fffe 	bl	0 <_ZN8PWMServo5writeEi>
  36:	9901      	ldr	r1, [sp, #4]
  38:	480e      	ldr	r0, [pc, #56]	; (74 <_ZN15ServoController15set_servo_angleEif+0x74>)
  3a:	b003      	add	sp, #12
  3c:	f85d eb04 	ldr.w	lr, [sp], #4
  40:	f7ff bffe 	b.w	0 <_ZN8PWMServo5writeEi>
  44:	eefd 7ac0 	vcvt.s32.f32	s15, s0
  48:	ee17 1a90 	vmov	r1, s15
  4c:	480b      	ldr	r0, [pc, #44]	; (7c <_ZN15ServoController15set_servo_angleEif+0x7c>)
  4e:	9101      	str	r1, [sp, #4]
  50:	f7ff fffe 	bl	0 <_ZN8PWMServo5writeEi>
  54:	9901      	ldr	r1, [sp, #4]
  56:	e7ea      	b.n	2e <_ZN15ServoController15set_servo_angleEif+0x2e>
  58:	eefd 7ac0 	vcvt.s32.f32	s15, s0
  5c:	4808      	ldr	r0, [pc, #32]	; (80 <_ZN15ServoController15set_servo_angleEif+0x80>)
  5e:	ee17 1a90 	vmov	r1, s15
  62:	edcd 7a01 	vstr	s15, [sp, #4]
  66:	f7ff fffe 	bl	0 <_ZN8PWMServo5writeEi>
  6a:	9901      	ldr	r1, [sp, #4]
  6c:	e7ee      	b.n	4c <_ZN15ServoController15set_servo_angleEif+0x4c>
  6e:	b003      	add	sp, #12
  70:	f85d fb04 	ldr.w	pc, [sp], #4
  74:	00000000 	.word	0x00000000
  78:	00000000 	.word	0x00000000
  7c:	00000000 	.word	0x00000000
  80:	00000000 	.word	0x00000000

Disassembly of section .text._ZN15ServoController14set_all_servosEffff:

00000000 <_ZN15ServoController14set_all_servosEffff>:
   0:	eefd 7ac0 	vcvt.s32.f32	s15, s0
   4:	4813      	ldr	r0, [pc, #76]	; (54 <_ZN15ServoController14set_all_servosEffff+0x54>)
   6:	b508      	push	{r3, lr}
   8:	ed2d 8b04 	vpush	{d8-d9}
   c:	eeb0 9a60 	vmov.f32	s18, s1
  10:	ee17 1a90 	vmov	r1, s15
  14:	eef0 8a41 	vmov.f32	s17, s2
  18:	eeb0 8a61 	vmov.f32	s16, s3
  1c:	f7ff fffe 	bl	0 <_ZN8PWMServo5writeEi>
  20:	eefd 7ac9 	vcvt.s32.f32	s15, s18
  24:	480c      	ldr	r0, [pc, #48]	; (58 <_ZN15ServoController14set_all_servosEffff+0x58>)
  26:	ee17 1a90 	vmov	r1, s15
  2a:	f7ff fffe 	bl	0 <_ZN8PWMServo5writeEi>
  2e:	eefd 7ae8 	vcvt.s32.f32	s15, s17
  32:	480a      	ldr	r0, [pc, #40]	; (5c <_ZN15ServoController14set_all_servosEffff+0x5c>)
  34:	ee17 1a90 	vmov	r1, s15
  38:	f7ff fffe 	bl	0 <_ZN8PWMServo5writeEi>
  3c:	eefd 7ac8 	vcvt.s32.f32	s15, s16
  40:	4807      	ldr	r0, [pc, #28]	; (60 <_ZN15ServoController14set_all_servosEffff+0x60>)
  42:	ecbd 8b04 	vpop	{d8-d9}
  46:	ee17 1a90 	vmov	r1, s15
  4a:	e8bd 4008 	ldmia.w	sp!, {r3, lr}
  4e:	f7ff bffe 	b.w	0 <_ZN8PWMServo5writeEi>
  52:	bf00      	nop
  54:	00000000 	.word	0x00000000
  58:	00000000 	.word	0x00000000
  5c:	00000000 	.word	0x00000000
  60:	00000000 	.word	0x00000000

Disassembly of section .text.startup._GLOBAL__sub_I_fin1:

00000000 <_GLOBAL__sub_I_fin1>:
   0:	b508      	push	{r3, lr}
   2:	4807      	ldr	r0, [pc, #28]	; (20 <_GLOBAL__sub_I_fin1+0x20>)
   4:	f7ff fffe 	bl	0 <_ZN8PWMServoC1Ev>
   8:	4806      	ldr	r0, [pc, #24]	; (24 <_GLOBAL__sub_I_fin1+0x24>)
   a:	f7ff fffe 	bl	0 <_ZN8PWMServoC1Ev>
   e:	4806      	ldr	r0, [pc, #24]	; (28 <_GLOBAL__sub_I_fin1+0x28>)
  10:	f7ff fffe 	bl	0 <_ZN8PWMServoC1Ev>
  14:	4805      	ldr	r0, [pc, #20]	; (2c <_GLOBAL__sub_I_fin1+0x2c>)
  16:	e8bd 4008 	ldmia.w	sp!, {r3, lr}
  1a:	f7ff bffe 	b.w	0 <_ZN8PWMServoC1Ev>
  1e:	bf00      	nop
  20:	00000000 	.word	0x00000000
  24:	00000000 	.word	0x00000000
  28:	00000000 	.word	0x00000000
  2c:	00000000 	.word	0x00000000
