
build/./libraries/Teensy_Camera/OV2640.cpp.o:     file format elf32-littlearm

SYMBOL TABLE:
00000000 l    df *ABS*	00000000 OV2640.cpp
00000000 l    d  .text	00000000 .text
00000000 l    d  .data	00000000 .data
00000000 l    d  .bss	00000000 .bss
00000000 l    d  .text._ZN7TwoWire4readEv	00000000 .text._ZN7TwoWire4readEv
00000000 l    d  .text._ZN11ImageSensor5debugEb	00000000 .text._ZN11ImageSensor5debugEb
00000000 l    d  .text._ZN11ImageSensor5debugEv	00000000 .text._ZN11ImageSensor5debugEv
00000000 l    d  .text._ZN11ImageSensor12getPixformatEv	00000000 .text._ZN11ImageSensor12getPixformatEv
00000000 l    d  .text._ZN11ImageSensor21readFrameReturnBufferEv	00000000 .text._ZN11ImageSensor21readFrameReturnBufferEv
00000000 l    d  .text._ZN11ImageSensor18readImageSizeBytesEv	00000000 .text._ZN11ImageSensor18readImageSizeBytesEv
00000000 l    d  .text._ZN11ImageSensor6useDMAEb	00000000 .text._ZN11ImageSensor6useDMAEb
00000000 l    d  .text._ZN11ImageSensor6useDMAEv	00000000 .text._ZN11ImageSensor6useDMAEv
00000000 l    d  .text._ZN11ImageSensor12data4BitModeEb	00000000 .text._ZN11ImageSensor12data4BitModeEb
00000000 l    d  .text._ZN11ImageSensor12data4BitModeEv	00000000 .text._ZN11ImageSensor12data4BitModeEv
00000000 l    d  .text._ZN11ImageSensor16dataPinsReversedEv	00000000 .text._ZN11ImageSensor16dataPinsReversedEv
00000000 l    d  .text._ZN11ImageSensor5widthEv	00000000 .text._ZN11ImageSensor5widthEv
00000000 l    d  .text._ZN11ImageSensor6heightEv	00000000 .text._ZN11ImageSensor6heightEv
00000000 l    d  .text._ZN11ImageSensor10frameWidthEv	00000000 .text._ZN11ImageSensor10frameWidthEv
00000000 l    d  .text._ZN11ImageSensor11frameHeightEv	00000000 .text._ZN11ImageSensor11frameHeightEv
00000000 l    d  .text._ZN11ImageSensor26processFrameStartInterruptEv	00000000 .text._ZN11ImageSensor26processFrameStartInterruptEv
00000000 l    d  .text._ZN11ImageSensor16supports4BitModeEv	00000000 .text._ZN11ImageSensor16supports4BitModeEv
00000000 l    d  .text._ZN6OV264017changeFrameBufferEPhS0_	00000000 .text._ZN6OV264017changeFrameBufferEPhS0_
00000000 l    d  .text._ZN6OV264010frameCountEv	00000000 .text._ZN6OV264010frameCountEv
00000000 l    d  .text._ZN6OV264025setDMACompleteISRPriorityEh	00000000 .text._ZN6OV264025setDMACompleteISRPriorityEh
00000000 l    d  .text._ZN6OV264012readRegisterEh	00000000 .text._ZN6OV264012readRegisterEh
00000000 l    d  .text._ZN6OV264013writeRegisterEhh	00000000 .text._ZN6OV264013writeRegisterEhh
00000000 l    d  .text._ZN6OV26406setHueEi	00000000 .text._ZN6OV26406setHueEi
00000000 l    d  .text._ZN6OV264011setExposureEi	00000000 .text._ZN6OV264011setExposureEi
00000000 l    d  .text._ZN6OV26405beginE11framesize_tib	00000000 .text._ZN6OV26405beginE11framesize_tib
00000000 l    d  .text._ZN6OV26407setModeEhh	00000000 .text._ZN6OV26407setModeEhh
00000000 l    d  .text._ZN6OV264012setFramerateEi	00000000 .text._ZN6OV264012setFramerateEi
00000000 l    d  .text._ZN6OV264014get_vt_pix_clkEPm	00000000 .text._ZN6OV264014get_vt_pix_clkEPm
00000000 l    d  .text._ZN6OV264014getCameraClockEPm	00000000 .text._ZN6OV264014getCameraClockEPm
00000000 l    d  .text._ZN6OV26409cmdUpdateEv	00000000 .text._ZN6OV26409cmdUpdateEv
00000000 l    d  .text._ZN6OV264012loadSettingsE21camera_reg_settings_t	00000000 .text._ZN6OV264012loadSettingsE21camera_reg_settings_t
00000000 l    d  .text._ZN6OV26405getAEEP8ae_cfg_t	00000000 .text._ZN6OV26405getAEEP8ae_cfg_t
00000000 l    d  .text._ZN6OV26405calAEEhPhmP8ae_cfg_t	00000000 .text._ZN6OV26405calAEEhPhmP8ae_cfg_t
00000000 l    d  .text._ZN6OV26404modeEv	00000000 .text._ZN6OV26404modeEv
00000000 l    d  .text._ZN6OV26408autoGainEiff	00000000 .text._ZN6OV26408autoGainEiff
00000000 l    d  .text._ZN6OV264012dmaInterruptEv	00000000 .text._ZN6OV264012dmaInterruptEv
00000000 l    d  .text._ZN6OV2640D2Ev	00000000 .text._ZN6OV2640D2Ev
00000000 l    d  .text._ZN6OV26403endEv	00000000 .text._ZN6OV26403endEv
00000000 l    d  .text._ZN6OV2640D0Ev	00000000 .text._ZN6OV2640D0Ev
00000000 l    d  .text._ZN10DMAChannelD2Ev	00000000 .text._ZN10DMAChannelD2Ev
00000000 l    d  .rodata._ZN6OV264017startReadFrameDMAEPFbPvEPhS3_.str1.4	00000000 .rodata._ZN6OV264017startReadFrameDMAEPFbPvEPhS3_.str1.4
00000000 l    d  .text._ZN6OV264017startReadFrameDMAEPFbPvEPhS3_	00000000 .text._ZN6OV264017startReadFrameDMAEPFbPvEPhS3_
00000000 l    d  .rodata._ZN6OV264022captureFrameStatisticsEv.str1.4	00000000 .rodata._ZN6OV264022captureFrameStatisticsEv.str1.4
00000000 l    d  .text._ZN6OV264022captureFrameStatisticsEv	00000000 .text._ZN6OV264022captureFrameStatisticsEv
00000000 l    d  .rodata._ZN6OV264017readFrame4BitGPIOEPv.str1.4	00000000 .rodata._ZN6OV264017readFrame4BitGPIOEPv.str1.4
00000000 l    d  .text._ZN6OV264017readFrame4BitGPIOEPv	00000000 .text._ZN6OV264017readFrame4BitGPIOEPv
00000000 l    d  .rodata._ZN6OV264016stopReadFrameDMAEv.str1.4	00000000 .rodata._ZN6OV264016stopReadFrameDMAEv.str1.4
00000000 l    d  .text._ZN6OV264016stopReadFrameDMAEv	00000000 .text._ZN6OV264016stopReadFrameDMAEv
00000000 l    d  .rodata._ZN6OV264019processDMAInterruptEv.str1.4	00000000 .rodata._ZN6OV264019processDMAInterruptEv.str1.4
00000000 l    d  .text._ZN6OV264019processDMAInterruptEv	00000000 .text._ZN6OV264019processDMAInterruptEv
00000000 l    d  .text._ZN6OV2640C2Ev	00000000 .text._ZN6OV2640C2Ev
00000000 l    d  .rodata._ZN6OV264018cameraReadRegisterEh.str1.4	00000000 .rodata._ZN6OV264018cameraReadRegisterEh.str1.4
00000000 l    d  .text._ZN6OV264018cameraReadRegisterEh	00000000 .text._ZN6OV264018cameraReadRegisterEh
00000000 l    d  .rodata._ZN6OV264010getModelidEv.str1.4	00000000 .rodata._ZN6OV264010getModelidEv.str1.4
00000000 l    d  .text._ZN6OV264010getModelidEv	00000000 .text._ZN6OV264010getModelidEv
00000000 l    d  .rodata._ZN6OV264018readFrameGPIO_JPEGEPvjS0_j.str1.4	00000000 .rodata._ZN6OV264018readFrameGPIO_JPEGEPvjS0_j.str1.4
00000000 l    d  .text._ZN6OV264018readFrameGPIO_JPEGEPvjS0_j	00000000 .text._ZN6OV264018readFrameGPIO_JPEGEPvjS0_j
00000000 l    d  .rodata._Z30Debug_printCameraWriteRegisterhh.str1.4	00000000 .rodata._Z30Debug_printCameraWriteRegisterhh.str1.4
00000000 l    d  .text._Z30Debug_printCameraWriteRegisterhh	00000000 .text._Z30Debug_printCameraWriteRegisterhh
00000000 l    d  .rodata._ZN6OV264019cameraWriteRegisterEhh.str1.4	00000000 .rodata._ZN6OV264019cameraWriteRegisterEhh.str1.4
00000000 l    d  .text._ZN6OV264019cameraWriteRegisterEhh	00000000 .text._ZN6OV264019cameraWriteRegisterEhh
00000000 l    d  .text._ZN6OV26405resetEv	00000000 .text._ZN6OV26405resetEv
00000000 l    d  .text._ZN6OV264012setPixformatE11pixformat_t	00000000 .text._ZN6OV264012setPixformatE11pixformat_t
00000000 l    d  .rodata._ZN6OV264012setFramesizeEii.part.0.str1.4	00000000 .rodata._ZN6OV264012setFramesizeEii.part.0.str1.4
00000000 l    d  .text._ZN6OV264012setFramesizeEii.part.0	00000000 .text._ZN6OV264012setFramesizeEii.part.0
00000000 l     F .text._ZN6OV264012setFramesizeEii.part.0	00000470 _ZN6OV264012setFramesizeEii.part.0
00000000 l    d  .text._ZN6OV264012setFramesizeEii	00000000 .text._ZN6OV264012setFramesizeEii
00000000 l    d  .text._ZN6OV264012setFramesizeE11framesize_t	00000000 .text._ZN6OV264012setFramesizeE11framesize_t
00000000 l    d  .rodata._ZN6OV264013setZoomWindowEtttt.str1.4	00000000 .rodata._ZN6OV264013setZoomWindowEtttt.str1.4
00000000 l    d  .text._ZN6OV264013setZoomWindowEtttt	00000000 .text._ZN6OV264013setZoomWindowEtttt
00000000 l    d  .rodata._ZN6OV264011setContrastEi.str1.4	00000000 .rodata._ZN6OV264011setContrastEi.str1.4
00000000 l    d  .text._ZN6OV264011setContrastEi	00000000 .text._ZN6OV264011setContrastEi
00000000 l    d  .text._ZN6OV264013setBrightnessEi	00000000 .text._ZN6OV264013setBrightnessEi
00000000 l    d  .rodata._ZN6OV264013setSaturationEi.str1.4	00000000 .rodata._ZN6OV264013setSaturationEi.str1.4
00000000 l    d  .text._ZN6OV264013setSaturationEi	00000000 .text._ZN6OV264013setSaturationEi
00000000 l    d  .text._ZN6OV264014setGainceilingE13gainceiling_t	00000000 .text._ZN6OV264014setGainceilingE13gainceiling_t
00000000 l    d  .text._ZN6OV264010setQualityEi	00000000 .text._ZN6OV264010setQualityEi
00000000 l    d  .text._ZN6OV264010getQualityEv	00000000 .text._ZN6OV264010getQualityEv
00000000 l    d  .text._ZN6OV264011setColorbarEi	00000000 .text._ZN6OV264011setColorbarEi
00000000 l    d  .rodata._ZN6OV264012autoExposureEi.str1.4	00000000 .rodata._ZN6OV264012autoExposureEi.str1.4
00000000 l    d  .text._ZN6OV264012autoExposureEi	00000000 .text._ZN6OV264012autoExposureEi
00000000 l    d  .text._ZN6OV26407setGainEi	00000000 .text._ZN6OV26407setGainEi
00000000 l    d  .text._ZN6OV264011setAutoGainEiff	00000000 .text._ZN6OV264011setAutoGainEiff
00000000 l    d  .text._ZN6OV264010getGain_dbEPf	00000000 .text._ZN6OV264010getGain_dbEPf
00000000 l    d  .text._ZN6OV264014getExposure_usEPi	00000000 .text._ZN6OV264014getExposure_usEPi
00000000 l    d  .text._ZN6OV264015setAutoWhitebalEifff	00000000 .text._ZN6OV264015setAutoWhitebalEifff
00000000 l    d  .text._ZN6OV264014getRGB_Gain_dbEPfS0_S0_	00000000 .text._ZN6OV264014getRGB_Gain_dbEPfS0_S0_
00000000 l    d  .text._ZN6OV264010setHmirrorEi	00000000 .text._ZN6OV264010setHmirrorEi
00000000 l    d  .text._ZN6OV26408setVflipEi	00000000 .text._ZN6OV26408setVflipEi
00000000 l    d  .text._ZN6OV264016setSpecialEffectE5sde_t	00000000 .text._ZN6OV264016setSpecialEffectE5sde_t
00000000 l    d  .text._ZN6OV26409setWBmodeEi	00000000 .text._ZN6OV26409setWBmodeEi
00000000 l    d  .rodata._ZN6OV264013showRegistersEv.str1.4	00000000 .rodata._ZN6OV264013showRegistersEv.str1.4
00000000 l    d  .text._ZN6OV264013showRegistersEv	00000000 .text._ZN6OV264013showRegistersEv
00000000 l    d  .text._ZN6OV264015setAutoExposureEii	00000000 .text._ZN6OV264015setAutoExposureEii
00000000 l    d  .rodata._ZN6OV264016begin_omnivisionE11framesize_t11pixformat_tiib.str1.4	00000000 .rodata._ZN6OV264016begin_omnivisionE11framesize_t11pixformat_tiib.str1.4
00000000 l    d  .text._ZN6OV264016begin_omnivisionE11framesize_t11pixformat_tiib	00000000 .text._ZN6OV264016begin_omnivisionE11framesize_t11pixformat_tiib
00000000 l    d  .text.startup._GLOBAL__sub_I__ZN6OV2640C2Ev	00000000 .text.startup._GLOBAL__sub_I__ZN6OV2640C2Ev
00000000 l     F .text.startup._GLOBAL__sub_I__ZN6OV2640C2Ev	00000038 _GLOBAL__sub_I__ZN6OV2640C2Ev
00000000 l    d  .init_array	00000000 .init_array
00000000 l    d  .rodata.str1.4	00000000 .rodata.str1.4
00000000 l    d  .rodata	00000000 .rodata
00000000 l    d  .bss._ZN6OV264011_dmaBuffer1E	00000000 .bss._ZN6OV264011_dmaBuffer1E
00000000 l    d  .bss._ZN6OV264011_dmaBuffer2E	00000000 .bss._ZN6OV264011_dmaBuffer2E
00000000 l    d  .bss._ZN6OV264011_dmachannelE	00000000 .bss._ZN6OV264011_dmachannelE
00000000 l    d  .bss._ZN6OV264012_dmasettingsE	00000000 .bss._ZN6OV264012_dmasettingsE
00000000 l    d  .bss._ZZ30Debug_printCameraWriteRegisterhhE12showing_bank	00000000 .bss._ZZ30Debug_printCameraWriteRegisterhhE12showing_bank
00000000 l     O .bss._ZZ30Debug_printCameraWriteRegisterhhE12showing_bank	00000001 _ZZ30Debug_printCameraWriteRegisterhhE12showing_bank
00000000 l    d  .bss._ZZ30Debug_printCameraWriteRegisterhhE16bank_1_starts_at	00000000 .bss._ZZ30Debug_printCameraWriteRegisterhhE16bank_1_starts_at
00000000 l     O .bss._ZZ30Debug_printCameraWriteRegisterhhE16bank_1_starts_at	00000002 _ZZ30Debug_printCameraWriteRegisterhhE16bank_1_starts_at
00000000 l    d  .bss.fstatOmni1	00000000 .bss.fstatOmni1
00000000 l    d  .progmem	00000000 .progmem
00000000 l     O .progmem	00000318 _ZL21OV2640_reg_name_table
00000000 l    d  .rodata._ZL10bayer_regs	00000000 .rodata._ZL10bayer_regs
00000000 l     O .rodata._ZL10bayer_regs	0000000e _ZL10bayer_regs
00000000 l    d  .rodata._ZL10resolution	00000000 .rodata._ZL10resolution
00000000 l     O .rodata._ZL10resolution	00000058 _ZL10resolution
00000000 l    d  .rodata._ZL11rgb565_regs	00000000 .rodata._ZL11rgb565_regs
00000000 l     O .rodata._ZL11rgb565_regs	0000000e _ZL11rgb565_regs
00000000 l    d  .rodata._ZL11yuv422_regs	00000000 .rodata._ZL11yuv422_regs
00000000 l     O .rodata._ZL11yuv422_regs	00000014 _ZL11yuv422_regs
00000000 l    d  .rodata._ZL12agc_gain_tbl	00000000 .rodata._ZL12agc_gain_tbl
00000000 l     O .rodata._ZL12agc_gain_tbl	0000001f _ZL12agc_gain_tbl
00000000 l    d  .rodata._ZL12default_regs	00000000 .rodata._ZL12default_regs
00000000 l     O .rodata._ZL12default_regs	0000015e _ZL12default_regs
00000000 l    d  .rodata._ZL13contrast_regs	00000000 .rodata._ZL13contrast_regs
00000000 l     O .rodata._ZL13contrast_regs	0000002a _ZL13contrast_regs
00000000 l    d  .rodata._ZL13wb_modes_regs	00000000 .rodata._ZL13wb_modes_regs
00000000 l     O .rodata._ZL13wb_modes_regs	0000000f _ZL13wb_modes_regs
00000000 l    d  .rodata._ZL14ae_levels_regs	00000000 .rodata._ZL14ae_levels_regs
00000000 l     O .rodata._ZL14ae_levels_regs	00000012 _ZL14ae_levels_regs
00000000 l    d  .rodata._ZL15brightness_regs	00000000 .rodata._ZL15brightness_regs
00000000 l     O .rodata._ZL15brightness_regs	0000001e _ZL15brightness_regs
00000000 l    d  .rodata._ZL15saturation_regs	00000000 .rodata._ZL15saturation_regs
00000000 l     O .rodata._ZL15saturation_regs	0000001e _ZL15saturation_regs
00000000 l    d  .rodata._ZL20special_effects_regs	00000000 .rodata._ZL20special_effects_regs
00000000 l     O .rodata._ZL20special_effects_regs	00000028 _ZL20special_effects_regs
00000000 l    d  .rodata._ZL9jpeg_regs	00000000 .rodata._ZL9jpeg_regs
00000000 l     O .rodata._ZL9jpeg_regs	0000000e _ZL9jpeg_regs
00000000 l    d  .rodata._ZL9svga_regs	00000000 .rodata._ZL9svga_regs
00000000 l     O .rodata._ZL9svga_regs	0000001e _ZL9svga_regs
00000000 l    d  .rodata._ZL9uxga_regs	00000000 .rodata._ZL9uxga_regs
00000000 l     O .rodata._ZL9uxga_regs	0000001e _ZL9uxga_regs
00000000 l    d  .rodata._ZTV6OV2640	00000000 .rodata._ZTV6OV2640
00000000 l       .group	00000000 _ZN6OV2640D5Ev
00000000 l       .group	00000000 _ZN10DMAChannelD5Ev
00000000 l    d  .comment	00000000 .comment
00000000 l    d  .ARM.attributes	00000000 .ARM.attributes
00000000 l    d  .group	00000000 .group
00000000 l    d  .group	00000000 .group
00000000 l    d  .group	00000000 .group
00000000 l    d  .group	00000000 .group
00000000 l    d  .group	00000000 .group
00000000 l    d  .group	00000000 .group
00000000 l    d  .group	00000000 .group
00000000 l    d  .group	00000000 .group
00000000 l    d  .group	00000000 .group
00000000 l    d  .group	00000000 .group
00000000 l    d  .group	00000000 .group
00000000 l    d  .group	00000000 .group
00000000 l    d  .group	00000000 .group
00000000 l    d  .group	00000000 .group
00000000 l    d  .group	00000000 .group
00000000 l    d  .group	00000000 .group
00000000 l    d  .group	00000000 .group
00000000 l    d  .group	00000000 .group
00000000 l    d  .group	00000000 .group
00000000 l    d  .group	00000000 .group
00000000 l    d  .group	00000000 .group
00000000 l    d  .group	00000000 .group
00000000 l    d  .group	00000000 .group
00000000 l    d  .group	00000000 .group
00000000 l    d  .group	00000000 .group
00000000 l    d  .group	00000000 .group
00000000 l    d  .group	00000000 .group
00000000 l    d  .group	00000000 .group
00000000 l    d  .group	00000000 .group
00000000 l    d  .group	00000000 .group
00000000 l    d  .group	00000000 .group
00000000 l    d  .group	00000000 .group
00000000 l    d  .group	00000000 .group
00000000 l    d  .group	00000000 .group
00000000 l    d  .group	00000000 .group
00000000 l    d  .group	00000000 .group
00000000 l    d  .group	00000000 .group
00000000 l    d  .group	00000000 .group
00000000  w    F .text._ZN7TwoWire4readEv	0000001e _ZN7TwoWire4readEv
00000000  w    F .text._ZN11ImageSensor5debugEb	00000004 _ZN11ImageSensor5debugEb
00000000  w    F .text._ZN11ImageSensor5debugEv	00000004 _ZN11ImageSensor5debugEv
00000000  w    F .text._ZN11ImageSensor12getPixformatEv	00000006 _ZN11ImageSensor12getPixformatEv
00000000  w    F .text._ZN11ImageSensor21readFrameReturnBufferEv	00000006 _ZN11ImageSensor21readFrameReturnBufferEv
00000000  w    F .text._ZN11ImageSensor18readImageSizeBytesEv	00000006 _ZN11ImageSensor18readImageSizeBytesEv
00000000  w    F .text._ZN11ImageSensor6useDMAEb	00000004 _ZN11ImageSensor6useDMAEb
00000000  w    F .text._ZN11ImageSensor6useDMAEv	00000004 _ZN11ImageSensor6useDMAEv
00000000  w    F .text._ZN11ImageSensor12data4BitModeEb	00000004 _ZN11ImageSensor12data4BitModeEb
00000000  w    F .text._ZN11ImageSensor12data4BitModeEv	00000004 _ZN11ImageSensor12data4BitModeEv
00000000  w    F .text._ZN11ImageSensor16dataPinsReversedEv	00000006 _ZN11ImageSensor16dataPinsReversedEv
00000000  w    F .text._ZN11ImageSensor5widthEv	00000006 _ZN11ImageSensor5widthEv
00000000  w    F .text._ZN11ImageSensor6heightEv	00000006 _ZN11ImageSensor6heightEv
00000000  w    F .text._ZN11ImageSensor10frameWidthEv	00000006 _ZN11ImageSensor10frameWidthEv
00000000  w    F .text._ZN11ImageSensor11frameHeightEv	00000006 _ZN11ImageSensor11frameHeightEv
00000000  w    F .text._ZN11ImageSensor26processFrameStartInterruptEv	00000002 _ZN11ImageSensor26processFrameStartInterruptEv
00000000  w    F .text._ZN11ImageSensor16supports4BitModeEv	00000004 _ZN11ImageSensor16supports4BitModeEv
00000000  w    F .text._ZN6OV264017changeFrameBufferEPhS0_	00000014 _ZN6OV264017changeFrameBufferEPhS0_
00000000  w    F .text._ZN6OV264010frameCountEv	00000006 _ZN6OV264010frameCountEv
00000000  w    F .text._ZN6OV264025setDMACompleteISRPriorityEh	00000018 _ZN6OV264025setDMACompleteISRPriorityEh
00000000  w    F .text._ZN6OV264012readRegisterEh	00000004 _ZN6OV264012readRegisterEh
00000000  w    F .text._ZN6OV264013writeRegisterEhh	00000004 _ZN6OV264013writeRegisterEhh
00000000  w    F .text._ZN6OV26406setHueEi	00000002 _ZN6OV26406setHueEi
00000000  w    F .text._ZN6OV264011setExposureEi	00000002 _ZN6OV264011setExposureEi
00000000  w    F .text._ZN6OV26405beginE11framesize_tib	00000004 _ZN6OV26405beginE11framesize_tib
00000000  w    F .text._ZN6OV26407setModeEhh	00000004 _ZN6OV26407setModeEhh
00000000  w    F .text._ZN6OV264012setFramerateEi	00000004 _ZN6OV264012setFramerateEi
00000000  w    F .text._ZN6OV264014get_vt_pix_clkEPm	00000004 _ZN6OV264014get_vt_pix_clkEPm
00000000  w    F .text._ZN6OV264014getCameraClockEPm	00000004 _ZN6OV264014getCameraClockEPm
00000000  w    F .text._ZN6OV26409cmdUpdateEv	00000004 _ZN6OV26409cmdUpdateEv
00000000  w    F .text._ZN6OV264012loadSettingsE21camera_reg_settings_t	00000004 _ZN6OV264012loadSettingsE21camera_reg_settings_t
00000000  w    F .text._ZN6OV26405getAEEP8ae_cfg_t	00000004 _ZN6OV26405getAEEP8ae_cfg_t
00000000  w    F .text._ZN6OV26405calAEEhPhmP8ae_cfg_t	00000004 _ZN6OV26405calAEEhPhmP8ae_cfg_t
00000000  w    F .text._ZN6OV26404modeEv	00000004 _ZN6OV26404modeEv
00000000  w    F .text._ZN6OV26408autoGainEiff	00000002 _ZN6OV26408autoGainEiff
00000000 g     F .text._ZN6OV264012dmaInterruptEv	00000010 _ZN6OV264012dmaInterruptEv
00000000         *UND*	00000000 _ZN11ImageSensor17active_dma_cameraE
00000000  w    F .text._ZN6OV2640D2Ev	00000002 _ZN6OV2640D2Ev
00000000  w    F .text._ZN6OV2640D2Ev	00000002 _ZN6OV2640D1Ev
00000000 g     F .text._ZN6OV26403endEv	00000020 _ZN6OV26403endEv
00000000         *UND*	00000000 pinMode
00000000         *UND*	00000000 _ZN7TwoWire3endEv
00000000  w    F .text._ZN6OV2640D0Ev	00000010 _ZN6OV2640D0Ev
00000000         *UND*	00000000 _ZdlPvj
00000000  w    F .text._ZN10DMAChannelD2Ev	0000000c _ZN10DMAChannelD2Ev
00000000         *UND*	00000000 _ZN10DMAChannel7releaseEv
00000000  w    F .text._ZN10DMAChannelD2Ev	0000000c _ZN10DMAChannelD1Ev
00000000 g     F .text._ZN6OV264017startReadFrameDMAEPFbPvEPhS3_	0000024c _ZN6OV264017startReadFrameDMAEPFbPvEPhS3_
00000000         *UND*	00000000 _ZN10DMAChannel5beginEb
00000000         *UND*	00000000 xbar_connect
00000000         *UND*	00000000 _ZN5Print6printfEPKcz
00000000         *UND*	00000000 malloc
00000000 g     O .bss._ZN6OV264011_dmaBuffer1E	00001440 _ZN6OV264011_dmaBuffer1E
00000000 g     O .bss._ZN6OV264011_dmaBuffer2E	00001440 _ZN6OV264011_dmaBuffer2E
00000000         *UND*	00000000 _VectorsRam
00000000         *UND*	00000000 digital_pin_to_info_PGM
00000000         *UND*	00000000 Serial
00000000 g     F .text._ZN6OV264022captureFrameStatisticsEv	000001b4 _ZN6OV264022captureFrameStatisticsEv
00000000         *UND*	00000000 memset
00000000         *UND*	00000000 micros
00000000         *UND*	00000000 usb_serial_write
00000000         *UND*	00000000 _ZN5Print7printlnEv
00000000  w    F .text._ZN6OV264017readFrame4BitGPIOEPv	0000001c _ZN6OV264017readFrame4BitGPIOEPv
00000000 g     F .text._ZN6OV264016stopReadFrameDMAEv	00000098 _ZN6OV264016stopReadFrameDMAEv
00000000         *UND*	00000000 systick_millis_count
00000000 g     F .text._ZN6OV264019processDMAInterruptEv	0000020c _ZN6OV264019processDMAInterruptEv
00000000 g     F .text._ZN6OV2640C2Ev	000000bc _ZN6OV2640C2Ev
00000000         *UND*	00000000 Wire
00000000 g     F .text._ZN6OV2640C2Ev	000000bc _ZN6OV2640C1Ev
00000000 g     F .text._ZN6OV264018cameraReadRegisterEh	000000a0 _ZN6OV264018cameraReadRegisterEh
00000000         *UND*	00000000 _ZN7TwoWire15endTransmissionEh
00000000         *UND*	00000000 _ZN7TwoWire11requestFromEhhh
00000000 g     F .text._ZN6OV264010getModelidEv	0000003c _ZN6OV264010getModelidEv
00000000 g     F .text._ZN6OV264018readFrameGPIO_JPEGEPvjS0_j	000001a8 _ZN6OV264018readFrameGPIO_JPEGEPvjS0_j
00000000 g     F .text._Z30Debug_printCameraWriteRegisterhh	000000c0 _Z30Debug_printCameraWriteRegisterhh
00000000 g     F .text._ZN6OV264019cameraWriteRegisterEhh	00000064 _ZN6OV264019cameraWriteRegisterEhh
00000000 g     F .text._ZN6OV26405resetEv	00000030 _ZN6OV26405resetEv
00000000         *UND*	00000000 delay
00000000 g     F .text._ZN6OV264012setPixformatE11pixformat_t	000000b8 _ZN6OV264012setPixformatE11pixformat_t
00000000 g     F .text._ZN6OV264012setFramesizeEii	0000000c _ZN6OV264012setFramesizeEii
00000000 g     F .text._ZN6OV264012setFramesizeE11framesize_t	00000048 _ZN6OV264012setFramesizeE11framesize_t
00000000 g     F .text._ZN6OV264013setZoomWindowEtttt	0000024c _ZN6OV264013setZoomWindowEtttt
00000000 g     F .text._ZN6OV264011setContrastEi	0000006c _ZN6OV264011setContrastEi
00000000 g     F .text._ZN6OV264013setBrightnessEi	00000050 _ZN6OV264013setBrightnessEi
00000000 g     F .text._ZN6OV264013setSaturationEi	0000006c _ZN6OV264013setSaturationEi
00000000 g     F .text._ZN6OV264014setGainceilingE13gainceiling_t	0000002a _ZN6OV264014setGainceilingE13gainceiling_t
00000000 g     F .text._ZN6OV264010setQualityEi	00000020 _ZN6OV264010setQualityEi
00000000 g     F .text._ZN6OV264010getQualityEv	00000018 _ZN6OV264010getQualityEv
00000000 g     F .text._ZN6OV264011setColorbarEi	00000034 _ZN6OV264011setColorbarEi
00000000 g     F .text._ZN6OV264012autoExposureEi	00000050 _ZN6OV264012autoExposureEi
00000000 g     F .text._ZN6OV26407setGainEi	00000030 _ZN6OV26407setGainEi
00000000 g     F .text._ZN6OV264011setAutoGainEiff	0000020c _ZN6OV264011setAutoGainEiff
00000000         *UND*	00000000 expf
00000000         *UND*	00000000 logf
00000000 g     F .text._ZN6OV264010getGain_dbEPf	00000074 _ZN6OV264010getGain_dbEPf
00000000         *UND*	00000000 log10f
00000000 g     F .text._ZN6OV264014getExposure_usEPi	00000100 _ZN6OV264014getExposure_usEPi
00000000 g     F .text._ZN6OV264015setAutoWhitebalEifff	0000003a _ZN6OV264015setAutoWhitebalEifff
00000000 g     F .text._ZN6OV264014getRGB_Gain_dbEPfS0_S0_	00000020 _ZN6OV264014getRGB_Gain_dbEPfS0_S0_
00000000 g     F .text._ZN6OV264010setHmirrorEi	00000034 _ZN6OV264010setHmirrorEi
00000000 g     F .text._ZN6OV26408setVflipEi	00000034 _ZN6OV26408setVflipEi
00000000 g     F .text._ZN6OV264016setSpecialEffectE5sde_t	0000004c _ZN6OV264016setSpecialEffectE5sde_t
00000000 g     F .text._ZN6OV26409setWBmodeEi	00000068 _ZN6OV26409setWBmodeEi
00000000 g     F .text._ZN6OV264013showRegistersEv	00000188 _ZN6OV264013showRegistersEv
00000000 g     F .text._ZN6OV264015setAutoExposureEii	0000017c _ZN6OV264015setAutoExposureEii
00000000 g     F .text._ZN6OV264016begin_omnivisionE11framesize_t11pixformat_tiib	0000040c _ZN6OV264016begin_omnivisionE11framesize_t11pixformat_tiib
00000000         *UND*	00000000 digitalWrite
00000000         *UND*	00000000 _ZN7TwoWire5beginEv
00000000         *UND*	00000000 __aeabi_atexit
00000000         *UND*	00000000 .hidden __dso_handle
00000000 g     O .rodata._ZTV6OV2640	00000164 _ZTV6OV2640
00000000 g     O .bss.fstatOmni1	00000848 fstatOmni1
00000000 g     O .bss._ZN6OV264012_dmasettingsE	00000280 _ZN6OV264012_dmasettingsE
00000000 g     O .bss._ZN6OV264011_dmachannelE	00000008 _ZN6OV264011_dmachannelE
00000000         *UND*	00000000 _ZN11ImageSensor9call_backEP13FlexIOHandler
00000000         *UND*	00000000 _ZN11ImageSensor7setPinsEhhhhhhhhhhhhhhR7TwoWire
00000000         *UND*	00000000 _ZN11ImageSensor9readFrameEPvjS0_j
00000000         *UND*	00000000 _ZN11ImageSensor13readFrameGPIOEPvjS0_j
00000000         *UND*	00000000 _ZN11ImageSensor14readContinuousEPFbPvES0_jS0_j
00000000         *UND*	00000000 _ZN11ImageSensor18stopReadContinuousEv
00000000         *UND*	00000000 _ZN11ImageSensor15readFrameFlexIOEPvjS0_j
00000000         *UND*	00000000 _ZN11ImageSensor15startReadFlexIOEPFbPvES0_jS0_j
00000000         *UND*	00000000 _ZN11ImageSensor14stopReadFlexIOEv
00000000         *UND*	00000000 _ZN11ImageSensor12readFrameCSIEPvjS0_j
00000000         *UND*	00000000 _ZN11ImageSensor12startReadCSIEPFbPvES0_jS0_j
00000000         *UND*	00000000 _ZN11ImageSensor11stopReadCSIEv
00000000         *UND*	00000000 _ZN11ImageSensor23readFrameCSI_use_FlexIOEPvjS0_j
00000000         *UND*	00000000 _ZN11ImageSensor19setVSyncISRPriorityEh
00000000         *UND*	00000000 _ZN11ImageSensor25processDMAInterruptFlexIOEv
00000000         *UND*	00000000 _ZN11ImageSensor32processFrameStartInterruptFlexIOEv
00000000         *UND*	00000000 _ZN11ImageSensor18hardware_configureEv
00000000         *UND*	00000000 _ZN11ImageSensor16flexio_configureEv
00000000         *UND*	00000000 _ZN11ImageSensor13csi_configureEv
00000000         *UND*	00000000 _ZN11ImageSensor9beginXClkEv
00000000         *UND*	00000000 _ZN11ImageSensor7endXClkEv
00000000         *UND*	00000000 _ZN11ImageSensor19processCSIInterruptEv
00000000         *UND*	00000000 _ZN11ImageSensor13csi_reset_dmaEv


Contents of section .group:
 0000 01000000 2a000000                    ....*...        
Contents of section .group:
 0000 01000000 2b000000                    ....+...        
Contents of section .group:
 0000 01000000 2c000000                    ....,...        
Contents of section .group:
 0000 01000000 2d000000                    ....-...        
Contents of section .group:
 0000 01000000 2e000000                    ........        
Contents of section .group:
 0000 01000000 2f000000                    ..../...        
Contents of section .group:
 0000 01000000 30000000                    ....0...        
Contents of section .group:
 0000 01000000 31000000                    ....1...        
Contents of section .group:
 0000 01000000 32000000                    ....2...        
Contents of section .group:
 0000 01000000 33000000                    ....3...        
Contents of section .group:
 0000 01000000 34000000                    ....4...        
Contents of section .group:
 0000 01000000 35000000                    ....5...        
Contents of section .group:
 0000 01000000 36000000                    ....6...        
Contents of section .group:
 0000 01000000 37000000                    ....7...        
Contents of section .group:
 0000 01000000 38000000                    ....8...        
Contents of section .group:
 0000 01000000 39000000                    ....9...        
Contents of section .group:
 0000 01000000 3a000000                    ....:...        
Contents of section .group:
 0000 01000000 3b000000                    ....;...        
Contents of section .group:
 0000 01000000 3c000000                    ....<...        
Contents of section .group:
 0000 01000000 3d000000 3e000000           ....=...>...    
Contents of section .group:
 0000 01000000 3f000000                    ....?...        
Contents of section .group:
 0000 01000000 40000000                    ....@...        
Contents of section .group:
 0000 01000000 41000000                    ....A...        
Contents of section .group:
 0000 01000000 42000000                    ....B...        
Contents of section .group:
 0000 01000000 43000000                    ....C...        
Contents of section .group:
 0000 01000000 44000000                    ....D...        
Contents of section .group:
 0000 01000000 45000000                    ....E...        
Contents of section .group:
 0000 01000000 46000000                    ....F...        
Contents of section .group:
 0000 01000000 47000000                    ....G...        
Contents of section .group:
 0000 01000000 48000000                    ....H...        
Contents of section .group:
 0000 01000000 49000000                    ....I...        
Contents of section .group:
 0000 01000000 4a000000                    ....J...        
Contents of section .group:
 0000 01000000 4b000000                    ....K...        
Contents of section .group:
 0000 01000000 4c000000                    ....L...        
Contents of section .group:
 0000 01000000 4d000000                    ....M...        
Contents of section .group:
 0000 01000000 50000000 53000000 54000000  ....P...S...T...
Contents of section .group:
 0000 01000000 55000000 56000000           ....U...V...    
Contents of section .group:
 0000 01000000 5e000000 5f000000           ....^..._...    
Contents of section .text._ZN7TwoWire4readEv:
 0000 90f8a230 90f8a320 9a4205d9 5a1c0344  ...0... .B..Z..D
 0010 80f8a220 987e7047 4ff0ff30 704700bf  ... .~pGO..0pG..
Contents of section .text._ZN11ImageSensor5debugEb:
 0000 01727047                             .rpG            
Contents of section .text._ZN11ImageSensor5debugEv:
 0000 007a7047                             .zpG            
Contents of section .text._ZN11ImageSensor12getPixformatEv:
 0000 90f86400 704700bf                    ..d.pG..        
Contents of section .text._ZN11ImageSensor21readFrameReturnBufferEv:
 0000 d0f8b400 704700bf                    ....pG..        
Contents of section .text._ZN11ImageSensor18readImageSizeBytesEv:
 0000 d0f8b800 704700bf                    ....pG..        
Contents of section .text._ZN11ImageSensor6useDMAEb:
 0000 41727047                             ArpG            
Contents of section .text._ZN11ImageSensor6useDMAEv:
 0000 407a7047                             @zpG            
Contents of section .text._ZN11ImageSensor12data4BitModeEb:
 0000 81727047                             .rpG            
Contents of section .text._ZN11ImageSensor12data4BitModeEv:
 0000 807a7047                             .zpG            
Contents of section .text._ZN11ImageSensor16dataPinsReversedEv:
 0000 90f88e00 704700bf                    ....pG..        
Contents of section .text._ZN11ImageSensor5widthEv:
 0000 b0f95400 704700bf                    ..T.pG..        
Contents of section .text._ZN11ImageSensor6heightEv:
 0000 b0f95600 704700bf                    ..V.pG..        
Contents of section .text._ZN11ImageSensor10frameWidthEv:
 0000 b0f95800 704700bf                    ..X.pG..        
Contents of section .text._ZN11ImageSensor11frameHeightEv:
 0000 b0f95a00 704700bf                    ..Z.pG..        
Contents of section .text._ZN11ImageSensor26processFrameStartInterruptEv:
 0000 704700bf                             pG..            
Contents of section .text._ZN11ImageSensor16supports4BitModeEv:
 0000 00207047                             . pG            
Contents of section .text._ZN6OV264017changeFrameBufferEPhS0_:
 0000 036f8b42 04d0836f 8b4208bf 82677047  .o.B...o.B...gpG
 0010 02677047                             .gpG            
Contents of section .text._ZN6OV264010frameCountEv:
 0000 d0f8d400 704700bf                    ....pG..        
Contents of section .text._ZN6OV264025setDMACompleteISRPriorityEh:
 0000 034b044a 1b7903f0 0f039954 704700bf  .K.J.y.....TpG..
 0010 00000000 00e400e0                    ........        
Contents of section .text._ZN6OV264012readRegisterEh:
 0000 ff207047                             . pG            
Contents of section .text._ZN6OV264013writeRegisterEhh:
 0000 00207047                             . pG            
Contents of section .text._ZN6OV26406setHueEi:
 0000 704700bf                             pG..            
Contents of section .text._ZN6OV264011setExposureEi:
 0000 704700bf                             pG..            
Contents of section .text._ZN6OV26405beginE11framesize_tib:
 0000 00207047                             . pG            
Contents of section .text._ZN6OV26407setModeEhh:
 0000 00207047                             . pG            
Contents of section .text._ZN6OV264012setFramerateEi:
 0000 00207047                             . pG            
Contents of section .text._ZN6OV264014get_vt_pix_clkEPm:
 0000 00207047                             . pG            
Contents of section .text._ZN6OV264014getCameraClockEPm:
 0000 00207047                             . pG            
Contents of section .text._ZN6OV26409cmdUpdateEv:
 0000 00207047                             . pG            
Contents of section .text._ZN6OV264012loadSettingsE21camera_reg_settings_t:
 0000 00207047                             . pG            
Contents of section .text._ZN6OV26405getAEEP8ae_cfg_t:
 0000 00207047                             . pG            
Contents of section .text._ZN6OV26405calAEEhPhmP8ae_cfg_t:
 0000 00207047                             . pG            
Contents of section .text._ZN6OV26404modeEv:
 0000 00207047                             . pG            
Contents of section .text._ZN6OV26408autoGainEiff:
 0000 704700bf                             pG..            
Contents of section .text._ZN6OV264012dmaInterruptEv:
 0000 024b1868 0368d3f8 34311847 00000000  .K.h.h..41.G....
Contents of section .text._ZN6OV2640D2Ev:
 0000 704700bf                             pG..            
Contents of section .text._ZN6OV26403endEv:
 0000 036810b5 0446d3f8 48319847 002194f8  .h...F..H1.G.!..
 0010 2000fff7 feffa06e bde81040 fff7febf   ......n...@....
Contents of section .text._ZN6OV2640D0Ev:
 0000 10b50446 4ff48071 fff7feff 204610bd  ...FO..q.... F..
Contents of section .text._ZN10DMAChannelD2Ev:
 0000 10b50446 fff7feff 204610bd           ...F.... F..    
Contents of section .rodata._ZN6OV264017startReadFrameDMAEPFbPvEPhS3_.str1.4:
 0000 73746172 74526561 64467261 6d65444d  startReadFrameDM
 0010 41206361 6c6c6564 20627566 66657273  A called buffers
 0020 20257820 25780a00                     %x %x..        
Contents of section .text._ZN6OV264017startReadFrameDMAEPFbPvEPhS3_:
 0000 2de9f041 044682b0 0d46002a 00f0e880  -..A.F...F.*....
 0010 0267002b 00f0d280 a3677b4a 237ac4f8  .g.+.....g{J#z..
 0020 d0501460 002b40f0 c280784e 0021236f  .P.`.+@...xN.!#o
 0030 00253046 764fc4e9 3c33fff7 feff754a  .%0FvO..<3....uJ
 0040 4ff4a260 74491368 4ff0020c 126c1f60  O..`tI.hO....l.`
 0050 1961d883 d882998b 9a6121f0 800183f8  .a.......a!.....
 0060 07c083f8 06c00904 9d80dd60 090c9983  ...........`....
 0070 998b89b2 41f01001 9983998b 89b241f0  ....A.........A.
 0080 02019983 998b21f0 08010904 090c9983  ......!.........
 0090 04219982 99609182 91606049 176082f8  .!...`...``I.`..
 00a0 07c01161 82f806c0 d0839361 d0829580  ...a.......a....
 00b0 d560918b 21f08001 0904090c 9183918b  .`..!...........
 00c0 89b241f0 10019183 918b89b2 41ea0c01  ..A.........A...
 00d0 9183918b 21f00801 0904090c 9183504a  ....!.........PJ
 00e0 55601560 32689868 918b21f0 80010904  U`.`2h.h..!.....
 00f0 090cd3e9 00c79183 d968c2e9 00c7c2e9  .........h......
 0100 02013179 01264748 01f01f07 00eb5110  ..1y.&GH......Q.
 0110 06fa07f7 8000d3e9 048ed3e9 06c3c2e9  ................
 0120 048ec2e9 06c3dff8 20e10ffa 81fc3e4a  ........ .....>J
 0130 10313e4b 43f821e0 07600e20 42f82c50  .1>KC.!..`. B.,P
 0140 3b4be169 03eb0113 3a495b68 42f82c10  ;K.i....:I[hB.,.
 0150 02f58032 1968c4f8 e0102946 1e60136f  ...2.h....)F.`.o
 0160 43f44003 1367fff7 feff334b 15223046  C.@..g....3K."0F
 0170 a3f88420 a3f54413 9a6922f0 80629a61  ... ..D..i"..b.a
 0180 2e4ac2f8 44629a6e c4f8dc20 9a6e22f4  .J..Db.n... .n".
 0190 7f629a66 9a6ed4f8 a01022ea 01029a66  .b.f.n...."....f
 01a0 84f8bc60 c4e93555 02b0bde8 f081a36f  ...`..5U.......o
 01b0 226f2349 2348fff7 feff36e7 a36f002b  "o#I#H....6..o.+
 01c0 7ff42baf b4f85400 b4f85630 10fb03f0  ..+...T...V0....
 01d0 fff7feff a0670028 7ff41faf 0020e3e7  .....g.(..... ..
 01e0 026f002a 7ff415af b0f85400 b4f85620  .o.*......T...V 
 01f0 019310fb 02f0fff7 feff019b 20670028  ............ g.(
 0200 7ff407af eae700bf 00000000 00000000  ................
 0210 08c01b40 00000000 00000000 00000000  ...@............
 0220 00c01b40 40380038 00c00e40 00000000  ...@@8.8...@....
 0230 00000000 1e000080 00c03b40 00841f40  ..........;@...@
 0240 00000000 00000000 00000000           ............    
Contents of section .rodata._ZN6OV264022captureFrameStatisticsEv.str1.4:
 0000 2a2a2a20 4672616d 65204361 70747572  *** Frame Captur
 0010 65204461 74613a20 656c6170 73656420  e Data: elapsed 
 0020 4d696372 6f733a20 2575206c 6f6f7073  Micros: %u loops
 0030 3a202575 0a000000 20202056 53796e63  : %u....   VSync
 0040 204c6f6f 70732053 74617274 3a202575   Loops Start: %u
 0050 20656e64 3a202575 0a000000 20202068   end: %u....   h
 0060 72656620 636f756e 743a2025 75207063  ref count: %u pc
 0070 6c6b2021 20687265 6620636f 756e743a  lk ! href count:
 0080 2025750a 20202020 00000000 25337528   %u.    ....%3u(
 0090 25752920 00000000 0a202020 2000      %u) .....    .  
Contents of section .text._ZN6OV264022captureFrameStatisticsEv:
 0000 2de9f843 064640f6 48020021 6248fff7  -..C.F@.H..!bH..
 0010 feffd6e9 25211368 0b42fcd1 13681942  ....%!.h.B...h.B
 0020 40f0b780 01231068 5c1c1f46 0142a3b2  @....#.h\..F.B..
 0030 f9d0594d af80d6e9 27120b68 1342fcd0  ..YM....'..h.B..
 0040 d6e92923 17681f40 fcd1fff7 feffd6f8  ..)#.h.@........
 0050 94e08046 d6f89810 c5f8cc02 0ee0eb68  ...F...........h
 0060 d6f8a020 0133d6f8 a800eb60 42ea0004  ... .3.....`B...
 0070 d6f89c30 1b681c40 a7425bd1 def80040  ...0.h.@.B[....@
 0080 0c40ecd1 def80030 0b420ad1 eb880133  .@.....0.B.....3
 0090 9bb2def8 0020581c 1e460a42 83b2f8d0  ..... X..F.B....
 00a0 ee80fff7 feffa0eb 0802eb68 00263b49  ...........h.&;I
 00b0 3b4f3b48 2a60fff7 feffeb88 aa883949  ;O;H*`........9I
 00c0 3748fff7 feffb5f8 44382a89 38463649  7H......D8*.8F6I
 00d0 dff8d880 dff8d890 fff7feff 0ae0fff7  ................
 00e0 feff0134 05214846 fff7feff 2b89a6b2  ...4.!HF....+...
 00f0 b3421ad3 a2b24146 38463346 05eb820e  .B....AF8F3F....
 0100 0832f446 35f81220 002ee8d0 def8cce2  .2.F5.. ........
 0110 dcf8c832 aeeb0303 fff7feff 3307e0d0  ...2........3...
 0120 01342b89 a6b2b342 e4d21d48 bde8f843  .4+....B...H...C
 0130 fff7febf 224201d0 174215d0 044211d0  ...."B...B...B..
 0140 074206d1 2b890833 35f81320 013225f8  .B..+..35.. .2%.
 0150 1320d6f8 a0301f42 04d1b5f8 44380133  . ...0.B....D8.3
 0160 a5f84438 274689e7 b5f80890 09f10109  ..D8'F..........
 0170 1ffa89f9 a5f80890 05eb8909 fff7feff  ................
 0180 c9f8cc02 d6f8a800 0442d6e9 25e1e9d0  .........B..%...
 0190 d6e7014d 4fe700bf 00000000 00000000  ...MO...........
 01a0 00000000 38000000 5c000000 8c000000  ....8...\.......
 01b0 98000000                             ....            
Contents of section .rodata._ZN6OV264017readFrame4BitGPIOEPv.str1.4:
 0000 34204269 74206d6f 6465206e 6f742073  4 Bit mode not s
 0010 7570706f 72746564 202e2e2e 2e2e2021  upported ..... !
 0020 21212121 00                          !!!!.           
Contents of section .text._ZN6OV264017readFrame4BitGPIOEPv:
 0000 08b52421 0348fff7 feff0348 bde80840  ..$!.H.....H...@
 0010 fff7febf 00000000 00000000           ............    
Contents of section .rodata._ZN6OV264016stopReadFrameDMAEv.str1.4:
 0000 2a2a2a20 73746f70 52656164 4672616d  *** stopReadFram
 0010 65444d41 20444d41 20646964 206e6f74  eDMA DMA did not
 0020 20657869 7420636f 72726563 746c792e   exit correctly.
 0030 2e2e0000 20204279 74657320 4c656674  ....  Bytes Left
 0040 3a202575 20667261 6d652062 75666665  : %u frame buffe
 0050 723a2578 20526f77 3a257520 436f6c3a  r:%x Row:%u Col:
 0060 25750a00                             %u..            
Contents of section .text._ZN6OV264016stopReadFrameDMAEv:
 0000 70b50223 1e4d82b0 04462e68 80f8bc30  p..#.M...F.h...0
 0010 03e094f8 bc30022b 04d12b68 9b1bb3f5  .....0.+..+h....
 0020 7a7ff6d3 94f8bc30 032b14d0 32211548  z......0.+..2!.H
 0030 fff7feff 1448fff7 feffb4f8 ea20b4f8  .....H....... ..
 0040 ec301249 1048cde9 0032d4f8 f030d4f8  .0.I.H...2...0..
 0050 e420fff7 feffd4f8 dc200d4b e1699a66  . ....... .K.i.f
 0060 0c4bd4f8 e02003eb 01135b68 1a602868  .K... ....[h.`(h
 0070 801bb0f5 7a7f2cbf 00200120 02b070bd  ....z.,.. . ..p.
 0080 00000000 00000000 00000000 34000000  ............4...
 0090 00c00a40 00000000                    ...@....        
Contents of section .rodata._ZN6OV264019processDMAInterruptEv.str1.4:
 0000 4f563236 34303a3a 646d6149 6e746572  OV2640::dmaInter
 0010 72757074 2063616c 6c656420 7768656e  rupt called when
 0020 20444d41 5f535441 54455f53 544f5050   DMA_STATE_STOPP
 0030 454400                               ED.             
Contents of section .text._ZN6OV264019processDMAInterruptEv:
 0000 f8b57b4d 7b4b2a79 da77bff3 4f8f90f8  ..{M{K*y.w..O...
 0010 bc30032b 00f0df80 90f8f830 0446764e  .0.+.......0.FvN
 0020 0133dbb2 80f8f830 d80749d5 33687349  .3.....0..I.3hsI
 0030 d88a80b2 002800f0 d7800138 d4f8e430  .....(.....8...0
 0040 b4f8ec20 4ff0000c 80b201eb 80000439  ... O..........9
 0050 28e0b4f9 56309a42 29da51f8 043fd4f8  (...V0.B).Q..?..
 0060 f020c3f3 0713571c c4f8f070 1370b4f8  . ....W....p.p..
 0070 ea30b4f9 54200133 9bb29342 a4f8ea30  .0..T .3...B...0
 0080 b4f8ec20 05d10132 a4f8eac0 92b2a4f8  ... ...2........
 0090 ec20d4f8 e4308842 03f1ff33 c4f8e430  . ...0.B...3...0
 00a0 00f08980 1746002b d3d1b4f9 56309f42  .....F.+....V0.B
 00b0 0bd0d4f8 e43043b1 b3f5226f 7fd0f8bd  .....0C..."o....
 00c0 336c4f49 d88a80b2 b4e72a79 494b9a76  3lOI......*yIK.v
 00d0 0022d4f8 d430d4f8 f4000133 a4f8ec20  ."...0.....3... 
 00e0 c4f8d800 c4f8d430 d4f8d030 002b55d0  .......0...0.+U.
 00f0 98470028 52d194f8 bc20d4f8 f430022a  .G.(R.... ...0.*
 0100 c4f8f030 53d0b4f8 ee30b4f9 54201a44  ...0S....0..T .D
 0110 b4f95630 03fb02f2 0023c4f8 e4204ff6  ..V0.....#... O.
 0120 ff7284f8 f830a4f8 ec303368 c4f8e820  .r...0...03h... 
 0130 da8b1104 03d44ff4 a262da83 da829a8b  ......O..b......
 0140 306c22f0 08021204 120c9a83 c28b1204  0l".............
 0150 03d44ff4 a262c283 c282818b 2a6821f0  ..O..b......*h!.
 0160 08011e68 0904090c 8183918b 21f08001  ...h........!...
 0170 0904090c d3e90140 9183d968 c2e90064  .......@...h...d
 0180 c2e90201 2979d3e9 0640d3e9 0465194b  ....)y...@...e.K
 0190 c2e90465 c2e90640 d976f8bd 94f8bc20  ...e...@.v..... 
 01a0 a36f022a c4f8f430 c4f8f030 abd10323  .o.*...0...0...#
 01b0 84f8bc30 f8bd1746 b4f95630 77e794f8  ...0...F..V0w...
 01c0 f830db07 4cbf3268 326c938b 9bb243f0  .0..L.2h2l....C.
 01d0 08039383 f8bd3221 0a48fff7 feff0a48  ......2!.H.....H
 01e0 bde8f840 fff7febf b4f8ec70 5de700bf  ...@.......p]...
 01f0 00000000 00800e40 00000000 00000000  .......@........
 0200 00000000 00000000 00000000           ............    
Contents of section .text._ZN6OV2640C2Ev:
 0000 40f20113 11222821 84462de9 f04f8360  @...."(!.F-..O.`
 0010 4ff4fa63 00244ff0 ff360361 1023ff27  O..c.$O..6.a.#.'
 0020 234d8481 00f1340e 06634ff0 0c0adff8  #M....4..cO.....
 0030 88b04ff0 02084ff0 0309c0e9 05232923  ..O...O......#)#
 0040 c0e90713 0e23c0e9 0a674362 0fcdaee8  .....#...gCb....
 0050 0f0095e8 0f008ee8 0f00164b 6046ccf8  ...........K`F..
 0060 68b08cf8 6040ccf8 64408cf8 6c40cce9  h...`@..d@..l@..
 0070 1c448cf8 bc408cf8 8860acf8 8c70ccf8  .D...@...`...p..
 0080 90a08cf8 8e40ccf8 ac40ccf8 0030ccf8  .....@...@...0..
 0090 d040acf8 ee40ccf8 f040ccf8 fc40cce9  .@...@...@...@..
 00a0 1e44cce9 3084cce9 3294bde8 f08f00bf  .D..0...2.......
 00b0 00000000 08000000 00000000           ............    
Contents of section .rodata._ZN6OV264018cameraReadRegisterEh.str1.4:
 0000 6572726f 72207265 6164696e 67204f56  error reading OV
 0010 32363430 2c206164 64726573 73000000  2640, address...
 0020 6572726f 72207265 6164696e 67204f56  error reading OV
 0030 32363430 2c206461 746100             2640, data.     
Contents of section .text._ZN6OV264018cameraReadRegisterEh:
 0000 38b5826e 01256023 044682f8 305182f8  8..n.%`#.F..0Q..
 0010 a53082f8 2f51806e 03681b68 98470021  .0../Q.n.h.h.G.!
 0020 a06efff7 feffd0b9 2b462a46 3021a06e  .n......+F*F0!.n
 0030 fff7feff 054600b3 a06e154a 03685b69  .....F...n.J.h[i
 0040 934216d1 90f8a230 90f8a320 9a421dd9  .B.....0... .B..
 0050 5a1c0344 80f8a220 9d7e2846 38bd1d21  Z..D... .~(F8..!
 0060 00250c48 fff7feff 0b48fff7 feff2846  .%.H.....H....(F
 0070 38bd9847 c5b22846 38bd1a21 0748fff7  8..G..(F8..!.H..
 0080 feff0548 fff7feff 284638bd ff25e4e7  ...H....(F8..%..
 0090 00000000 00000000 00000000 20000000  ............ ...
Contents of section .rodata._ZN6OV264010getModelidEv.str1.4:
 0000 6765744d 6f64656c 49443a20 72657475  getModelID: retu
 0010 726e3a20 25780a00                    rn: %x..        
Contents of section .text._ZN6OV264010getModelidEv:
 0000 38b50a21 0546fff7 feff0446 0b212846  8..!.F.....F.!(F
 0010 2402fff7 feff2b7a a4b20443 a4b20bb9  $.....+z...C....
 0020 204638bd 22460349 0348fff7 feff2046   F8."F.I.H.... F
 0030 38bd00bf 00000000 00000000           8...........    
Contents of section .rodata._ZN6OV264018readFrameGPIO_JPEGEPvjS0_j.str1.4:
 0000 24247265 61644672 616d6547 50494f28  $$readFrameGPIO(
 0010 25702c20 25752c20 25702c20 2575290a  %p, %u, %p, %u).
 0020 00000000 5761726e 696e6720 42756666  ....Warning Buff
 0030 65727320 6d617920 62652074 6f6f2073  ers may be too s
 0040 6d616c6c 20257520 3c202575 0a000000  mall %u < %u....
 0050 09242420 326e6420 62756666 65723a20  .$$ 2nd buffer: 
 0060 25752025 750a0000 4572726f 72206661  %u %u...Error fa
 0070 696c6564 20627566 66657273 20746f6f  iled buffers too
 0080 20736d61 6c6c0a00                     small..        
Contents of section .text._ZN6OV264018readFrameGPIO_JPEGEPvjS0_j:
 0000 2de9f04f 87b09a46 04461746 109b8946  -..O...F.F.F...F
 0010 cde900a3 b0f85630 b0f85450 1e460393  ......V0..TP.F..
 0020 5a481346 0a465a49 fff7feff 06fb05f3  ZH.F.FZI........
 0030 e16d584a 01fb03f3 82fb0302 db17c3eb  .mXJ............
 0040 6203109a ba180593 9a4203d2 237a002b  b........B..#z.+
 0050 40f08f80 b4f95430 01fb03f3 0493fff7  @.....T0........
 0060 feffd4e9 25120b68 1342fcd0 fff7feff  ....%..h.B......
 0070 0646d4e9 25120d68 1540fcd1 fff7feff  .F..%..h.@......
 0080 b042eed0 039b002b 52d0bc46 2e46d646  .B.....+R..F.F.F
 0090 109f0295 d4e92712 0b681342 fcd0d4e9  ......'..h.B....
 00a0 29120b68 13ea020a fbd172b6 049b002b  )..h......r....+
 00b0 4cddb046 03eb050b d4e92902 03681342  L..F......)..h.B
 00c0 fcd0354b 1af0010f 9e684fea 1616f6b2  ..5K.....hO.....
 00d0 02d094f8 bd3033b9 bcf1010c 89f80060  .....03........`
 00e0 16d009f1 0109b8f1 ff0f1cd0 0135d4e9  .............5..
 00f0 290204e0 d4e92713 09681942 02d00368  ).....'..h.B...h
 0100 1342f7d1 ab450af1 010a1fd0 b046d5e7  .B...E.......F..
 0110 237abef1 000f26d0 f1466bb9 b8f1ff0f  #z....&..Fk.....
 0120 9e46bc46 e2d1d92e e0d162b6 6b1c0593  .F.F......b.k...
 0130 059807b0 bde8f08f 5346029a 17491348  ........SF...I.H
 0140 fff7feff bc464ff0 000ecce7 d4e92712  .....FO.......'.
 0150 0b681342 fcd162b6 029b039a 01339a42  .h.B..b......3.B
 0160 029397d1 e4e75bb9 62b60598 07b0bde8  ......[.b.......
 0170 f08f0b49 059b0548 fff7feff e16d69e7  ...I...H.....mi.
 0180 08490248 fff7feff eee700bf 00000000  .I.H............
 0190 00000000 67666666 00400042 50000000  ....gfff.@.BP...
 01a0 24000000 68000000                    $...h...        
Contents of section .rodata._Z30Debug_printCameraWriteRegisterhh.str1.4:
 0000 63616d65 72615772 69746552 65676973  cameraWriteRegis
 0010 74657228 25782c20 25782900 202d2025  ter(%x, %x). - %
 0020 730a00                               s..             
Contents of section .text._Z30Debug_printCameraWriteRegisterhh:
 0000 70b50446 0d462848 2b462849 2246fff7  p..F.F(H+F(I"F..
 0010 feffff2c 264b2bd0 1a78b2b9 254d1346  ...,&K+..x..%M.F
 0020 44202946 05e08442 36d0632b 08d00a79  D )F...B6.c+...y
 0030 c8889c46 08310133 002af4d0 84422bd0  ...F.1.3.*...B+.
 0040 1948bde8 7040fff7 febf1b4e 3388abb9  .H..p@.....N3...
 0050 19461a46 174d04e0 632905eb c10213d0  .F.F.M..c)......
 0060 127988b2 0131002a f6d00346 30800be0  .y...1.*...F0...
 0070 1d700d48 bde87040 fff7febf 622bdfd8  .p.H..p@....b+..
 0080 0c4d01e0 632bdbd0 05ebc302 591c9c46  .M..c+......Y..F
 0090 d2888bb2 9442f5d1 55f83c20 07490248  .....B..U.< .I.H
 00a0 bde87040 fff7febf 00000000 00000000  ..p@............
 00b0 00000000 00000000 00000000 1c000000  ................
Contents of section .rodata._ZN6OV264019cameraWriteRegisterEhh.str1.4:
 0000 6572726f 72207772 6974696e 6720746f  error writing to
 0010 204f5632 36343000                     OV2640.        
Contents of section .text._ZN6OV264019cameraWriteRegisterEhh:
 0000 037a70b5 04460e46 1546cbb9 a36e6022  .zp..F.F.F...n`"
 0010 31460126 83f8a520 83f83061 83f82f61  1F.&... ..0a../a
 0020 a06e0368 1b689847 a06e2946 03681b68  .n.h.h.G.n)F.h.h
 0030 98473146 a06efff7 feff30b9 002070bd  .G1F.n....0.. p.
 0040 11463046 fff7feff e0e71721 0348fff7  .F0F.......!.H..
 0050 feff0348 fff7feff 002070bd 00000000  ...H..... p.....
 0060 00000000                             ....            
Contents of section .text._ZN6OV26405resetEv:
 0000 70b50022 094dff21 064601e0 41b16a78  p..".M.!.F..A.jx
 0010 3046fff7 feff15f8 021f0446 0028f5d0  0F.........F.(..
 0020 0a20fff7 feff2046 70bd00bf 00000000  . .... Fp.......
Contents of section .text._ZN6OV264012setPixformatE11pixformat_t:
 0000 033938b5 04460529 4cd8dfe8 01f0034b  .98..F.)L......K
 0010 39270315 0323244d 0022ff21 436601e0  9'...#$M.".!Cf..
 0020 40b96a78 2046fff7 feff15f8 021f0346  @.jx F.........F
 0030 0029f5d1 184638bd 08231c4d 0022ff21  .)...F8..#.M.".!
 0040 436602e0 0028f5d1 6a782046 fff7feff  Cf...(..jx F....
 0050 15f8021f 03460029 f4d1ebe7 0523144d  .....F.).....#.M
 0060 0022ff21 436602e0 0028e3d1 6a782046  .".!Cf...(..jx F
 0070 fff7feff 15f8021f 03460029 f4d1d9e7  .........F.)....
 0080 05230c4d 0022ff21 436602e0 0028d1d1  .#.M.".!Cf...(..
 0090 6a782046 fff7feff 15f8021f 03460029  jx F.........F.)
 00a0 f4d1c7e7 0023c5e7 00000000 00000000  .....#..........
 00b0 00000000 00000000                    ........        
Contents of section .rodata._ZN6OV264012setFramesizeEii.part.0.str1.4:
 0000 55584741 20576964 74683a20 25642c20  UXGA Width: %d, 
 0010 48656967 68743a20 25640a00 57696474  Height: %d..Widt
 0020 683a2025 642c2048 65696768 743a2025  h: %d, Height: %
 0030 640a0000 77696474 682f6865 69676874  d...width/height
 0040 206d7573 74206265 20646976 69736962   must be divisib
 0050 6c652062 79203400 53656e73 6f722077  le by 4.Sensor w
 0060 2c683a20 2564202d 2025640a 00000000  ,h: %d - %d.....
 0070 73656e73 6f725f77 202f2077 3a202564  sensor_w / w: %d
 0080 2c207365 6e736f72 5f68202f 20683a20  , sensor_h / h: 
 0090 25640a00 74656d70 5f646976 3a202564  %d..temp_div: %d
 00a0 2c206c6f 675f6469 763a2025 642c2064  , log_div: %d, d
 00b0 69763a20 25640a00 775f6d75 6c3a2025  iv: %d..w_mul: %
 00c0 642c2068 5f6d756c 3a202564 0a000000  d, h_mul: %d....
 00d0 785f6f66 663a2025 642c2079 5f6f6666  x_off: %d, y_off
 00e0 3a202564 0a000000 53657420 504c4c3a  : %d....Set PLL:
 00f0 20636c6b 5f32783a 2025752c 20636c6b   clk_2x: %u, clk
 0100 5f646976 3a202575 2c207063 6c6b5f61  _div: %u, pclk_a
 0110 75746f3a 2025752c 2070636c 6b5f6469  uto: %u, pclk_di
 0120 763a2025 750a0000 632e636c 6b207661  v: %u...c.clk va
 0130 6c75653a 2025750a 00000000 632e7063  lue: %u.....c.pc
 0140 6c6b2076 616c7565 3a202575 0a00      lk value: %u..  
Contents of section .text._ZN6OV264012setFramesizeEii.part.0:
 0000 037a2de9 f04f0446 8fb00e46 154653bb  .z-..O.F...F.FS.
 0010 41ea0203 9b0703d0 00200fb0 bde8f08f  A........ ......
 0020 b1f5c86f f8dcb2f5 966ff5dc b6f5487f  ...o.....o....H.
 0030 3ddcb5f5 167f3adc dff87083 0122ff21  =.....:...p..".!
 0040 02e041b1 98f80120 2046fff7 feff18f8  ..A....  F......
 0050 021f0028 f5d04ff4 16734ff4 48720790  ...(..O..sO.Hr..
 0060 19461046 3ae04ff4 96634ff4 c862c649  .F.F:.O..cO..b.I
 0070 c648fff7 feff2b46 3246c549 c348fff7  .H....+F2F.I.H..
 0080 feff46ea 05039a07 0ad0237a 002bc3d0  ..F.......#z.+..
 0090 2321c048 fff7feff bc48fff7 feffbbe7  #!.H.....H......
 00a0 b6f5c86f f1dcb5f5 966fbfdd ede7dff8  ...o.....o......
 00b0 00830122 ff2102e0 48b998f8 01202046  ...".!..H....  F
 00c0 fff7feff 18f8021f 07460029 f4d14ff4  .........F.)..O.
 00d0 96634ff4 c8620797 19461046 a4f85800  .cO..b...F.F..X.
 00e0 a4f85a10 a4f85460 a4f85650 92fbf6f1  ..Z...T`..VP....
 00f0 93fbf5f0 81420591 0890a8bf 01468a46  .....B.......F.F
 0100 c917baf1 000f0991 80f25481 08210320  ..........T..!. 
 0110 4ff09b0b 88460691 0a900b91 16fb08f9  O....F..........
 0120 15fb08f8 1ffa89f9 1ffa88f8 b2eb0901  ................
 0130 48bf0131 4810c1f3 4f010391 b3eb0801  H..1H...O.......
 0140 029048bf 0131207a 4f10c1f3 4f010491  ..H..1 zO...O...
 0150 002840f0 f6805a46 50212046 fff7feff  .(@...ZFP! F....
 0160 c9f38702 82465121 2046fff7 feffc8f3  .....FQ! F......
 0170 87025221 05902046 4fea9828 fff7feff  ..R!.. FO..(....
 0180 83469df8 08205321 2046fff7 feff4bea  .F... S! F....K.
 0190 000b079b fab25ffa 8bfb5421 20464bea  ......_...T! FK.
 01a0 030bfff7 feff039b 4fead912 40ea0b0b  ........O...@...
 01b0 02f00802 c3f30120 049b42ea c8121909  ....... ..B.....
 01c0 02432046 01f03001 0a435521 02f0bb02  .C F..0..CU!....
 01d0 fff7feff 40ea0b08 4fea1912 57212046  ....@...O...W! F
 01e0 02f08002 fff7feff c6f38702 40ea0808  ............@...
 01f0 5a212046 fff7feff c5f38702 2d0a40ea  Z! F........-.@.
 0200 08085b21 2046fff7 feff05f0 0405c6f3  ..[! F..........
 0210 812240ea 08085c21 20462a43 fff7feff  ."@...\! F*C....
 0220 40ea0805 069ad321 2046fff7 feff0022  @......! F....."
 0230 0543e021 2046fff7 feff059b 28434aea  .C.! F......(CJ.
 0240 030a636e 5ffa8afa 082b4aea 000a30d0  ..cn_....+J...0.
 0250 e37a9bb1 bdf83430 b6f5c87f 03f48043  .z....40.......C
 0260 43f4f163 adf83430 16dc9df8 35300822  C..c..40....50."
 0270 882662f3 05038df8 35302de0 bdf83420  .&b.....50-...4 
 0280 48f28873 b6f5c87f 02f48042 43ea0203  H..s.......BC...
 0290 adf83430 40f3af80 b6f5487f 00f3a880  ..40@.....H.....
 02a0 9df83430 0c2262f3 0603deb2 8df83430  ..40."b.......40
 02b0 12e0bdf8 3420b6f5 487f22f4 3f4222f0  ....4 ..H.".?B".
 02c0 8002adf8 342040f3 8b809df8 34201e46  ....4 @.....4 .F
 02d0 63f30602 8df83420 237a002b 40f09480  c.....4 #z.+@...
 02e0 9df83550 0122ff21 2046fff7 feff2a46  ..5P.".! F....*F
 02f0 40ea0a05 11212046 fff7feff 05430022  @....! F.....C."
 0300 ff212046 fff7feff 05433246 d3212046  .! F.....C2F.! F
 0310 fff7feff 002240ea 0506ff21 2046fff7  ....."@....! F..
 0320 feff0546 00220521 20463543 fff7feff  ...F.".! F5C....
 0330 04460a20 2c43fff7 feffe0b2 0fb0bde8  .F. ,C..........
 0340 f08f1549 1148fff7 feff089b 059a1349  ...I.H.........I
 0350 0e48fff7 feff0b9b 52461149 01930a9b  .H......RF.I....
 0360 0a480093 099bfff7 feff4346 4a460d49  .H........CFJF.I
 0370 0648fff7 feffbdf8 0820bbb2 0a490348  .H....... ...I.H
 0380 fff7feff e7e600bf 00000000 00000000  ................
 0390 1c000000 34000000 58000000 70000000  ....4...X...p...
 03a0 94000000 b8000000 d0000000 00000000  ................
 03b0 00000000 4ff6f071 1aea010f 7ff4a6ae  ....O..q........
 03c0 1af00c0f 3dd01af0 080f7ff4 9fae0421  ....=..........!
 03d0 02204ff0 920b8846 06910a90 0b919de6  . O....F........
 03e0 9df83430 0c2666f3 06038df8 343073e7  ..40.&f.....40s.
 03f0 9df83460 70e79df8 35300322 882662f3  ..4`p...50.".&b.
 0400 05038df8 353067e7 9df83430 9df83520  ....50g...40..5 
 0410 03f07f05 db091249 01950093 02f03f03  .......I......?.
 0420 1048d209 fff7feff 9df83550 0e492a46  .H........5P.I*F
 0430 0c48fff7 feff3246 0c490a48 fff7feff  .H....2F.I.H....
 0440 50e7caf3 40000121 814040ea c00b0a90  P...@..!.@@.....
 0450 1ffa81f8 0b91c9b2 4bf0800b 06915de6  ........K.....].
 0460 e8000000 00000000 28010000 3c010000  ........(...<...
Contents of section .text._ZN6OV264012setFramesizeEii:
 0000 11b10ab1 fff7febf 01207047           ......... pG    
Contents of section .text._ZN6OV264012setFramesizeE11framesize_t:
 0000 0a2916d8 0e4a0368 10b4dc6b 52f83130  .)...J.h...kR.10
 0010 02ebc102 0b495268 8c420cd1 2bb122b1  .....IRh.B..+.".
 0020 19465df8 044bfff7 febf0120 5df8044b  .F]..K..... ]..K
 0030 70470120 70471946 23465df8 044b1847  pG. pG.F#F]..K.G
 0040 00000000 00000000                    ........        
Contents of section .rodata._ZN6OV264013setZoomWindowEtttt.str1.4:
 0000 4f563236 34303a3a 7365745a 6f6f6d57  OV2640::setZoomW
 0010 696e646f 77282575 20257520 25752025  indow(%u %u %u %
 0020 75290a00 4672616d 6520772c 683a2025  u)..Frame w,h: %
 0030 64202d20 25640a00 7a6f6f6d 20772c20  d - %d..zoom w, 
 0040 683a2025 75202575 0a000000 785f6f66  h: %u %u....x_of
 0050 663a2025 75282575 292c2079 5f6f6666  f: %u(%u), y_off
 0060 3a202575 28257529 0a00               : %u(%u)..      
Contents of section .text._ZN6OV264013setZoomWindowEtttt:
 0000 2de9f04f 1d4685b0 037a0446 0e461746  -..O.F...z.F.F.F
 0010 bdf83880 002b5ed1 4ff6ff73 b4f958b0  ..8..+^.O..s..X.
 0020 9d424ff6 ff7308bf b4f85450 984508bf  .BO..s....TP.E..
 0030 b4f85680 5d454adc b4f95a30 984546dc  ..V.]EJ...Z0.EF.
 0040 4ff6ff72 964205d1 bbeb0506 48bf0136  O..r.B......H..6
 0050 c6f34f06 4ff6ff72 974205d1 b3eb0807  ..O.O..r.B......
 0060 48bf0137 c7f34f07 aa199345 2fdb08eb  H..7..O....E/...
 0070 07029342 2bdb9bfb f5fb93fb f8f39b45  ...B+..........E
 0080 a8bf9b46 1bf47f4f 03d11bf0 f00f00f0  ...F...O........
 0090 a1804ff0 08094ff0 030bcdf8 08900022  ..O...O........"
 00a0 ff2115fb 09fa2046 fff7feff b4f95430  .!.... F......T0
 00b0 18fb09f9 1ffa8afa 9d421ffa 89f913d0  .........B......
 00c0 45ea0803 9b0768d0 237a002b 7ad10020  E.....h.#z.+z.. 
 00d0 05b0bde8 f08f1346 56480a46 5649cde9  .......FVH.FVI..
 00e0 0058fff7 feff97e7 b4f95630 9845e7d1  .X........V0.E..
 00f0 5ffa86fb 5321fbb2 20465a46 4fea9929  _...S!.. FZFO..)
 0100 0393fff7 feff039a 54212046 fff7feff  ........T! F....
 0110 c6f30123 3a095521 204602f0 30021a43  ...#:.U! F..0..C
 0120 4feada13 42eac912 03f00803 1a4302f0  O...B........C..
 0130 bb02fff7 feff5721 4fea1a12 204602f0  ......W!O... F..
 0140 8002fff7 feffc5f3 87025a21 2046fff7  ..........Z! F..
 0150 feffc8f3 87025b21 2046fff7 feffc5f3  ......[! F......
 0160 81224fea 18235c21 204603f0 04031a43  ."O..#\! F.....C
 0170 fff7feff 9df80820 d3212046 fff7feff  ....... .! F....
 0180 0022e021 2046fff7 feff237a 83bb0120  .".! F....#z... 
 0190 a4f85450 a4f85680 9ae74bea cb0b5021  ..TP..V...K...P!
 01a0 20464bf0 8002fff7 feffcaf3 87025121   FK...........Q!
 01b0 2046fff7 feffc9f3 87025221 2046fff7   F........R! F..
 01c0 feff95e7 23211d48 fff7feff 1948fff7  ....#!.H.....H..
 01d0 feff7ce7 1bf00c0f 22d01bf0 080f7ff4  ..|.....".......
 01e0 58af4ff0 04094ff0 020bcdf8 089056e7  X.O...O.......V.
 01f0 b4f95a30 b4f95820 11490e48 fff7feff  ..Z0..X .I.H....
 0200 43462a46 0f490b48 fff7feff 039b3246  CF*F.I.H......2F
 0210 0d490848 cde90073 5b46fff7 feffb6e7  .I.H...s[F......
 0220 cbf3400b 012303fa 0bf31ffa 83f90293  ..@..#..........
 0230 35e700bf 00000000 00000000 34000000  5...........4...
 0240 24000000 38000000 4c000000           $...8...L...    
Contents of section .rodata._ZN6OV264011setContrastEi.str1.4:
 0000 4552524f 523a2043 6f6e7472 61737420  ERROR: Contrast 
 0010 4c657665 6c732045 78636565 64656420  Levels Exceeded 
 0020 21212100                             !!!.            
Contents of section .text._ZN6OV264011setContrastEi:
 0000 f8b58b1c 0646042b 1dd8cc1c 0022ff21  .....F.+.....".!
 0010 134d3046 fff7feff 3046c4eb c4012c46  .M0F....0F....,F
 0020 0d44271d 7c2115f8 012bfff7 feffbc42  .D'.|!...+.....B
 0030 08d014f8 011f3046 15f8012b fff7feff  ......0F...+....
 0040 bc42f6d1 f8bd037a 0bb90524 dee72321  .B.....z...$..#!
 0050 0448fff7 feff0448 0524fff7 feffd5e7  .H.....H.$......
 0060 00000000 00000000 00000000           ............    
Contents of section .text._ZN6OV264013setBrightnessEi:
 0000 8b1c042b 2de9f041 1ad8cc1c 0f4eff21  ...+-..A.....N.!
 0010 00220746 fff7feff 04eb8401 34460546  .".F........4F.F
 0020 0e4404f1 04087c21 16f8012b 3846fff7  .D....|!...+8F..
 0030 feff4445 45ea0005 04d014f8 011ff3e7  ..DEE...........
 0040 4ff0ff35 2846bde8 f08100bf 00000000  O..5(F..........
Contents of section .rodata._ZN6OV264013setSaturationEi.str1.4:
 0000 4552524f 523a2053 61747572 6174696f  ERROR: Saturatio
 0010 6e206c65 76656c73 20657863 65656465  n levels exceede
 0020 64212100                             d!!.            
Contents of section .text._ZN6OV264013setSaturationEi:
 0000 f8b58b1c 0646042b 1dd8cc1c 0022ff21  .....F.+.....".!
 0010 134d3046 fff7feff 304604eb 84012c46  .M0F....0F....,F
 0020 0d44271d 7c2115f8 012bfff7 feffbc42  .D'.|!...+.....B
 0030 08d014f8 011f3046 15f8012b fff7feff  ......0F...+....
 0040 bc42f6d1 f8bd037a 0bb90524 dee72321  .B.....z...$..#!
 0050 0448fff7 feff0448 0524fff7 feffd5e7  .H.....H.$......
 0060 00000000 00000000 00000000           ............    
Contents of section .text._ZN6OV264014setGainceilingE13gainceiling_t:
 0000 38b50c46 0122ff21 0546fff7 feff0346  8..F.".!.F.....F
 0010 62011421 1c462846 42f00802 02f0e802  b..!.F(FB.......
 0020 fff7feff 2043c0b2 38bd00bf           .... C..8...    
Contents of section .text._ZN6OV264010setQualityEi:
 0000 70b50022 0e460546 ff21fff7 feff0446  p..".F.F.!.....F
 0010 f2b24421 2846fff7 feff2043 c0b270bd  ..D!(F.... C..p.
Contents of section .text._ZN6OV264010getQualityEv:
 0000 10b50446 ff210022 fff7feff 20464421  ...F.!.".... FD!
 0010 bde81040 fff7febf                    ...@....        
Contents of section .text._ZN6OV264011setColorbarEi:
 0000 70b50546 0e460122 ff21fff7 feff1221  p..F.F.".!.....!
 0010 04462846 fff7feff 4eb140f0 0202d2b2  .F(F....N.@.....
 0020 12212846 fff7feff 2043c0b2 70bd00f0  .!(F.... C..p...
 0030 fd02f5e7                             ....            
Contents of section .rodata._ZN6OV264012autoExposureEi.str1.4:
 0000 4552524f 523a2041 75746f20 6578706f  ERROR: Auto expo
 0010 73757265 206c6576 656c206f 7574206f  sure level out o
 0020 66207261 6e676521 212100             f range!!!.     
Contents of section .text._ZN6OV264012autoExposureEi:
 0000 38b58b1c 042b14d8 0e4b01eb 41010446  8....+...K..A..F
 0010 5d185a5c 2421fff7 feff6a78 25212046  ].Z\$!....jx%! F
 0020 fff7feff aa782046 2621bde8 3840fff7  .....x F&!..8@..
 0030 febf2a21 0448fff7 feff0448 bde83840  ..*!.H.....H..8@
 0040 fff7febf 00000000 00000000 00000000  ................
Contents of section .text._ZN6OV26407setGainEi:
 0000 38b50c46 0122ff21 0546fff7 feff1e2c  8..F.".!.F.....,
 0010 2346064a a8bf1e23 28460021 23eae373  #F.J...#(F.!#..s
 0020 d25cbde8 3840fff7 febf00bf 00000000  .\..8@..........
Contents of section .text._ZN6OV264011setAutoGainEiff:
 0000 70b50546 01220e46 ff212ded 028bb0ee  p..F.".F.!-.....
 0010 408af0ee 608afff7 feff1321 04462846  @...`......!.F(F
 0020 fff7feff 20f00402 52b2d6b1 42f00402  .... ...R...B...
 0030 13212846 d2b2fff7 fefff4ee 688a2043  .!(F........h. C
 0040 f1ee10fa c4b22046 08d6f0ee e87a9fed  ...... F.....z..
 0050 6a7af4ee 477af1ee 10fa73dd bdec028b  jz..Gz....s.....
 0060 70bd02f0 fb021321 2846fff7 feffb4ee  p......!(F......
 0070 488a2043 f1ee10fa c4b22046 eed6f0ee  H. C...... F....
 0080 c87a9fed 5d7af4ee 477af1ee 10fae5dc  .z..]z..Gz......
 0090 b3ee047a dfed597a 88ee070a 20ee270a  ...z..Yz.... .'.
 00a0 fff7feff dfed567a b0ee408a b4eee70a  ......Vz..@.....
 00b0 f1ee10fa 40f18780 f7ee007a b4eee70a  ....@......z....
 00c0 f1ee10fa 80f28180 b0ee678a b0ee670a  ..........g...g.
 00d0 fff7feff b7eec00a dfed4a6a 9fed445b  ..........Jj..D[
 00e0 80ee057b b7eec77b 37ee267a fdeec77a  ...{...{7.&z...z
 00f0 17ee903a 0f22b7ee 006ac3f1 0401f3ee  ...:."...j......
 0100 006a0a41 01219940 07ee901a b8eee77a  .j.A.!.@.......z
 0110 c8ee077a 77eec67a 67eea67a fdee677a  ...zw..zg..z..gz
 0120 17ee903a 12010021 28460f2b d4bf1a43  ...:...!(F.+...C
 0130 42f00f02 d2b2fff7 feff2043 bdec028b  B......... C....
 0140 c0b270bd b3ee047a dfed2c7a 88ee870a  ..p....z..,z....
 0150 20ee270a fff7feff dfed2b7a b4eee70a   .'.......+z....
 0160 f1ee10fa 3ed5f0ee 007ab4ee e70af1ee  ....>....z......
 0170 10fa20fe 278a1421 2846fff7 feffb0ee  .. .'..!(F......
 0180 480a0646 fff7feff b7eec00a dfed1d6a  H..F...........j
 0190 9fed175b 80ee057b b7eec77b 37ee267a  ...[...{...{7.&z
 01a0 bdeec77a 17ee103a 06f01f02 14212846  ...z...:.....!(F
 01b0 013b42ea 4312d2b2 fff7feff 2043bdec  .;B.C....... C..
 01c0 028bc0b2 70bdb0ee 678ab6ee 000af7ee  ....p...g.......
 01d0 007a28ee 000ab4ee e70af1ee 10fa20fe  .z(........... .
 01e0 270a75e7 b0ee678a c5e700bf aff30080  '.u...g.........
 01f0 ef39fafe 422ee63f ffff7f7f 8e5d1340  .9..B..?.....].@
 0200 00000042 72f97f3f 00000043           ...Br..?...C    
Contents of section .text._ZN6OV264010getGain_dbEPf:
 0000 70b50646 0c460122 ff21fff7 feff0021  p..F.F.".!.....!
 0010 05463046 fff7feff 0346c0f3 c711c0f3  .F0F.....F......
 0020 801200f0 0f00b7ee 000a0a44 c3f34011  ...........D..@.
 0030 07ee900a c3f30013 0a444ff0 010cf8ee  .........DO.....
 0040 e77a9fed 0b7a1344 0cfa03fc a7ee870a  .z...z.D........
 0050 07ee90ca f8eee77a 27ee800a fff7feff  .......z'.......
 0060 f3ee047a 284620ee 270a84ed 000a70bd  ...z(F .'.....p.
 0070 0000803d                             ...=            
Contents of section .text._ZN6OV264014getExposure_usEPi:
 0000 2de9f04f 064683b0 01220d46 ff21fff7  -..O.F...".F.!..
 0010 feff1321 80463046 fff7feff 04213046  ...!.F0F.....!0F
 0020 fff7feff 10210446 3046fff7 feff4521  .....!.F0F....E!
 0030 83463046 fff7feff 12218246 3046fff7  .F0F.....!.F0F..
 0040 feff10f0 700004d0 40284fd1 40f2a643  ....p...@(O.@..C
 0050 01e040f2 82731121 30460193 fff7feff  ..@..s.!0F......
 0060 10f0820f 00f03f00 4ff00002 4ff0ff01  ......?.O...O...
 0070 00f10207 304614bf 4ff00609 4ff00309  ....0F..O...O...
 0080 fff7feff da2148ea 00083046 fff7feff  .....!H...0F....
 0090 10f00c00 5ffa88f8 019b25d0 a0f10401  ...._.....%.....
 00a0 b1fa81f1 490904f0 0302d6f8 90604046  ....I........`@F
 00b0 02eb8b02 02eb8a22 92b203fb 02f20e4b  .......".......K
 00c0 06fb03f3 01fb02f2 0c4993fb f7f309fb  .........I......
 00d0 03f381fb 0341db17 c3eba143 92fbf3f2  .....A.....C....
 00e0 2a6003b0 bde8f08f 0221dce7 202840f2  *`.......!.. (@.
 00f0 532318bf 0023aee7 40420f00 83de1b43  S#...#..@B.....C
Contents of section .text._ZN6OV264015setAutoWhitebalEifff:
 0000 70b50646 00220d46 ff21fff7 feffc321  p..F.".F.!.....!
 0010 04463046 fff7feff 003d0246 4ff0c301  .F0F.....=.FO...
 0020 18bf0125 304622f0 080242ea c502d2b2  ...%0F"...B.....
 0030 fff7feff 2043c0b2 70bd00bf           .... C..p...    
Contents of section .text._ZN6OV264014getRGB_Gain_dbEPfS0_S0_:
 0000 70b51546 0e460022 ff211c46 fff7feff  p..F.F.".!.F....
 0010 024b3360 2b602360 70bd00bf 0000c07f  .K3`+`#`p.......
Contents of section .text._ZN6OV264010setHmirrorEi:
 0000 70b50546 0e460122 ff21fff7 feff0421  p..F.F.".!.....!
 0010 04462846 fff7feff 4eb960f0 7f02d2b2  .F(F....N.`.....
 0020 04212846 fff7feff 2043c0b2 70bd00f0  .!(F.... C..p...
 0030 7f02f5e7                             ....            
Contents of section .text._ZN6OV26408setVflipEi:
 0000 70b50546 0e460122 ff21fff7 feff0421  p..F.F.".!.....!
 0010 04462846 fff7feff 4eb940f0 5002d2b2  .F(F....N.@.P...
 0020 04212846 fff7feff 2043c0b2 70bd00f0  .!(F.... C..p...
 0030 af02f5e7                             ....            
Contents of section .text._ZN6OV264016setSpecialEffectE5sde_t:
 0000 06292de9 f04103d9 01242046 bde8f081  .)-..A...$ F....
 0010 0d460d4e ff210022 01350746 fff7feff  .F.N.!.".5.F....
 0020 044605eb 85013546 0e4405f1 04087c21  .F....5F.D....|!
 0030 16f8012b 3846fff7 feff4545 44ea0004  ...+8F....EED...
 0040 e3d015f8 011ff3e7 00000000           ............    
Contents of section .text._ZN6OV26409setWBmodeEi:
 0000 04292de9 f0410646 1ed80022 0d46ff21  .)-..A.F...".F.!
 0010 fff7feff 04464022 c7213046 fff7feff  .....F@".!0F....
 0020 0443e4b2 d5b10f4f 05eb4505 cc2107f1  .C.....O..E..!..
 0030 02087a5d 3046fff7 feff4745 44ea0004  ..z]0F....GED...
 0040 0cd017f8 011ff4e7 0022ff21 fff7feff  .........".!....
 0050 0022c721 30460124 fff7feff 2046bde8  .".!0F.$.... F..
 0060 f08100bf 00000000                    ........        
Contents of section .rodata._ZN6OV264013showRegistersEv.str1.4:
 0000 0a2a2a2a 2043616d 65726120 52656769  .*** Camera Regi
 0010 73746572 73202a2a 2a000000 28256429  sters ***...(%d)
 0020 20257328 2578293a 20257528 2578290a   %s(%x): %u(%x).
 0030 00000000 57696e64 6f772048 6f723a20  ....Window Hor: 
 0040 28257520 2d202575 29203d20 2575202a  (%u - %u) = %u *
 0050 2032203d 20257520 56657274 3a202825   2 = %u Vert: (%
 0060 75202d20 25752920 3d202575 202a2032  u - %u) = %u * 2
 0070 203d2025 750a0000 64657669 63650953   = %u...device.S
 0080 697a6520 483a2025 75202a20 34203d20  ize H: %u * 4 = 
 0090 25752056 3a202575 202a2034 203d2025  %u V: %u * 4 = %
 00a0 750a0000 09206f66 66736574 20483a20  u.... offset H: 
 00b0 25752056 3a202575 200a00             %u V: %u ..     
Contents of section .text._ZN6OV264013showRegistersEv:
 0000 2de9f04f 594c89b0 19210746 584804f5  -..OYL...!.FXH..
 0010 467afff7 feff0025 56484ff0 010bdff8  Fz.....%VHO.....
 0020 6491fff7 feffdff8 4c810022 ff213846  d.......L..".!8F
 0030 fff7feff e6883846 f1b2fff7 feff2a46  ......8F......*F
 0040 054654f8 083b4946 40460096 cde90155  .FT..;IF@F.....U
 0050 fff7feff 54450dd0 2579002d ead0bbf1  ....TE..%y.-....
 0060 000fe7d0 0122ff21 38464ff0 000bfff7  .....".!8FO.....
 0070 feffdfe7 32213846 fff7feff 04460321  ....2!8F.....F.!
 0080 384604f0 0708fff7 feff1721 06463846  8F.........!.F8F
 0090 c4f3c204 fff7feff 182148ea c0000ffa  .........!H.....
 00a0 80f83846 fff7feff 192144ea c00004b2  ..8F.....!D.....
 00b0 3846fff7 feff06f0 0303c6f3 81061a21  8F.............!
 00c0 43ea8003 38461db2 fff7feff 234646ea  C...8F......#FF.
 00d0 8006a4eb 08040295 424636b2 00946000  ........BF6...`.
 00e0 2549751b 01902348 cde90365 6d000595  %Iu...#H...em...
 00f0 fff7feff 0022ff21 3846fff7 feff5521  .....".!8F....U!
 0100 3846fff7 feff5121 04463846 fff7feff  8F....Q!.F8F....
 0110 52210546 3846fff7 feff0090 01b22a46  R!.F8F........*F
 0120 2bb21448 89009b00 01911449 fff7feff  +..H.......I....
 0130 53213846 fff7feff 03462202 54213846  S!8F.....F".T!8F
 0140 02f4e062 1a4312b2 0792fff7 feff2301  ...b.C........#.
 0150 0546079a 03f4e063 09490648 2b431bb2  .F.....c.I.H+C..
 0160 09b0bde8 f04ffff7 febf00bf 00000000  .....O..........
 0170 00000000 00000000 34000000 78000000  ........4...x...
 0180 a4000000 1c000000                    ........        
Contents of section .text._ZN6OV264015setAutoExposureEii:
 0000 2de9f843 05460e46 1746ff21 0122fff7  -..C.F.F.F.!."..
 0010 feff1321 04462846 fff7feff 20f00102  ...!.F(F.... ...
 0020 13212846 002e18bf 42f00102 d2b2fff7  .!(F....B.......
 0030 feff0443 e4b20eb9 002f02da 2046bde8  ...C...../.. F..
 0040 f8831221 2846fff7 feff10f0 70007ed0  ...!(F......p.~.
 0050 402840f0 8a8040f2 a6461121 2846fff7  @(@...@..F.!(F..
 0060 feff10f0 820f00f0 3f004ff0 00024ff0  ........?.O...O.
 0070 ff0118bf 4ff00608 00f10209 284608bf  ....O.......(F..
 0080 4ff00308 fff7feff da210443 2846fff7  O........!.C(F..
 0090 feff10f0 0c00e4b2 65d0a0f1 0400b0fa  ........e.......
 00a0 80f04009 344ad5f8 903002fb 03f302f1  ..@.4J...0......
 00b0 864293fb f9f302f5 492208fb 03f302f6  .B......I"......
 00c0 434282fb 0312db17 c3eba243 07fb03f2  CB.........C....
 00d0 4ff6fe73 92fbf0f2 92fbf6f2 9a4239dc  O..s.........B9.
 00e0 002a39da 00263746 b0460122 ff212846  .*9..&7F.F.".!(F
 00f0 fff7feff 04210443 2846fff7 feff00f0  .....!.C(F......
 0100 fc00e4b2 042140ea 08022846 fff7feff  .....!@...(F....
 0110 20431021 c4b22846 fff7feff 3a461021   C.!..(F....:F.!
 0120 2846fff7 feff2043 4521c4b2 2846fff7  (F.... CE!..(F..
 0130 feff0346 45212846 23f03f03 46ea0302  ...FE!(F#.?.F...
 0140 d2b2fff7 feff2043 c0b2bde8 f88340f2  ...... C......@.
 0150 827682e7 4ff6ff72 02f00308 c2f38707  .v..O..r........
 0160 42f38726 c1e70220 9ce72028 40f25326  B..&... .. (@.S&
 0170 18bf0026 71e700bf 40420f00           ...&q...@B..    
Contents of section .rodata._ZN6OV264016begin_omnivisionE11framesize_t11pixformat_tiib.str1.4:
 0000 4672616d 65205369 7a652049 6e76616c  Frame Size Inval
 0010 69642121 21000000 43616d65 72612064  id!!!...Camera d
 0020 65746563 74206661 696c6564 00000000  etect failed....
 0030 4572726f 723a2073 65745069 78666f72  Error: setPixfor
 0040 6d617420 6661696c 65640000 4572726f  mat failed..Erro
 0050 723a2073 65744672 616d6573 697a6520  r: setFramesize 
 0060 6661696c 656400                      failed.         
Contents of section .text._ZN6OV264016begin_omnivisionE11framesize_t11pixformat_tiib:
 0000 2de9f041 044682b0 406a0d46 9df82430  -..A.F..@j.F..$0
 0010 1746ff28 e3721cd0 a36a002b 0cda5a1c  .F.(.r...j.+..Z.
 0020 00f0c381 9e1c00f0 d4810333 0ed10321  ...........3...!
 0030 c0b2fff7 feff09e0 c0b20121 fff7feff  ...........!....
 0040 94f82810 94f82400 fff7feff 0520fff7  ..(...$...... ..
 0050 feffe06a ff281cd0 236b002b 0cda591c  ...j.(..#k.+..Y.
 0060 00f0a881 9a1c00f0 b9810333 0ed10321  ...........3...!
 0070 c0b2fff7 feff09e0 c0b20121 fff7feff  ...........!....
 0080 94f83010 94f82c00 fff7feff 0520fff7  ..0...,...... ..
 0090 feffa06e fff7feff 0a2d22d8 ad4b33f9  ...n.....-"..K3.
 00a0 3560a4f8 5460a6b1 03ebc503 0021c4f8  5`..T`.......!..
 00b0 c0505a68 fb1e84f8 bd10a4f8 5620052b  .PZh........V .+
 00c0 0bd8dfe8 13f0e600 0a00e200 de00d600  ................
 00d0 1200237a 002b40f0 e0800020 02b0bde8  ..#z.+@.... ....
 00e0 f0810120 02b0bde8 f0810222 0823e265  ... .......".#.e
 00f0 63660021 207dfff7 feff0221 207efff7  cf.! }.....! ~..
 0100 feff0321 207ffff7 feff0121 94f82000  ...! ......!.. .
 0110 fff7feff 904e6269 2046a369 110106eb  .....Nbi F.i....
 0120 02127158 d2680831 c4f89820 1a01c4f8  ..qX.h.1... ....
 0130 941006eb 0313b258 db680832 c4f8a030  .......X.h.2...0
 0140 c4f89c20 e3692268 d2f84411 1a0106eb  ... .i"h..D.....
 0150 0313b258 db680832 c4f8a830 c4f8a420  ...X.h.2...0... 
 0160 8847606a ff2828d0 c0b20121 fff7feff  .G`j.((....!....
 0170 94f82430 4ff0000c 784a1901 06eb0313  ..$0O...xJ......
 0180 7158d868 c1f88800 cdf800c0 009b9342  qX.h...........B
 0190 05d8009b 01330093 009b9342 f9d90023  .....3.....B...#
 01a0 c1f88400 6d4a0193 019b9342 05d8019b  ....mJ.....B....
 01b0 01330193 019b9342 f9d9a06e fff7feff  .3.....B...n....
 01c0 4ff47a70 fff7feff 2368dff8 c081d3f8  O.zp....#h......
 01d0 88304345 40f0f380 0a212046 fff7feff  .0CE@....! F....
 01e0 0b210002 86b22046 fff7feff 237a0643  .!.... F....#z.C
 01f0 b6b2002b 40f0a780 42f24163 9e4255d0  ...+@...B.Ac.BU.
 0200 2368d3f8 88304345 40f0f480 0a212046  #h...0CE@....! F
 0210 fff7feff 0b210002 86b22046 fff7feff  .....!.... F....
 0220 237a0643 b6b2002b 40f0cd80 42f24263  #z.C...+@...B.Bc
 0230 9e423bd0 23682046 49495a69 8a4240f0  .B;.#h FIIZi.B@.
 0240 dd80d3f8 48319847 94f82000 0021fff7  ....H1.G.. ..!..
 0250 feffa06e fff7feff 237a002b 3ff43daf  ...n....#z.+?.=.
 0260 14214048 fff7feff 3f48fff7 feff0020  .!@H....?H..... 
 0270 34e70221 01220423 0327e165 84f8bd20  4..!.".#.'.e... 
 0280 36e70222 0123e265 32e70222 1346e265  6..".#.e2..".F.e
 0290 2ee70222 0023e265 2ae71521 3348fff7  ...".#.e*..!3H..
 02a0 feff3148 fff7feff 304617e7 e37a23b9  ..1H....0F...z#.
 02b0 23682046 d3f83831 98472368 66212046  #h F..81.G#hf! F
 02c0 d3f80c31 98472368 294ad3f8 10319342  ...1.G#h)J...1.B
 02d0 40f08c80 274bc021 274a1b79 03f00f03  @...'K.!'J.y....
 02e0 99542368 254a9b69 93427cd1 244e0022  .T#h%J.i.B|.$N."
 02f0 ff2101e0 39b17278 2046fff7 feff16f8  .!..9.rx F......
 0300 021f0028 f6d00a20 fff7feff 23683946  ...(... ....#h9F
 0310 20461b6b 98470646 002839d1 23682946   F.k.G.F.(9.#h)F
 0320 20469b6b 98470028 3ff4dbae 237a002b   F.k.G.(?...#z.+
 0330 3ff4d3ae 1a211348 fff7feff 0a48fff7  ?....!.H.....H..
 0340 feff3046 cae63246 0f490748 fff7feff  ..0F..2F.I.H....
 0350 52e700bf 00000000 00000000 9f860100  R...............
 0360 00000000 18000000 00000000 00000000  ................
 0370 00000000 00000000 00e400e0 00000000  ................
 0380 00000000 4c000000 00000000 00000000  ....L...........
 0390 237a002b 3ff4a1ae 1a211948 fff7feff  #z.+?....!.H....
 03a0 1848fff7 feff0020 98e60021 c0b2fff7  .H..... ...!....
 03b0 feff4be6 0021c0b2 fff7feff 66e62046  ..K..!......f. F
 03c0 98470646 18e73246 0f490e48 fff7feff  .G.F..2F.I.H....
 03d0 2ce70221 c0b2fff7 feff37e6 0221c0b2  ,..!......7..!..
 03e0 fff7feff 52e62046 98478fe7 c0212046  ....R. F.G...! F
 03f0 984776e7 20469847 064617e7 90472be7  .Gv. F.G.F...G+.
 0400 30000000 00000000 00000000           0...........    
Contents of section .text.startup._GLOBAL__sub_I__ZN6OV2640C2Ev:
 0000 08b50021 0848fff7 feff084a 08490648  ...!.H.....J.I.H
 0010 fff7feff 074b03f5 207243f8 203c4033  .....K.. rC. <@3
 0020 9342fad1 08bd00bf 00000000 00000000  .B..............
 0030 00000000 20000000                    .... ...        
Contents of section .init_array:
 0000 00000000                             ....            
Contents of section .rodata.str1.4:
 0000 20515300 20485349 5a450000 20565349   QS. HSIZE.. VSI
 0010 5a450000 20584f46 464c0000 20594f46  ZE.. XOFFL.. YOF
 0020 464c0000 20564859 58000000 20445052  FL.. VHYX... DPR
 0030 50000000 20544553 54000000 205a4d4f  P... TEST... ZMO
 0040 57000000 205a4d4f 48000000 205a4d48  W... ZMOH... ZMH
 0050 48000000 20425041 44445200 20425044  H... BPADDR. BPD
 0060 41544100 2053495a 454c0000 20485349  ATA. SIZEL.. HSI
 0070 5a453800 20565349 5a453800 20435452  ZE8. VSIZE8. CTR
 0080 4c310000 204d535f 53500000 2053535f  L1.. MS_SP.. SS_
 0090 49440000 2053535f 4354524c 00000000  ID.. SS_CTRL....
 00a0 204d435f 414c0000 204d435f 41480000   MC_AL.. MC_AH..
 00b0 204d435f 44000000 20505f43 4d440000   MC_D... P_CMD..
 00c0 20505f53 54415455 53000000 20435452   P_STATUS... CTR
 00d0 4c490000 20435452 4c495f4c 505f4450  LI.. CTRLI_LP_DP
 00e0 00000000 20435452 4c495f52 4f554e44  .... CTRLI_ROUND
 00f0 00000000 20435452 4c300000 20435452  .... CTRL0.. CTR
 0100 4c320000 20435452 4c330000 20525f44  L2.. CTRL3.. R_D
 0110 56505f53 50000000 20525f44 56505f53  VP_SP... R_DVP_S
 0120 505f4155 544f5f4d 4f444500 20525f42  P_AUTO_MODE. R_B
 0130 59504153 53000000 20525f42 59504153  YPASS... R_BYPAS
 0140 535f4453 505f454e 00000000 20525f42  S_DSP_EN.... R_B
 0150 59504153 535f4453 505f4259 50415300  YPASS_DSP_BYPAS.
 0160 20494d41 47455f4d 4f444500 20524553   IMAGE_MODE. RES
 0170 45540000 204d435f 42495354 00000000  ET.. MC_BIST....
 0180 2042414e 4b5f5345 4c000000 2042414e   BANK_SEL... BAN
 0190 4b5f5345 4c5f4453 50000000 2042414e  K_SEL_DSP... BAN
 01a0 4b5f5345 4c5f5345 4e534f52 00000000  K_SEL_SENSOR....
 01b0 20474149 4e000000 20434f4d 31000000   GAIN... COM1...
 01c0 20524547 5f504944 00000000 20524547   REG_PID.... REG
 01d0 5f564552 00000000 20434f4d 34000000  _VER.... COM4...
 01e0 20414543 00000000 20434c4b 52430000   AEC.... CLKRC..
 01f0 20434c4b 52435f44 4f55424c 45000000   CLKRC_DOUBLE...
 0200 20434c4b 52435f44 49564944 45525f4d   CLKRC_DIVIDER_M
 0210 41534b00 20434f4d 31300000 20485245  ASK. COM10.. HRE
 0220 46535400 20485245 46454e44 00000000  FST. HREFEND....
 0230 20565354 52540000 2056454e 44000000   VSTRT.. VEND...
 0240 204d4944 48000000 204d4944 4c000000   MIDH... MIDL...
 0250 20414557 00000000 20414542 00000000   AEW.... AEB....
 0260 20524547 32410000 20465241 524c0000   REG2A.. FRARL..
 0270 20414444 56534c00 20414444 56534800   ADDVSL. ADDVSH.
 0280 20594156 47000000 20485344 59000000   YAVG... HSDY...
 0290 20484544 59000000 20524547 33320000   HEDY... REG32..
 02a0 20415243 4f4d3200 20524547 34350000   ARCOM2. REG45..
 02b0 20464c4c 00000000 20464c48 00000000   FLL.... FLH....
 02c0 20434f4d 31390000 205a4f4f 4d530000   COM19.. ZOOMS..
 02d0 20434f4d 32320000 20434f4d 32350000   COM22.. COM25..
 02e0 20424435 30000000 20424436 30000000   BD50... BD60...
 02f0 20524547 35440000 20524547 35450000   REG5D.. REG5E..
 0300 20524547 35460000 20524547 36300000   REG5F.. REG60..
 0310 20484953 544f5f4c 4f570000 20484953   HISTO_LOW.. HIS
 0320 544f5f48 49474800 20524547 30340000  TO_HIGH. REG04..
 0330 20524547 30380000 20434f4d 32000000   REG08.. COM2...
 0340 20434f4d 325f5354 44425900 20434f4d   COM2_STDBY. COM
 0350 33000000 20434f4d 37000000 20434f4d  3... COM7... COM
 0360 38000000 20434f4d 385f4445 4641554c  8... COM8_DEFAUL
 0370 54000000 20434f4d 385f424e 44465f45  T... COM8_BNDF_E
 0380 4e000000 20434f4d 385f4147 435f454e  N... COM8_AGC_EN
 0390 00000000 20434f4d 385f4145 435f454e  .... COM8_AEC_EN
 03a0 00000000 20434f4d 39000000 20435452  .... COM9... CTR
 03b0 4c315f41 57420000 20565600           L1_AWB.. VV.    
Contents of section .rodata:
 0000 1b000000 1a000000 27000000 26000000  ........'...&...
 0010 15000000 14000000 17000000 16000000  ................
Contents of section .progmem:
 0000 00000000 00004400 04000000 00005100  ......D.......Q.
 0010 0c000000 00005200 14000000 00005300  ......R.......S.
 0020 1c000000 00005400 24000000 00005500  ......T.$.....U.
 0030 2c000000 00005600 34000000 00005700  ,.....V.4.....W.
 0040 3c000000 00005a00 44000000 00005b00  <.....Z.D.....[.
 0050 4c000000 00005c00 54000000 00007c00  L.....\.T.....|.
 0060 5c000000 00007d00 64000000 00008c00  \.....}.d.......
 0070 6c000000 0000c000 74000000 0000c100  l.......t.......
 0080 7c000000 0000c300 84000000 0000f000  |...............
 0090 8c000000 0000f700 94000000 0000f700  ................
 00a0 a0000000 0000fa00 a8000000 0000fb00  ................
 00b0 b0000000 0000fc00 b8000000 0000fd00  ................
 00c0 c0000000 0000fe00 cc000000 00005000  ..............P.
 00d0 d4000000 00008000 e4000000 00004000  ..............@.
 00e0 f4000000 0000c200 fc000000 00008600  ................
 00f0 04010000 00008700 0c010000 0000d300  ................
 0100 18010000 00008000 2c010000 00000500  ........,.......
 0110 38010000 00000000 4c010000 00000100  8.......L.......
 0120 60010000 0000da00 6c010000 0000e000  `.......l.......
 0130 74010000 0000f900 80010000 0000ff00  t...............
 0140 8c010000 00000000 9c010000 00000100  ................
 0150 b0010000 01000000 b8010000 01000300  ................
 0160 c0010000 01000a00 cc010000 01000b00  ................
 0170 d8010000 01000d00 e0010000 01001000  ................
 0180 e8010000 01001100 f0010000 01008200  ................
 0190 00020000 01003f00 14020000 01001500  ......?.........
 01a0 1c020000 01001700 24020000 01001800  ........$.......
 01b0 30020000 01001900 38020000 01001a00  0.......8.......
 01c0 40020000 01001c00 48020000 01001d00  @.......H.......
 01d0 50020000 01002400 58020000 01002500  P.....$.X.....%.
 01e0 60020000 01002a00 68020000 01002b00  `.....*.h.....+.
 01f0 70020000 01002d00 78020000 01002e00  p.....-.x.......
 0200 80020000 01002f00 88020000 01003000  ....../.......0.
 0210 90020000 01003100 98020000 01003200  ......1.......2.
 0220 a0020000 01003400 a8020000 01004500  ......4.......E.
 0230 b0020000 01004600 b8020000 01004700  ......F.......G.
 0240 c0020000 01004800 c8020000 01004900  ......H.......I.
 0250 d0020000 01004b00 d8020000 01004e00  ......K.......N.
 0260 e0020000 01004f00 e8020000 01005000  ......O.......P.
 0270 f0020000 01005d00 f8020000 01005e00  ......].......^.
 0280 00030000 01005f00 08030000 01006000  ......_.......`.
 0290 10030000 01006100 1c030000 01006200  ......a.......b.
 02a0 28030000 01000400 30030000 01000800  (.......0.......
 02b0 38030000 01000900 40030000 01001000  8.......@.......
 02c0 4c030000 01000c00 54030000 01001200  L.......T.......
 02d0 5c030000 01001300 64030000 0100c000  \.......d.......
 02e0 74030000 01002000 84030000 01000400  t..... .........
 02f0 94030000 01000100 a4030000 01001400  ................
 0300 ac030000 01000800 b8030000 01002600  ..............&.
 0310 98020000 01003200                    ......2.        
Contents of section .rodata._ZL10bayer_regs:
 0000 ff000500 da04d703 e0000500 0000      ..............  
Contents of section .rodata._ZL10resolution:
 0000 80020000 e0010000 a0000000 78000000  ............x...
 0010 40010000 f0000000 e0010000 40010000  @...........@...
 0020 40010000 40010000 40010000 f0000000  @...@...@.......
 0030 b0000000 90000000 60010000 20010000  ........`... ...
 0040 20030000 58020000 40060000 b0040000   ...X...@.......
 0050 00000000 00000000                    ........        
Contents of section .rodata._ZL11rgb565_regs:
 0000 ff000500 da09d703 e0000500 0000      ..............  
Contents of section .rodata._ZL11yuv422_regs:
 0000 ff000500 da00d703 33a0e51f e167e000  ........3....g..
 0010 05000000                             ....            
Contents of section .rodata._ZL12agc_gain_tbl:
 0000 00101830 34383c70 72747678 7a7c7ef0  ...048<prtvxz|~.
 0010 f1f2f3f4 f5f6f7f8 f9fafbfc fdfeff    ............... 
Contents of section .rodata._ZL12default_regs:
 0000 ff002cff 2edfff01 3c321182 090204f8  ..,.....<2......
 0010 13e51448 2c0c3378 3a333bfb 3e004311  ...H,.3x:3;.>.C.
 0020 16103902 3588220a 37402300 34a00602  ..9.5.".7@#.4...
 0030 068807c0 0db70e01 4c004a81 21992440  ........L.J.!.$@
 0040 25382682 5c006300 46220c3a 5d555e7d  %8&.\.c.F".:]U^}
 0050 5f7d6055 61706280 7c052080 28306c00  _}`Uapb.|. .(0l.
 0060 6d806e00 70027194 73c13d34 12045a57  m.n.p.q.s.=4..ZW
 0070 4e004fbb 509cff00 e57ff9c0 4124e014  N.O.P.......A$..
 0080 76ff33a0 42204318 4c0087d0 883fd703  v.3.B C.L....?..
 0090 d910d382 c808c980 7c007d00 7c037d48  ........|.}.|.}H
 00a0 7d487c08 7d207d10 7d0e9000 910e911a  }H|.} }.}.......
 00b0 9131915a 91699175 917e9188 918f9196  .1.Z.i.u.~......
 00c0 91a391af 91c491d7 91e89120 92009306  ........... ....
 00d0 93e39303 93039300 93029300 93009300  ................
 00e0 93009300 93009300 96009708 97199702  ................
 00f0 970c9724 97309728 97269702 97989780  ...$.0.(.&......
 0100 97009700 a400a800 c511c651 bf80c710  ...........Q....
 0110 b666b8a5 b764b97c b3afb497 b5ffb0c5  .f...d.|........
 0120 b194b20f c45ca600 a720a7d8 a71ba731  .....\... .....1
 0130 a700a718 a720a7d8 a719a731 a700a718  ..... .....1....
 0140 a720a7d8 a719a731 a700a718 7f00e51f  . .....1........
 0150 e177dd7f c20eff01 0f4b038f 0000      .w.......K....  
Contents of section .rodata._ZL13contrast_regs:
 0000 7c7d7c7d 7d7d7d00 04072018 34060004  |}|}}}}... .4...
 0010 07201c2a 06000407 20202006 00040720  . .*....   .... 
 0020 24160600 04072028 0c06               $..... (..      
Contents of section .rodata._ZL13wb_modes_regs:
 0000 cccdce5e 41546541 4f524166 423f71    ...^ATeAORAfB?q 
Contents of section .rodata._ZL14ae_levels_regs:
 0000 24252620 1860341c 003e3881 48408158  $%& .`4..>8.H@.X
 0010 5092                                 P.              
Contents of section .rodata._ZL15brightness_regs:
 0000 7c7d7c7d 7d000409 00000004 09100000  |}|}}...........
 0010 04092000 00040930 00000409 4000      .. ....0....@.  
Contents of section .rodata._ZL15saturation_regs:
 0000 7c7d7c7d 7d000203 28280002 03383800  |}|}}...((...88.
 0010 02034848 00020358 58000203 6868      ..HH...XX...hh  
Contents of section .rodata._ZL20special_effects_regs:
 0000 7c7d7c7d 7d000005 80800040 05808000  |}|}}......@....
 0010 18058080 00180540 c0001805 40400018  .......@....@@..
 0020 05a04000 180540a6                    ..@...@.        
Contents of section .rodata._ZL9jpeg_regs:
 0000 ff000500 da10d703 e0000500 0000      ..............  
Contents of section .rodata._ZL9svga_regs:
 0000 ff011240 038a1711 18431901 1a973209  ...@.....C....2.
 0010 ff00e004 8c00c064 c14b863d 0000      .......d.K.=..  
Contents of section .rodata._ZL9uxga_regs:
 0000 ff011200 038f1711 18751901 1a973236  .........u....26
 0010 ff00e004 8c00c0c8 c196863d 0000      ...........=..  
Contents of section .rodata._ZTV6OV2640:
 0000 00000000 00000000 00000000 00000000  ................
 0010 00000000 00000000 00000000 00000000  ................
 0020 00000000 00000000 00000000 00000000  ................
 0030 00000000 00000000 00000000 00000000  ................
 0040 00000000 00000000 00000000 00000000  ................
 0050 00000000 00000000 00000000 00000000  ................
 0060 00000000 00000000 00000000 00000000  ................
 0070 00000000 00000000 00000000 00000000  ................
 0080 00000000 00000000 00000000 00000000  ................
 0090 00000000 00000000 00000000 00000000  ................
 00a0 00000000 00000000 00000000 00000000  ................
 00b0 00000000 00000000 00000000 00000000  ................
 00c0 00000000 00000000 00000000 00000000  ................
 00d0 00000000 00000000 00000000 00000000  ................
 00e0 00000000 00000000 00000000 00000000  ................
 00f0 00000000 00000000 00000000 00000000  ................
 0100 00000000 00000000 00000000 00000000  ................
 0110 00000000 00000000 00000000 00000000  ................
 0120 00000000 00000000 00000000 00000000  ................
 0130 00000000 00000000 00000000 00000000  ................
 0140 00000000 00000000 00000000 00000000  ................
 0150 00000000 00000000 00000000 00000000  ................
 0160 00000000                             ....            
Contents of section .comment:
 0000 00474343 3a202841 726d2047 4e552054  .GCC: (Arm GNU T
 0010 6f6f6c63 6861696e 2031312e 332e5265  oolchain 11.3.Re
 0020 6c312920 31312e33 2e312032 30323230  l1) 11.3.1 20220
 0030 37313200                             712.            
Contents of section .ARM.attributes:
 0000 41310000 00616561 62690001 27000000  A1...aeabi..'...
 0010 0537452d 4d00060d 074d0902 0a081204  .7E-M....M......
 0020 14011501 17031801 19011a01 1c011e02  ................
 0030 2201                                 ".              

Disassembly of section .text._ZN7TwoWire4readEv:

00000000 <_ZN7TwoWire4readEv>:
   0:	f890 30a2 	ldrb.w	r3, [r0, #162]	; 0xa2
   4:	f890 20a3 	ldrb.w	r2, [r0, #163]	; 0xa3
   8:	429a      	cmp	r2, r3
   a:	d905      	bls.n	18 <_ZN7TwoWire4readEv+0x18>
   c:	1c5a      	adds	r2, r3, #1
   e:	4403      	add	r3, r0
  10:	f880 20a2 	strb.w	r2, [r0, #162]	; 0xa2
  14:	7e98      	ldrb	r0, [r3, #26]
  16:	4770      	bx	lr
  18:	f04f 30ff 	mov.w	r0, #4294967295	; 0xffffffff
  1c:	4770      	bx	lr
  1e:	bf00      	nop

Disassembly of section .text._ZN11ImageSensor5debugEb:

00000000 <_ZN11ImageSensor5debugEb>:
   0:	7201      	strb	r1, [r0, #8]
   2:	4770      	bx	lr

Disassembly of section .text._ZN11ImageSensor5debugEv:

00000000 <_ZN11ImageSensor5debugEv>:
   0:	7a00      	ldrb	r0, [r0, #8]
   2:	4770      	bx	lr

Disassembly of section .text._ZN11ImageSensor12getPixformatEv:

00000000 <_ZN11ImageSensor12getPixformatEv>:
   0:	f890 0064 	ldrb.w	r0, [r0, #100]	; 0x64
   4:	4770      	bx	lr
   6:	bf00      	nop

Disassembly of section .text._ZN11ImageSensor21readFrameReturnBufferEv:

00000000 <_ZN11ImageSensor21readFrameReturnBufferEv>:
   0:	f8d0 00b4 	ldr.w	r0, [r0, #180]	; 0xb4
   4:	4770      	bx	lr
   6:	bf00      	nop

Disassembly of section .text._ZN11ImageSensor18readImageSizeBytesEv:

00000000 <_ZN11ImageSensor18readImageSizeBytesEv>:
   0:	f8d0 00b8 	ldr.w	r0, [r0, #184]	; 0xb8
   4:	4770      	bx	lr
   6:	bf00      	nop

Disassembly of section .text._ZN11ImageSensor6useDMAEb:

00000000 <_ZN11ImageSensor6useDMAEb>:
   0:	7241      	strb	r1, [r0, #9]
   2:	4770      	bx	lr

Disassembly of section .text._ZN11ImageSensor6useDMAEv:

00000000 <_ZN11ImageSensor6useDMAEv>:
   0:	7a40      	ldrb	r0, [r0, #9]
   2:	4770      	bx	lr

Disassembly of section .text._ZN11ImageSensor12data4BitModeEb:

00000000 <_ZN11ImageSensor12data4BitModeEb>:
   0:	7281      	strb	r1, [r0, #10]
   2:	4770      	bx	lr

Disassembly of section .text._ZN11ImageSensor12data4BitModeEv:

00000000 <_ZN11ImageSensor12data4BitModeEv>:
   0:	7a80      	ldrb	r0, [r0, #10]
   2:	4770      	bx	lr

Disassembly of section .text._ZN11ImageSensor16dataPinsReversedEv:

00000000 <_ZN11ImageSensor16dataPinsReversedEv>:
   0:	f890 008e 	ldrb.w	r0, [r0, #142]	; 0x8e
   4:	4770      	bx	lr
   6:	bf00      	nop

Disassembly of section .text._ZN11ImageSensor5widthEv:

00000000 <_ZN11ImageSensor5widthEv>:
   0:	f9b0 0054 	ldrsh.w	r0, [r0, #84]	; 0x54
   4:	4770      	bx	lr
   6:	bf00      	nop

Disassembly of section .text._ZN11ImageSensor6heightEv:

00000000 <_ZN11ImageSensor6heightEv>:
   0:	f9b0 0056 	ldrsh.w	r0, [r0, #86]	; 0x56
   4:	4770      	bx	lr
   6:	bf00      	nop

Disassembly of section .text._ZN11ImageSensor10frameWidthEv:

00000000 <_ZN11ImageSensor10frameWidthEv>:
   0:	f9b0 0058 	ldrsh.w	r0, [r0, #88]	; 0x58
   4:	4770      	bx	lr
   6:	bf00      	nop

Disassembly of section .text._ZN11ImageSensor11frameHeightEv:

00000000 <_ZN11ImageSensor11frameHeightEv>:
   0:	f9b0 005a 	ldrsh.w	r0, [r0, #90]	; 0x5a
   4:	4770      	bx	lr
   6:	bf00      	nop

Disassembly of section .text._ZN11ImageSensor26processFrameStartInterruptEv:

00000000 <_ZN11ImageSensor26processFrameStartInterruptEv>:
   0:	4770      	bx	lr
   2:	bf00      	nop

Disassembly of section .text._ZN11ImageSensor16supports4BitModeEv:

00000000 <_ZN11ImageSensor16supports4BitModeEv>:
   0:	2000      	movs	r0, #0
   2:	4770      	bx	lr

Disassembly of section .text._ZN6OV264017changeFrameBufferEPhS0_:

00000000 <_ZN6OV264017changeFrameBufferEPhS0_>:
   0:	6f03      	ldr	r3, [r0, #112]	; 0x70
   2:	428b      	cmp	r3, r1
   4:	d004      	beq.n	10 <_ZN6OV264017changeFrameBufferEPhS0_+0x10>
   6:	6f83      	ldr	r3, [r0, #120]	; 0x78
   8:	428b      	cmp	r3, r1
   a:	bf08      	it	eq
   c:	6782      	streq	r2, [r0, #120]	; 0x78
   e:	4770      	bx	lr
  10:	6702      	str	r2, [r0, #112]	; 0x70
  12:	4770      	bx	lr

Disassembly of section .text._ZN6OV264010frameCountEv:

00000000 <_ZN6OV264010frameCountEv>:
   0:	f8d0 00d4 	ldr.w	r0, [r0, #212]	; 0xd4
   4:	4770      	bx	lr
   6:	bf00      	nop

Disassembly of section .text._ZN6OV264025setDMACompleteISRPriorityEh:

00000000 <_ZN6OV264025setDMACompleteISRPriorityEh>:
   0:	4b03      	ldr	r3, [pc, #12]	; (10 <_ZN6OV264025setDMACompleteISRPriorityEh+0x10>)
   2:	4a04      	ldr	r2, [pc, #16]	; (14 <_ZN6OV264025setDMACompleteISRPriorityEh+0x14>)
   4:	791b      	ldrb	r3, [r3, #4]
   6:	f003 030f 	and.w	r3, r3, #15
   a:	5499      	strb	r1, [r3, r2]
   c:	4770      	bx	lr
   e:	bf00      	nop
  10:	00000000 	.word	0x00000000
  14:	e000e400 	.word	0xe000e400

Disassembly of section .text._ZN6OV264012readRegisterEh:

00000000 <_ZN6OV264012readRegisterEh>:
   0:	20ff      	movs	r0, #255	; 0xff
   2:	4770      	bx	lr

Disassembly of section .text._ZN6OV264013writeRegisterEhh:

00000000 <_ZN6OV264013writeRegisterEhh>:
   0:	2000      	movs	r0, #0
   2:	4770      	bx	lr

Disassembly of section .text._ZN6OV26406setHueEi:

00000000 <_ZN6OV26406setHueEi>:
   0:	4770      	bx	lr
   2:	bf00      	nop

Disassembly of section .text._ZN6OV264011setExposureEi:

00000000 <_ZN6OV264011setExposureEi>:
   0:	4770      	bx	lr
   2:	bf00      	nop

Disassembly of section .text._ZN6OV26405beginE11framesize_tib:

00000000 <_ZN6OV26405beginE11framesize_tib>:
   0:	2000      	movs	r0, #0
   2:	4770      	bx	lr

Disassembly of section .text._ZN6OV26407setModeEhh:

00000000 <_ZN6OV26407setModeEhh>:
   0:	2000      	movs	r0, #0
   2:	4770      	bx	lr

Disassembly of section .text._ZN6OV264012setFramerateEi:

00000000 <_ZN6OV264012setFramerateEi>:
   0:	2000      	movs	r0, #0
   2:	4770      	bx	lr

Disassembly of section .text._ZN6OV264014get_vt_pix_clkEPm:

00000000 <_ZN6OV264014get_vt_pix_clkEPm>:
   0:	2000      	movs	r0, #0
   2:	4770      	bx	lr

Disassembly of section .text._ZN6OV264014getCameraClockEPm:

00000000 <_ZN6OV264014getCameraClockEPm>:
   0:	2000      	movs	r0, #0
   2:	4770      	bx	lr

Disassembly of section .text._ZN6OV26409cmdUpdateEv:

00000000 <_ZN6OV26409cmdUpdateEv>:
   0:	2000      	movs	r0, #0
   2:	4770      	bx	lr

Disassembly of section .text._ZN6OV264012loadSettingsE21camera_reg_settings_t:

00000000 <_ZN6OV264012loadSettingsE21camera_reg_settings_t>:
   0:	2000      	movs	r0, #0
   2:	4770      	bx	lr

Disassembly of section .text._ZN6OV26405getAEEP8ae_cfg_t:

00000000 <_ZN6OV26405getAEEP8ae_cfg_t>:
   0:	2000      	movs	r0, #0
   2:	4770      	bx	lr

Disassembly of section .text._ZN6OV26405calAEEhPhmP8ae_cfg_t:

00000000 <_ZN6OV26405calAEEhPhmP8ae_cfg_t>:
   0:	2000      	movs	r0, #0
   2:	4770      	bx	lr

Disassembly of section .text._ZN6OV26404modeEv:

00000000 <_ZN6OV26404modeEv>:
   0:	2000      	movs	r0, #0
   2:	4770      	bx	lr

Disassembly of section .text._ZN6OV26408autoGainEiff:

00000000 <_ZN6OV26408autoGainEiff>:
   0:	4770      	bx	lr
   2:	bf00      	nop

Disassembly of section .text._ZN6OV264012dmaInterruptEv:

00000000 <_ZN6OV264012dmaInterruptEv>:
   0:	4b02      	ldr	r3, [pc, #8]	; (c <_ZN6OV264012dmaInterruptEv+0xc>)
   2:	6818      	ldr	r0, [r3, #0]
   4:	6803      	ldr	r3, [r0, #0]
   6:	f8d3 3134 	ldr.w	r3, [r3, #308]	; 0x134
   a:	4718      	bx	r3
   c:	00000000 	.word	0x00000000

Disassembly of section .text._ZN6OV2640D2Ev:

00000000 <_ZN6OV2640D1Ev>:
   0:	4770      	bx	lr
   2:	bf00      	nop

Disassembly of section .text._ZN6OV26403endEv:

00000000 <_ZN6OV26403endEv>:
   0:	6803      	ldr	r3, [r0, #0]
   2:	b510      	push	{r4, lr}
   4:	4604      	mov	r4, r0
   6:	f8d3 3148 	ldr.w	r3, [r3, #328]	; 0x148
   a:	4798      	blx	r3
   c:	2100      	movs	r1, #0
   e:	f894 0020 	ldrb.w	r0, [r4, #32]
  12:	f7ff fffe 	bl	0 <pinMode>
  16:	6ea0      	ldr	r0, [r4, #104]	; 0x68
  18:	e8bd 4010 	ldmia.w	sp!, {r4, lr}
  1c:	f7ff bffe 	b.w	0 <_ZN7TwoWire3endEv>

Disassembly of section .text._ZN6OV2640D0Ev:

00000000 <_ZN6OV2640D0Ev>:
   0:	b510      	push	{r4, lr}
   2:	4604      	mov	r4, r0
   4:	f44f 7180 	mov.w	r1, #256	; 0x100
   8:	f7ff fffe 	bl	0 <_ZdlPvj>
   c:	4620      	mov	r0, r4
   e:	bd10      	pop	{r4, pc}

Disassembly of section .text._ZN10DMAChannelD2Ev:

00000000 <_ZN10DMAChannelD1Ev>:
   0:	b510      	push	{r4, lr}
   2:	4604      	mov	r4, r0
   4:	f7ff fffe 	bl	0 <_ZN10DMAChannel7releaseEv>
   8:	4620      	mov	r0, r4
   a:	bd10      	pop	{r4, pc}

Disassembly of section .text._ZN6OV264017startReadFrameDMAEPFbPvEPhS3_:

00000000 <_ZN6OV264017startReadFrameDMAEPFbPvEPhS3_>:
   0:	e92d 41f0 	stmdb	sp!, {r4, r5, r6, r7, r8, lr}
   4:	4604      	mov	r4, r0
   6:	b082      	sub	sp, #8
   8:	460d      	mov	r5, r1
   a:	2a00      	cmp	r2, #0
   c:	f000 80e8 	beq.w	1e0 <_ZN6OV264017startReadFrameDMAEPFbPvEPhS3_+0x1e0>
  10:	6702      	str	r2, [r0, #112]	; 0x70
  12:	2b00      	cmp	r3, #0
  14:	f000 80d2 	beq.w	1bc <_ZN6OV264017startReadFrameDMAEPFbPvEPhS3_+0x1bc>
  18:	67a3      	str	r3, [r4, #120]	; 0x78
  1a:	4a7b      	ldr	r2, [pc, #492]	; (208 <_ZN6OV264017startReadFrameDMAEPFbPvEPhS3_+0x208>)
  1c:	7a23      	ldrb	r3, [r4, #8]
  1e:	f8c4 50d0 	str.w	r5, [r4, #208]	; 0xd0
  22:	6014      	str	r4, [r2, #0]
  24:	2b00      	cmp	r3, #0
  26:	f040 80c2 	bne.w	1ae <_ZN6OV264017startReadFrameDMAEPFbPvEPhS3_+0x1ae>
  2a:	4e78      	ldr	r6, [pc, #480]	; (20c <_ZN6OV264017startReadFrameDMAEPFbPvEPhS3_+0x20c>)
  2c:	2100      	movs	r1, #0
  2e:	6f23      	ldr	r3, [r4, #112]	; 0x70
  30:	2500      	movs	r5, #0
  32:	4630      	mov	r0, r6
  34:	4f76      	ldr	r7, [pc, #472]	; (210 <_ZN6OV264017startReadFrameDMAEPFbPvEPhS3_+0x210>)
  36:	e9c4 333c 	strd	r3, r3, [r4, #240]	; 0xf0
  3a:	f7ff fffe 	bl	0 <_ZN10DMAChannel5beginEb>
  3e:	4a75      	ldr	r2, [pc, #468]	; (214 <_ZN6OV264017startReadFrameDMAEPFbPvEPhS3_+0x214>)
  40:	f44f 60a2 	mov.w	r0, #1296	; 0x510
  44:	4974      	ldr	r1, [pc, #464]	; (218 <_ZN6OV264017startReadFrameDMAEPFbPvEPhS3_+0x218>)
  46:	6813      	ldr	r3, [r2, #0]
  48:	f04f 0c02 	mov.w	ip, #2
  4c:	6c12      	ldr	r2, [r2, #64]	; 0x40
  4e:	601f      	str	r7, [r3, #0]
  50:	6119      	str	r1, [r3, #16]
  52:	83d8      	strh	r0, [r3, #30]
  54:	82d8      	strh	r0, [r3, #22]
  56:	8b99      	ldrh	r1, [r3, #28]
  58:	619a      	str	r2, [r3, #24]
  5a:	f021 0180 	bic.w	r1, r1, #128	; 0x80
  5e:	f883 c007 	strb.w	ip, [r3, #7]
  62:	f883 c006 	strb.w	ip, [r3, #6]
  66:	0409      	lsls	r1, r1, #16
  68:	809d      	strh	r5, [r3, #4]
  6a:	60dd      	str	r5, [r3, #12]
  6c:	0c09      	lsrs	r1, r1, #16
  6e:	8399      	strh	r1, [r3, #28]
  70:	8b99      	ldrh	r1, [r3, #28]
  72:	b289      	uxth	r1, r1
  74:	f041 0110 	orr.w	r1, r1, #16
  78:	8399      	strh	r1, [r3, #28]
  7a:	8b99      	ldrh	r1, [r3, #28]
  7c:	b289      	uxth	r1, r1
  7e:	f041 0102 	orr.w	r1, r1, #2
  82:	8399      	strh	r1, [r3, #28]
  84:	8b99      	ldrh	r1, [r3, #28]
  86:	f021 0108 	bic.w	r1, r1, #8
  8a:	0409      	lsls	r1, r1, #16
  8c:	0c09      	lsrs	r1, r1, #16
  8e:	8399      	strh	r1, [r3, #28]
  90:	2104      	movs	r1, #4
  92:	8299      	strh	r1, [r3, #20]
  94:	6099      	str	r1, [r3, #8]
  96:	8291      	strh	r1, [r2, #20]
  98:	6091      	str	r1, [r2, #8]
  9a:	4960      	ldr	r1, [pc, #384]	; (21c <_ZN6OV264017startReadFrameDMAEPFbPvEPhS3_+0x21c>)
  9c:	6017      	str	r7, [r2, #0]
  9e:	f882 c007 	strb.w	ip, [r2, #7]
  a2:	6111      	str	r1, [r2, #16]
  a4:	f882 c006 	strb.w	ip, [r2, #6]
  a8:	83d0      	strh	r0, [r2, #30]
  aa:	6193      	str	r3, [r2, #24]
  ac:	82d0      	strh	r0, [r2, #22]
  ae:	8095      	strh	r5, [r2, #4]
  b0:	60d5      	str	r5, [r2, #12]
  b2:	8b91      	ldrh	r1, [r2, #28]
  b4:	f021 0180 	bic.w	r1, r1, #128	; 0x80
  b8:	0409      	lsls	r1, r1, #16
  ba:	0c09      	lsrs	r1, r1, #16
  bc:	8391      	strh	r1, [r2, #28]
  be:	8b91      	ldrh	r1, [r2, #28]
  c0:	b289      	uxth	r1, r1
  c2:	f041 0110 	orr.w	r1, r1, #16
  c6:	8391      	strh	r1, [r2, #28]
  c8:	8b91      	ldrh	r1, [r2, #28]
  ca:	b289      	uxth	r1, r1
  cc:	ea41 010c 	orr.w	r1, r1, ip
  d0:	8391      	strh	r1, [r2, #28]
  d2:	8b91      	ldrh	r1, [r2, #28]
  d4:	f021 0108 	bic.w	r1, r1, #8
  d8:	0409      	lsls	r1, r1, #16
  da:	0c09      	lsrs	r1, r1, #16
  dc:	8391      	strh	r1, [r2, #28]
  de:	4a50      	ldr	r2, [pc, #320]	; (220 <_ZN6OV264017startReadFrameDMAEPFbPvEPhS3_+0x220>)
  e0:	6055      	str	r5, [r2, #4]
  e2:	6015      	str	r5, [r2, #0]
  e4:	6832      	ldr	r2, [r6, #0]
  e6:	6898      	ldr	r0, [r3, #8]
  e8:	8b91      	ldrh	r1, [r2, #28]
  ea:	f021 0180 	bic.w	r1, r1, #128	; 0x80
  ee:	0409      	lsls	r1, r1, #16
  f0:	0c09      	lsrs	r1, r1, #16
  f2:	e9d3 c700 	ldrd	ip, r7, [r3]
  f6:	8391      	strh	r1, [r2, #28]
  f8:	68d9      	ldr	r1, [r3, #12]
  fa:	e9c2 c700 	strd	ip, r7, [r2]
  fe:	e9c2 0102 	strd	r0, r1, [r2, #8]
 102:	7931      	ldrb	r1, [r6, #4]
 104:	2601      	movs	r6, #1
 106:	4847      	ldr	r0, [pc, #284]	; (224 <_ZN6OV264017startReadFrameDMAEPFbPvEPhS3_+0x224>)
 108:	f001 071f 	and.w	r7, r1, #31
 10c:	eb00 1051 	add.w	r0, r0, r1, lsr #5
 110:	fa06 f707 	lsl.w	r7, r6, r7
 114:	0080      	lsls	r0, r0, #2
 116:	e9d3 8e04 	ldrd	r8, lr, [r3, #16]
 11a:	e9d3 c306 	ldrd	ip, r3, [r3, #24]
 11e:	e9c2 8e04 	strd	r8, lr, [r2, #16]
 122:	e9c2 c306 	strd	ip, r3, [r2, #24]
 126:	f8df e120 	ldr.w	lr, [pc, #288]	; 248 <_ZN6OV264017startReadFrameDMAEPFbPvEPhS3_+0x248>
 12a:	fa0f fc81 	sxth.w	ip, r1
 12e:	4a3e      	ldr	r2, [pc, #248]	; (228 <_ZN6OV264017startReadFrameDMAEPFbPvEPhS3_+0x228>)
 130:	3110      	adds	r1, #16
 132:	4b3e      	ldr	r3, [pc, #248]	; (22c <_ZN6OV264017startReadFrameDMAEPFbPvEPhS3_+0x22c>)
 134:	f843 e021 	str.w	lr, [r3, r1, lsl #2]
 138:	6007      	str	r7, [r0, #0]
 13a:	200e      	movs	r0, #14
 13c:	f842 502c 	str.w	r5, [r2, ip, lsl #2]
 140:	4b3b      	ldr	r3, [pc, #236]	; (230 <_ZN6OV264017startReadFrameDMAEPFbPvEPhS3_+0x230>)
 142:	69e1      	ldr	r1, [r4, #28]
 144:	eb03 1301 	add.w	r3, r3, r1, lsl #4
 148:	493a      	ldr	r1, [pc, #232]	; (234 <_ZN6OV264017startReadFrameDMAEPFbPvEPhS3_+0x234>)
 14a:	685b      	ldr	r3, [r3, #4]
 14c:	f842 102c 	str.w	r1, [r2, ip, lsl #2]
 150:	f502 3280 	add.w	r2, r2, #65536	; 0x10000
 154:	6819      	ldr	r1, [r3, #0]
 156:	f8c4 10e0 	str.w	r1, [r4, #224]	; 0xe0
 15a:	4629      	mov	r1, r5
 15c:	601e      	str	r6, [r3, #0]
 15e:	6f13      	ldr	r3, [r2, #112]	; 0x70
 160:	f443 0340 	orr.w	r3, r3, #12582912	; 0xc00000
 164:	6713      	str	r3, [r2, #112]	; 0x70
 166:	f7ff fffe 	bl	0 <xbar_connect>
 16a:	4b33      	ldr	r3, [pc, #204]	; (238 <_ZN6OV264017startReadFrameDMAEPFbPvEPhS3_+0x238>)
 16c:	2215      	movs	r2, #21
 16e:	4630      	mov	r0, r6
 170:	f8a3 2084 	strh.w	r2, [r3, #132]	; 0x84
 174:	f5a3 1344 	sub.w	r3, r3, #3211264	; 0x310000
 178:	699a      	ldr	r2, [r3, #24]
 17a:	f022 6280 	bic.w	r2, r2, #67108864	; 0x4000000
 17e:	619a      	str	r2, [r3, #24]
 180:	4a2e      	ldr	r2, [pc, #184]	; (23c <_ZN6OV264017startReadFrameDMAEPFbPvEPhS3_+0x23c>)
 182:	f8c2 6244 	str.w	r6, [r2, #580]	; 0x244
 186:	6e9a      	ldr	r2, [r3, #104]	; 0x68
 188:	f8c4 20dc 	str.w	r2, [r4, #220]	; 0xdc
 18c:	6e9a      	ldr	r2, [r3, #104]	; 0x68
 18e:	f422 627f 	bic.w	r2, r2, #4080	; 0xff0
 192:	669a      	str	r2, [r3, #104]	; 0x68
 194:	6e9a      	ldr	r2, [r3, #104]	; 0x68
 196:	f8d4 10a0 	ldr.w	r1, [r4, #160]	; 0xa0
 19a:	ea22 0201 	bic.w	r2, r2, r1
 19e:	669a      	str	r2, [r3, #104]	; 0x68
 1a0:	f884 60bc 	strb.w	r6, [r4, #188]	; 0xbc
 1a4:	e9c4 5535 	strd	r5, r5, [r4, #212]	; 0xd4
 1a8:	b002      	add	sp, #8
 1aa:	e8bd 81f0 	ldmia.w	sp!, {r4, r5, r6, r7, r8, pc}
 1ae:	6fa3      	ldr	r3, [r4, #120]	; 0x78
 1b0:	6f22      	ldr	r2, [r4, #112]	; 0x70
 1b2:	4923      	ldr	r1, [pc, #140]	; (240 <_ZN6OV264017startReadFrameDMAEPFbPvEPhS3_+0x240>)
 1b4:	4823      	ldr	r0, [pc, #140]	; (244 <_ZN6OV264017startReadFrameDMAEPFbPvEPhS3_+0x244>)
 1b6:	f7ff fffe 	bl	0 <_ZN5Print6printfEPKcz>
 1ba:	e736      	b.n	2a <_ZN6OV264017startReadFrameDMAEPFbPvEPhS3_+0x2a>
 1bc:	6fa3      	ldr	r3, [r4, #120]	; 0x78
 1be:	2b00      	cmp	r3, #0
 1c0:	f47f af2b 	bne.w	1a <_ZN6OV264017startReadFrameDMAEPFbPvEPhS3_+0x1a>
 1c4:	f8b4 0054 	ldrh.w	r0, [r4, #84]	; 0x54
 1c8:	f8b4 3056 	ldrh.w	r3, [r4, #86]	; 0x56
 1cc:	fb10 f003 	smulbb	r0, r0, r3
 1d0:	f7ff fffe 	bl	0 <malloc>
 1d4:	67a0      	str	r0, [r4, #120]	; 0x78
 1d6:	2800      	cmp	r0, #0
 1d8:	f47f af1f 	bne.w	1a <_ZN6OV264017startReadFrameDMAEPFbPvEPhS3_+0x1a>
 1dc:	2000      	movs	r0, #0
 1de:	e7e3      	b.n	1a8 <_ZN6OV264017startReadFrameDMAEPFbPvEPhS3_+0x1a8>
 1e0:	6f02      	ldr	r2, [r0, #112]	; 0x70
 1e2:	2a00      	cmp	r2, #0
 1e4:	f47f af15 	bne.w	12 <_ZN6OV264017startReadFrameDMAEPFbPvEPhS3_+0x12>
 1e8:	f8b0 0054 	ldrh.w	r0, [r0, #84]	; 0x54
 1ec:	f8b4 2056 	ldrh.w	r2, [r4, #86]	; 0x56
 1f0:	9301      	str	r3, [sp, #4]
 1f2:	fb10 f002 	smulbb	r0, r0, r2
 1f6:	f7ff fffe 	bl	0 <malloc>
 1fa:	9b01      	ldr	r3, [sp, #4]
 1fc:	6720      	str	r0, [r4, #112]	; 0x70
 1fe:	2800      	cmp	r0, #0
 200:	f47f af07 	bne.w	12 <_ZN6OV264017startReadFrameDMAEPFbPvEPhS3_+0x12>
 204:	e7ea      	b.n	1dc <_ZN6OV264017startReadFrameDMAEPFbPvEPhS3_+0x1dc>
 206:	bf00      	nop
 208:	00000000 	.word	0x00000000
 20c:	00000000 	.word	0x00000000
 210:	401bc008 	.word	0x401bc008
 214:	00000000 	.word	0x00000000
 218:	00000000 	.word	0x00000000
 21c:	00000000 	.word	0x00000000
 220:	401bc000 	.word	0x401bc000
 224:	38003840 	.word	0x38003840
 228:	400ec000 	.word	0x400ec000
 22c:	00000000 	.word	0x00000000
 230:	00000000 	.word	0x00000000
 234:	8000001e 	.word	0x8000001e
 238:	403bc000 	.word	0x403bc000
 23c:	401f8400 	.word	0x401f8400
 240:	00000000 	.word	0x00000000
 244:	00000000 	.word	0x00000000
 248:	00000000 	.word	0x00000000

Disassembly of section .text._ZN6OV264022captureFrameStatisticsEv:

00000000 <_ZN6OV264022captureFrameStatisticsEv>:
   0:	e92d 43f8 	stmdb	sp!, {r3, r4, r5, r6, r7, r8, r9, lr}
   4:	4606      	mov	r6, r0
   6:	f640 0248 	movw	r2, #2120	; 0x848
   a:	2100      	movs	r1, #0
   c:	4862      	ldr	r0, [pc, #392]	; (198 <_ZN6OV264022captureFrameStatisticsEv+0x198>)
   e:	f7ff fffe 	bl	0 <memset>
  12:	e9d6 2125 	ldrd	r2, r1, [r6, #148]	; 0x94
  16:	6813      	ldr	r3, [r2, #0]
  18:	420b      	tst	r3, r1
  1a:	d1fc      	bne.n	16 <_ZN6OV264022captureFrameStatisticsEv+0x16>
  1c:	6813      	ldr	r3, [r2, #0]
  1e:	4219      	tst	r1, r3
  20:	f040 80b7 	bne.w	192 <_ZN6OV264022captureFrameStatisticsEv+0x192>
  24:	2301      	movs	r3, #1
  26:	6810      	ldr	r0, [r2, #0]
  28:	1c5c      	adds	r4, r3, #1
  2a:	461f      	mov	r7, r3
  2c:	4201      	tst	r1, r0
  2e:	b2a3      	uxth	r3, r4
  30:	d0f9      	beq.n	26 <_ZN6OV264022captureFrameStatisticsEv+0x26>
  32:	4d59      	ldr	r5, [pc, #356]	; (198 <_ZN6OV264022captureFrameStatisticsEv+0x198>)
  34:	80af      	strh	r7, [r5, #4]
  36:	e9d6 1227 	ldrd	r1, r2, [r6, #156]	; 0x9c
  3a:	680b      	ldr	r3, [r1, #0]
  3c:	4213      	tst	r3, r2
  3e:	d0fc      	beq.n	3a <_ZN6OV264022captureFrameStatisticsEv+0x3a>
  40:	e9d6 2329 	ldrd	r2, r3, [r6, #164]	; 0xa4
  44:	6817      	ldr	r7, [r2, #0]
  46:	401f      	ands	r7, r3
  48:	d1fc      	bne.n	44 <_ZN6OV264022captureFrameStatisticsEv+0x44>
  4a:	f7ff fffe 	bl	0 <micros>
  4e:	f8d6 e094 	ldr.w	lr, [r6, #148]	; 0x94
  52:	4680      	mov	r8, r0
  54:	f8d6 1098 	ldr.w	r1, [r6, #152]	; 0x98
  58:	f8c5 02cc 	str.w	r0, [r5, #716]	; 0x2cc
  5c:	e00e      	b.n	7c <_ZN6OV264022captureFrameStatisticsEv+0x7c>
  5e:	68eb      	ldr	r3, [r5, #12]
  60:	f8d6 20a0 	ldr.w	r2, [r6, #160]	; 0xa0
  64:	3301      	adds	r3, #1
  66:	f8d6 00a8 	ldr.w	r0, [r6, #168]	; 0xa8
  6a:	60eb      	str	r3, [r5, #12]
  6c:	ea42 0400 	orr.w	r4, r2, r0
  70:	f8d6 309c 	ldr.w	r3, [r6, #156]	; 0x9c
  74:	681b      	ldr	r3, [r3, #0]
  76:	401c      	ands	r4, r3
  78:	42a7      	cmp	r7, r4
  7a:	d15b      	bne.n	134 <_ZN6OV264022captureFrameStatisticsEv+0x134>
  7c:	f8de 4000 	ldr.w	r4, [lr]
  80:	400c      	ands	r4, r1
  82:	d1ec      	bne.n	5e <_ZN6OV264022captureFrameStatisticsEv+0x5e>
  84:	f8de 3000 	ldr.w	r3, [lr]
  88:	420b      	tst	r3, r1
  8a:	d10a      	bne.n	a2 <_ZN6OV264022captureFrameStatisticsEv+0xa2>
  8c:	88eb      	ldrh	r3, [r5, #6]
  8e:	3301      	adds	r3, #1
  90:	b29b      	uxth	r3, r3
  92:	f8de 2000 	ldr.w	r2, [lr]
  96:	1c58      	adds	r0, r3, #1
  98:	461e      	mov	r6, r3
  9a:	420a      	tst	r2, r1
  9c:	b283      	uxth	r3, r0
  9e:	d0f8      	beq.n	92 <_ZN6OV264022captureFrameStatisticsEv+0x92>
  a0:	80ee      	strh	r6, [r5, #6]
  a2:	f7ff fffe 	bl	0 <micros>
  a6:	eba0 0208 	sub.w	r2, r0, r8
  aa:	68eb      	ldr	r3, [r5, #12]
  ac:	2600      	movs	r6, #0
  ae:	493b      	ldr	r1, [pc, #236]	; (19c <_ZN6OV264022captureFrameStatisticsEv+0x19c>)
  b0:	4f3b      	ldr	r7, [pc, #236]	; (1a0 <_ZN6OV264022captureFrameStatisticsEv+0x1a0>)
  b2:	483b      	ldr	r0, [pc, #236]	; (1a0 <_ZN6OV264022captureFrameStatisticsEv+0x1a0>)
  b4:	602a      	str	r2, [r5, #0]
  b6:	f7ff fffe 	bl	0 <_ZN5Print6printfEPKcz>
  ba:	88eb      	ldrh	r3, [r5, #6]
  bc:	88aa      	ldrh	r2, [r5, #4]
  be:	4939      	ldr	r1, [pc, #228]	; (1a4 <_ZN6OV264022captureFrameStatisticsEv+0x1a4>)
  c0:	4837      	ldr	r0, [pc, #220]	; (1a0 <_ZN6OV264022captureFrameStatisticsEv+0x1a0>)
  c2:	f7ff fffe 	bl	0 <_ZN5Print6printfEPKcz>
  c6:	f8b5 3844 	ldrh.w	r3, [r5, #2116]	; 0x844
  ca:	892a      	ldrh	r2, [r5, #8]
  cc:	4638      	mov	r0, r7
  ce:	4936      	ldr	r1, [pc, #216]	; (1a8 <_ZN6OV264022captureFrameStatisticsEv+0x1a8>)
  d0:	f8df 80d8 	ldr.w	r8, [pc, #216]	; 1ac <_ZN6OV264022captureFrameStatisticsEv+0x1ac>
  d4:	f8df 90d8 	ldr.w	r9, [pc, #216]	; 1b0 <_ZN6OV264022captureFrameStatisticsEv+0x1b0>
  d8:	f7ff fffe 	bl	0 <_ZN5Print6printfEPKcz>
  dc:	e00a      	b.n	f4 <_ZN6OV264022captureFrameStatisticsEv+0xf4>
  de:	f7ff fffe 	bl	0 <_ZN5Print6printfEPKcz>
  e2:	3401      	adds	r4, #1
  e4:	2105      	movs	r1, #5
  e6:	4648      	mov	r0, r9
  e8:	f7ff fffe 	bl	0 <usb_serial_write>
  ec:	892b      	ldrh	r3, [r5, #8]
  ee:	b2a6      	uxth	r6, r4
  f0:	42b3      	cmp	r3, r6
  f2:	d31a      	bcc.n	12a <_ZN6OV264022captureFrameStatisticsEv+0x12a>
  f4:	b2a2      	uxth	r2, r4
  f6:	4641      	mov	r1, r8
  f8:	4638      	mov	r0, r7
  fa:	4633      	mov	r3, r6
  fc:	eb05 0e82 	add.w	lr, r5, r2, lsl #2
 100:	3208      	adds	r2, #8
 102:	46f4      	mov	ip, lr
 104:	f835 2012 	ldrh.w	r2, [r5, r2, lsl #1]
 108:	2e00      	cmp	r6, #0
 10a:	d0e8      	beq.n	de <_ZN6OV264022captureFrameStatisticsEv+0xde>
 10c:	f8de e2cc 	ldr.w	lr, [lr, #716]	; 0x2cc
 110:	f8dc 32c8 	ldr.w	r3, [ip, #712]	; 0x2c8
 114:	ebae 0303 	sub.w	r3, lr, r3
 118:	f7ff fffe 	bl	0 <_ZN5Print6printfEPKcz>
 11c:	0733      	lsls	r3, r6, #28
 11e:	d0e0      	beq.n	e2 <_ZN6OV264022captureFrameStatisticsEv+0xe2>
 120:	3401      	adds	r4, #1
 122:	892b      	ldrh	r3, [r5, #8]
 124:	b2a6      	uxth	r6, r4
 126:	42b3      	cmp	r3, r6
 128:	d2e4      	bcs.n	f4 <_ZN6OV264022captureFrameStatisticsEv+0xf4>
 12a:	481d      	ldr	r0, [pc, #116]	; (1a0 <_ZN6OV264022captureFrameStatisticsEv+0x1a0>)
 12c:	e8bd 43f8 	ldmia.w	sp!, {r3, r4, r5, r6, r7, r8, r9, lr}
 130:	f7ff bffe 	b.w	0 <_ZN5Print7printlnEv>
 134:	4222      	tst	r2, r4
 136:	d001      	beq.n	13c <_ZN6OV264022captureFrameStatisticsEv+0x13c>
 138:	4217      	tst	r7, r2
 13a:	d015      	beq.n	168 <_ZN6OV264022captureFrameStatisticsEv+0x168>
 13c:	4204      	tst	r4, r0
 13e:	d011      	beq.n	164 <_ZN6OV264022captureFrameStatisticsEv+0x164>
 140:	4207      	tst	r7, r0
 142:	d106      	bne.n	152 <_ZN6OV264022captureFrameStatisticsEv+0x152>
 144:	892b      	ldrh	r3, [r5, #8]
 146:	3308      	adds	r3, #8
 148:	f835 2013 	ldrh.w	r2, [r5, r3, lsl #1]
 14c:	3201      	adds	r2, #1
 14e:	f825 2013 	strh.w	r2, [r5, r3, lsl #1]
 152:	f8d6 30a0 	ldr.w	r3, [r6, #160]	; 0xa0
 156:	421f      	tst	r7, r3
 158:	d104      	bne.n	164 <_ZN6OV264022captureFrameStatisticsEv+0x164>
 15a:	f8b5 3844 	ldrh.w	r3, [r5, #2116]	; 0x844
 15e:	3301      	adds	r3, #1
 160:	f8a5 3844 	strh.w	r3, [r5, #2116]	; 0x844
 164:	4627      	mov	r7, r4
 166:	e789      	b.n	7c <_ZN6OV264022captureFrameStatisticsEv+0x7c>
 168:	f8b5 9008 	ldrh.w	r9, [r5, #8]
 16c:	f109 0901 	add.w	r9, r9, #1
 170:	fa1f f989 	uxth.w	r9, r9
 174:	f8a5 9008 	strh.w	r9, [r5, #8]
 178:	eb05 0989 	add.w	r9, r5, r9, lsl #2
 17c:	f7ff fffe 	bl	0 <micros>
 180:	f8c9 02cc 	str.w	r0, [r9, #716]	; 0x2cc
 184:	f8d6 00a8 	ldr.w	r0, [r6, #168]	; 0xa8
 188:	4204      	tst	r4, r0
 18a:	e9d6 e125 	ldrd	lr, r1, [r6, #148]	; 0x94
 18e:	d0e9      	beq.n	164 <_ZN6OV264022captureFrameStatisticsEv+0x164>
 190:	e7d6      	b.n	140 <_ZN6OV264022captureFrameStatisticsEv+0x140>
 192:	4d01      	ldr	r5, [pc, #4]	; (198 <_ZN6OV264022captureFrameStatisticsEv+0x198>)
 194:	e74f      	b.n	36 <_ZN6OV264022captureFrameStatisticsEv+0x36>
 196:	bf00      	nop
 198:	00000000 	.word	0x00000000
 19c:	00000000 	.word	0x00000000
 1a0:	00000000 	.word	0x00000000
 1a4:	00000038 	.word	0x00000038
 1a8:	0000005c 	.word	0x0000005c
 1ac:	0000008c 	.word	0x0000008c
 1b0:	00000098 	.word	0x00000098

Disassembly of section .text._ZN6OV264017readFrame4BitGPIOEPv:

00000000 <_ZN6OV264017readFrame4BitGPIOEPv>:
   0:	b508      	push	{r3, lr}
   2:	2124      	movs	r1, #36	; 0x24
   4:	4803      	ldr	r0, [pc, #12]	; (14 <_ZN6OV264017readFrame4BitGPIOEPv+0x14>)
   6:	f7ff fffe 	bl	0 <usb_serial_write>
   a:	4803      	ldr	r0, [pc, #12]	; (18 <_ZN6OV264017readFrame4BitGPIOEPv+0x18>)
   c:	e8bd 4008 	ldmia.w	sp!, {r3, lr}
  10:	f7ff bffe 	b.w	0 <_ZN5Print7printlnEv>
  14:	00000000 	.word	0x00000000
  18:	00000000 	.word	0x00000000

Disassembly of section .text._ZN6OV264016stopReadFrameDMAEv:

00000000 <_ZN6OV264016stopReadFrameDMAEv>:
   0:	b570      	push	{r4, r5, r6, lr}
   2:	2302      	movs	r3, #2
   4:	4d1e      	ldr	r5, [pc, #120]	; (80 <_ZN6OV264016stopReadFrameDMAEv+0x80>)
   6:	b082      	sub	sp, #8
   8:	4604      	mov	r4, r0
   a:	682e      	ldr	r6, [r5, #0]
   c:	f880 30bc 	strb.w	r3, [r0, #188]	; 0xbc
  10:	e003      	b.n	1a <_ZN6OV264016stopReadFrameDMAEv+0x1a>
  12:	f894 30bc 	ldrb.w	r3, [r4, #188]	; 0xbc
  16:	2b02      	cmp	r3, #2
  18:	d104      	bne.n	24 <_ZN6OV264016stopReadFrameDMAEv+0x24>
  1a:	682b      	ldr	r3, [r5, #0]
  1c:	1b9b      	subs	r3, r3, r6
  1e:	f5b3 7f7a 	cmp.w	r3, #1000	; 0x3e8
  22:	d3f6      	bcc.n	12 <_ZN6OV264016stopReadFrameDMAEv+0x12>
  24:	f894 30bc 	ldrb.w	r3, [r4, #188]	; 0xbc
  28:	2b03      	cmp	r3, #3
  2a:	d014      	beq.n	56 <_ZN6OV264016stopReadFrameDMAEv+0x56>
  2c:	2132      	movs	r1, #50	; 0x32
  2e:	4815      	ldr	r0, [pc, #84]	; (84 <_ZN6OV264016stopReadFrameDMAEv+0x84>)
  30:	f7ff fffe 	bl	0 <usb_serial_write>
  34:	4814      	ldr	r0, [pc, #80]	; (88 <_ZN6OV264016stopReadFrameDMAEv+0x88>)
  36:	f7ff fffe 	bl	0 <_ZN5Print7printlnEv>
  3a:	f8b4 20ea 	ldrh.w	r2, [r4, #234]	; 0xea
  3e:	f8b4 30ec 	ldrh.w	r3, [r4, #236]	; 0xec
  42:	4912      	ldr	r1, [pc, #72]	; (8c <_ZN6OV264016stopReadFrameDMAEv+0x8c>)
  44:	4810      	ldr	r0, [pc, #64]	; (88 <_ZN6OV264016stopReadFrameDMAEv+0x88>)
  46:	e9cd 3200 	strd	r3, r2, [sp]
  4a:	f8d4 30f0 	ldr.w	r3, [r4, #240]	; 0xf0
  4e:	f8d4 20e4 	ldr.w	r2, [r4, #228]	; 0xe4
  52:	f7ff fffe 	bl	0 <_ZN5Print6printfEPKcz>
  56:	f8d4 20dc 	ldr.w	r2, [r4, #220]	; 0xdc
  5a:	4b0d      	ldr	r3, [pc, #52]	; (90 <_ZN6OV264016stopReadFrameDMAEv+0x90>)
  5c:	69e1      	ldr	r1, [r4, #28]
  5e:	669a      	str	r2, [r3, #104]	; 0x68
  60:	4b0c      	ldr	r3, [pc, #48]	; (94 <_ZN6OV264016stopReadFrameDMAEv+0x94>)
  62:	f8d4 20e0 	ldr.w	r2, [r4, #224]	; 0xe0
  66:	eb03 1301 	add.w	r3, r3, r1, lsl #4
  6a:	685b      	ldr	r3, [r3, #4]
  6c:	601a      	str	r2, [r3, #0]
  6e:	6828      	ldr	r0, [r5, #0]
  70:	1b80      	subs	r0, r0, r6
  72:	f5b0 7f7a 	cmp.w	r0, #1000	; 0x3e8
  76:	bf2c      	ite	cs
  78:	2000      	movcs	r0, #0
  7a:	2001      	movcc	r0, #1
  7c:	b002      	add	sp, #8
  7e:	bd70      	pop	{r4, r5, r6, pc}
  80:	00000000 	.word	0x00000000
  84:	00000000 	.word	0x00000000
  88:	00000000 	.word	0x00000000
  8c:	00000034 	.word	0x00000034
  90:	400ac000 	.word	0x400ac000
  94:	00000000 	.word	0x00000000

Disassembly of section .text._ZN6OV264019processDMAInterruptEv:

00000000 <_ZN6OV264019processDMAInterruptEv>:
   0:	b5f8      	push	{r3, r4, r5, r6, r7, lr}
   2:	4d7b      	ldr	r5, [pc, #492]	; (1f0 <_ZN6OV264019processDMAInterruptEv+0x1f0>)
   4:	4b7b      	ldr	r3, [pc, #492]	; (1f4 <_ZN6OV264019processDMAInterruptEv+0x1f4>)
   6:	792a      	ldrb	r2, [r5, #4]
   8:	77da      	strb	r2, [r3, #31]
   a:	f3bf 8f4f 	dsb	sy
   e:	f890 30bc 	ldrb.w	r3, [r0, #188]	; 0xbc
  12:	2b03      	cmp	r3, #3
  14:	f000 80df 	beq.w	1d6 <_ZN6OV264019processDMAInterruptEv+0x1d6>
  18:	f890 30f8 	ldrb.w	r3, [r0, #248]	; 0xf8
  1c:	4604      	mov	r4, r0
  1e:	4e76      	ldr	r6, [pc, #472]	; (1f8 <_ZN6OV264019processDMAInterruptEv+0x1f8>)
  20:	3301      	adds	r3, #1
  22:	b2db      	uxtb	r3, r3
  24:	f880 30f8 	strb.w	r3, [r0, #248]	; 0xf8
  28:	07d8      	lsls	r0, r3, #31
  2a:	d549      	bpl.n	c0 <_ZN6OV264019processDMAInterruptEv+0xc0>
  2c:	6833      	ldr	r3, [r6, #0]
  2e:	4973      	ldr	r1, [pc, #460]	; (1fc <_ZN6OV264019processDMAInterruptEv+0x1fc>)
  30:	8ad8      	ldrh	r0, [r3, #22]
  32:	b280      	uxth	r0, r0
  34:	2800      	cmp	r0, #0
  36:	f000 80d7 	beq.w	1e8 <_ZN6OV264019processDMAInterruptEv+0x1e8>
  3a:	3801      	subs	r0, #1
  3c:	f8d4 30e4 	ldr.w	r3, [r4, #228]	; 0xe4
  40:	f8b4 20ec 	ldrh.w	r2, [r4, #236]	; 0xec
  44:	f04f 0c00 	mov.w	ip, #0
  48:	b280      	uxth	r0, r0
  4a:	eb01 0080 	add.w	r0, r1, r0, lsl #2
  4e:	3904      	subs	r1, #4
  50:	e028      	b.n	a4 <_ZN6OV264019processDMAInterruptEv+0xa4>
  52:	f9b4 3056 	ldrsh.w	r3, [r4, #86]	; 0x56
  56:	429a      	cmp	r2, r3
  58:	da29      	bge.n	ae <_ZN6OV264019processDMAInterruptEv+0xae>
  5a:	f851 3f04 	ldr.w	r3, [r1, #4]!
  5e:	f8d4 20f0 	ldr.w	r2, [r4, #240]	; 0xf0
  62:	f3c3 1307 	ubfx	r3, r3, #4, #8
  66:	1c57      	adds	r7, r2, #1
  68:	f8c4 70f0 	str.w	r7, [r4, #240]	; 0xf0
  6c:	7013      	strb	r3, [r2, #0]
  6e:	f8b4 30ea 	ldrh.w	r3, [r4, #234]	; 0xea
  72:	f9b4 2054 	ldrsh.w	r2, [r4, #84]	; 0x54
  76:	3301      	adds	r3, #1
  78:	b29b      	uxth	r3, r3
  7a:	4293      	cmp	r3, r2
  7c:	f8a4 30ea 	strh.w	r3, [r4, #234]	; 0xea
  80:	f8b4 20ec 	ldrh.w	r2, [r4, #236]	; 0xec
  84:	d105      	bne.n	92 <_ZN6OV264019processDMAInterruptEv+0x92>
  86:	3201      	adds	r2, #1
  88:	f8a4 c0ea 	strh.w	ip, [r4, #234]	; 0xea
  8c:	b292      	uxth	r2, r2
  8e:	f8a4 20ec 	strh.w	r2, [r4, #236]	; 0xec
  92:	f8d4 30e4 	ldr.w	r3, [r4, #228]	; 0xe4
  96:	4288      	cmp	r0, r1
  98:	f103 33ff 	add.w	r3, r3, #4294967295	; 0xffffffff
  9c:	f8c4 30e4 	str.w	r3, [r4, #228]	; 0xe4
  a0:	f000 8089 	beq.w	1b6 <_ZN6OV264019processDMAInterruptEv+0x1b6>
  a4:	4617      	mov	r7, r2
  a6:	2b00      	cmp	r3, #0
  a8:	d1d3      	bne.n	52 <_ZN6OV264019processDMAInterruptEv+0x52>
  aa:	f9b4 3056 	ldrsh.w	r3, [r4, #86]	; 0x56
  ae:	429f      	cmp	r7, r3
  b0:	d00b      	beq.n	ca <_ZN6OV264019processDMAInterruptEv+0xca>
  b2:	f8d4 30e4 	ldr.w	r3, [r4, #228]	; 0xe4
  b6:	b143      	cbz	r3, ca <_ZN6OV264019processDMAInterruptEv+0xca>
  b8:	f5b3 6f22 	cmp.w	r3, #2592	; 0xa20
  bc:	d07f      	beq.n	1be <_ZN6OV264019processDMAInterruptEv+0x1be>
  be:	bdf8      	pop	{r3, r4, r5, r6, r7, pc}
  c0:	6c33      	ldr	r3, [r6, #64]	; 0x40
  c2:	494f      	ldr	r1, [pc, #316]	; (200 <_ZN6OV264019processDMAInterruptEv+0x200>)
  c4:	8ad8      	ldrh	r0, [r3, #22]
  c6:	b280      	uxth	r0, r0
  c8:	e7b4      	b.n	34 <_ZN6OV264019processDMAInterruptEv+0x34>
  ca:	792a      	ldrb	r2, [r5, #4]
  cc:	4b49      	ldr	r3, [pc, #292]	; (1f4 <_ZN6OV264019processDMAInterruptEv+0x1f4>)
  ce:	769a      	strb	r2, [r3, #26]
  d0:	2200      	movs	r2, #0
  d2:	f8d4 30d4 	ldr.w	r3, [r4, #212]	; 0xd4
  d6:	f8d4 00f4 	ldr.w	r0, [r4, #244]	; 0xf4
  da:	3301      	adds	r3, #1
  dc:	f8a4 20ec 	strh.w	r2, [r4, #236]	; 0xec
  e0:	f8c4 00d8 	str.w	r0, [r4, #216]	; 0xd8
  e4:	f8c4 30d4 	str.w	r3, [r4, #212]	; 0xd4
  e8:	f8d4 30d0 	ldr.w	r3, [r4, #208]	; 0xd0
  ec:	2b00      	cmp	r3, #0
  ee:	d055      	beq.n	19c <_ZN6OV264019processDMAInterruptEv+0x19c>
  f0:	4798      	blx	r3
  f2:	2800      	cmp	r0, #0
  f4:	d152      	bne.n	19c <_ZN6OV264019processDMAInterruptEv+0x19c>
  f6:	f894 20bc 	ldrb.w	r2, [r4, #188]	; 0xbc
  fa:	f8d4 30f4 	ldr.w	r3, [r4, #244]	; 0xf4
  fe:	2a02      	cmp	r2, #2
 100:	f8c4 30f0 	str.w	r3, [r4, #240]	; 0xf0
 104:	d053      	beq.n	1ae <_ZN6OV264019processDMAInterruptEv+0x1ae>
 106:	f8b4 30ee 	ldrh.w	r3, [r4, #238]	; 0xee
 10a:	f9b4 2054 	ldrsh.w	r2, [r4, #84]	; 0x54
 10e:	441a      	add	r2, r3
 110:	f9b4 3056 	ldrsh.w	r3, [r4, #86]	; 0x56
 114:	fb03 f202 	mul.w	r2, r3, r2
 118:	2300      	movs	r3, #0
 11a:	f8c4 20e4 	str.w	r2, [r4, #228]	; 0xe4
 11e:	f64f 72ff 	movw	r2, #65535	; 0xffff
 122:	f884 30f8 	strb.w	r3, [r4, #248]	; 0xf8
 126:	f8a4 30ec 	strh.w	r3, [r4, #236]	; 0xec
 12a:	6833      	ldr	r3, [r6, #0]
 12c:	f8c4 20e8 	str.w	r2, [r4, #232]	; 0xe8
 130:	8bda      	ldrh	r2, [r3, #30]
 132:	0411      	lsls	r1, r2, #16
 134:	d403      	bmi.n	13e <_ZN6OV264019processDMAInterruptEv+0x13e>
 136:	f44f 62a2 	mov.w	r2, #1296	; 0x510
 13a:	83da      	strh	r2, [r3, #30]
 13c:	82da      	strh	r2, [r3, #22]
 13e:	8b9a      	ldrh	r2, [r3, #28]
 140:	6c30      	ldr	r0, [r6, #64]	; 0x40
 142:	f022 0208 	bic.w	r2, r2, #8
 146:	0412      	lsls	r2, r2, #16
 148:	0c12      	lsrs	r2, r2, #16
 14a:	839a      	strh	r2, [r3, #28]
 14c:	8bc2      	ldrh	r2, [r0, #30]
 14e:	0412      	lsls	r2, r2, #16
 150:	d403      	bmi.n	15a <_ZN6OV264019processDMAInterruptEv+0x15a>
 152:	f44f 62a2 	mov.w	r2, #1296	; 0x510
 156:	83c2      	strh	r2, [r0, #30]
 158:	82c2      	strh	r2, [r0, #22]
 15a:	8b81      	ldrh	r1, [r0, #28]
 15c:	682a      	ldr	r2, [r5, #0]
 15e:	f021 0108 	bic.w	r1, r1, #8
 162:	681e      	ldr	r6, [r3, #0]
 164:	0409      	lsls	r1, r1, #16
 166:	0c09      	lsrs	r1, r1, #16
 168:	8381      	strh	r1, [r0, #28]
 16a:	8b91      	ldrh	r1, [r2, #28]
 16c:	f021 0180 	bic.w	r1, r1, #128	; 0x80
 170:	0409      	lsls	r1, r1, #16
 172:	0c09      	lsrs	r1, r1, #16
 174:	e9d3 4001 	ldrd	r4, r0, [r3, #4]
 178:	8391      	strh	r1, [r2, #28]
 17a:	68d9      	ldr	r1, [r3, #12]
 17c:	e9c2 6400 	strd	r6, r4, [r2]
 180:	e9c2 0102 	strd	r0, r1, [r2, #8]
 184:	7929      	ldrb	r1, [r5, #4]
 186:	e9d3 4006 	ldrd	r4, r0, [r3, #24]
 18a:	e9d3 6504 	ldrd	r6, r5, [r3, #16]
 18e:	4b19      	ldr	r3, [pc, #100]	; (1f4 <_ZN6OV264019processDMAInterruptEv+0x1f4>)
 190:	e9c2 6504 	strd	r6, r5, [r2, #16]
 194:	e9c2 4006 	strd	r4, r0, [r2, #24]
 198:	76d9      	strb	r1, [r3, #27]
 19a:	bdf8      	pop	{r3, r4, r5, r6, r7, pc}
 19c:	f894 20bc 	ldrb.w	r2, [r4, #188]	; 0xbc
 1a0:	6fa3      	ldr	r3, [r4, #120]	; 0x78
 1a2:	2a02      	cmp	r2, #2
 1a4:	f8c4 30f4 	str.w	r3, [r4, #244]	; 0xf4
 1a8:	f8c4 30f0 	str.w	r3, [r4, #240]	; 0xf0
 1ac:	d1ab      	bne.n	106 <_ZN6OV264019processDMAInterruptEv+0x106>
 1ae:	2303      	movs	r3, #3
 1b0:	f884 30bc 	strb.w	r3, [r4, #188]	; 0xbc
 1b4:	bdf8      	pop	{r3, r4, r5, r6, r7, pc}
 1b6:	4617      	mov	r7, r2
 1b8:	f9b4 3056 	ldrsh.w	r3, [r4, #86]	; 0x56
 1bc:	e777      	b.n	ae <_ZN6OV264019processDMAInterruptEv+0xae>
 1be:	f894 30f8 	ldrb.w	r3, [r4, #248]	; 0xf8
 1c2:	07db      	lsls	r3, r3, #31
 1c4:	bf4c      	ite	mi
 1c6:	6832      	ldrmi	r2, [r6, #0]
 1c8:	6c32      	ldrpl	r2, [r6, #64]	; 0x40
 1ca:	8b93      	ldrh	r3, [r2, #28]
 1cc:	b29b      	uxth	r3, r3
 1ce:	f043 0308 	orr.w	r3, r3, #8
 1d2:	8393      	strh	r3, [r2, #28]
 1d4:	bdf8      	pop	{r3, r4, r5, r6, r7, pc}
 1d6:	2132      	movs	r1, #50	; 0x32
 1d8:	480a      	ldr	r0, [pc, #40]	; (204 <_ZN6OV264019processDMAInterruptEv+0x204>)
 1da:	f7ff fffe 	bl	0 <usb_serial_write>
 1de:	480a      	ldr	r0, [pc, #40]	; (208 <_ZN6OV264019processDMAInterruptEv+0x208>)
 1e0:	e8bd 40f8 	ldmia.w	sp!, {r3, r4, r5, r6, r7, lr}
 1e4:	f7ff bffe 	b.w	0 <_ZN5Print7printlnEv>
 1e8:	f8b4 70ec 	ldrh.w	r7, [r4, #236]	; 0xec
 1ec:	e75d      	b.n	aa <_ZN6OV264019processDMAInterruptEv+0xaa>
 1ee:	bf00      	nop
 1f0:	00000000 	.word	0x00000000
 1f4:	400e8000 	.word	0x400e8000
 1f8:	00000000 	.word	0x00000000
 1fc:	00000000 	.word	0x00000000
 200:	00000000 	.word	0x00000000
 204:	00000000 	.word	0x00000000
 208:	00000000 	.word	0x00000000

Disassembly of section .text._ZN6OV2640C2Ev:

00000000 <_ZN6OV2640C1Ev>:
   0:	f240 1301 	movw	r3, #257	; 0x101
   4:	2211      	movs	r2, #17
   6:	2128      	movs	r1, #40	; 0x28
   8:	4684      	mov	ip, r0
   a:	e92d 4ff0 	stmdb	sp!, {r4, r5, r6, r7, r8, r9, sl, fp, lr}
   e:	6083      	str	r3, [r0, #8]
  10:	f44f 63fa 	mov.w	r3, #2000	; 0x7d0
  14:	2400      	movs	r4, #0
  16:	f04f 36ff 	mov.w	r6, #4294967295	; 0xffffffff
  1a:	6103      	str	r3, [r0, #16]
  1c:	2310      	movs	r3, #16
  1e:	27ff      	movs	r7, #255	; 0xff
  20:	4d23      	ldr	r5, [pc, #140]	; (b0 <_ZN6OV2640C1Ev+0xb0>)
  22:	8184      	strh	r4, [r0, #12]
  24:	f100 0e34 	add.w	lr, r0, #52	; 0x34
  28:	6306      	str	r6, [r0, #48]	; 0x30
  2a:	f04f 0a0c 	mov.w	sl, #12
  2e:	f8df b088 	ldr.w	fp, [pc, #136]	; b8 <_ZN6OV2640C1Ev+0xb8>
  32:	f04f 0802 	mov.w	r8, #2
  36:	f04f 0903 	mov.w	r9, #3
  3a:	e9c0 2305 	strd	r2, r3, [r0, #20]
  3e:	2329      	movs	r3, #41	; 0x29
  40:	e9c0 1307 	strd	r1, r3, [r0, #28]
  44:	230e      	movs	r3, #14
  46:	e9c0 670a 	strd	r6, r7, [r0, #40]	; 0x28
  4a:	6243      	str	r3, [r0, #36]	; 0x24
  4c:	cd0f      	ldmia	r5!, {r0, r1, r2, r3}
  4e:	e8ae 000f 	stmia.w	lr!, {r0, r1, r2, r3}
  52:	e895 000f 	ldmia.w	r5, {r0, r1, r2, r3}
  56:	e88e 000f 	stmia.w	lr, {r0, r1, r2, r3}
  5a:	4b16      	ldr	r3, [pc, #88]	; (b4 <_ZN6OV2640C1Ev+0xb4>)
  5c:	4660      	mov	r0, ip
  5e:	f8cc b068 	str.w	fp, [ip, #104]	; 0x68
  62:	f88c 4060 	strb.w	r4, [ip, #96]	; 0x60
  66:	f8cc 4064 	str.w	r4, [ip, #100]	; 0x64
  6a:	f88c 406c 	strb.w	r4, [ip, #108]	; 0x6c
  6e:	e9cc 441c 	strd	r4, r4, [ip, #112]	; 0x70
  72:	f88c 40bc 	strb.w	r4, [ip, #188]	; 0xbc
  76:	f88c 6088 	strb.w	r6, [ip, #136]	; 0x88
  7a:	f8ac 708c 	strh.w	r7, [ip, #140]	; 0x8c
  7e:	f8cc a090 	str.w	sl, [ip, #144]	; 0x90
  82:	f88c 408e 	strb.w	r4, [ip, #142]	; 0x8e
  86:	f8cc 40ac 	str.w	r4, [ip, #172]	; 0xac
  8a:	f8cc 3000 	str.w	r3, [ip]
  8e:	f8cc 40d0 	str.w	r4, [ip, #208]	; 0xd0
  92:	f8ac 40ee 	strh.w	r4, [ip, #238]	; 0xee
  96:	f8cc 40f0 	str.w	r4, [ip, #240]	; 0xf0
  9a:	f8cc 40fc 	str.w	r4, [ip, #252]	; 0xfc
  9e:	e9cc 441e 	strd	r4, r4, [ip, #120]	; 0x78
  a2:	e9cc 8430 	strd	r8, r4, [ip, #192]	; 0xc0
  a6:	e9cc 9432 	strd	r9, r4, [ip, #200]	; 0xc8
  aa:	e8bd 8ff0 	ldmia.w	sp!, {r4, r5, r6, r7, r8, r9, sl, fp, pc}
  ae:	bf00      	nop
  b0:	00000000 	.word	0x00000000
  b4:	00000008 	.word	0x00000008
  b8:	00000000 	.word	0x00000000

Disassembly of section .text._ZN6OV264018cameraReadRegisterEh:

00000000 <_ZN6OV264018cameraReadRegisterEh>:
   0:	b538      	push	{r3, r4, r5, lr}
   2:	6e82      	ldr	r2, [r0, #104]	; 0x68
   4:	2501      	movs	r5, #1
   6:	2360      	movs	r3, #96	; 0x60
   8:	4604      	mov	r4, r0
   a:	f882 5130 	strb.w	r5, [r2, #304]	; 0x130
   e:	f882 30a5 	strb.w	r3, [r2, #165]	; 0xa5
  12:	f882 512f 	strb.w	r5, [r2, #303]	; 0x12f
  16:	6e80      	ldr	r0, [r0, #104]	; 0x68
  18:	6803      	ldr	r3, [r0, #0]
  1a:	681b      	ldr	r3, [r3, #0]
  1c:	4798      	blx	r3
  1e:	2100      	movs	r1, #0
  20:	6ea0      	ldr	r0, [r4, #104]	; 0x68
  22:	f7ff fffe 	bl	0 <_ZN7TwoWire15endTransmissionEh>
  26:	b9d0      	cbnz	r0, 5e <_ZN6OV264018cameraReadRegisterEh+0x5e>
  28:	462b      	mov	r3, r5
  2a:	462a      	mov	r2, r5
  2c:	2130      	movs	r1, #48	; 0x30
  2e:	6ea0      	ldr	r0, [r4, #104]	; 0x68
  30:	f7ff fffe 	bl	0 <_ZN7TwoWire11requestFromEhhh>
  34:	4605      	mov	r5, r0
  36:	b300      	cbz	r0, 7a <_ZN6OV264018cameraReadRegisterEh+0x7a>
  38:	6ea0      	ldr	r0, [r4, #104]	; 0x68
  3a:	4a15      	ldr	r2, [pc, #84]	; (90 <_ZN6OV264018cameraReadRegisterEh+0x90>)
  3c:	6803      	ldr	r3, [r0, #0]
  3e:	695b      	ldr	r3, [r3, #20]
  40:	4293      	cmp	r3, r2
  42:	d116      	bne.n	72 <_ZN6OV264018cameraReadRegisterEh+0x72>
  44:	f890 30a2 	ldrb.w	r3, [r0, #162]	; 0xa2
  48:	f890 20a3 	ldrb.w	r2, [r0, #163]	; 0xa3
  4c:	429a      	cmp	r2, r3
  4e:	d91d      	bls.n	8c <_ZN6OV264018cameraReadRegisterEh+0x8c>
  50:	1c5a      	adds	r2, r3, #1
  52:	4403      	add	r3, r0
  54:	f880 20a2 	strb.w	r2, [r0, #162]	; 0xa2
  58:	7e9d      	ldrb	r5, [r3, #26]
  5a:	4628      	mov	r0, r5
  5c:	bd38      	pop	{r3, r4, r5, pc}
  5e:	211d      	movs	r1, #29
  60:	2500      	movs	r5, #0
  62:	480c      	ldr	r0, [pc, #48]	; (94 <_ZN6OV264018cameraReadRegisterEh+0x94>)
  64:	f7ff fffe 	bl	0 <usb_serial_write>
  68:	480b      	ldr	r0, [pc, #44]	; (98 <_ZN6OV264018cameraReadRegisterEh+0x98>)
  6a:	f7ff fffe 	bl	0 <_ZN5Print7printlnEv>
  6e:	4628      	mov	r0, r5
  70:	bd38      	pop	{r3, r4, r5, pc}
  72:	4798      	blx	r3
  74:	b2c5      	uxtb	r5, r0
  76:	4628      	mov	r0, r5
  78:	bd38      	pop	{r3, r4, r5, pc}
  7a:	211a      	movs	r1, #26
  7c:	4807      	ldr	r0, [pc, #28]	; (9c <_ZN6OV264018cameraReadRegisterEh+0x9c>)
  7e:	f7ff fffe 	bl	0 <usb_serial_write>
  82:	4805      	ldr	r0, [pc, #20]	; (98 <_ZN6OV264018cameraReadRegisterEh+0x98>)
  84:	f7ff fffe 	bl	0 <_ZN5Print7printlnEv>
  88:	4628      	mov	r0, r5
  8a:	bd38      	pop	{r3, r4, r5, pc}
  8c:	25ff      	movs	r5, #255	; 0xff
  8e:	e7e4      	b.n	5a <_ZN6OV264018cameraReadRegisterEh+0x5a>
  90:	00000000 	.word	0x00000000
  94:	00000000 	.word	0x00000000
  98:	00000000 	.word	0x00000000
  9c:	00000020 	.word	0x00000020

Disassembly of section .text._ZN6OV264010getModelidEv:

00000000 <_ZN6OV264010getModelidEv>:
   0:	b538      	push	{r3, r4, r5, lr}
   2:	210a      	movs	r1, #10
   4:	4605      	mov	r5, r0
   6:	f7ff fffe 	bl	0 <_ZN6OV264010getModelidEv>
   a:	4604      	mov	r4, r0
   c:	210b      	movs	r1, #11
   e:	4628      	mov	r0, r5
  10:	0224      	lsls	r4, r4, #8
  12:	f7ff fffe 	bl	0 <_ZN6OV264010getModelidEv>
  16:	7a2b      	ldrb	r3, [r5, #8]
  18:	b2a4      	uxth	r4, r4
  1a:	4304      	orrs	r4, r0
  1c:	b2a4      	uxth	r4, r4
  1e:	b90b      	cbnz	r3, 24 <_ZN6OV264010getModelidEv+0x24>
  20:	4620      	mov	r0, r4
  22:	bd38      	pop	{r3, r4, r5, pc}
  24:	4622      	mov	r2, r4
  26:	4903      	ldr	r1, [pc, #12]	; (34 <_ZN6OV264010getModelidEv+0x34>)
  28:	4803      	ldr	r0, [pc, #12]	; (38 <_ZN6OV264010getModelidEv+0x38>)
  2a:	f7ff fffe 	bl	0 <_ZN5Print6printfEPKcz>
  2e:	4620      	mov	r0, r4
  30:	bd38      	pop	{r3, r4, r5, pc}
  32:	bf00      	nop
  34:	00000000 	.word	0x00000000
  38:	00000000 	.word	0x00000000

Disassembly of section .text._ZN6OV264018readFrameGPIO_JPEGEPvjS0_j:

00000000 <_ZN6OV264018readFrameGPIO_JPEGEPvjS0_j>:
   0:	e92d 4ff0 	stmdb	sp!, {r4, r5, r6, r7, r8, r9, sl, fp, lr}
   4:	b087      	sub	sp, #28
   6:	469a      	mov	sl, r3
   8:	4604      	mov	r4, r0
   a:	4617      	mov	r7, r2
   c:	9b10      	ldr	r3, [sp, #64]	; 0x40
   e:	4689      	mov	r9, r1
  10:	e9cd a300 	strd	sl, r3, [sp]
  14:	f8b0 3056 	ldrh.w	r3, [r0, #86]	; 0x56
  18:	f8b0 5054 	ldrh.w	r5, [r0, #84]	; 0x54
  1c:	461e      	mov	r6, r3
  1e:	9303      	str	r3, [sp, #12]
  20:	485a      	ldr	r0, [pc, #360]	; (18c <_ZN6OV264018readFrameGPIO_JPEGEPvjS0_j+0x18c>)
  22:	4613      	mov	r3, r2
  24:	460a      	mov	r2, r1
  26:	495a      	ldr	r1, [pc, #360]	; (190 <_ZN6OV264018readFrameGPIO_JPEGEPvjS0_j+0x190>)
  28:	f7ff fffe 	bl	0 <_ZN5Print6printfEPKcz>
  2c:	fb06 f305 	mul.w	r3, r6, r5
  30:	6de1      	ldr	r1, [r4, #92]	; 0x5c
  32:	4a58      	ldr	r2, [pc, #352]	; (194 <_ZN6OV264018readFrameGPIO_JPEGEPvjS0_j+0x194>)
  34:	fb01 f303 	mul.w	r3, r1, r3
  38:	fb82 0203 	smull	r0, r2, r2, r3
  3c:	17db      	asrs	r3, r3, #31
  3e:	ebc3 0362 	rsb	r3, r3, r2, asr #1
  42:	9a10      	ldr	r2, [sp, #64]	; 0x40
  44:	18ba      	adds	r2, r7, r2
  46:	9305      	str	r3, [sp, #20]
  48:	429a      	cmp	r2, r3
  4a:	d203      	bcs.n	54 <_ZN6OV264018readFrameGPIO_JPEGEPvjS0_j+0x54>
  4c:	7a23      	ldrb	r3, [r4, #8]
  4e:	2b00      	cmp	r3, #0
  50:	f040 808f 	bne.w	172 <_ZN6OV264018readFrameGPIO_JPEGEPvjS0_j+0x172>
  54:	f9b4 3054 	ldrsh.w	r3, [r4, #84]	; 0x54
  58:	fb01 f303 	mul.w	r3, r1, r3
  5c:	9304      	str	r3, [sp, #16]
  5e:	f7ff fffe 	bl	0 <micros>
  62:	e9d4 1225 	ldrd	r1, r2, [r4, #148]	; 0x94
  66:	680b      	ldr	r3, [r1, #0]
  68:	4213      	tst	r3, r2
  6a:	d0fc      	beq.n	66 <_ZN6OV264018readFrameGPIO_JPEGEPvjS0_j+0x66>
  6c:	f7ff fffe 	bl	0 <micros>
  70:	4606      	mov	r6, r0
  72:	e9d4 1225 	ldrd	r1, r2, [r4, #148]	; 0x94
  76:	680d      	ldr	r5, [r1, #0]
  78:	4015      	ands	r5, r2
  7a:	d1fc      	bne.n	76 <_ZN6OV264018readFrameGPIO_JPEGEPvjS0_j+0x76>
  7c:	f7ff fffe 	bl	0 <micros>
  80:	42b0      	cmp	r0, r6
  82:	d0ee      	beq.n	62 <_ZN6OV264018readFrameGPIO_JPEGEPvjS0_j+0x62>
  84:	9b03      	ldr	r3, [sp, #12]
  86:	2b00      	cmp	r3, #0
  88:	d052      	beq.n	130 <_ZN6OV264018readFrameGPIO_JPEGEPvjS0_j+0x130>
  8a:	46bc      	mov	ip, r7
  8c:	462e      	mov	r6, r5
  8e:	46d6      	mov	lr, sl
  90:	9f10      	ldr	r7, [sp, #64]	; 0x40
  92:	9502      	str	r5, [sp, #8]
  94:	e9d4 1227 	ldrd	r1, r2, [r4, #156]	; 0x9c
  98:	680b      	ldr	r3, [r1, #0]
  9a:	4213      	tst	r3, r2
  9c:	d0fc      	beq.n	98 <_ZN6OV264018readFrameGPIO_JPEGEPvjS0_j+0x98>
  9e:	e9d4 1229 	ldrd	r1, r2, [r4, #164]	; 0xa4
  a2:	680b      	ldr	r3, [r1, #0]
  a4:	ea13 0a02 	ands.w	sl, r3, r2
  a8:	d1fb      	bne.n	a2 <_ZN6OV264018readFrameGPIO_JPEGEPvjS0_j+0xa2>
  aa:	b672      	cpsid	i
  ac:	9b04      	ldr	r3, [sp, #16]
  ae:	2b00      	cmp	r3, #0
  b0:	dd4c      	ble.n	14c <_ZN6OV264018readFrameGPIO_JPEGEPvjS0_j+0x14c>
  b2:	46b0      	mov	r8, r6
  b4:	eb03 0b05 	add.w	fp, r3, r5
  b8:	e9d4 0229 	ldrd	r0, r2, [r4, #164]	; 0xa4
  bc:	6803      	ldr	r3, [r0, #0]
  be:	4213      	tst	r3, r2
  c0:	d0fc      	beq.n	bc <_ZN6OV264018readFrameGPIO_JPEGEPvjS0_j+0xbc>
  c2:	4b35      	ldr	r3, [pc, #212]	; (198 <_ZN6OV264018readFrameGPIO_JPEGEPvjS0_j+0x198>)
  c4:	f01a 0f01 	tst.w	sl, #1
  c8:	689e      	ldr	r6, [r3, #8]
  ca:	ea4f 1616 	mov.w	r6, r6, lsr #4
  ce:	b2f6      	uxtb	r6, r6
  d0:	d002      	beq.n	d8 <_ZN6OV264018readFrameGPIO_JPEGEPvjS0_j+0xd8>
  d2:	f894 30bd 	ldrb.w	r3, [r4, #189]	; 0xbd
  d6:	b933      	cbnz	r3, e6 <_ZN6OV264018readFrameGPIO_JPEGEPvjS0_j+0xe6>
  d8:	f1bc 0c01 	subs.w	ip, ip, #1
  dc:	f889 6000 	strb.w	r6, [r9]
  e0:	d016      	beq.n	110 <_ZN6OV264018readFrameGPIO_JPEGEPvjS0_j+0x110>
  e2:	f109 0901 	add.w	r9, r9, #1
  e6:	f1b8 0fff 	cmp.w	r8, #255	; 0xff
  ea:	d01c      	beq.n	126 <_ZN6OV264018readFrameGPIO_JPEGEPvjS0_j+0x126>
  ec:	3501      	adds	r5, #1
  ee:	e9d4 0229 	ldrd	r0, r2, [r4, #164]	; 0xa4
  f2:	e004      	b.n	fe <_ZN6OV264018readFrameGPIO_JPEGEPvjS0_j+0xfe>
  f4:	e9d4 1327 	ldrd	r1, r3, [r4, #156]	; 0x9c
  f8:	6809      	ldr	r1, [r1, #0]
  fa:	4219      	tst	r1, r3
  fc:	d002      	beq.n	104 <_ZN6OV264018readFrameGPIO_JPEGEPvjS0_j+0x104>
  fe:	6803      	ldr	r3, [r0, #0]
 100:	4213      	tst	r3, r2
 102:	d1f7      	bne.n	f4 <_ZN6OV264018readFrameGPIO_JPEGEPvjS0_j+0xf4>
 104:	45ab      	cmp	fp, r5
 106:	f10a 0a01 	add.w	sl, sl, #1
 10a:	d01f      	beq.n	14c <_ZN6OV264018readFrameGPIO_JPEGEPvjS0_j+0x14c>
 10c:	46b0      	mov	r8, r6
 10e:	e7d5      	b.n	bc <_ZN6OV264018readFrameGPIO_JPEGEPvjS0_j+0xbc>
 110:	7a23      	ldrb	r3, [r4, #8]
 112:	f1be 0f00 	cmp.w	lr, #0
 116:	d026      	beq.n	166 <_ZN6OV264018readFrameGPIO_JPEGEPvjS0_j+0x166>
 118:	46f1      	mov	r9, lr
 11a:	b96b      	cbnz	r3, 138 <_ZN6OV264018readFrameGPIO_JPEGEPvjS0_j+0x138>
 11c:	f1b8 0fff 	cmp.w	r8, #255	; 0xff
 120:	469e      	mov	lr, r3
 122:	46bc      	mov	ip, r7
 124:	d1e2      	bne.n	ec <_ZN6OV264018readFrameGPIO_JPEGEPvjS0_j+0xec>
 126:	2ed9      	cmp	r6, #217	; 0xd9
 128:	d1e0      	bne.n	ec <_ZN6OV264018readFrameGPIO_JPEGEPvjS0_j+0xec>
 12a:	b662      	cpsie	i
 12c:	1c6b      	adds	r3, r5, #1
 12e:	9305      	str	r3, [sp, #20]
 130:	9805      	ldr	r0, [sp, #20]
 132:	b007      	add	sp, #28
 134:	e8bd 8ff0 	ldmia.w	sp!, {r4, r5, r6, r7, r8, r9, sl, fp, pc}
 138:	4653      	mov	r3, sl
 13a:	9a02      	ldr	r2, [sp, #8]
 13c:	4917      	ldr	r1, [pc, #92]	; (19c <_ZN6OV264018readFrameGPIO_JPEGEPvjS0_j+0x19c>)
 13e:	4813      	ldr	r0, [pc, #76]	; (18c <_ZN6OV264018readFrameGPIO_JPEGEPvjS0_j+0x18c>)
 140:	f7ff fffe 	bl	0 <_ZN5Print6printfEPKcz>
 144:	46bc      	mov	ip, r7
 146:	f04f 0e00 	mov.w	lr, #0
 14a:	e7cc      	b.n	e6 <_ZN6OV264018readFrameGPIO_JPEGEPvjS0_j+0xe6>
 14c:	e9d4 1227 	ldrd	r1, r2, [r4, #156]	; 0x9c
 150:	680b      	ldr	r3, [r1, #0]
 152:	4213      	tst	r3, r2
 154:	d1fc      	bne.n	150 <_ZN6OV264018readFrameGPIO_JPEGEPvjS0_j+0x150>
 156:	b662      	cpsie	i
 158:	9b02      	ldr	r3, [sp, #8]
 15a:	9a03      	ldr	r2, [sp, #12]
 15c:	3301      	adds	r3, #1
 15e:	429a      	cmp	r2, r3
 160:	9302      	str	r3, [sp, #8]
 162:	d197      	bne.n	94 <_ZN6OV264018readFrameGPIO_JPEGEPvjS0_j+0x94>
 164:	e7e4      	b.n	130 <_ZN6OV264018readFrameGPIO_JPEGEPvjS0_j+0x130>
 166:	b95b      	cbnz	r3, 180 <_ZN6OV264018readFrameGPIO_JPEGEPvjS0_j+0x180>
 168:	b662      	cpsie	i
 16a:	9805      	ldr	r0, [sp, #20]
 16c:	b007      	add	sp, #28
 16e:	e8bd 8ff0 	ldmia.w	sp!, {r4, r5, r6, r7, r8, r9, sl, fp, pc}
 172:	490b      	ldr	r1, [pc, #44]	; (1a0 <_ZN6OV264018readFrameGPIO_JPEGEPvjS0_j+0x1a0>)
 174:	9b05      	ldr	r3, [sp, #20]
 176:	4805      	ldr	r0, [pc, #20]	; (18c <_ZN6OV264018readFrameGPIO_JPEGEPvjS0_j+0x18c>)
 178:	f7ff fffe 	bl	0 <_ZN5Print6printfEPKcz>
 17c:	6de1      	ldr	r1, [r4, #92]	; 0x5c
 17e:	e769      	b.n	54 <_ZN6OV264018readFrameGPIO_JPEGEPvjS0_j+0x54>
 180:	4908      	ldr	r1, [pc, #32]	; (1a4 <_ZN6OV264018readFrameGPIO_JPEGEPvjS0_j+0x1a4>)
 182:	4802      	ldr	r0, [pc, #8]	; (18c <_ZN6OV264018readFrameGPIO_JPEGEPvjS0_j+0x18c>)
 184:	f7ff fffe 	bl	0 <_ZN5Print6printfEPKcz>
 188:	e7ee      	b.n	168 <_ZN6OV264018readFrameGPIO_JPEGEPvjS0_j+0x168>
 18a:	bf00      	nop
 18c:	00000000 	.word	0x00000000
 190:	00000000 	.word	0x00000000
 194:	66666667 	.word	0x66666667
 198:	42004000 	.word	0x42004000
 19c:	00000050 	.word	0x00000050
 1a0:	00000024 	.word	0x00000024
 1a4:	00000068 	.word	0x00000068

Disassembly of section .text._Z30Debug_printCameraWriteRegisterhh:

00000000 <_Z30Debug_printCameraWriteRegisterhh>:
   0:	b570      	push	{r4, r5, r6, lr}
   2:	4604      	mov	r4, r0
   4:	460d      	mov	r5, r1
   6:	4828      	ldr	r0, [pc, #160]	; (a8 <_Z30Debug_printCameraWriteRegisterhh+0xa8>)
   8:	462b      	mov	r3, r5
   a:	4928      	ldr	r1, [pc, #160]	; (ac <_Z30Debug_printCameraWriteRegisterhh+0xac>)
   c:	4622      	mov	r2, r4
   e:	f7ff fffe 	bl	0 <_ZN5Print6printfEPKcz>
  12:	2cff      	cmp	r4, #255	; 0xff
  14:	4b26      	ldr	r3, [pc, #152]	; (b0 <_Z30Debug_printCameraWriteRegisterhh+0xb0>)
  16:	d02b      	beq.n	70 <_Z30Debug_printCameraWriteRegisterhh+0x70>
  18:	781a      	ldrb	r2, [r3, #0]
  1a:	b9b2      	cbnz	r2, 4a <_Z30Debug_printCameraWriteRegisterhh+0x4a>
  1c:	4d25      	ldr	r5, [pc, #148]	; (b4 <_Z30Debug_printCameraWriteRegisterhh+0xb4>)
  1e:	4613      	mov	r3, r2
  20:	2044      	movs	r0, #68	; 0x44
  22:	4629      	mov	r1, r5
  24:	e005      	b.n	32 <_Z30Debug_printCameraWriteRegisterhh+0x32>
  26:	4284      	cmp	r4, r0
  28:	d036      	beq.n	98 <_Z30Debug_printCameraWriteRegisterhh+0x98>
  2a:	2b63      	cmp	r3, #99	; 0x63
  2c:	d008      	beq.n	40 <_Z30Debug_printCameraWriteRegisterhh+0x40>
  2e:	790a      	ldrb	r2, [r1, #4]
  30:	88c8      	ldrh	r0, [r1, #6]
  32:	469c      	mov	ip, r3
  34:	3108      	adds	r1, #8
  36:	3301      	adds	r3, #1
  38:	2a00      	cmp	r2, #0
  3a:	d0f4      	beq.n	26 <_Z30Debug_printCameraWriteRegisterhh+0x26>
  3c:	4284      	cmp	r4, r0
  3e:	d02b      	beq.n	98 <_Z30Debug_printCameraWriteRegisterhh+0x98>
  40:	4819      	ldr	r0, [pc, #100]	; (a8 <_Z30Debug_printCameraWriteRegisterhh+0xa8>)
  42:	e8bd 4070 	ldmia.w	sp!, {r4, r5, r6, lr}
  46:	f7ff bffe 	b.w	0 <_ZN5Print7printlnEv>
  4a:	4e1b      	ldr	r6, [pc, #108]	; (b8 <_Z30Debug_printCameraWriteRegisterhh+0xb8>)
  4c:	8833      	ldrh	r3, [r6, #0]
  4e:	b9ab      	cbnz	r3, 7c <_Z30Debug_printCameraWriteRegisterhh+0x7c>
  50:	4619      	mov	r1, r3
  52:	461a      	mov	r2, r3
  54:	4d17      	ldr	r5, [pc, #92]	; (b4 <_Z30Debug_printCameraWriteRegisterhh+0xb4>)
  56:	e004      	b.n	62 <_Z30Debug_printCameraWriteRegisterhh+0x62>
  58:	2963      	cmp	r1, #99	; 0x63
  5a:	eb05 02c1 	add.w	r2, r5, r1, lsl #3
  5e:	d013      	beq.n	88 <_Z30Debug_printCameraWriteRegisterhh+0x88>
  60:	7912      	ldrb	r2, [r2, #4]
  62:	b288      	uxth	r0, r1
  64:	3101      	adds	r1, #1
  66:	2a00      	cmp	r2, #0
  68:	d0f6      	beq.n	58 <_Z30Debug_printCameraWriteRegisterhh+0x58>
  6a:	4603      	mov	r3, r0
  6c:	8030      	strh	r0, [r6, #0]
  6e:	e00b      	b.n	88 <_Z30Debug_printCameraWriteRegisterhh+0x88>
  70:	701d      	strb	r5, [r3, #0]
  72:	480d      	ldr	r0, [pc, #52]	; (a8 <_Z30Debug_printCameraWriteRegisterhh+0xa8>)
  74:	e8bd 4070 	ldmia.w	sp!, {r4, r5, r6, lr}
  78:	f7ff bffe 	b.w	0 <_ZN5Print7printlnEv>
  7c:	2b62      	cmp	r3, #98	; 0x62
  7e:	d8df      	bhi.n	40 <_Z30Debug_printCameraWriteRegisterhh+0x40>
  80:	4d0c      	ldr	r5, [pc, #48]	; (b4 <_Z30Debug_printCameraWriteRegisterhh+0xb4>)
  82:	e001      	b.n	88 <_Z30Debug_printCameraWriteRegisterhh+0x88>
  84:	2b63      	cmp	r3, #99	; 0x63
  86:	d0db      	beq.n	40 <_Z30Debug_printCameraWriteRegisterhh+0x40>
  88:	eb05 02c3 	add.w	r2, r5, r3, lsl #3
  8c:	1c59      	adds	r1, r3, #1
  8e:	469c      	mov	ip, r3
  90:	88d2      	ldrh	r2, [r2, #6]
  92:	b28b      	uxth	r3, r1
  94:	4294      	cmp	r4, r2
  96:	d1f5      	bne.n	84 <_Z30Debug_printCameraWriteRegisterhh+0x84>
  98:	f855 203c 	ldr.w	r2, [r5, ip, lsl #3]
  9c:	4907      	ldr	r1, [pc, #28]	; (bc <_Z30Debug_printCameraWriteRegisterhh+0xbc>)
  9e:	4802      	ldr	r0, [pc, #8]	; (a8 <_Z30Debug_printCameraWriteRegisterhh+0xa8>)
  a0:	e8bd 4070 	ldmia.w	sp!, {r4, r5, r6, lr}
  a4:	f7ff bffe 	b.w	0 <_ZN5Print6printfEPKcz>
  a8:	00000000 	.word	0x00000000
  ac:	00000000 	.word	0x00000000
  b0:	00000000 	.word	0x00000000
  b4:	00000000 	.word	0x00000000
  b8:	00000000 	.word	0x00000000
  bc:	0000001c 	.word	0x0000001c

Disassembly of section .text._ZN6OV264019cameraWriteRegisterEhh:

00000000 <_ZN6OV264019cameraWriteRegisterEhh>:
   0:	7a03      	ldrb	r3, [r0, #8]
   2:	b570      	push	{r4, r5, r6, lr}
   4:	4604      	mov	r4, r0
   6:	460e      	mov	r6, r1
   8:	4615      	mov	r5, r2
   a:	b9cb      	cbnz	r3, 40 <_ZN6OV264019cameraWriteRegisterEhh+0x40>
   c:	6ea3      	ldr	r3, [r4, #104]	; 0x68
   e:	2260      	movs	r2, #96	; 0x60
  10:	4631      	mov	r1, r6
  12:	2601      	movs	r6, #1
  14:	f883 20a5 	strb.w	r2, [r3, #165]	; 0xa5
  18:	f883 6130 	strb.w	r6, [r3, #304]	; 0x130
  1c:	f883 612f 	strb.w	r6, [r3, #303]	; 0x12f
  20:	6ea0      	ldr	r0, [r4, #104]	; 0x68
  22:	6803      	ldr	r3, [r0, #0]
  24:	681b      	ldr	r3, [r3, #0]
  26:	4798      	blx	r3
  28:	6ea0      	ldr	r0, [r4, #104]	; 0x68
  2a:	4629      	mov	r1, r5
  2c:	6803      	ldr	r3, [r0, #0]
  2e:	681b      	ldr	r3, [r3, #0]
  30:	4798      	blx	r3
  32:	4631      	mov	r1, r6
  34:	6ea0      	ldr	r0, [r4, #104]	; 0x68
  36:	f7ff fffe 	bl	0 <_ZN7TwoWire15endTransmissionEh>
  3a:	b930      	cbnz	r0, 4a <_ZN6OV264019cameraWriteRegisterEhh+0x4a>
  3c:	2000      	movs	r0, #0
  3e:	bd70      	pop	{r4, r5, r6, pc}
  40:	4611      	mov	r1, r2
  42:	4630      	mov	r0, r6
  44:	f7ff fffe 	bl	0 <_ZN6OV264019cameraWriteRegisterEhh>
  48:	e7e0      	b.n	c <_ZN6OV264019cameraWriteRegisterEhh+0xc>
  4a:	2117      	movs	r1, #23
  4c:	4803      	ldr	r0, [pc, #12]	; (5c <_ZN6OV264019cameraWriteRegisterEhh+0x5c>)
  4e:	f7ff fffe 	bl	0 <usb_serial_write>
  52:	4803      	ldr	r0, [pc, #12]	; (60 <_ZN6OV264019cameraWriteRegisterEhh+0x60>)
  54:	f7ff fffe 	bl	0 <_ZN5Print7printlnEv>
  58:	2000      	movs	r0, #0
  5a:	bd70      	pop	{r4, r5, r6, pc}
  5c:	00000000 	.word	0x00000000
  60:	00000000 	.word	0x00000000

Disassembly of section .text._ZN6OV26405resetEv:

00000000 <_ZN6OV26405resetEv>:
   0:	b570      	push	{r4, r5, r6, lr}
   2:	2200      	movs	r2, #0
   4:	4d09      	ldr	r5, [pc, #36]	; (2c <_ZN6OV26405resetEv+0x2c>)
   6:	21ff      	movs	r1, #255	; 0xff
   8:	4606      	mov	r6, r0
   a:	e001      	b.n	10 <_ZN6OV26405resetEv+0x10>
   c:	b141      	cbz	r1, 20 <_ZN6OV26405resetEv+0x20>
   e:	786a      	ldrb	r2, [r5, #1]
  10:	4630      	mov	r0, r6
  12:	f7ff fffe 	bl	0 <_ZN6OV26405resetEv>
  16:	f815 1f02 	ldrb.w	r1, [r5, #2]!
  1a:	4604      	mov	r4, r0
  1c:	2800      	cmp	r0, #0
  1e:	d0f5      	beq.n	c <_ZN6OV26405resetEv+0xc>
  20:	200a      	movs	r0, #10
  22:	f7ff fffe 	bl	0 <delay>
  26:	4620      	mov	r0, r4
  28:	bd70      	pop	{r4, r5, r6, pc}
  2a:	bf00      	nop
  2c:	00000000 	.word	0x00000000

Disassembly of section .text._ZN6OV264012setPixformatE11pixformat_t:

00000000 <_ZN6OV264012setPixformatE11pixformat_t>:
   0:	3903      	subs	r1, #3
   2:	b538      	push	{r3, r4, r5, lr}
   4:	4604      	mov	r4, r0
   6:	2905      	cmp	r1, #5
   8:	d84c      	bhi.n	a4 <_ZN6OV264012setPixformatE11pixformat_t+0xa4>
   a:	e8df f001 	tbb	[pc, r1]
   e:	4b03      	.short	0x4b03
  10:	15032739 	.word	0x15032739
  14:	2303      	movs	r3, #3
  16:	4d24      	ldr	r5, [pc, #144]	; (a8 <_ZN6OV264012setPixformatE11pixformat_t+0xa8>)
  18:	2200      	movs	r2, #0
  1a:	21ff      	movs	r1, #255	; 0xff
  1c:	6643      	str	r3, [r0, #100]	; 0x64
  1e:	e001      	b.n	24 <_ZN6OV264012setPixformatE11pixformat_t+0x24>
  20:	b940      	cbnz	r0, 34 <_ZN6OV264012setPixformatE11pixformat_t+0x34>
  22:	786a      	ldrb	r2, [r5, #1]
  24:	4620      	mov	r0, r4
  26:	f7ff fffe 	bl	0 <_ZN6OV264012setPixformatE11pixformat_t>
  2a:	f815 1f02 	ldrb.w	r1, [r5, #2]!
  2e:	4603      	mov	r3, r0
  30:	2900      	cmp	r1, #0
  32:	d1f5      	bne.n	20 <_ZN6OV264012setPixformatE11pixformat_t+0x20>
  34:	4618      	mov	r0, r3
  36:	bd38      	pop	{r3, r4, r5, pc}
  38:	2308      	movs	r3, #8
  3a:	4d1c      	ldr	r5, [pc, #112]	; (ac <_ZN6OV264012setPixformatE11pixformat_t+0xac>)
  3c:	2200      	movs	r2, #0
  3e:	21ff      	movs	r1, #255	; 0xff
  40:	6643      	str	r3, [r0, #100]	; 0x64
  42:	e002      	b.n	4a <_ZN6OV264012setPixformatE11pixformat_t+0x4a>
  44:	2800      	cmp	r0, #0
  46:	d1f5      	bne.n	34 <_ZN6OV264012setPixformatE11pixformat_t+0x34>
  48:	786a      	ldrb	r2, [r5, #1]
  4a:	4620      	mov	r0, r4
  4c:	f7ff fffe 	bl	0 <_ZN6OV264012setPixformatE11pixformat_t>
  50:	f815 1f02 	ldrb.w	r1, [r5, #2]!
  54:	4603      	mov	r3, r0
  56:	2900      	cmp	r1, #0
  58:	d1f4      	bne.n	44 <_ZN6OV264012setPixformatE11pixformat_t+0x44>
  5a:	e7eb      	b.n	34 <_ZN6OV264012setPixformatE11pixformat_t+0x34>
  5c:	2305      	movs	r3, #5
  5e:	4d14      	ldr	r5, [pc, #80]	; (b0 <_ZN6OV264012setPixformatE11pixformat_t+0xb0>)
  60:	2200      	movs	r2, #0
  62:	21ff      	movs	r1, #255	; 0xff
  64:	6643      	str	r3, [r0, #100]	; 0x64
  66:	e002      	b.n	6e <_ZN6OV264012setPixformatE11pixformat_t+0x6e>
  68:	2800      	cmp	r0, #0
  6a:	d1e3      	bne.n	34 <_ZN6OV264012setPixformatE11pixformat_t+0x34>
  6c:	786a      	ldrb	r2, [r5, #1]
  6e:	4620      	mov	r0, r4
  70:	f7ff fffe 	bl	0 <_ZN6OV264012setPixformatE11pixformat_t>
  74:	f815 1f02 	ldrb.w	r1, [r5, #2]!
  78:	4603      	mov	r3, r0
  7a:	2900      	cmp	r1, #0
  7c:	d1f4      	bne.n	68 <_ZN6OV264012setPixformatE11pixformat_t+0x68>
  7e:	e7d9      	b.n	34 <_ZN6OV264012setPixformatE11pixformat_t+0x34>
  80:	2305      	movs	r3, #5
  82:	4d0c      	ldr	r5, [pc, #48]	; (b4 <_ZN6OV264012setPixformatE11pixformat_t+0xb4>)
  84:	2200      	movs	r2, #0
  86:	21ff      	movs	r1, #255	; 0xff
  88:	6643      	str	r3, [r0, #100]	; 0x64
  8a:	e002      	b.n	92 <_ZN6OV264012setPixformatE11pixformat_t+0x92>
  8c:	2800      	cmp	r0, #0
  8e:	d1d1      	bne.n	34 <_ZN6OV264012setPixformatE11pixformat_t+0x34>
  90:	786a      	ldrb	r2, [r5, #1]
  92:	4620      	mov	r0, r4
  94:	f7ff fffe 	bl	0 <_ZN6OV264012setPixformatE11pixformat_t>
  98:	f815 1f02 	ldrb.w	r1, [r5, #2]!
  9c:	4603      	mov	r3, r0
  9e:	2900      	cmp	r1, #0
  a0:	d1f4      	bne.n	8c <_ZN6OV264012setPixformatE11pixformat_t+0x8c>
  a2:	e7c7      	b.n	34 <_ZN6OV264012setPixformatE11pixformat_t+0x34>
  a4:	2300      	movs	r3, #0
  a6:	e7c5      	b.n	34 <_ZN6OV264012setPixformatE11pixformat_t+0x34>
  a8:	00000000 	.word	0x00000000
  ac:	00000000 	.word	0x00000000
  b0:	00000000 	.word	0x00000000
  b4:	00000000 	.word	0x00000000

Disassembly of section .text._ZN6OV264012setFramesizeEii.part.0:

00000000 <_ZN6OV264012setFramesizeEii.part.0>:
   0:	7a03      	ldrb	r3, [r0, #8]
   2:	e92d 4ff0 	stmdb	sp!, {r4, r5, r6, r7, r8, r9, sl, fp, lr}
   6:	4604      	mov	r4, r0
   8:	b08f      	sub	sp, #60	; 0x3c
   a:	460e      	mov	r6, r1
   c:	4615      	mov	r5, r2
   e:	bb53      	cbnz	r3, 66 <_ZN6OV264012setFramesizeEii.part.0+0x66>
  10:	ea41 0302 	orr.w	r3, r1, r2
  14:	079b      	lsls	r3, r3, #30
  16:	d003      	beq.n	20 <_ZN6OV264012setFramesizeEii.part.0+0x20>
  18:	2000      	movs	r0, #0
  1a:	b00f      	add	sp, #60	; 0x3c
  1c:	e8bd 8ff0 	ldmia.w	sp!, {r4, r5, r6, r7, r8, r9, sl, fp, pc}
  20:	f5b1 6fc8 	cmp.w	r1, #1600	; 0x640
  24:	dcf8      	bgt.n	18 <_ZN6OV264012setFramesizeEii.part.0+0x18>
  26:	f5b2 6f96 	cmp.w	r2, #1200	; 0x4b0
  2a:	dcf5      	bgt.n	18 <_ZN6OV264012setFramesizeEii.part.0+0x18>
  2c:	f5b6 7f48 	cmp.w	r6, #800	; 0x320
  30:	dc3d      	bgt.n	ae <_ZN6OV264012setFramesizeEii.part.0+0xae>
  32:	f5b5 7f16 	cmp.w	r5, #600	; 0x258
  36:	dc3a      	bgt.n	ae <_ZN6OV264012setFramesizeEii.part.0+0xae>
  38:	f8df 8370 	ldr.w	r8, [pc, #880]	; 3ac <_ZN6OV264012setFramesizeEii.part.0+0x3ac>
  3c:	2201      	movs	r2, #1
  3e:	21ff      	movs	r1, #255	; 0xff
  40:	e002      	b.n	48 <_ZN6OV264012setFramesizeEii.part.0+0x48>
  42:	b141      	cbz	r1, 56 <_ZN6OV264012setFramesizeEii.part.0+0x56>
  44:	f898 2001 	ldrb.w	r2, [r8, #1]
  48:	4620      	mov	r0, r4
  4a:	f7ff fffe 	bl	0 <_ZN6OV264012setFramesizeEii.part.0>
  4e:	f818 1f02 	ldrb.w	r1, [r8, #2]!
  52:	2800      	cmp	r0, #0
  54:	d0f5      	beq.n	42 <_ZN6OV264012setFramesizeEii.part.0+0x42>
  56:	f44f 7316 	mov.w	r3, #600	; 0x258
  5a:	f44f 7248 	mov.w	r2, #800	; 0x320
  5e:	9007      	str	r0, [sp, #28]
  60:	4619      	mov	r1, r3
  62:	4610      	mov	r0, r2
  64:	e03a      	b.n	dc <_ZN6OV264012setFramesizeEii.part.0+0xdc>
  66:	f44f 6396 	mov.w	r3, #1200	; 0x4b0
  6a:	f44f 62c8 	mov.w	r2, #1600	; 0x640
  6e:	49c6      	ldr	r1, [pc, #792]	; (388 <_ZN6OV264012setFramesizeEii.part.0+0x388>)
  70:	48c6      	ldr	r0, [pc, #792]	; (38c <_ZN6OV264012setFramesizeEii.part.0+0x38c>)
  72:	f7ff fffe 	bl	0 <_ZN5Print6printfEPKcz>
  76:	462b      	mov	r3, r5
  78:	4632      	mov	r2, r6
  7a:	49c5      	ldr	r1, [pc, #788]	; (390 <_ZN6OV264012setFramesizeEii.part.0+0x390>)
  7c:	48c3      	ldr	r0, [pc, #780]	; (38c <_ZN6OV264012setFramesizeEii.part.0+0x38c>)
  7e:	f7ff fffe 	bl	0 <_ZN5Print6printfEPKcz>
  82:	ea46 0305 	orr.w	r3, r6, r5
  86:	079a      	lsls	r2, r3, #30
  88:	d00a      	beq.n	a0 <_ZN6OV264012setFramesizeEii.part.0+0xa0>
  8a:	7a23      	ldrb	r3, [r4, #8]
  8c:	2b00      	cmp	r3, #0
  8e:	d0c3      	beq.n	18 <_ZN6OV264012setFramesizeEii.part.0+0x18>
  90:	2123      	movs	r1, #35	; 0x23
  92:	48c0      	ldr	r0, [pc, #768]	; (394 <_ZN6OV264012setFramesizeEii.part.0+0x394>)
  94:	f7ff fffe 	bl	0 <usb_serial_write>
  98:	48bc      	ldr	r0, [pc, #752]	; (38c <_ZN6OV264012setFramesizeEii.part.0+0x38c>)
  9a:	f7ff fffe 	bl	0 <_ZN5Print7printlnEv>
  9e:	e7bb      	b.n	18 <_ZN6OV264012setFramesizeEii.part.0+0x18>
  a0:	f5b6 6fc8 	cmp.w	r6, #1600	; 0x640
  a4:	dcf1      	bgt.n	8a <_ZN6OV264012setFramesizeEii.part.0+0x8a>
  a6:	f5b5 6f96 	cmp.w	r5, #1200	; 0x4b0
  aa:	ddbf      	ble.n	2c <_ZN6OV264012setFramesizeEii.part.0+0x2c>
  ac:	e7ed      	b.n	8a <_ZN6OV264012setFramesizeEii.part.0+0x8a>
  ae:	f8df 8300 	ldr.w	r8, [pc, #768]	; 3b0 <_ZN6OV264012setFramesizeEii.part.0+0x3b0>
  b2:	2201      	movs	r2, #1
  b4:	21ff      	movs	r1, #255	; 0xff
  b6:	e002      	b.n	be <_ZN6OV264012setFramesizeEii.part.0+0xbe>
  b8:	b948      	cbnz	r0, ce <_ZN6OV264012setFramesizeEii.part.0+0xce>
  ba:	f898 2001 	ldrb.w	r2, [r8, #1]
  be:	4620      	mov	r0, r4
  c0:	f7ff fffe 	bl	0 <_ZN6OV264012setFramesizeEii.part.0>
  c4:	f818 1f02 	ldrb.w	r1, [r8, #2]!
  c8:	4607      	mov	r7, r0
  ca:	2900      	cmp	r1, #0
  cc:	d1f4      	bne.n	b8 <_ZN6OV264012setFramesizeEii.part.0+0xb8>
  ce:	f44f 6396 	mov.w	r3, #1200	; 0x4b0
  d2:	f44f 62c8 	mov.w	r2, #1600	; 0x640
  d6:	9707      	str	r7, [sp, #28]
  d8:	4619      	mov	r1, r3
  da:	4610      	mov	r0, r2
  dc:	f8a4 0058 	strh.w	r0, [r4, #88]	; 0x58
  e0:	f8a4 105a 	strh.w	r1, [r4, #90]	; 0x5a
  e4:	f8a4 6054 	strh.w	r6, [r4, #84]	; 0x54
  e8:	f8a4 5056 	strh.w	r5, [r4, #86]	; 0x56
  ec:	fb92 f1f6 	sdiv	r1, r2, r6
  f0:	fb93 f0f5 	sdiv	r0, r3, r5
  f4:	4281      	cmp	r1, r0
  f6:	9105      	str	r1, [sp, #20]
  f8:	9008      	str	r0, [sp, #32]
  fa:	bfa8      	it	ge
  fc:	4601      	movge	r1, r0
  fe:	468a      	mov	sl, r1
 100:	17c9      	asrs	r1, r1, #31
 102:	f1ba 0f00 	cmp.w	sl, #0
 106:	9109      	str	r1, [sp, #36]	; 0x24
 108:	f280 8154 	bge.w	3b4 <_ZN6OV264012setFramesizeEii.part.0+0x3b4>
 10c:	2108      	movs	r1, #8
 10e:	2003      	movs	r0, #3
 110:	f04f 0b9b 	mov.w	fp, #155	; 0x9b
 114:	4688      	mov	r8, r1
 116:	9106      	str	r1, [sp, #24]
 118:	900a      	str	r0, [sp, #40]	; 0x28
 11a:	910b      	str	r1, [sp, #44]	; 0x2c
 11c:	fb16 f908 	smulbb	r9, r6, r8
 120:	fb15 f808 	smulbb	r8, r5, r8
 124:	fa1f f989 	uxth.w	r9, r9
 128:	fa1f f888 	uxth.w	r8, r8
 12c:	ebb2 0109 	subs.w	r1, r2, r9
 130:	bf48      	it	mi
 132:	3101      	addmi	r1, #1
 134:	1048      	asrs	r0, r1, #1
 136:	f3c1 014f 	ubfx	r1, r1, #1, #16
 13a:	9103      	str	r1, [sp, #12]
 13c:	ebb3 0108 	subs.w	r1, r3, r8
 140:	9002      	str	r0, [sp, #8]
 142:	bf48      	it	mi
 144:	3101      	addmi	r1, #1
 146:	7a20      	ldrb	r0, [r4, #8]
 148:	104f      	asrs	r7, r1, #1
 14a:	f3c1 014f 	ubfx	r1, r1, #1, #16
 14e:	9104      	str	r1, [sp, #16]
 150:	2800      	cmp	r0, #0
 152:	f040 80f6 	bne.w	342 <_ZN6OV264012setFramesizeEii.part.0+0x342>
 156:	465a      	mov	r2, fp
 158:	2150      	movs	r1, #80	; 0x50
 15a:	4620      	mov	r0, r4
 15c:	f7ff fffe 	bl	0 <_ZN6OV264012setFramesizeEii.part.0>
 160:	f3c9 0287 	ubfx	r2, r9, #2, #8
 164:	4682      	mov	sl, r0
 166:	2151      	movs	r1, #81	; 0x51
 168:	4620      	mov	r0, r4
 16a:	f7ff fffe 	bl	0 <_ZN6OV264012setFramesizeEii.part.0>
 16e:	f3c8 0287 	ubfx	r2, r8, #2, #8
 172:	2152      	movs	r1, #82	; 0x52
 174:	9005      	str	r0, [sp, #20]
 176:	4620      	mov	r0, r4
 178:	ea4f 2898 	mov.w	r8, r8, lsr #10
 17c:	f7ff fffe 	bl	0 <_ZN6OV264012setFramesizeEii.part.0>
 180:	4683      	mov	fp, r0
 182:	f89d 2008 	ldrb.w	r2, [sp, #8]
 186:	2153      	movs	r1, #83	; 0x53
 188:	4620      	mov	r0, r4
 18a:	f7ff fffe 	bl	0 <_ZN6OV264012setFramesizeEii.part.0>
 18e:	ea4b 0b00 	orr.w	fp, fp, r0
 192:	9b07      	ldr	r3, [sp, #28]
 194:	b2fa      	uxtb	r2, r7
 196:	fa5f fb8b 	uxtb.w	fp, fp
 19a:	2154      	movs	r1, #84	; 0x54
 19c:	4620      	mov	r0, r4
 19e:	ea4b 0b03 	orr.w	fp, fp, r3
 1a2:	f7ff fffe 	bl	0 <_ZN6OV264012setFramesizeEii.part.0>
 1a6:	9b03      	ldr	r3, [sp, #12]
 1a8:	ea4f 12d9 	mov.w	r2, r9, lsr #7
 1ac:	ea40 0b0b 	orr.w	fp, r0, fp
 1b0:	f002 0208 	and.w	r2, r2, #8
 1b4:	f3c3 2001 	ubfx	r0, r3, #8, #2
 1b8:	9b04      	ldr	r3, [sp, #16]
 1ba:	ea42 12c8 	orr.w	r2, r2, r8, lsl #7
 1be:	0919      	lsrs	r1, r3, #4
 1c0:	4302      	orrs	r2, r0
 1c2:	4620      	mov	r0, r4
 1c4:	f001 0130 	and.w	r1, r1, #48	; 0x30
 1c8:	430a      	orrs	r2, r1
 1ca:	2155      	movs	r1, #85	; 0x55
 1cc:	f002 02bb 	and.w	r2, r2, #187	; 0xbb
 1d0:	f7ff fffe 	bl	0 <_ZN6OV264012setFramesizeEii.part.0>
 1d4:	ea40 080b 	orr.w	r8, r0, fp
 1d8:	ea4f 1219 	mov.w	r2, r9, lsr #4
 1dc:	2157      	movs	r1, #87	; 0x57
 1de:	4620      	mov	r0, r4
 1e0:	f002 0280 	and.w	r2, r2, #128	; 0x80
 1e4:	f7ff fffe 	bl	0 <_ZN6OV264012setFramesizeEii.part.0>
 1e8:	f3c6 0287 	ubfx	r2, r6, #2, #8
 1ec:	ea40 0808 	orr.w	r8, r0, r8
 1f0:	215a      	movs	r1, #90	; 0x5a
 1f2:	4620      	mov	r0, r4
 1f4:	f7ff fffe 	bl	0 <_ZN6OV264012setFramesizeEii.part.0>
 1f8:	f3c5 0287 	ubfx	r2, r5, #2, #8
 1fc:	0a2d      	lsrs	r5, r5, #8
 1fe:	ea40 0808 	orr.w	r8, r0, r8
 202:	215b      	movs	r1, #91	; 0x5b
 204:	4620      	mov	r0, r4
 206:	f7ff fffe 	bl	0 <_ZN6OV264012setFramesizeEii.part.0>
 20a:	f005 0504 	and.w	r5, r5, #4
 20e:	f3c6 2281 	ubfx	r2, r6, #10, #2
 212:	ea40 0808 	orr.w	r8, r0, r8
 216:	215c      	movs	r1, #92	; 0x5c
 218:	4620      	mov	r0, r4
 21a:	432a      	orrs	r2, r5
 21c:	f7ff fffe 	bl	0 <_ZN6OV264012setFramesizeEii.part.0>
 220:	ea40 0508 	orr.w	r5, r0, r8
 224:	9a06      	ldr	r2, [sp, #24]
 226:	21d3      	movs	r1, #211	; 0xd3
 228:	4620      	mov	r0, r4
 22a:	f7ff fffe 	bl	0 <_ZN6OV264012setFramesizeEii.part.0>
 22e:	2200      	movs	r2, #0
 230:	4305      	orrs	r5, r0
 232:	21e0      	movs	r1, #224	; 0xe0
 234:	4620      	mov	r0, r4
 236:	f7ff fffe 	bl	0 <_ZN6OV264012setFramesizeEii.part.0>
 23a:	9b05      	ldr	r3, [sp, #20]
 23c:	4328      	orrs	r0, r5
 23e:	ea4a 0a03 	orr.w	sl, sl, r3
 242:	6e63      	ldr	r3, [r4, #100]	; 0x64
 244:	fa5f fa8a 	uxtb.w	sl, sl
 248:	2b08      	cmp	r3, #8
 24a:	ea4a 0a00 	orr.w	sl, sl, r0
 24e:	d030      	beq.n	2b2 <_ZN6OV264012setFramesizeEii.part.0+0x2b2>
 250:	7ae3      	ldrb	r3, [r4, #11]
 252:	b19b      	cbz	r3, 27c <_ZN6OV264012setFramesizeEii.part.0+0x27c>
 254:	f8bd 3034 	ldrh.w	r3, [sp, #52]	; 0x34
 258:	f5b6 7fc8 	cmp.w	r6, #400	; 0x190
 25c:	f403 4380 	and.w	r3, r3, #16384	; 0x4000
 260:	f443 63f1 	orr.w	r3, r3, #1928	; 0x788
 264:	f8ad 3034 	strh.w	r3, [sp, #52]	; 0x34
 268:	dc16      	bgt.n	298 <_ZN6OV264012setFramesizeEii.part.0+0x298>
 26a:	f89d 3035 	ldrb.w	r3, [sp, #53]	; 0x35
 26e:	2208      	movs	r2, #8
 270:	2688      	movs	r6, #136	; 0x88
 272:	f362 0305 	bfi	r3, r2, #0, #6
 276:	f88d 3035 	strb.w	r3, [sp, #53]	; 0x35
 27a:	e02d      	b.n	2d8 <_ZN6OV264012setFramesizeEii.part.0+0x2d8>
 27c:	f8bd 2034 	ldrh.w	r2, [sp, #52]	; 0x34
 280:	f248 7388 	movw	r3, #34696	; 0x8788
 284:	f5b6 7fc8 	cmp.w	r6, #400	; 0x190
 288:	f402 4280 	and.w	r2, r2, #16384	; 0x4000
 28c:	ea43 0302 	orr.w	r3, r3, r2
 290:	f8ad 3034 	strh.w	r3, [sp, #52]	; 0x34
 294:	f340 80af 	ble.w	3f6 <_ZN6OV264012setFramesizeEii.part.0+0x3f6>
 298:	f5b6 7f48 	cmp.w	r6, #800	; 0x320
 29c:	f300 80a8 	bgt.w	3f0 <_ZN6OV264012setFramesizeEii.part.0+0x3f0>
 2a0:	f89d 3034 	ldrb.w	r3, [sp, #52]	; 0x34
 2a4:	220c      	movs	r2, #12
 2a6:	f362 0306 	bfi	r3, r2, #0, #7
 2aa:	b2de      	uxtb	r6, r3
 2ac:	f88d 3034 	strb.w	r3, [sp, #52]	; 0x34
 2b0:	e012      	b.n	2d8 <_ZN6OV264012setFramesizeEii.part.0+0x2d8>
 2b2:	f8bd 2034 	ldrh.w	r2, [sp, #52]	; 0x34
 2b6:	f5b6 7f48 	cmp.w	r6, #800	; 0x320
 2ba:	f422 423f 	bic.w	r2, r2, #48896	; 0xbf00
 2be:	f022 0280 	bic.w	r2, r2, #128	; 0x80
 2c2:	f8ad 2034 	strh.w	r2, [sp, #52]	; 0x34
 2c6:	f340 808b 	ble.w	3e0 <_ZN6OV264012setFramesizeEii.part.0+0x3e0>
 2ca:	f89d 2034 	ldrb.w	r2, [sp, #52]	; 0x34
 2ce:	461e      	mov	r6, r3
 2d0:	f363 0206 	bfi	r2, r3, #0, #7
 2d4:	f88d 2034 	strb.w	r2, [sp, #52]	; 0x34
 2d8:	7a23      	ldrb	r3, [r4, #8]
 2da:	2b00      	cmp	r3, #0
 2dc:	f040 8094 	bne.w	408 <_ZN6OV264012setFramesizeEii.part.0+0x408>
 2e0:	f89d 5035 	ldrb.w	r5, [sp, #53]	; 0x35
 2e4:	2201      	movs	r2, #1
 2e6:	21ff      	movs	r1, #255	; 0xff
 2e8:	4620      	mov	r0, r4
 2ea:	f7ff fffe 	bl	0 <_ZN6OV264012setFramesizeEii.part.0>
 2ee:	462a      	mov	r2, r5
 2f0:	ea40 050a 	orr.w	r5, r0, sl
 2f4:	2111      	movs	r1, #17
 2f6:	4620      	mov	r0, r4
 2f8:	f7ff fffe 	bl	0 <_ZN6OV264012setFramesizeEii.part.0>
 2fc:	4305      	orrs	r5, r0
 2fe:	2200      	movs	r2, #0
 300:	21ff      	movs	r1, #255	; 0xff
 302:	4620      	mov	r0, r4
 304:	f7ff fffe 	bl	0 <_ZN6OV264012setFramesizeEii.part.0>
 308:	4305      	orrs	r5, r0
 30a:	4632      	mov	r2, r6
 30c:	21d3      	movs	r1, #211	; 0xd3
 30e:	4620      	mov	r0, r4
 310:	f7ff fffe 	bl	0 <_ZN6OV264012setFramesizeEii.part.0>
 314:	2200      	movs	r2, #0
 316:	ea40 0605 	orr.w	r6, r0, r5
 31a:	21ff      	movs	r1, #255	; 0xff
 31c:	4620      	mov	r0, r4
 31e:	f7ff fffe 	bl	0 <_ZN6OV264012setFramesizeEii.part.0>
 322:	4605      	mov	r5, r0
 324:	2200      	movs	r2, #0
 326:	2105      	movs	r1, #5
 328:	4620      	mov	r0, r4
 32a:	4335      	orrs	r5, r6
 32c:	f7ff fffe 	bl	0 <_ZN6OV264012setFramesizeEii.part.0>
 330:	4604      	mov	r4, r0
 332:	200a      	movs	r0, #10
 334:	432c      	orrs	r4, r5
 336:	f7ff fffe 	bl	0 <delay>
 33a:	b2e0      	uxtb	r0, r4
 33c:	b00f      	add	sp, #60	; 0x3c
 33e:	e8bd 8ff0 	ldmia.w	sp!, {r4, r5, r6, r7, r8, r9, sl, fp, pc}
 342:	4915      	ldr	r1, [pc, #84]	; (398 <_ZN6OV264012setFramesizeEii.part.0+0x398>)
 344:	4811      	ldr	r0, [pc, #68]	; (38c <_ZN6OV264012setFramesizeEii.part.0+0x38c>)
 346:	f7ff fffe 	bl	0 <_ZN5Print6printfEPKcz>
 34a:	9b08      	ldr	r3, [sp, #32]
 34c:	9a05      	ldr	r2, [sp, #20]
 34e:	4913      	ldr	r1, [pc, #76]	; (39c <_ZN6OV264012setFramesizeEii.part.0+0x39c>)
 350:	480e      	ldr	r0, [pc, #56]	; (38c <_ZN6OV264012setFramesizeEii.part.0+0x38c>)
 352:	f7ff fffe 	bl	0 <_ZN5Print6printfEPKcz>
 356:	9b0b      	ldr	r3, [sp, #44]	; 0x2c
 358:	4652      	mov	r2, sl
 35a:	4911      	ldr	r1, [pc, #68]	; (3a0 <_ZN6OV264012setFramesizeEii.part.0+0x3a0>)
 35c:	9301      	str	r3, [sp, #4]
 35e:	9b0a      	ldr	r3, [sp, #40]	; 0x28
 360:	480a      	ldr	r0, [pc, #40]	; (38c <_ZN6OV264012setFramesizeEii.part.0+0x38c>)
 362:	9300      	str	r3, [sp, #0]
 364:	9b09      	ldr	r3, [sp, #36]	; 0x24
 366:	f7ff fffe 	bl	0 <_ZN5Print6printfEPKcz>
 36a:	4643      	mov	r3, r8
 36c:	464a      	mov	r2, r9
 36e:	490d      	ldr	r1, [pc, #52]	; (3a4 <_ZN6OV264012setFramesizeEii.part.0+0x3a4>)
 370:	4806      	ldr	r0, [pc, #24]	; (38c <_ZN6OV264012setFramesizeEii.part.0+0x38c>)
 372:	f7ff fffe 	bl	0 <_ZN5Print6printfEPKcz>
 376:	f8bd 2008 	ldrh.w	r2, [sp, #8]
 37a:	b2bb      	uxth	r3, r7
 37c:	490a      	ldr	r1, [pc, #40]	; (3a8 <_ZN6OV264012setFramesizeEii.part.0+0x3a8>)
 37e:	4803      	ldr	r0, [pc, #12]	; (38c <_ZN6OV264012setFramesizeEii.part.0+0x38c>)
 380:	f7ff fffe 	bl	0 <_ZN5Print6printfEPKcz>
 384:	e6e7      	b.n	156 <_ZN6OV264012setFramesizeEii.part.0+0x156>
 386:	bf00      	nop
 388:	00000000 	.word	0x00000000
 38c:	00000000 	.word	0x00000000
 390:	0000001c 	.word	0x0000001c
 394:	00000034 	.word	0x00000034
 398:	00000058 	.word	0x00000058
 39c:	00000070 	.word	0x00000070
 3a0:	00000094 	.word	0x00000094
 3a4:	000000b8 	.word	0x000000b8
 3a8:	000000d0 	.word	0x000000d0
 3ac:	00000000 	.word	0x00000000
 3b0:	00000000 	.word	0x00000000
 3b4:	f64f 71f0 	movw	r1, #65520	; 0xfff0
 3b8:	ea1a 0f01 	tst.w	sl, r1
 3bc:	f47f aea6 	bne.w	10c <_ZN6OV264012setFramesizeEii.part.0+0x10c>
 3c0:	f01a 0f0c 	tst.w	sl, #12
 3c4:	d03d      	beq.n	442 <_ZN6OV264012setFramesizeEii.part.0+0x442>
 3c6:	f01a 0f08 	tst.w	sl, #8
 3ca:	f47f ae9f 	bne.w	10c <_ZN6OV264012setFramesizeEii.part.0+0x10c>
 3ce:	2104      	movs	r1, #4
 3d0:	2002      	movs	r0, #2
 3d2:	f04f 0b92 	mov.w	fp, #146	; 0x92
 3d6:	4688      	mov	r8, r1
 3d8:	9106      	str	r1, [sp, #24]
 3da:	900a      	str	r0, [sp, #40]	; 0x28
 3dc:	910b      	str	r1, [sp, #44]	; 0x2c
 3de:	e69d      	b.n	11c <_ZN6OV264012setFramesizeEii.part.0+0x11c>
 3e0:	f89d 3034 	ldrb.w	r3, [sp, #52]	; 0x34
 3e4:	260c      	movs	r6, #12
 3e6:	f366 0306 	bfi	r3, r6, #0, #7
 3ea:	f88d 3034 	strb.w	r3, [sp, #52]	; 0x34
 3ee:	e773      	b.n	2d8 <_ZN6OV264012setFramesizeEii.part.0+0x2d8>
 3f0:	f89d 6034 	ldrb.w	r6, [sp, #52]	; 0x34
 3f4:	e770      	b.n	2d8 <_ZN6OV264012setFramesizeEii.part.0+0x2d8>
 3f6:	f89d 3035 	ldrb.w	r3, [sp, #53]	; 0x35
 3fa:	2203      	movs	r2, #3
 3fc:	2688      	movs	r6, #136	; 0x88
 3fe:	f362 0305 	bfi	r3, r2, #0, #6
 402:	f88d 3035 	strb.w	r3, [sp, #53]	; 0x35
 406:	e767      	b.n	2d8 <_ZN6OV264012setFramesizeEii.part.0+0x2d8>
 408:	f89d 3034 	ldrb.w	r3, [sp, #52]	; 0x34
 40c:	f89d 2035 	ldrb.w	r2, [sp, #53]	; 0x35
 410:	f003 057f 	and.w	r5, r3, #127	; 0x7f
 414:	09db      	lsrs	r3, r3, #7
 416:	4912      	ldr	r1, [pc, #72]	; (460 <_ZN6OV264012setFramesizeEii.part.0+0x460>)
 418:	9501      	str	r5, [sp, #4]
 41a:	9300      	str	r3, [sp, #0]
 41c:	f002 033f 	and.w	r3, r2, #63	; 0x3f
 420:	4810      	ldr	r0, [pc, #64]	; (464 <_ZN6OV264012setFramesizeEii.part.0+0x464>)
 422:	09d2      	lsrs	r2, r2, #7
 424:	f7ff fffe 	bl	0 <_ZN5Print6printfEPKcz>
 428:	f89d 5035 	ldrb.w	r5, [sp, #53]	; 0x35
 42c:	490e      	ldr	r1, [pc, #56]	; (468 <_ZN6OV264012setFramesizeEii.part.0+0x468>)
 42e:	462a      	mov	r2, r5
 430:	480c      	ldr	r0, [pc, #48]	; (464 <_ZN6OV264012setFramesizeEii.part.0+0x464>)
 432:	f7ff fffe 	bl	0 <_ZN5Print6printfEPKcz>
 436:	4632      	mov	r2, r6
 438:	490c      	ldr	r1, [pc, #48]	; (46c <_ZN6OV264012setFramesizeEii.part.0+0x46c>)
 43a:	480a      	ldr	r0, [pc, #40]	; (464 <_ZN6OV264012setFramesizeEii.part.0+0x464>)
 43c:	f7ff fffe 	bl	0 <_ZN5Print6printfEPKcz>
 440:	e750      	b.n	2e4 <_ZN6OV264012setFramesizeEii.part.0+0x2e4>
 442:	f3ca 0040 	ubfx	r0, sl, #1, #1
 446:	2101      	movs	r1, #1
 448:	4081      	lsls	r1, r0
 44a:	ea40 0bc0 	orr.w	fp, r0, r0, lsl #3
 44e:	900a      	str	r0, [sp, #40]	; 0x28
 450:	fa1f f881 	uxth.w	r8, r1
 454:	910b      	str	r1, [sp, #44]	; 0x2c
 456:	b2c9      	uxtb	r1, r1
 458:	f04b 0b80 	orr.w	fp, fp, #128	; 0x80
 45c:	9106      	str	r1, [sp, #24]
 45e:	e65d      	b.n	11c <_ZN6OV264012setFramesizeEii.part.0+0x11c>
 460:	000000e8 	.word	0x000000e8
 464:	00000000 	.word	0x00000000
 468:	00000128 	.word	0x00000128
 46c:	0000013c 	.word	0x0000013c

Disassembly of section .text._ZN6OV264012setFramesizeEii:

00000000 <_ZN6OV264012setFramesizeEii>:
   0:	b111      	cbz	r1, 8 <_ZN6OV264012setFramesizeEii+0x8>
   2:	b10a      	cbz	r2, 8 <_ZN6OV264012setFramesizeEii+0x8>
   4:	f7ff bffe 	b.w	0 <_ZN6OV264012setFramesizeEii>
   8:	2001      	movs	r0, #1
   a:	4770      	bx	lr

Disassembly of section .text._ZN6OV264012setFramesizeE11framesize_t:

00000000 <_ZN6OV264012setFramesizeE11framesize_t>:
   0:	290a      	cmp	r1, #10
   2:	d816      	bhi.n	32 <_ZN6OV264012setFramesizeE11framesize_t+0x32>
   4:	4a0e      	ldr	r2, [pc, #56]	; (40 <_ZN6OV264012setFramesizeE11framesize_t+0x40>)
   6:	6803      	ldr	r3, [r0, #0]
   8:	b410      	push	{r4}
   a:	6bdc      	ldr	r4, [r3, #60]	; 0x3c
   c:	f852 3031 	ldr.w	r3, [r2, r1, lsl #3]
  10:	eb02 02c1 	add.w	r2, r2, r1, lsl #3
  14:	490b      	ldr	r1, [pc, #44]	; (44 <_ZN6OV264012setFramesizeE11framesize_t+0x44>)
  16:	6852      	ldr	r2, [r2, #4]
  18:	428c      	cmp	r4, r1
  1a:	d10c      	bne.n	36 <_ZN6OV264012setFramesizeE11framesize_t+0x36>
  1c:	b12b      	cbz	r3, 2a <_ZN6OV264012setFramesizeE11framesize_t+0x2a>
  1e:	b122      	cbz	r2, 2a <_ZN6OV264012setFramesizeE11framesize_t+0x2a>
  20:	4619      	mov	r1, r3
  22:	f85d 4b04 	ldr.w	r4, [sp], #4
  26:	f7ff bffe 	b.w	0 <_ZN6OV264012setFramesizeE11framesize_t>
  2a:	2001      	movs	r0, #1
  2c:	f85d 4b04 	ldr.w	r4, [sp], #4
  30:	4770      	bx	lr
  32:	2001      	movs	r0, #1
  34:	4770      	bx	lr
  36:	4619      	mov	r1, r3
  38:	4623      	mov	r3, r4
  3a:	f85d 4b04 	ldr.w	r4, [sp], #4
  3e:	4718      	bx	r3
  40:	00000000 	.word	0x00000000
  44:	00000000 	.word	0x00000000

Disassembly of section .text._ZN6OV264013setZoomWindowEtttt:

00000000 <_ZN6OV264013setZoomWindowEtttt>:
   0:	e92d 4ff0 	stmdb	sp!, {r4, r5, r6, r7, r8, r9, sl, fp, lr}
   4:	461d      	mov	r5, r3
   6:	b085      	sub	sp, #20
   8:	7a03      	ldrb	r3, [r0, #8]
   a:	4604      	mov	r4, r0
   c:	460e      	mov	r6, r1
   e:	4617      	mov	r7, r2
  10:	f8bd 8038 	ldrh.w	r8, [sp, #56]	; 0x38
  14:	2b00      	cmp	r3, #0
  16:	d15e      	bne.n	d6 <_ZN6OV264013setZoomWindowEtttt+0xd6>
  18:	f64f 73ff 	movw	r3, #65535	; 0xffff
  1c:	f9b4 b058 	ldrsh.w	fp, [r4, #88]	; 0x58
  20:	429d      	cmp	r5, r3
  22:	f64f 73ff 	movw	r3, #65535	; 0xffff
  26:	bf08      	it	eq
  28:	f8b4 5054 	ldrheq.w	r5, [r4, #84]	; 0x54
  2c:	4598      	cmp	r8, r3
  2e:	bf08      	it	eq
  30:	f8b4 8056 	ldrheq.w	r8, [r4, #86]	; 0x56
  34:	455d      	cmp	r5, fp
  36:	dc4a      	bgt.n	ce <_ZN6OV264013setZoomWindowEtttt+0xce>
  38:	f9b4 305a 	ldrsh.w	r3, [r4, #90]	; 0x5a
  3c:	4598      	cmp	r8, r3
  3e:	dc46      	bgt.n	ce <_ZN6OV264013setZoomWindowEtttt+0xce>
  40:	f64f 72ff 	movw	r2, #65535	; 0xffff
  44:	4296      	cmp	r6, r2
  46:	d105      	bne.n	54 <_ZN6OV264013setZoomWindowEtttt+0x54>
  48:	ebbb 0605 	subs.w	r6, fp, r5
  4c:	bf48      	it	mi
  4e:	3601      	addmi	r6, #1
  50:	f3c6 064f 	ubfx	r6, r6, #1, #16
  54:	f64f 72ff 	movw	r2, #65535	; 0xffff
  58:	4297      	cmp	r7, r2
  5a:	d105      	bne.n	68 <_ZN6OV264013setZoomWindowEtttt+0x68>
  5c:	ebb3 0708 	subs.w	r7, r3, r8
  60:	bf48      	it	mi
  62:	3701      	addmi	r7, #1
  64:	f3c7 074f 	ubfx	r7, r7, #1, #16
  68:	19aa      	adds	r2, r5, r6
  6a:	4593      	cmp	fp, r2
  6c:	db2f      	blt.n	ce <_ZN6OV264013setZoomWindowEtttt+0xce>
  6e:	eb08 0207 	add.w	r2, r8, r7
  72:	4293      	cmp	r3, r2
  74:	db2b      	blt.n	ce <_ZN6OV264013setZoomWindowEtttt+0xce>
  76:	fb9b fbf5 	sdiv	fp, fp, r5
  7a:	fb93 f3f8 	sdiv	r3, r3, r8
  7e:	459b      	cmp	fp, r3
  80:	bfa8      	it	ge
  82:	469b      	movge	fp, r3
  84:	f41b 4f7f 	tst.w	fp, #65280	; 0xff00
  88:	d103      	bne.n	92 <_ZN6OV264013setZoomWindowEtttt+0x92>
  8a:	f01b 0ff0 	tst.w	fp, #240	; 0xf0
  8e:	f000 80a1 	beq.w	1d4 <_ZN6OV264013setZoomWindowEtttt+0x1d4>
  92:	f04f 0908 	mov.w	r9, #8
  96:	f04f 0b03 	mov.w	fp, #3
  9a:	f8cd 9008 	str.w	r9, [sp, #8]
  9e:	2200      	movs	r2, #0
  a0:	21ff      	movs	r1, #255	; 0xff
  a2:	fb15 fa09 	smulbb	sl, r5, r9
  a6:	4620      	mov	r0, r4
  a8:	f7ff fffe 	bl	0 <_ZN6OV264013setZoomWindowEtttt>
  ac:	f9b4 3054 	ldrsh.w	r3, [r4, #84]	; 0x54
  b0:	fb18 f909 	smulbb	r9, r8, r9
  b4:	fa1f fa8a 	uxth.w	sl, sl
  b8:	429d      	cmp	r5, r3
  ba:	fa1f f989 	uxth.w	r9, r9
  be:	d013      	beq.n	e8 <_ZN6OV264013setZoomWindowEtttt+0xe8>
  c0:	ea45 0308 	orr.w	r3, r5, r8
  c4:	079b      	lsls	r3, r3, #30
  c6:	d068      	beq.n	19a <_ZN6OV264013setZoomWindowEtttt+0x19a>
  c8:	7a23      	ldrb	r3, [r4, #8]
  ca:	2b00      	cmp	r3, #0
  cc:	d17a      	bne.n	1c4 <_ZN6OV264013setZoomWindowEtttt+0x1c4>
  ce:	2000      	movs	r0, #0
  d0:	b005      	add	sp, #20
  d2:	e8bd 8ff0 	ldmia.w	sp!, {r4, r5, r6, r7, r8, r9, sl, fp, pc}
  d6:	4613      	mov	r3, r2
  d8:	4856      	ldr	r0, [pc, #344]	; (234 <_ZN6OV264013setZoomWindowEtttt+0x234>)
  da:	460a      	mov	r2, r1
  dc:	4956      	ldr	r1, [pc, #344]	; (238 <_ZN6OV264013setZoomWindowEtttt+0x238>)
  de:	e9cd 5800 	strd	r5, r8, [sp]
  e2:	f7ff fffe 	bl	0 <_ZN5Print6printfEPKcz>
  e6:	e797      	b.n	18 <_ZN6OV264013setZoomWindowEtttt+0x18>
  e8:	f9b4 3056 	ldrsh.w	r3, [r4, #86]	; 0x56
  ec:	4598      	cmp	r8, r3
  ee:	d1e7      	bne.n	c0 <_ZN6OV264013setZoomWindowEtttt+0xc0>
  f0:	fa5f fb86 	uxtb.w	fp, r6
  f4:	2153      	movs	r1, #83	; 0x53
  f6:	b2fb      	uxtb	r3, r7
  f8:	4620      	mov	r0, r4
  fa:	465a      	mov	r2, fp
  fc:	ea4f 2999 	mov.w	r9, r9, lsr #10
 100:	9303      	str	r3, [sp, #12]
 102:	f7ff fffe 	bl	0 <_ZN6OV264013setZoomWindowEtttt>
 106:	9a03      	ldr	r2, [sp, #12]
 108:	2154      	movs	r1, #84	; 0x54
 10a:	4620      	mov	r0, r4
 10c:	f7ff fffe 	bl	0 <_ZN6OV264013setZoomWindowEtttt>
 110:	f3c6 2301 	ubfx	r3, r6, #8, #2
 114:	093a      	lsrs	r2, r7, #4
 116:	2155      	movs	r1, #85	; 0x55
 118:	4620      	mov	r0, r4
 11a:	f002 0230 	and.w	r2, r2, #48	; 0x30
 11e:	431a      	orrs	r2, r3
 120:	ea4f 13da 	mov.w	r3, sl, lsr #7
 124:	ea42 12c9 	orr.w	r2, r2, r9, lsl #7
 128:	f003 0308 	and.w	r3, r3, #8
 12c:	431a      	orrs	r2, r3
 12e:	f002 02bb 	and.w	r2, r2, #187	; 0xbb
 132:	f7ff fffe 	bl	0 <_ZN6OV264013setZoomWindowEtttt>
 136:	2157      	movs	r1, #87	; 0x57
 138:	ea4f 121a 	mov.w	r2, sl, lsr #4
 13c:	4620      	mov	r0, r4
 13e:	f002 0280 	and.w	r2, r2, #128	; 0x80
 142:	f7ff fffe 	bl	0 <_ZN6OV264013setZoomWindowEtttt>
 146:	f3c5 0287 	ubfx	r2, r5, #2, #8
 14a:	215a      	movs	r1, #90	; 0x5a
 14c:	4620      	mov	r0, r4
 14e:	f7ff fffe 	bl	0 <_ZN6OV264013setZoomWindowEtttt>
 152:	f3c8 0287 	ubfx	r2, r8, #2, #8
 156:	215b      	movs	r1, #91	; 0x5b
 158:	4620      	mov	r0, r4
 15a:	f7ff fffe 	bl	0 <_ZN6OV264013setZoomWindowEtttt>
 15e:	f3c5 2281 	ubfx	r2, r5, #10, #2
 162:	ea4f 2318 	mov.w	r3, r8, lsr #8
 166:	215c      	movs	r1, #92	; 0x5c
 168:	4620      	mov	r0, r4
 16a:	f003 0304 	and.w	r3, r3, #4
 16e:	431a      	orrs	r2, r3
 170:	f7ff fffe 	bl	0 <_ZN6OV264013setZoomWindowEtttt>
 174:	f89d 2008 	ldrb.w	r2, [sp, #8]
 178:	21d3      	movs	r1, #211	; 0xd3
 17a:	4620      	mov	r0, r4
 17c:	f7ff fffe 	bl	0 <_ZN6OV264013setZoomWindowEtttt>
 180:	2200      	movs	r2, #0
 182:	21e0      	movs	r1, #224	; 0xe0
 184:	4620      	mov	r0, r4
 186:	f7ff fffe 	bl	0 <_ZN6OV264013setZoomWindowEtttt>
 18a:	7a23      	ldrb	r3, [r4, #8]
 18c:	bb83      	cbnz	r3, 1f0 <_ZN6OV264013setZoomWindowEtttt+0x1f0>
 18e:	2001      	movs	r0, #1
 190:	f8a4 5054 	strh.w	r5, [r4, #84]	; 0x54
 194:	f8a4 8056 	strh.w	r8, [r4, #86]	; 0x56
 198:	e79a      	b.n	d0 <_ZN6OV264013setZoomWindowEtttt+0xd0>
 19a:	ea4b 0bcb 	orr.w	fp, fp, fp, lsl #3
 19e:	2150      	movs	r1, #80	; 0x50
 1a0:	4620      	mov	r0, r4
 1a2:	f04b 0280 	orr.w	r2, fp, #128	; 0x80
 1a6:	f7ff fffe 	bl	0 <_ZN6OV264013setZoomWindowEtttt>
 1aa:	f3ca 0287 	ubfx	r2, sl, #2, #8
 1ae:	2151      	movs	r1, #81	; 0x51
 1b0:	4620      	mov	r0, r4
 1b2:	f7ff fffe 	bl	0 <_ZN6OV264013setZoomWindowEtttt>
 1b6:	f3c9 0287 	ubfx	r2, r9, #2, #8
 1ba:	2152      	movs	r1, #82	; 0x52
 1bc:	4620      	mov	r0, r4
 1be:	f7ff fffe 	bl	0 <_ZN6OV264013setZoomWindowEtttt>
 1c2:	e795      	b.n	f0 <_ZN6OV264013setZoomWindowEtttt+0xf0>
 1c4:	2123      	movs	r1, #35	; 0x23
 1c6:	481d      	ldr	r0, [pc, #116]	; (23c <_ZN6OV264013setZoomWindowEtttt+0x23c>)
 1c8:	f7ff fffe 	bl	0 <usb_serial_write>
 1cc:	4819      	ldr	r0, [pc, #100]	; (234 <_ZN6OV264013setZoomWindowEtttt+0x234>)
 1ce:	f7ff fffe 	bl	0 <_ZN5Print7printlnEv>
 1d2:	e77c      	b.n	ce <_ZN6OV264013setZoomWindowEtttt+0xce>
 1d4:	f01b 0f0c 	tst.w	fp, #12
 1d8:	d022      	beq.n	220 <_ZN6OV264013setZoomWindowEtttt+0x220>
 1da:	f01b 0f08 	tst.w	fp, #8
 1de:	f47f af58 	bne.w	92 <_ZN6OV264013setZoomWindowEtttt+0x92>
 1e2:	f04f 0904 	mov.w	r9, #4
 1e6:	f04f 0b02 	mov.w	fp, #2
 1ea:	f8cd 9008 	str.w	r9, [sp, #8]
 1ee:	e756      	b.n	9e <_ZN6OV264013setZoomWindowEtttt+0x9e>
 1f0:	f9b4 305a 	ldrsh.w	r3, [r4, #90]	; 0x5a
 1f4:	f9b4 2058 	ldrsh.w	r2, [r4, #88]	; 0x58
 1f8:	4911      	ldr	r1, [pc, #68]	; (240 <_ZN6OV264013setZoomWindowEtttt+0x240>)
 1fa:	480e      	ldr	r0, [pc, #56]	; (234 <_ZN6OV264013setZoomWindowEtttt+0x234>)
 1fc:	f7ff fffe 	bl	0 <_ZN5Print6printfEPKcz>
 200:	4643      	mov	r3, r8
 202:	462a      	mov	r2, r5
 204:	490f      	ldr	r1, [pc, #60]	; (244 <_ZN6OV264013setZoomWindowEtttt+0x244>)
 206:	480b      	ldr	r0, [pc, #44]	; (234 <_ZN6OV264013setZoomWindowEtttt+0x234>)
 208:	f7ff fffe 	bl	0 <_ZN5Print6printfEPKcz>
 20c:	9b03      	ldr	r3, [sp, #12]
 20e:	4632      	mov	r2, r6
 210:	490d      	ldr	r1, [pc, #52]	; (248 <_ZN6OV264013setZoomWindowEtttt+0x248>)
 212:	4808      	ldr	r0, [pc, #32]	; (234 <_ZN6OV264013setZoomWindowEtttt+0x234>)
 214:	e9cd 7300 	strd	r7, r3, [sp]
 218:	465b      	mov	r3, fp
 21a:	f7ff fffe 	bl	0 <_ZN5Print6printfEPKcz>
 21e:	e7b6      	b.n	18e <_ZN6OV264013setZoomWindowEtttt+0x18e>
 220:	f3cb 0b40 	ubfx	fp, fp, #1, #1
 224:	2301      	movs	r3, #1
 226:	fa03 f30b 	lsl.w	r3, r3, fp
 22a:	fa1f f983 	uxth.w	r9, r3
 22e:	9302      	str	r3, [sp, #8]
 230:	e735      	b.n	9e <_ZN6OV264013setZoomWindowEtttt+0x9e>
 232:	bf00      	nop
 234:	00000000 	.word	0x00000000
 238:	00000000 	.word	0x00000000
 23c:	00000034 	.word	0x00000034
 240:	00000024 	.word	0x00000024
 244:	00000038 	.word	0x00000038
 248:	0000004c 	.word	0x0000004c

Disassembly of section .text._ZN6OV264011setContrastEi:

00000000 <_ZN6OV264011setContrastEi>:
   0:	b5f8      	push	{r3, r4, r5, r6, r7, lr}
   2:	1c8b      	adds	r3, r1, #2
   4:	4606      	mov	r6, r0
   6:	2b04      	cmp	r3, #4
   8:	d81d      	bhi.n	46 <_ZN6OV264011setContrastEi+0x46>
   a:	1ccc      	adds	r4, r1, #3
   c:	2200      	movs	r2, #0
   e:	21ff      	movs	r1, #255	; 0xff
  10:	4d13      	ldr	r5, [pc, #76]	; (60 <_ZN6OV264011setContrastEi+0x60>)
  12:	4630      	mov	r0, r6
  14:	f7ff fffe 	bl	0 <_ZN6OV264011setContrastEi>
  18:	4630      	mov	r0, r6
  1a:	ebc4 01c4 	rsb	r1, r4, r4, lsl #3
  1e:	462c      	mov	r4, r5
  20:	440d      	add	r5, r1
  22:	1d27      	adds	r7, r4, #4
  24:	217c      	movs	r1, #124	; 0x7c
  26:	f815 2b01 	ldrb.w	r2, [r5], #1
  2a:	f7ff fffe 	bl	0 <_ZN6OV264011setContrastEi>
  2e:	42bc      	cmp	r4, r7
  30:	d008      	beq.n	44 <_ZN6OV264011setContrastEi+0x44>
  32:	f814 1f01 	ldrb.w	r1, [r4, #1]!
  36:	4630      	mov	r0, r6
  38:	f815 2b01 	ldrb.w	r2, [r5], #1
  3c:	f7ff fffe 	bl	0 <_ZN6OV264011setContrastEi>
  40:	42bc      	cmp	r4, r7
  42:	d1f6      	bne.n	32 <_ZN6OV264011setContrastEi+0x32>
  44:	bdf8      	pop	{r3, r4, r5, r6, r7, pc}
  46:	7a03      	ldrb	r3, [r0, #8]
  48:	b90b      	cbnz	r3, 4e <_ZN6OV264011setContrastEi+0x4e>
  4a:	2405      	movs	r4, #5
  4c:	e7de      	b.n	c <_ZN6OV264011setContrastEi+0xc>
  4e:	2123      	movs	r1, #35	; 0x23
  50:	4804      	ldr	r0, [pc, #16]	; (64 <_ZN6OV264011setContrastEi+0x64>)
  52:	f7ff fffe 	bl	0 <usb_serial_write>
  56:	4804      	ldr	r0, [pc, #16]	; (68 <_ZN6OV264011setContrastEi+0x68>)
  58:	2405      	movs	r4, #5
  5a:	f7ff fffe 	bl	0 <_ZN5Print7printlnEv>
  5e:	e7d5      	b.n	c <_ZN6OV264011setContrastEi+0xc>
  60:	00000000 	.word	0x00000000
  64:	00000000 	.word	0x00000000
  68:	00000000 	.word	0x00000000

Disassembly of section .text._ZN6OV264013setBrightnessEi:

00000000 <_ZN6OV264013setBrightnessEi>:
   0:	1c8b      	adds	r3, r1, #2
   2:	2b04      	cmp	r3, #4
   4:	e92d 41f0 	stmdb	sp!, {r4, r5, r6, r7, r8, lr}
   8:	d81a      	bhi.n	40 <_ZN6OV264013setBrightnessEi+0x40>
   a:	1ccc      	adds	r4, r1, #3
   c:	4e0f      	ldr	r6, [pc, #60]	; (4c <_ZN6OV264013setBrightnessEi+0x4c>)
   e:	21ff      	movs	r1, #255	; 0xff
  10:	2200      	movs	r2, #0
  12:	4607      	mov	r7, r0
  14:	f7ff fffe 	bl	0 <_ZN6OV264013setBrightnessEi>
  18:	eb04 0184 	add.w	r1, r4, r4, lsl #2
  1c:	4634      	mov	r4, r6
  1e:	4605      	mov	r5, r0
  20:	440e      	add	r6, r1
  22:	f104 0804 	add.w	r8, r4, #4
  26:	217c      	movs	r1, #124	; 0x7c
  28:	f816 2b01 	ldrb.w	r2, [r6], #1
  2c:	4638      	mov	r0, r7
  2e:	f7ff fffe 	bl	0 <_ZN6OV264013setBrightnessEi>
  32:	4544      	cmp	r4, r8
  34:	ea45 0500 	orr.w	r5, r5, r0
  38:	d004      	beq.n	44 <_ZN6OV264013setBrightnessEi+0x44>
  3a:	f814 1f01 	ldrb.w	r1, [r4, #1]!
  3e:	e7f3      	b.n	28 <_ZN6OV264013setBrightnessEi+0x28>
  40:	f04f 35ff 	mov.w	r5, #4294967295	; 0xffffffff
  44:	4628      	mov	r0, r5
  46:	e8bd 81f0 	ldmia.w	sp!, {r4, r5, r6, r7, r8, pc}
  4a:	bf00      	nop
  4c:	00000000 	.word	0x00000000

Disassembly of section .text._ZN6OV264013setSaturationEi:

00000000 <_ZN6OV264013setSaturationEi>:
   0:	b5f8      	push	{r3, r4, r5, r6, r7, lr}
   2:	1c8b      	adds	r3, r1, #2
   4:	4606      	mov	r6, r0
   6:	2b04      	cmp	r3, #4
   8:	d81d      	bhi.n	46 <_ZN6OV264013setSaturationEi+0x46>
   a:	1ccc      	adds	r4, r1, #3
   c:	2200      	movs	r2, #0
   e:	21ff      	movs	r1, #255	; 0xff
  10:	4d13      	ldr	r5, [pc, #76]	; (60 <_ZN6OV264013setSaturationEi+0x60>)
  12:	4630      	mov	r0, r6
  14:	f7ff fffe 	bl	0 <_ZN6OV264013setSaturationEi>
  18:	4630      	mov	r0, r6
  1a:	eb04 0184 	add.w	r1, r4, r4, lsl #2
  1e:	462c      	mov	r4, r5
  20:	440d      	add	r5, r1
  22:	1d27      	adds	r7, r4, #4
  24:	217c      	movs	r1, #124	; 0x7c
  26:	f815 2b01 	ldrb.w	r2, [r5], #1
  2a:	f7ff fffe 	bl	0 <_ZN6OV264013setSaturationEi>
  2e:	42bc      	cmp	r4, r7
  30:	d008      	beq.n	44 <_ZN6OV264013setSaturationEi+0x44>
  32:	f814 1f01 	ldrb.w	r1, [r4, #1]!
  36:	4630      	mov	r0, r6
  38:	f815 2b01 	ldrb.w	r2, [r5], #1
  3c:	f7ff fffe 	bl	0 <_ZN6OV264013setSaturationEi>
  40:	42bc      	cmp	r4, r7
  42:	d1f6      	bne.n	32 <_ZN6OV264013setSaturationEi+0x32>
  44:	bdf8      	pop	{r3, r4, r5, r6, r7, pc}
  46:	7a03      	ldrb	r3, [r0, #8]
  48:	b90b      	cbnz	r3, 4e <_ZN6OV264013setSaturationEi+0x4e>
  4a:	2405      	movs	r4, #5
  4c:	e7de      	b.n	c <_ZN6OV264013setSaturationEi+0xc>
  4e:	2123      	movs	r1, #35	; 0x23
  50:	4804      	ldr	r0, [pc, #16]	; (64 <_ZN6OV264013setSaturationEi+0x64>)
  52:	f7ff fffe 	bl	0 <usb_serial_write>
  56:	4804      	ldr	r0, [pc, #16]	; (68 <_ZN6OV264013setSaturationEi+0x68>)
  58:	2405      	movs	r4, #5
  5a:	f7ff fffe 	bl	0 <_ZN5Print7printlnEv>
  5e:	e7d5      	b.n	c <_ZN6OV264013setSaturationEi+0xc>
  60:	00000000 	.word	0x00000000
  64:	00000000 	.word	0x00000000
  68:	00000000 	.word	0x00000000

Disassembly of section .text._ZN6OV264014setGainceilingE13gainceiling_t:

00000000 <_ZN6OV264014setGainceilingE13gainceiling_t>:
   0:	b538      	push	{r3, r4, r5, lr}
   2:	460c      	mov	r4, r1
   4:	2201      	movs	r2, #1
   6:	21ff      	movs	r1, #255	; 0xff
   8:	4605      	mov	r5, r0
   a:	f7ff fffe 	bl	0 <_ZN6OV264014setGainceilingE13gainceiling_t>
   e:	4603      	mov	r3, r0
  10:	0162      	lsls	r2, r4, #5
  12:	2114      	movs	r1, #20
  14:	461c      	mov	r4, r3
  16:	4628      	mov	r0, r5
  18:	f042 0208 	orr.w	r2, r2, #8
  1c:	f002 02e8 	and.w	r2, r2, #232	; 0xe8
  20:	f7ff fffe 	bl	0 <_ZN6OV264014setGainceilingE13gainceiling_t>
  24:	4320      	orrs	r0, r4
  26:	b2c0      	uxtb	r0, r0
  28:	bd38      	pop	{r3, r4, r5, pc}
  2a:	bf00      	nop

Disassembly of section .text._ZN6OV264010setQualityEi:

00000000 <_ZN6OV264010setQualityEi>:
   0:	b570      	push	{r4, r5, r6, lr}
   2:	2200      	movs	r2, #0
   4:	460e      	mov	r6, r1
   6:	4605      	mov	r5, r0
   8:	21ff      	movs	r1, #255	; 0xff
   a:	f7ff fffe 	bl	0 <_ZN6OV264010setQualityEi>
   e:	4604      	mov	r4, r0
  10:	b2f2      	uxtb	r2, r6
  12:	2144      	movs	r1, #68	; 0x44
  14:	4628      	mov	r0, r5
  16:	f7ff fffe 	bl	0 <_ZN6OV264010setQualityEi>
  1a:	4320      	orrs	r0, r4
  1c:	b2c0      	uxtb	r0, r0
  1e:	bd70      	pop	{r4, r5, r6, pc}

Disassembly of section .text._ZN6OV264010getQualityEv:

00000000 <_ZN6OV264010getQualityEv>:
   0:	b510      	push	{r4, lr}
   2:	4604      	mov	r4, r0
   4:	21ff      	movs	r1, #255	; 0xff
   6:	2200      	movs	r2, #0
   8:	f7ff fffe 	bl	0 <_ZN6OV264010getQualityEv>
   c:	4620      	mov	r0, r4
   e:	2144      	movs	r1, #68	; 0x44
  10:	e8bd 4010 	ldmia.w	sp!, {r4, lr}
  14:	f7ff bffe 	b.w	0 <_ZN6OV264010getQualityEv>

Disassembly of section .text._ZN6OV264011setColorbarEi:

00000000 <_ZN6OV264011setColorbarEi>:
   0:	b570      	push	{r4, r5, r6, lr}
   2:	4605      	mov	r5, r0
   4:	460e      	mov	r6, r1
   6:	2201      	movs	r2, #1
   8:	21ff      	movs	r1, #255	; 0xff
   a:	f7ff fffe 	bl	0 <_ZN6OV264011setColorbarEi>
   e:	2112      	movs	r1, #18
  10:	4604      	mov	r4, r0
  12:	4628      	mov	r0, r5
  14:	f7ff fffe 	bl	0 <_ZN6OV264011setColorbarEi>
  18:	b14e      	cbz	r6, 2e <_ZN6OV264011setColorbarEi+0x2e>
  1a:	f040 0202 	orr.w	r2, r0, #2
  1e:	b2d2      	uxtb	r2, r2
  20:	2112      	movs	r1, #18
  22:	4628      	mov	r0, r5
  24:	f7ff fffe 	bl	0 <_ZN6OV264011setColorbarEi>
  28:	4320      	orrs	r0, r4
  2a:	b2c0      	uxtb	r0, r0
  2c:	bd70      	pop	{r4, r5, r6, pc}
  2e:	f000 02fd 	and.w	r2, r0, #253	; 0xfd
  32:	e7f5      	b.n	20 <_ZN6OV264011setColorbarEi+0x20>

Disassembly of section .text._ZN6OV264012autoExposureEi:

00000000 <_ZN6OV264012autoExposureEi>:
   0:	b538      	push	{r3, r4, r5, lr}
   2:	1c8b      	adds	r3, r1, #2
   4:	2b04      	cmp	r3, #4
   6:	d814      	bhi.n	32 <_ZN6OV264012autoExposureEi+0x32>
   8:	4b0e      	ldr	r3, [pc, #56]	; (44 <_ZN6OV264012autoExposureEi+0x44>)
   a:	eb01 0141 	add.w	r1, r1, r1, lsl #1
   e:	4604      	mov	r4, r0
  10:	185d      	adds	r5, r3, r1
  12:	5c5a      	ldrb	r2, [r3, r1]
  14:	2124      	movs	r1, #36	; 0x24
  16:	f7ff fffe 	bl	0 <_ZN6OV264012autoExposureEi>
  1a:	786a      	ldrb	r2, [r5, #1]
  1c:	2125      	movs	r1, #37	; 0x25
  1e:	4620      	mov	r0, r4
  20:	f7ff fffe 	bl	0 <_ZN6OV264012autoExposureEi>
  24:	78aa      	ldrb	r2, [r5, #2]
  26:	4620      	mov	r0, r4
  28:	2126      	movs	r1, #38	; 0x26
  2a:	e8bd 4038 	ldmia.w	sp!, {r3, r4, r5, lr}
  2e:	f7ff bffe 	b.w	0 <_ZN6OV264012autoExposureEi>
  32:	212a      	movs	r1, #42	; 0x2a
  34:	4804      	ldr	r0, [pc, #16]	; (48 <_ZN6OV264012autoExposureEi+0x48>)
  36:	f7ff fffe 	bl	0 <usb_serial_write>
  3a:	4804      	ldr	r0, [pc, #16]	; (4c <_ZN6OV264012autoExposureEi+0x4c>)
  3c:	e8bd 4038 	ldmia.w	sp!, {r3, r4, r5, lr}
  40:	f7ff bffe 	b.w	0 <_ZN5Print7printlnEv>
  44:	00000000 	.word	0x00000000
  48:	00000000 	.word	0x00000000
  4c:	00000000 	.word	0x00000000

Disassembly of section .text._ZN6OV26407setGainEi:

00000000 <_ZN6OV26407setGainEi>:
   0:	b538      	push	{r3, r4, r5, lr}
   2:	460c      	mov	r4, r1
   4:	2201      	movs	r2, #1
   6:	21ff      	movs	r1, #255	; 0xff
   8:	4605      	mov	r5, r0
   a:	f7ff fffe 	bl	0 <_ZN6OV26407setGainEi>
   e:	2c1e      	cmp	r4, #30
  10:	4623      	mov	r3, r4
  12:	4a06      	ldr	r2, [pc, #24]	; (2c <_ZN6OV26407setGainEi+0x2c>)
  14:	bfa8      	it	ge
  16:	231e      	movge	r3, #30
  18:	4628      	mov	r0, r5
  1a:	2100      	movs	r1, #0
  1c:	ea23 73e3 	bic.w	r3, r3, r3, asr #31
  20:	5cd2      	ldrb	r2, [r2, r3]
  22:	e8bd 4038 	ldmia.w	sp!, {r3, r4, r5, lr}
  26:	f7ff bffe 	b.w	0 <_ZN6OV26407setGainEi>
  2a:	bf00      	nop
  2c:	00000000 	.word	0x00000000

Disassembly of section .text._ZN6OV264011setAutoGainEiff:

00000000 <_ZN6OV264011setAutoGainEiff>:
   0:	b570      	push	{r4, r5, r6, lr}
   2:	4605      	mov	r5, r0
   4:	2201      	movs	r2, #1
   6:	460e      	mov	r6, r1
   8:	21ff      	movs	r1, #255	; 0xff
   a:	ed2d 8b02 	vpush	{d8}
   e:	eeb0 8a40 	vmov.f32	s16, s0
  12:	eef0 8a60 	vmov.f32	s17, s1
  16:	f7ff fffe 	bl	0 <_ZN6OV264011setAutoGainEiff>
  1a:	2113      	movs	r1, #19
  1c:	4604      	mov	r4, r0
  1e:	4628      	mov	r0, r5
  20:	f7ff fffe 	bl	0 <_ZN6OV264011setAutoGainEiff>
  24:	f020 0204 	bic.w	r2, r0, #4
  28:	b252      	sxtb	r2, r2
  2a:	b1d6      	cbz	r6, 62 <_ZN6OV264011setAutoGainEiff+0x62>
  2c:	f042 0204 	orr.w	r2, r2, #4
  30:	2113      	movs	r1, #19
  32:	4628      	mov	r0, r5
  34:	b2d2      	uxtb	r2, r2
  36:	f7ff fffe 	bl	0 <_ZN6OV264011setAutoGainEiff>
  3a:	eef4 8a68 	vcmp.f32	s17, s17
  3e:	4320      	orrs	r0, r4
  40:	eef1 fa10 	vmrs	APSR_nzcv, fpscr
  44:	b2c4      	uxtb	r4, r0
  46:	4620      	mov	r0, r4
  48:	d608      	bvs.n	5c <_ZN6OV264011setAutoGainEiff+0x5c>
  4a:	eef0 7ae8 	vabs.f32	s15, s17
  4e:	ed9f 7a6a 	vldr	s14, [pc, #424]	; 1f8 <_ZN6OV264011setAutoGainEiff+0x1f8>
  52:	eef4 7a47 	vcmp.f32	s15, s14
  56:	eef1 fa10 	vmrs	APSR_nzcv, fpscr
  5a:	dd73      	ble.n	144 <_ZN6OV264011setAutoGainEiff+0x144>
  5c:	ecbd 8b02 	vpop	{d8}
  60:	bd70      	pop	{r4, r5, r6, pc}
  62:	f002 02fb 	and.w	r2, r2, #251	; 0xfb
  66:	2113      	movs	r1, #19
  68:	4628      	mov	r0, r5
  6a:	f7ff fffe 	bl	0 <_ZN6OV264011setAutoGainEiff>
  6e:	eeb4 8a48 	vcmp.f32	s16, s16
  72:	4320      	orrs	r0, r4
  74:	eef1 fa10 	vmrs	APSR_nzcv, fpscr
  78:	b2c4      	uxtb	r4, r0
  7a:	4620      	mov	r0, r4
  7c:	d6ee      	bvs.n	5c <_ZN6OV264011setAutoGainEiff+0x5c>
  7e:	eef0 7ac8 	vabs.f32	s15, s16
  82:	ed9f 7a5d 	vldr	s14, [pc, #372]	; 1f8 <_ZN6OV264011setAutoGainEiff+0x1f8>
  86:	eef4 7a47 	vcmp.f32	s15, s14
  8a:	eef1 fa10 	vmrs	APSR_nzcv, fpscr
  8e:	dce5      	bgt.n	5c <_ZN6OV264011setAutoGainEiff+0x5c>
  90:	eeb3 7a04 	vmov.f32	s14, #52	; 0x41a00000  20.0
  94:	eddf 7a59 	vldr	s15, [pc, #356]	; 1fc <_ZN6OV264011setAutoGainEiff+0x1fc>
  98:	ee88 0a07 	vdiv.f32	s0, s16, s14
  9c:	ee20 0a27 	vmul.f32	s0, s0, s15
  a0:	f7ff fffe 	bl	0 <expf>
  a4:	eddf 7a56 	vldr	s15, [pc, #344]	; 200 <_ZN6OV264011setAutoGainEiff+0x200>
  a8:	eeb0 8a40 	vmov.f32	s16, s0
  ac:	eeb4 0ae7 	vcmpe.f32	s0, s15
  b0:	eef1 fa10 	vmrs	APSR_nzcv, fpscr
  b4:	f140 8087 	bpl.w	1c6 <_ZN6OV264011setAutoGainEiff+0x1c6>
  b8:	eef7 7a00 	vmov.f32	s15, #112	; 0x3f800000  1.0
  bc:	eeb4 0ae7 	vcmpe.f32	s0, s15
  c0:	eef1 fa10 	vmrs	APSR_nzcv, fpscr
  c4:	f280 8081 	bge.w	1ca <_ZN6OV264011setAutoGainEiff+0x1ca>
  c8:	eeb0 8a67 	vmov.f32	s16, s15
  cc:	eeb0 0a67 	vmov.f32	s0, s15
  d0:	f7ff fffe 	bl	0 <logf>
  d4:	eeb7 0ac0 	vcvt.f64.f32	d0, s0
  d8:	eddf 6a4a 	vldr	s13, [pc, #296]	; 204 <_ZN6OV264011setAutoGainEiff+0x204>
  dc:	ed9f 5b44 	vldr	d5, [pc, #272]	; 1f0 <_ZN6OV264011setAutoGainEiff+0x1f0>
  e0:	ee80 7b05 	vdiv.f64	d7, d0, d5
  e4:	eeb7 7bc7 	vcvt.f32.f64	s14, d7
  e8:	ee37 7a26 	vadd.f32	s14, s14, s13
  ec:	eefd 7ac7 	vcvt.s32.f32	s15, s14
  f0:	ee17 3a90 	vmov	r3, s15
  f4:	220f      	movs	r2, #15
  f6:	eeb7 6a00 	vmov.f32	s12, #112	; 0x3f800000  1.0
  fa:	f1c3 0104 	rsb	r1, r3, #4
  fe:	eef3 6a00 	vmov.f32	s13, #48	; 0x41800000  16.0
 102:	410a      	asrs	r2, r1
 104:	2101      	movs	r1, #1
 106:	4099      	lsls	r1, r3
 108:	ee07 1a90 	vmov	s15, r1
 10c:	eeb8 7ae7 	vcvt.f32.s32	s14, s15
 110:	eec8 7a07 	vdiv.f32	s15, s16, s14
 114:	ee77 7ac6 	vsub.f32	s15, s15, s12
 118:	ee67 7aa6 	vmul.f32	s15, s15, s13
 11c:	eefd 7a67 	vcvtr.s32.f32	s15, s15
 120:	ee17 3a90 	vmov	r3, s15
 124:	0112      	lsls	r2, r2, #4
 126:	2100      	movs	r1, #0
 128:	4628      	mov	r0, r5
 12a:	2b0f      	cmp	r3, #15
 12c:	bfd4      	ite	le
 12e:	431a      	orrle	r2, r3
 130:	f042 020f 	orrgt.w	r2, r2, #15
 134:	b2d2      	uxtb	r2, r2
 136:	f7ff fffe 	bl	0 <_ZN6OV264011setAutoGainEiff>
 13a:	4320      	orrs	r0, r4
 13c:	ecbd 8b02 	vpop	{d8}
 140:	b2c0      	uxtb	r0, r0
 142:	bd70      	pop	{r4, r5, r6, pc}
 144:	eeb3 7a04 	vmov.f32	s14, #52	; 0x41a00000  20.0
 148:	eddf 7a2c 	vldr	s15, [pc, #176]	; 1fc <_ZN6OV264011setAutoGainEiff+0x1fc>
 14c:	ee88 0a87 	vdiv.f32	s0, s17, s14
 150:	ee20 0a27 	vmul.f32	s0, s0, s15
 154:	f7ff fffe 	bl	0 <expf>
 158:	eddf 7a2b 	vldr	s15, [pc, #172]	; 208 <_ZN6OV264011setAutoGainEiff+0x208>
 15c:	eeb4 0ae7 	vcmpe.f32	s0, s15
 160:	eef1 fa10 	vmrs	APSR_nzcv, fpscr
 164:	d53e      	bpl.n	1e4 <_ZN6OV264011setAutoGainEiff+0x1e4>
 166:	eef0 7a00 	vmov.f32	s15, #0	; 0x40000000  2.0
 16a:	eeb4 0ae7 	vcmpe.f32	s0, s15
 16e:	eef1 fa10 	vmrs	APSR_nzcv, fpscr
 172:	fe20 8a27 	vselge.f32	s16, s0, s15
 176:	2114      	movs	r1, #20
 178:	4628      	mov	r0, r5
 17a:	f7ff fffe 	bl	0 <_ZN6OV264011setAutoGainEiff>
 17e:	eeb0 0a48 	vmov.f32	s0, s16
 182:	4606      	mov	r6, r0
 184:	f7ff fffe 	bl	0 <logf>
 188:	eeb7 0ac0 	vcvt.f64.f32	d0, s0
 18c:	eddf 6a1d 	vldr	s13, [pc, #116]	; 204 <_ZN6OV264011setAutoGainEiff+0x204>
 190:	ed9f 5b17 	vldr	d5, [pc, #92]	; 1f0 <_ZN6OV264011setAutoGainEiff+0x1f0>
 194:	ee80 7b05 	vdiv.f64	d7, d0, d5
 198:	eeb7 7bc7 	vcvt.f32.f64	s14, d7
 19c:	ee37 7a26 	vadd.f32	s14, s14, s13
 1a0:	eebd 7ac7 	vcvt.s32.f32	s14, s14
 1a4:	ee17 3a10 	vmov	r3, s14
 1a8:	f006 021f 	and.w	r2, r6, #31
 1ac:	2114      	movs	r1, #20
 1ae:	4628      	mov	r0, r5
 1b0:	3b01      	subs	r3, #1
 1b2:	ea42 1243 	orr.w	r2, r2, r3, lsl #5
 1b6:	b2d2      	uxtb	r2, r2
 1b8:	f7ff fffe 	bl	0 <_ZN6OV264011setAutoGainEiff>
 1bc:	4320      	orrs	r0, r4
 1be:	ecbd 8b02 	vpop	{d8}
 1c2:	b2c0      	uxtb	r0, r0
 1c4:	bd70      	pop	{r4, r5, r6, pc}
 1c6:	eeb0 8a67 	vmov.f32	s16, s15
 1ca:	eeb6 0a00 	vmov.f32	s0, #96	; 0x3f000000  0.5
 1ce:	eef7 7a00 	vmov.f32	s15, #112	; 0x3f800000  1.0
 1d2:	ee28 0a00 	vmul.f32	s0, s16, s0
 1d6:	eeb4 0ae7 	vcmpe.f32	s0, s15
 1da:	eef1 fa10 	vmrs	APSR_nzcv, fpscr
 1de:	fe20 0a27 	vselge.f32	s0, s0, s15
 1e2:	e775      	b.n	d0 <_ZN6OV264011setAutoGainEiff+0xd0>
 1e4:	eeb0 8a67 	vmov.f32	s16, s15
 1e8:	e7c5      	b.n	176 <_ZN6OV264011setAutoGainEiff+0x176>
 1ea:	bf00      	nop
 1ec:	f3af 8000 	nop.w
 1f0:	fefa39ef 	.word	0xfefa39ef
 1f4:	3fe62e42 	.word	0x3fe62e42
 1f8:	7f7fffff 	.word	0x7f7fffff
 1fc:	40135d8e 	.word	0x40135d8e
 200:	42000000 	.word	0x42000000
 204:	3f7ff972 	.word	0x3f7ff972
 208:	43000000 	.word	0x43000000

Disassembly of section .text._ZN6OV264010getGain_dbEPf:

00000000 <_ZN6OV264010getGain_dbEPf>:
   0:	b570      	push	{r4, r5, r6, lr}
   2:	4606      	mov	r6, r0
   4:	460c      	mov	r4, r1
   6:	2201      	movs	r2, #1
   8:	21ff      	movs	r1, #255	; 0xff
   a:	f7ff fffe 	bl	0 <_ZN6OV264010getGain_dbEPf>
   e:	2100      	movs	r1, #0
  10:	4605      	mov	r5, r0
  12:	4630      	mov	r0, r6
  14:	f7ff fffe 	bl	0 <_ZN6OV264010getGain_dbEPf>
  18:	4603      	mov	r3, r0
  1a:	f3c0 11c7 	ubfx	r1, r0, #7, #8
  1e:	f3c0 1280 	ubfx	r2, r0, #6, #1
  22:	f000 000f 	and.w	r0, r0, #15
  26:	eeb7 0a00 	vmov.f32	s0, #112	; 0x3f800000  1.0
  2a:	440a      	add	r2, r1
  2c:	f3c3 1140 	ubfx	r1, r3, #5, #1
  30:	ee07 0a90 	vmov	s15, r0
  34:	f3c3 1300 	ubfx	r3, r3, #4, #1
  38:	440a      	add	r2, r1
  3a:	f04f 0c01 	mov.w	ip, #1
  3e:	eef8 7ae7 	vcvt.f32.s32	s15, s15
  42:	ed9f 7a0b 	vldr	s14, [pc, #44]	; 70 <_ZN6OV264010getGain_dbEPf+0x70>
  46:	4413      	add	r3, r2
  48:	fa0c fc03 	lsl.w	ip, ip, r3
  4c:	eea7 0a87 	vfma.f32	s0, s15, s14
  50:	ee07 ca90 	vmov	s15, ip
  54:	eef8 7ae7 	vcvt.f32.s32	s15, s15
  58:	ee27 0a80 	vmul.f32	s0, s15, s0
  5c:	f7ff fffe 	bl	0 <log10f>
  60:	eef3 7a04 	vmov.f32	s15, #52	; 0x41a00000  20.0
  64:	4628      	mov	r0, r5
  66:	ee20 0a27 	vmul.f32	s0, s0, s15
  6a:	ed84 0a00 	vstr	s0, [r4]
  6e:	bd70      	pop	{r4, r5, r6, pc}
  70:	3d800000 	.word	0x3d800000

Disassembly of section .text._ZN6OV264014getExposure_usEPi:

00000000 <_ZN6OV264014getExposure_usEPi>:
   0:	e92d 4ff0 	stmdb	sp!, {r4, r5, r6, r7, r8, r9, sl, fp, lr}
   4:	4606      	mov	r6, r0
   6:	b083      	sub	sp, #12
   8:	2201      	movs	r2, #1
   a:	460d      	mov	r5, r1
   c:	21ff      	movs	r1, #255	; 0xff
   e:	f7ff fffe 	bl	0 <_ZN6OV264014getExposure_usEPi>
  12:	2113      	movs	r1, #19
  14:	4680      	mov	r8, r0
  16:	4630      	mov	r0, r6
  18:	f7ff fffe 	bl	0 <_ZN6OV264014getExposure_usEPi>
  1c:	2104      	movs	r1, #4
  1e:	4630      	mov	r0, r6
  20:	f7ff fffe 	bl	0 <_ZN6OV264014getExposure_usEPi>
  24:	2110      	movs	r1, #16
  26:	4604      	mov	r4, r0
  28:	4630      	mov	r0, r6
  2a:	f7ff fffe 	bl	0 <_ZN6OV264014getExposure_usEPi>
  2e:	2145      	movs	r1, #69	; 0x45
  30:	4683      	mov	fp, r0
  32:	4630      	mov	r0, r6
  34:	f7ff fffe 	bl	0 <_ZN6OV264014getExposure_usEPi>
  38:	2112      	movs	r1, #18
  3a:	4682      	mov	sl, r0
  3c:	4630      	mov	r0, r6
  3e:	f7ff fffe 	bl	0 <_ZN6OV264014getExposure_usEPi>
  42:	f010 0070 	ands.w	r0, r0, #112	; 0x70
  46:	d004      	beq.n	52 <_ZN6OV264014getExposure_usEPi+0x52>
  48:	2840      	cmp	r0, #64	; 0x40
  4a:	d14f      	bne.n	ec <_ZN6OV264014getExposure_usEPi+0xec>
  4c:	f240 43a6 	movw	r3, #1190	; 0x4a6
  50:	e001      	b.n	56 <_ZN6OV264014getExposure_usEPi+0x56>
  52:	f240 7382 	movw	r3, #1922	; 0x782
  56:	2111      	movs	r1, #17
  58:	4630      	mov	r0, r6
  5a:	9301      	str	r3, [sp, #4]
  5c:	f7ff fffe 	bl	0 <_ZN6OV264014getExposure_usEPi>
  60:	f010 0f82 	tst.w	r0, #130	; 0x82
  64:	f000 003f 	and.w	r0, r0, #63	; 0x3f
  68:	f04f 0200 	mov.w	r2, #0
  6c:	f04f 01ff 	mov.w	r1, #255	; 0xff
  70:	f100 0702 	add.w	r7, r0, #2
  74:	4630      	mov	r0, r6
  76:	bf14      	ite	ne
  78:	f04f 0906 	movne.w	r9, #6
  7c:	f04f 0903 	moveq.w	r9, #3
  80:	f7ff fffe 	bl	0 <_ZN6OV264014getExposure_usEPi>
  84:	21da      	movs	r1, #218	; 0xda
  86:	ea48 0800 	orr.w	r8, r8, r0
  8a:	4630      	mov	r0, r6
  8c:	f7ff fffe 	bl	0 <_ZN6OV264014getExposure_usEPi>
  90:	f010 000c 	ands.w	r0, r0, #12
  94:	fa5f f888 	uxtb.w	r8, r8
  98:	9b01      	ldr	r3, [sp, #4]
  9a:	d025      	beq.n	e8 <_ZN6OV264014getExposure_usEPi+0xe8>
  9c:	f1a0 0104 	sub.w	r1, r0, #4
  a0:	fab1 f181 	clz	r1, r1
  a4:	0949      	lsrs	r1, r1, #5
  a6:	f004 0203 	and.w	r2, r4, #3
  aa:	f8d6 6090 	ldr.w	r6, [r6, #144]	; 0x90
  ae:	4640      	mov	r0, r8
  b0:	eb02 028b 	add.w	r2, r2, fp, lsl #2
  b4:	eb02 228a 	add.w	r2, r2, sl, lsl #10
  b8:	b292      	uxth	r2, r2
  ba:	fb03 f202 	mul.w	r2, r3, r2
  be:	4b0e      	ldr	r3, [pc, #56]	; (f8 <_ZN6OV264014getExposure_usEPi+0xf8>)
  c0:	fb06 f303 	mul.w	r3, r6, r3
  c4:	fb01 f202 	mul.w	r2, r1, r2
  c8:	490c      	ldr	r1, [pc, #48]	; (fc <_ZN6OV264014getExposure_usEPi+0xfc>)
  ca:	fb93 f3f7 	sdiv	r3, r3, r7
  ce:	fb09 f303 	mul.w	r3, r9, r3
  d2:	fb81 4103 	smull	r4, r1, r1, r3
  d6:	17db      	asrs	r3, r3, #31
  d8:	ebc3 43a1 	rsb	r3, r3, r1, asr #18
  dc:	fb92 f2f3 	sdiv	r2, r2, r3
  e0:	602a      	str	r2, [r5, #0]
  e2:	b003      	add	sp, #12
  e4:	e8bd 8ff0 	ldmia.w	sp!, {r4, r5, r6, r7, r8, r9, sl, fp, pc}
  e8:	2102      	movs	r1, #2
  ea:	e7dc      	b.n	a6 <_ZN6OV264014getExposure_usEPi+0xa6>
  ec:	2820      	cmp	r0, #32
  ee:	f240 2353 	movw	r3, #595	; 0x253
  f2:	bf18      	it	ne
  f4:	2300      	movne	r3, #0
  f6:	e7ae      	b.n	56 <_ZN6OV264014getExposure_usEPi+0x56>
  f8:	000f4240 	.word	0x000f4240
  fc:	431bde83 	.word	0x431bde83

Disassembly of section .text._ZN6OV264015setAutoWhitebalEifff:

00000000 <_ZN6OV264015setAutoWhitebalEifff>:
   0:	b570      	push	{r4, r5, r6, lr}
   2:	4606      	mov	r6, r0
   4:	2200      	movs	r2, #0
   6:	460d      	mov	r5, r1
   8:	21ff      	movs	r1, #255	; 0xff
   a:	f7ff fffe 	bl	0 <_ZN6OV264015setAutoWhitebalEifff>
   e:	21c3      	movs	r1, #195	; 0xc3
  10:	4604      	mov	r4, r0
  12:	4630      	mov	r0, r6
  14:	f7ff fffe 	bl	0 <_ZN6OV264015setAutoWhitebalEifff>
  18:	3d00      	subs	r5, #0
  1a:	4602      	mov	r2, r0
  1c:	f04f 01c3 	mov.w	r1, #195	; 0xc3
  20:	bf18      	it	ne
  22:	2501      	movne	r5, #1
  24:	4630      	mov	r0, r6
  26:	f022 0208 	bic.w	r2, r2, #8
  2a:	ea42 02c5 	orr.w	r2, r2, r5, lsl #3
  2e:	b2d2      	uxtb	r2, r2
  30:	f7ff fffe 	bl	0 <_ZN6OV264015setAutoWhitebalEifff>
  34:	4320      	orrs	r0, r4
  36:	b2c0      	uxtb	r0, r0
  38:	bd70      	pop	{r4, r5, r6, pc}
  3a:	bf00      	nop

Disassembly of section .text._ZN6OV264014getRGB_Gain_dbEPfS0_S0_:

00000000 <_ZN6OV264014getRGB_Gain_dbEPfS0_S0_>:
   0:	b570      	push	{r4, r5, r6, lr}
   2:	4615      	mov	r5, r2
   4:	460e      	mov	r6, r1
   6:	2200      	movs	r2, #0
   8:	21ff      	movs	r1, #255	; 0xff
   a:	461c      	mov	r4, r3
   c:	f7ff fffe 	bl	0 <_ZN6OV264014getRGB_Gain_dbEPfS0_S0_>
  10:	4b02      	ldr	r3, [pc, #8]	; (1c <_ZN6OV264014getRGB_Gain_dbEPfS0_S0_+0x1c>)
  12:	6033      	str	r3, [r6, #0]
  14:	602b      	str	r3, [r5, #0]
  16:	6023      	str	r3, [r4, #0]
  18:	bd70      	pop	{r4, r5, r6, pc}
  1a:	bf00      	nop
  1c:	7fc00000 	.word	0x7fc00000

Disassembly of section .text._ZN6OV264010setHmirrorEi:

00000000 <_ZN6OV264010setHmirrorEi>:
   0:	b570      	push	{r4, r5, r6, lr}
   2:	4605      	mov	r5, r0
   4:	460e      	mov	r6, r1
   6:	2201      	movs	r2, #1
   8:	21ff      	movs	r1, #255	; 0xff
   a:	f7ff fffe 	bl	0 <_ZN6OV264010setHmirrorEi>
   e:	2104      	movs	r1, #4
  10:	4604      	mov	r4, r0
  12:	4628      	mov	r0, r5
  14:	f7ff fffe 	bl	0 <_ZN6OV264010setHmirrorEi>
  18:	b94e      	cbnz	r6, 2e <_ZN6OV264010setHmirrorEi+0x2e>
  1a:	f060 027f 	orn	r2, r0, #127	; 0x7f
  1e:	b2d2      	uxtb	r2, r2
  20:	2104      	movs	r1, #4
  22:	4628      	mov	r0, r5
  24:	f7ff fffe 	bl	0 <_ZN6OV264010setHmirrorEi>
  28:	4320      	orrs	r0, r4
  2a:	b2c0      	uxtb	r0, r0
  2c:	bd70      	pop	{r4, r5, r6, pc}
  2e:	f000 027f 	and.w	r2, r0, #127	; 0x7f
  32:	e7f5      	b.n	20 <_ZN6OV264010setHmirrorEi+0x20>

Disassembly of section .text._ZN6OV26408setVflipEi:

00000000 <_ZN6OV26408setVflipEi>:
   0:	b570      	push	{r4, r5, r6, lr}
   2:	4605      	mov	r5, r0
   4:	460e      	mov	r6, r1
   6:	2201      	movs	r2, #1
   8:	21ff      	movs	r1, #255	; 0xff
   a:	f7ff fffe 	bl	0 <_ZN6OV26408setVflipEi>
   e:	2104      	movs	r1, #4
  10:	4604      	mov	r4, r0
  12:	4628      	mov	r0, r5
  14:	f7ff fffe 	bl	0 <_ZN6OV26408setVflipEi>
  18:	b94e      	cbnz	r6, 2e <_ZN6OV26408setVflipEi+0x2e>
  1a:	f040 0250 	orr.w	r2, r0, #80	; 0x50
  1e:	b2d2      	uxtb	r2, r2
  20:	2104      	movs	r1, #4
  22:	4628      	mov	r0, r5
  24:	f7ff fffe 	bl	0 <_ZN6OV26408setVflipEi>
  28:	4320      	orrs	r0, r4
  2a:	b2c0      	uxtb	r0, r0
  2c:	bd70      	pop	{r4, r5, r6, pc}
  2e:	f000 02af 	and.w	r2, r0, #175	; 0xaf
  32:	e7f5      	b.n	20 <_ZN6OV26408setVflipEi+0x20>

Disassembly of section .text._ZN6OV264016setSpecialEffectE5sde_t:

00000000 <_ZN6OV264016setSpecialEffectE5sde_t>:
   0:	2906      	cmp	r1, #6
   2:	e92d 41f0 	stmdb	sp!, {r4, r5, r6, r7, r8, lr}
   6:	d903      	bls.n	10 <_ZN6OV264016setSpecialEffectE5sde_t+0x10>
   8:	2401      	movs	r4, #1
   a:	4620      	mov	r0, r4
   c:	e8bd 81f0 	ldmia.w	sp!, {r4, r5, r6, r7, r8, pc}
  10:	460d      	mov	r5, r1
  12:	4e0d      	ldr	r6, [pc, #52]	; (48 <_ZN6OV264016setSpecialEffectE5sde_t+0x48>)
  14:	21ff      	movs	r1, #255	; 0xff
  16:	2200      	movs	r2, #0
  18:	3501      	adds	r5, #1
  1a:	4607      	mov	r7, r0
  1c:	f7ff fffe 	bl	0 <_ZN6OV264016setSpecialEffectE5sde_t>
  20:	4604      	mov	r4, r0
  22:	eb05 0185 	add.w	r1, r5, r5, lsl #2
  26:	4635      	mov	r5, r6
  28:	440e      	add	r6, r1
  2a:	f105 0804 	add.w	r8, r5, #4
  2e:	217c      	movs	r1, #124	; 0x7c
  30:	f816 2b01 	ldrb.w	r2, [r6], #1
  34:	4638      	mov	r0, r7
  36:	f7ff fffe 	bl	0 <_ZN6OV264016setSpecialEffectE5sde_t>
  3a:	4545      	cmp	r5, r8
  3c:	ea44 0400 	orr.w	r4, r4, r0
  40:	d0e3      	beq.n	a <_ZN6OV264016setSpecialEffectE5sde_t+0xa>
  42:	f815 1f01 	ldrb.w	r1, [r5, #1]!
  46:	e7f3      	b.n	30 <_ZN6OV264016setSpecialEffectE5sde_t+0x30>
  48:	00000000 	.word	0x00000000

Disassembly of section .text._ZN6OV26409setWBmodeEi:

00000000 <_ZN6OV26409setWBmodeEi>:
   0:	2904      	cmp	r1, #4
   2:	e92d 41f0 	stmdb	sp!, {r4, r5, r6, r7, r8, lr}
   6:	4606      	mov	r6, r0
   8:	d81e      	bhi.n	48 <_ZN6OV26409setWBmodeEi+0x48>
   a:	2200      	movs	r2, #0
   c:	460d      	mov	r5, r1
   e:	21ff      	movs	r1, #255	; 0xff
  10:	f7ff fffe 	bl	0 <_ZN6OV26409setWBmodeEi>
  14:	4604      	mov	r4, r0
  16:	2240      	movs	r2, #64	; 0x40
  18:	21c7      	movs	r1, #199	; 0xc7
  1a:	4630      	mov	r0, r6
  1c:	f7ff fffe 	bl	0 <_ZN6OV26409setWBmodeEi>
  20:	4304      	orrs	r4, r0
  22:	b2e4      	uxtb	r4, r4
  24:	b1d5      	cbz	r5, 5c <_ZN6OV26409setWBmodeEi+0x5c>
  26:	4f0f      	ldr	r7, [pc, #60]	; (64 <_ZN6OV26409setWBmodeEi+0x64>)
  28:	eb05 0545 	add.w	r5, r5, r5, lsl #1
  2c:	21cc      	movs	r1, #204	; 0xcc
  2e:	f107 0802 	add.w	r8, r7, #2
  32:	5d7a      	ldrb	r2, [r7, r5]
  34:	4630      	mov	r0, r6
  36:	f7ff fffe 	bl	0 <_ZN6OV26409setWBmodeEi>
  3a:	4547      	cmp	r7, r8
  3c:	ea44 0400 	orr.w	r4, r4, r0
  40:	d00c      	beq.n	5c <_ZN6OV26409setWBmodeEi+0x5c>
  42:	f817 1f01 	ldrb.w	r1, [r7, #1]!
  46:	e7f4      	b.n	32 <_ZN6OV26409setWBmodeEi+0x32>
  48:	2200      	movs	r2, #0
  4a:	21ff      	movs	r1, #255	; 0xff
  4c:	f7ff fffe 	bl	0 <_ZN6OV26409setWBmodeEi>
  50:	2200      	movs	r2, #0
  52:	21c7      	movs	r1, #199	; 0xc7
  54:	4630      	mov	r0, r6
  56:	2401      	movs	r4, #1
  58:	f7ff fffe 	bl	0 <_ZN6OV26409setWBmodeEi>
  5c:	4620      	mov	r0, r4
  5e:	e8bd 81f0 	ldmia.w	sp!, {r4, r5, r6, r7, r8, pc}
  62:	bf00      	nop
  64:	00000000 	.word	0x00000000

Disassembly of section .text._ZN6OV264013showRegistersEv:

00000000 <_ZN6OV264013showRegistersEv>:
   0:	e92d 4ff0 	stmdb	sp!, {r4, r5, r6, r7, r8, r9, sl, fp, lr}
   4:	4c59      	ldr	r4, [pc, #356]	; (16c <_ZN6OV264013showRegistersEv+0x16c>)
   6:	b089      	sub	sp, #36	; 0x24
   8:	2119      	movs	r1, #25
   a:	4607      	mov	r7, r0
   c:	4858      	ldr	r0, [pc, #352]	; (170 <_ZN6OV264013showRegistersEv+0x170>)
   e:	f504 7a46 	add.w	sl, r4, #792	; 0x318
  12:	f7ff fffe 	bl	0 <usb_serial_write>
  16:	2500      	movs	r5, #0
  18:	4856      	ldr	r0, [pc, #344]	; (174 <_ZN6OV264013showRegistersEv+0x174>)
  1a:	f04f 0b01 	mov.w	fp, #1
  1e:	f8df 9164 	ldr.w	r9, [pc, #356]	; 184 <_ZN6OV264013showRegistersEv+0x184>
  22:	f7ff fffe 	bl	0 <_ZN5Print7printlnEv>
  26:	f8df 814c 	ldr.w	r8, [pc, #332]	; 174 <_ZN6OV264013showRegistersEv+0x174>
  2a:	2200      	movs	r2, #0
  2c:	21ff      	movs	r1, #255	; 0xff
  2e:	4638      	mov	r0, r7
  30:	f7ff fffe 	bl	0 <_ZN6OV264013showRegistersEv>
  34:	88e6      	ldrh	r6, [r4, #6]
  36:	4638      	mov	r0, r7
  38:	b2f1      	uxtb	r1, r6
  3a:	f7ff fffe 	bl	0 <_ZN6OV264013showRegistersEv>
  3e:	462a      	mov	r2, r5
  40:	4605      	mov	r5, r0
  42:	f854 3b08 	ldr.w	r3, [r4], #8
  46:	4649      	mov	r1, r9
  48:	4640      	mov	r0, r8
  4a:	9600      	str	r6, [sp, #0]
  4c:	e9cd 5501 	strd	r5, r5, [sp, #4]
  50:	f7ff fffe 	bl	0 <_ZN5Print6printfEPKcz>
  54:	4554      	cmp	r4, sl
  56:	d00d      	beq.n	74 <_ZN6OV264013showRegistersEv+0x74>
  58:	7925      	ldrb	r5, [r4, #4]
  5a:	2d00      	cmp	r5, #0
  5c:	d0ea      	beq.n	34 <_ZN6OV264013showRegistersEv+0x34>
  5e:	f1bb 0f00 	cmp.w	fp, #0
  62:	d0e7      	beq.n	34 <_ZN6OV264013showRegistersEv+0x34>
  64:	2201      	movs	r2, #1
  66:	21ff      	movs	r1, #255	; 0xff
  68:	4638      	mov	r0, r7
  6a:	f04f 0b00 	mov.w	fp, #0
  6e:	f7ff fffe 	bl	0 <_ZN6OV264013showRegistersEv>
  72:	e7df      	b.n	34 <_ZN6OV264013showRegistersEv+0x34>
  74:	2132      	movs	r1, #50	; 0x32
  76:	4638      	mov	r0, r7
  78:	f7ff fffe 	bl	0 <_ZN6OV264013showRegistersEv>
  7c:	4604      	mov	r4, r0
  7e:	2103      	movs	r1, #3
  80:	4638      	mov	r0, r7
  82:	f004 0807 	and.w	r8, r4, #7
  86:	f7ff fffe 	bl	0 <_ZN6OV264013showRegistersEv>
  8a:	2117      	movs	r1, #23
  8c:	4606      	mov	r6, r0
  8e:	4638      	mov	r0, r7
  90:	f3c4 04c2 	ubfx	r4, r4, #3, #3
  94:	f7ff fffe 	bl	0 <_ZN6OV264013showRegistersEv>
  98:	2118      	movs	r1, #24
  9a:	ea48 00c0 	orr.w	r0, r8, r0, lsl #3
  9e:	fa0f f880 	sxth.w	r8, r0
  a2:	4638      	mov	r0, r7
  a4:	f7ff fffe 	bl	0 <_ZN6OV264013showRegistersEv>
  a8:	2119      	movs	r1, #25
  aa:	ea44 00c0 	orr.w	r0, r4, r0, lsl #3
  ae:	b204      	sxth	r4, r0
  b0:	4638      	mov	r0, r7
  b2:	f7ff fffe 	bl	0 <_ZN6OV264013showRegistersEv>
  b6:	f006 0303 	and.w	r3, r6, #3
  ba:	f3c6 0681 	ubfx	r6, r6, #2, #2
  be:	211a      	movs	r1, #26
  c0:	ea43 0380 	orr.w	r3, r3, r0, lsl #2
  c4:	4638      	mov	r0, r7
  c6:	b21d      	sxth	r5, r3
  c8:	f7ff fffe 	bl	0 <_ZN6OV264013showRegistersEv>
  cc:	4623      	mov	r3, r4
  ce:	ea46 0680 	orr.w	r6, r6, r0, lsl #2
  d2:	eba4 0408 	sub.w	r4, r4, r8
  d6:	9502      	str	r5, [sp, #8]
  d8:	4642      	mov	r2, r8
  da:	b236      	sxth	r6, r6
  dc:	9400      	str	r4, [sp, #0]
  de:	0060      	lsls	r0, r4, #1
  e0:	4925      	ldr	r1, [pc, #148]	; (178 <_ZN6OV264013showRegistersEv+0x178>)
  e2:	1b75      	subs	r5, r6, r5
  e4:	9001      	str	r0, [sp, #4]
  e6:	4823      	ldr	r0, [pc, #140]	; (174 <_ZN6OV264013showRegistersEv+0x174>)
  e8:	e9cd 6503 	strd	r6, r5, [sp, #12]
  ec:	006d      	lsls	r5, r5, #1
  ee:	9505      	str	r5, [sp, #20]
  f0:	f7ff fffe 	bl	0 <_ZN5Print6printfEPKcz>
  f4:	2200      	movs	r2, #0
  f6:	21ff      	movs	r1, #255	; 0xff
  f8:	4638      	mov	r0, r7
  fa:	f7ff fffe 	bl	0 <_ZN6OV264013showRegistersEv>
  fe:	2155      	movs	r1, #85	; 0x55
 100:	4638      	mov	r0, r7
 102:	f7ff fffe 	bl	0 <_ZN6OV264013showRegistersEv>
 106:	2151      	movs	r1, #81	; 0x51
 108:	4604      	mov	r4, r0
 10a:	4638      	mov	r0, r7
 10c:	f7ff fffe 	bl	0 <_ZN6OV264013showRegistersEv>
 110:	2152      	movs	r1, #82	; 0x52
 112:	4605      	mov	r5, r0
 114:	4638      	mov	r0, r7
 116:	f7ff fffe 	bl	0 <_ZN6OV264013showRegistersEv>
 11a:	9000      	str	r0, [sp, #0]
 11c:	b201      	sxth	r1, r0
 11e:	462a      	mov	r2, r5
 120:	b22b      	sxth	r3, r5
 122:	4814      	ldr	r0, [pc, #80]	; (174 <_ZN6OV264013showRegistersEv+0x174>)
 124:	0089      	lsls	r1, r1, #2
 126:	009b      	lsls	r3, r3, #2
 128:	9101      	str	r1, [sp, #4]
 12a:	4914      	ldr	r1, [pc, #80]	; (17c <_ZN6OV264013showRegistersEv+0x17c>)
 12c:	f7ff fffe 	bl	0 <_ZN5Print6printfEPKcz>
 130:	2153      	movs	r1, #83	; 0x53
 132:	4638      	mov	r0, r7
 134:	f7ff fffe 	bl	0 <_ZN6OV264013showRegistersEv>
 138:	4603      	mov	r3, r0
 13a:	0222      	lsls	r2, r4, #8
 13c:	2154      	movs	r1, #84	; 0x54
 13e:	4638      	mov	r0, r7
 140:	f402 62e0 	and.w	r2, r2, #1792	; 0x700
 144:	431a      	orrs	r2, r3
 146:	b212      	sxth	r2, r2
 148:	9207      	str	r2, [sp, #28]
 14a:	f7ff fffe 	bl	0 <_ZN6OV264013showRegistersEv>
 14e:	0123      	lsls	r3, r4, #4
 150:	4605      	mov	r5, r0
 152:	9a07      	ldr	r2, [sp, #28]
 154:	f403 63e0 	and.w	r3, r3, #1792	; 0x700
 158:	4909      	ldr	r1, [pc, #36]	; (180 <_ZN6OV264013showRegistersEv+0x180>)
 15a:	4806      	ldr	r0, [pc, #24]	; (174 <_ZN6OV264013showRegistersEv+0x174>)
 15c:	432b      	orrs	r3, r5
 15e:	b21b      	sxth	r3, r3
 160:	b009      	add	sp, #36	; 0x24
 162:	e8bd 4ff0 	ldmia.w	sp!, {r4, r5, r6, r7, r8, r9, sl, fp, lr}
 166:	f7ff bffe 	b.w	0 <_ZN5Print6printfEPKcz>
 16a:	bf00      	nop
 16c:	00000000 	.word	0x00000000
 170:	00000000 	.word	0x00000000
 174:	00000000 	.word	0x00000000
 178:	00000034 	.word	0x00000034
 17c:	00000078 	.word	0x00000078
 180:	000000a4 	.word	0x000000a4
 184:	0000001c 	.word	0x0000001c

Disassembly of section .text._ZN6OV264015setAutoExposureEii:

00000000 <_ZN6OV264015setAutoExposureEii>:
   0:	e92d 43f8 	stmdb	sp!, {r3, r4, r5, r6, r7, r8, r9, lr}
   4:	4605      	mov	r5, r0
   6:	460e      	mov	r6, r1
   8:	4617      	mov	r7, r2
   a:	21ff      	movs	r1, #255	; 0xff
   c:	2201      	movs	r2, #1
   e:	f7ff fffe 	bl	0 <_ZN6OV264015setAutoExposureEii>
  12:	2113      	movs	r1, #19
  14:	4604      	mov	r4, r0
  16:	4628      	mov	r0, r5
  18:	f7ff fffe 	bl	0 <_ZN6OV264015setAutoExposureEii>
  1c:	f020 0201 	bic.w	r2, r0, #1
  20:	2113      	movs	r1, #19
  22:	4628      	mov	r0, r5
  24:	2e00      	cmp	r6, #0
  26:	bf18      	it	ne
  28:	f042 0201 	orrne.w	r2, r2, #1
  2c:	b2d2      	uxtb	r2, r2
  2e:	f7ff fffe 	bl	0 <_ZN6OV264015setAutoExposureEii>
  32:	4304      	orrs	r4, r0
  34:	b2e4      	uxtb	r4, r4
  36:	b90e      	cbnz	r6, 3c <_ZN6OV264015setAutoExposureEii+0x3c>
  38:	2f00      	cmp	r7, #0
  3a:	da02      	bge.n	42 <_ZN6OV264015setAutoExposureEii+0x42>
  3c:	4620      	mov	r0, r4
  3e:	e8bd 83f8 	ldmia.w	sp!, {r3, r4, r5, r6, r7, r8, r9, pc}
  42:	2112      	movs	r1, #18
  44:	4628      	mov	r0, r5
  46:	f7ff fffe 	bl	0 <_ZN6OV264015setAutoExposureEii>
  4a:	f010 0070 	ands.w	r0, r0, #112	; 0x70
  4e:	d07e      	beq.n	14e <_ZN6OV264015setAutoExposureEii+0x14e>
  50:	2840      	cmp	r0, #64	; 0x40
  52:	f040 808a 	bne.w	16a <_ZN6OV264015setAutoExposureEii+0x16a>
  56:	f240 46a6 	movw	r6, #1190	; 0x4a6
  5a:	2111      	movs	r1, #17
  5c:	4628      	mov	r0, r5
  5e:	f7ff fffe 	bl	0 <_ZN6OV264015setAutoExposureEii>
  62:	f010 0f82 	tst.w	r0, #130	; 0x82
  66:	f000 003f 	and.w	r0, r0, #63	; 0x3f
  6a:	f04f 0200 	mov.w	r2, #0
  6e:	f04f 01ff 	mov.w	r1, #255	; 0xff
  72:	bf18      	it	ne
  74:	f04f 0806 	movne.w	r8, #6
  78:	f100 0902 	add.w	r9, r0, #2
  7c:	4628      	mov	r0, r5
  7e:	bf08      	it	eq
  80:	f04f 0803 	moveq.w	r8, #3
  84:	f7ff fffe 	bl	0 <_ZN6OV264015setAutoExposureEii>
  88:	21da      	movs	r1, #218	; 0xda
  8a:	4304      	orrs	r4, r0
  8c:	4628      	mov	r0, r5
  8e:	f7ff fffe 	bl	0 <_ZN6OV264015setAutoExposureEii>
  92:	f010 000c 	ands.w	r0, r0, #12
  96:	b2e4      	uxtb	r4, r4
  98:	d065      	beq.n	166 <_ZN6OV264015setAutoExposureEii+0x166>
  9a:	f1a0 0004 	sub.w	r0, r0, #4
  9e:	fab0 f080 	clz	r0, r0
  a2:	0940      	lsrs	r0, r0, #5
  a4:	4a34      	ldr	r2, [pc, #208]	; (178 <_ZN6OV264015setAutoExposureEii+0x178>)
  a6:	f8d5 3090 	ldr.w	r3, [r5, #144]	; 0x90
  aa:	fb02 f303 	mul.w	r3, r2, r3
  ae:	f102 4286 	add.w	r2, r2, #1124073472	; 0x43000000
  b2:	fb93 f3f9 	sdiv	r3, r3, r9
  b6:	f502 2249 	add.w	r2, r2, #823296	; 0xc9000
  ba:	fb08 f303 	mul.w	r3, r8, r3
  be:	f602 4243 	addw	r2, r2, #3139	; 0xc43
  c2:	fb82 1203 	smull	r1, r2, r2, r3
  c6:	17db      	asrs	r3, r3, #31
  c8:	ebc3 43a2 	rsb	r3, r3, r2, asr #18
  cc:	fb07 f203 	mul.w	r2, r7, r3
  d0:	f64f 73fe 	movw	r3, #65534	; 0xfffe
  d4:	fb92 f2f0 	sdiv	r2, r2, r0
  d8:	fb92 f2f6 	sdiv	r2, r2, r6
  dc:	429a      	cmp	r2, r3
  de:	dc39      	bgt.n	154 <_ZN6OV264015setAutoExposureEii+0x154>
  e0:	2a00      	cmp	r2, #0
  e2:	da39      	bge.n	158 <_ZN6OV264015setAutoExposureEii+0x158>
  e4:	2600      	movs	r6, #0
  e6:	4637      	mov	r7, r6
  e8:	46b0      	mov	r8, r6
  ea:	2201      	movs	r2, #1
  ec:	21ff      	movs	r1, #255	; 0xff
  ee:	4628      	mov	r0, r5
  f0:	f7ff fffe 	bl	0 <_ZN6OV264015setAutoExposureEii>
  f4:	2104      	movs	r1, #4
  f6:	4304      	orrs	r4, r0
  f8:	4628      	mov	r0, r5
  fa:	f7ff fffe 	bl	0 <_ZN6OV264015setAutoExposureEii>
  fe:	f000 00fc 	and.w	r0, r0, #252	; 0xfc
 102:	b2e4      	uxtb	r4, r4
 104:	2104      	movs	r1, #4
 106:	ea40 0208 	orr.w	r2, r0, r8
 10a:	4628      	mov	r0, r5
 10c:	f7ff fffe 	bl	0 <_ZN6OV264015setAutoExposureEii>
 110:	4320      	orrs	r0, r4
 112:	2110      	movs	r1, #16
 114:	b2c4      	uxtb	r4, r0
 116:	4628      	mov	r0, r5
 118:	f7ff fffe 	bl	0 <_ZN6OV264015setAutoExposureEii>
 11c:	463a      	mov	r2, r7
 11e:	2110      	movs	r1, #16
 120:	4628      	mov	r0, r5
 122:	f7ff fffe 	bl	0 <_ZN6OV264015setAutoExposureEii>
 126:	4320      	orrs	r0, r4
 128:	2145      	movs	r1, #69	; 0x45
 12a:	b2c4      	uxtb	r4, r0
 12c:	4628      	mov	r0, r5
 12e:	f7ff fffe 	bl	0 <_ZN6OV264015setAutoExposureEii>
 132:	4603      	mov	r3, r0
 134:	2145      	movs	r1, #69	; 0x45
 136:	4628      	mov	r0, r5
 138:	f023 033f 	bic.w	r3, r3, #63	; 0x3f
 13c:	ea46 0203 	orr.w	r2, r6, r3
 140:	b2d2      	uxtb	r2, r2
 142:	f7ff fffe 	bl	0 <_ZN6OV264015setAutoExposureEii>
 146:	4320      	orrs	r0, r4
 148:	b2c0      	uxtb	r0, r0
 14a:	e8bd 83f8 	ldmia.w	sp!, {r3, r4, r5, r6, r7, r8, r9, pc}
 14e:	f240 7682 	movw	r6, #1922	; 0x782
 152:	e782      	b.n	5a <_ZN6OV264015setAutoExposureEii+0x5a>
 154:	f64f 72ff 	movw	r2, #65535	; 0xffff
 158:	f002 0803 	and.w	r8, r2, #3
 15c:	f3c2 0787 	ubfx	r7, r2, #2, #8
 160:	f342 2687 	sbfx	r6, r2, #10, #8
 164:	e7c1      	b.n	ea <_ZN6OV264015setAutoExposureEii+0xea>
 166:	2002      	movs	r0, #2
 168:	e79c      	b.n	a4 <_ZN6OV264015setAutoExposureEii+0xa4>
 16a:	2820      	cmp	r0, #32
 16c:	f240 2653 	movw	r6, #595	; 0x253
 170:	bf18      	it	ne
 172:	2600      	movne	r6, #0
 174:	e771      	b.n	5a <_ZN6OV264015setAutoExposureEii+0x5a>
 176:	bf00      	nop
 178:	000f4240 	.word	0x000f4240

Disassembly of section .text._ZN6OV264016begin_omnivisionE11framesize_t11pixformat_tiib:

00000000 <_ZN6OV264016begin_omnivisionE11framesize_t11pixformat_tiib>:
   0:	e92d 41f0 	stmdb	sp!, {r4, r5, r6, r7, r8, lr}
   4:	4604      	mov	r4, r0
   6:	b082      	sub	sp, #8
   8:	6a40      	ldr	r0, [r0, #36]	; 0x24
   a:	460d      	mov	r5, r1
   c:	f89d 3024 	ldrb.w	r3, [sp, #36]	; 0x24
  10:	4617      	mov	r7, r2
  12:	28ff      	cmp	r0, #255	; 0xff
  14:	72e3      	strb	r3, [r4, #11]
  16:	d01c      	beq.n	52 <_ZN6OV264016begin_omnivisionE11framesize_t11pixformat_tiib+0x52>
  18:	6aa3      	ldr	r3, [r4, #40]	; 0x28
  1a:	2b00      	cmp	r3, #0
  1c:	da0c      	bge.n	38 <_ZN6OV264016begin_omnivisionE11framesize_t11pixformat_tiib+0x38>
  1e:	1c5a      	adds	r2, r3, #1
  20:	f000 81c3 	beq.w	3aa <_ZN6OV264016begin_omnivisionE11framesize_t11pixformat_tiib+0x3aa>
  24:	1c9e      	adds	r6, r3, #2
  26:	f000 81d4 	beq.w	3d2 <_ZN6OV264016begin_omnivisionE11framesize_t11pixformat_tiib+0x3d2>
  2a:	3303      	adds	r3, #3
  2c:	d10e      	bne.n	4c <_ZN6OV264016begin_omnivisionE11framesize_t11pixformat_tiib+0x4c>
  2e:	2103      	movs	r1, #3
  30:	b2c0      	uxtb	r0, r0
  32:	f7ff fffe 	bl	0 <pinMode>
  36:	e009      	b.n	4c <_ZN6OV264016begin_omnivisionE11framesize_t11pixformat_tiib+0x4c>
  38:	b2c0      	uxtb	r0, r0
  3a:	2101      	movs	r1, #1
  3c:	f7ff fffe 	bl	0 <pinMode>
  40:	f894 1028 	ldrb.w	r1, [r4, #40]	; 0x28
  44:	f894 0024 	ldrb.w	r0, [r4, #36]	; 0x24
  48:	f7ff fffe 	bl	0 <digitalWrite>
  4c:	2005      	movs	r0, #5
  4e:	f7ff fffe 	bl	0 <delay>
  52:	6ae0      	ldr	r0, [r4, #44]	; 0x2c
  54:	28ff      	cmp	r0, #255	; 0xff
  56:	d01c      	beq.n	92 <_ZN6OV264016begin_omnivisionE11framesize_t11pixformat_tiib+0x92>
  58:	6b23      	ldr	r3, [r4, #48]	; 0x30
  5a:	2b00      	cmp	r3, #0
  5c:	da0c      	bge.n	78 <_ZN6OV264016begin_omnivisionE11framesize_t11pixformat_tiib+0x78>
  5e:	1c59      	adds	r1, r3, #1
  60:	f000 81a8 	beq.w	3b4 <_ZN6OV264016begin_omnivisionE11framesize_t11pixformat_tiib+0x3b4>
  64:	1c9a      	adds	r2, r3, #2
  66:	f000 81b9 	beq.w	3dc <_ZN6OV264016begin_omnivisionE11framesize_t11pixformat_tiib+0x3dc>
  6a:	3303      	adds	r3, #3
  6c:	d10e      	bne.n	8c <_ZN6OV264016begin_omnivisionE11framesize_t11pixformat_tiib+0x8c>
  6e:	2103      	movs	r1, #3
  70:	b2c0      	uxtb	r0, r0
  72:	f7ff fffe 	bl	0 <pinMode>
  76:	e009      	b.n	8c <_ZN6OV264016begin_omnivisionE11framesize_t11pixformat_tiib+0x8c>
  78:	b2c0      	uxtb	r0, r0
  7a:	2101      	movs	r1, #1
  7c:	f7ff fffe 	bl	0 <pinMode>
  80:	f894 1030 	ldrb.w	r1, [r4, #48]	; 0x30
  84:	f894 002c 	ldrb.w	r0, [r4, #44]	; 0x2c
  88:	f7ff fffe 	bl	0 <digitalWrite>
  8c:	2005      	movs	r0, #5
  8e:	f7ff fffe 	bl	0 <delay>
  92:	6ea0      	ldr	r0, [r4, #104]	; 0x68
  94:	f7ff fffe 	bl	0 <_ZN7TwoWire5beginEv>
  98:	2d0a      	cmp	r5, #10
  9a:	d822      	bhi.n	e2 <_ZN6OV264016begin_omnivisionE11framesize_t11pixformat_tiib+0xe2>
  9c:	4bad      	ldr	r3, [pc, #692]	; (354 <_ZN6OV264016begin_omnivisionE11framesize_t11pixformat_tiib+0x354>)
  9e:	f933 6035 	ldrsh.w	r6, [r3, r5, lsl #3]
  a2:	f8a4 6054 	strh.w	r6, [r4, #84]	; 0x54
  a6:	b1a6      	cbz	r6, d2 <_ZN6OV264016begin_omnivisionE11framesize_t11pixformat_tiib+0xd2>
  a8:	eb03 03c5 	add.w	r3, r3, r5, lsl #3
  ac:	2100      	movs	r1, #0
  ae:	f8c4 50c0 	str.w	r5, [r4, #192]	; 0xc0
  b2:	685a      	ldr	r2, [r3, #4]
  b4:	1efb      	subs	r3, r7, #3
  b6:	f884 10bd 	strb.w	r1, [r4, #189]	; 0xbd
  ba:	f8a4 2056 	strh.w	r2, [r4, #86]	; 0x56
  be:	2b05      	cmp	r3, #5
  c0:	d80b      	bhi.n	da <_ZN6OV264016begin_omnivisionE11framesize_t11pixformat_tiib+0xda>
  c2:	e8df f013 	tbh	[pc, r3, lsl #1]
  c6:	00e6      	.short	0x00e6
  c8:	00e2000a 	.word	0x00e2000a
  cc:	00d600de 	.word	0x00d600de
  d0:	0012      	.short	0x0012
  d2:	7a23      	ldrb	r3, [r4, #8]
  d4:	2b00      	cmp	r3, #0
  d6:	f040 80e0 	bne.w	29a <_ZN6OV264016begin_omnivisionE11framesize_t11pixformat_tiib+0x29a>
  da:	2000      	movs	r0, #0
  dc:	b002      	add	sp, #8
  de:	e8bd 81f0 	ldmia.w	sp!, {r4, r5, r6, r7, r8, pc}
  e2:	2001      	movs	r0, #1
  e4:	b002      	add	sp, #8
  e6:	e8bd 81f0 	ldmia.w	sp!, {r4, r5, r6, r7, r8, pc}
  ea:	2202      	movs	r2, #2
  ec:	2308      	movs	r3, #8
  ee:	65e2      	str	r2, [r4, #92]	; 0x5c
  f0:	6663      	str	r3, [r4, #100]	; 0x64
  f2:	2100      	movs	r1, #0
  f4:	7d20      	ldrb	r0, [r4, #20]
  f6:	f7ff fffe 	bl	0 <pinMode>
  fa:	2102      	movs	r1, #2
  fc:	7e20      	ldrb	r0, [r4, #24]
  fe:	f7ff fffe 	bl	0 <pinMode>
 102:	2103      	movs	r1, #3
 104:	7f20      	ldrb	r0, [r4, #28]
 106:	f7ff fffe 	bl	0 <pinMode>
 10a:	2101      	movs	r1, #1
 10c:	f894 0020 	ldrb.w	r0, [r4, #32]
 110:	f7ff fffe 	bl	0 <pinMode>
 114:	4e90      	ldr	r6, [pc, #576]	; (358 <_ZN6OV264016begin_omnivisionE11framesize_t11pixformat_tiib+0x358>)
 116:	6962      	ldr	r2, [r4, #20]
 118:	4620      	mov	r0, r4
 11a:	69a3      	ldr	r3, [r4, #24]
 11c:	0111      	lsls	r1, r2, #4
 11e:	eb06 1202 	add.w	r2, r6, r2, lsl #4
 122:	5871      	ldr	r1, [r6, r1]
 124:	68d2      	ldr	r2, [r2, #12]
 126:	3108      	adds	r1, #8
 128:	f8c4 2098 	str.w	r2, [r4, #152]	; 0x98
 12c:	011a      	lsls	r2, r3, #4
 12e:	f8c4 1094 	str.w	r1, [r4, #148]	; 0x94
 132:	eb06 1303 	add.w	r3, r6, r3, lsl #4
 136:	58b2      	ldr	r2, [r6, r2]
 138:	68db      	ldr	r3, [r3, #12]
 13a:	3208      	adds	r2, #8
 13c:	f8c4 30a0 	str.w	r3, [r4, #160]	; 0xa0
 140:	f8c4 209c 	str.w	r2, [r4, #156]	; 0x9c
 144:	69e3      	ldr	r3, [r4, #28]
 146:	6822      	ldr	r2, [r4, #0]
 148:	f8d2 1144 	ldr.w	r1, [r2, #324]	; 0x144
 14c:	011a      	lsls	r2, r3, #4
 14e:	eb06 1303 	add.w	r3, r6, r3, lsl #4
 152:	58b2      	ldr	r2, [r6, r2]
 154:	68db      	ldr	r3, [r3, #12]
 156:	3208      	adds	r2, #8
 158:	f8c4 30a8 	str.w	r3, [r4, #168]	; 0xa8
 15c:	f8c4 20a4 	str.w	r2, [r4, #164]	; 0xa4
 160:	4788      	blx	r1
 162:	6a60      	ldr	r0, [r4, #36]	; 0x24
 164:	28ff      	cmp	r0, #255	; 0xff
 166:	d028      	beq.n	1ba <_ZN6OV264016begin_omnivisionE11framesize_t11pixformat_tiib+0x1ba>
 168:	b2c0      	uxtb	r0, r0
 16a:	2101      	movs	r1, #1
 16c:	f7ff fffe 	bl	0 <pinMode>
 170:	f894 3024 	ldrb.w	r3, [r4, #36]	; 0x24
 174:	f04f 0c00 	mov.w	ip, #0
 178:	4a78      	ldr	r2, [pc, #480]	; (35c <_ZN6OV264016begin_omnivisionE11framesize_t11pixformat_tiib+0x35c>)
 17a:	0119      	lsls	r1, r3, #4
 17c:	eb06 1303 	add.w	r3, r6, r3, lsl #4
 180:	5871      	ldr	r1, [r6, r1]
 182:	68d8      	ldr	r0, [r3, #12]
 184:	f8c1 0088 	str.w	r0, [r1, #136]	; 0x88
 188:	f8cd c000 	str.w	ip, [sp]
 18c:	9b00      	ldr	r3, [sp, #0]
 18e:	4293      	cmp	r3, r2
 190:	d805      	bhi.n	19e <_ZN6OV264016begin_omnivisionE11framesize_t11pixformat_tiib+0x19e>
 192:	9b00      	ldr	r3, [sp, #0]
 194:	3301      	adds	r3, #1
 196:	9300      	str	r3, [sp, #0]
 198:	9b00      	ldr	r3, [sp, #0]
 19a:	4293      	cmp	r3, r2
 19c:	d9f9      	bls.n	192 <_ZN6OV264016begin_omnivisionE11framesize_t11pixformat_tiib+0x192>
 19e:	2300      	movs	r3, #0
 1a0:	f8c1 0084 	str.w	r0, [r1, #132]	; 0x84
 1a4:	4a6d      	ldr	r2, [pc, #436]	; (35c <_ZN6OV264016begin_omnivisionE11framesize_t11pixformat_tiib+0x35c>)
 1a6:	9301      	str	r3, [sp, #4]
 1a8:	9b01      	ldr	r3, [sp, #4]
 1aa:	4293      	cmp	r3, r2
 1ac:	d805      	bhi.n	1ba <_ZN6OV264016begin_omnivisionE11framesize_t11pixformat_tiib+0x1ba>
 1ae:	9b01      	ldr	r3, [sp, #4]
 1b0:	3301      	adds	r3, #1
 1b2:	9301      	str	r3, [sp, #4]
 1b4:	9b01      	ldr	r3, [sp, #4]
 1b6:	4293      	cmp	r3, r2
 1b8:	d9f9      	bls.n	1ae <_ZN6OV264016begin_omnivisionE11framesize_t11pixformat_tiib+0x1ae>
 1ba:	6ea0      	ldr	r0, [r4, #104]	; 0x68
 1bc:	f7ff fffe 	bl	0 <_ZN7TwoWire5beginEv>
 1c0:	f44f 707a 	mov.w	r0, #1000	; 0x3e8
 1c4:	f7ff fffe 	bl	0 <delay>
 1c8:	6823      	ldr	r3, [r4, #0]
 1ca:	f8df 81c0 	ldr.w	r8, [pc, #448]	; 38c <_ZN6OV264016begin_omnivisionE11framesize_t11pixformat_tiib+0x38c>
 1ce:	f8d3 3088 	ldr.w	r3, [r3, #136]	; 0x88
 1d2:	4543      	cmp	r3, r8
 1d4:	f040 80f3 	bne.w	3be <_ZN6OV264016begin_omnivisionE11framesize_t11pixformat_tiib+0x3be>
 1d8:	210a      	movs	r1, #10
 1da:	4620      	mov	r0, r4
 1dc:	f7ff fffe 	bl	0 <_ZN6OV264016begin_omnivisionE11framesize_t11pixformat_tiib>
 1e0:	210b      	movs	r1, #11
 1e2:	0200      	lsls	r0, r0, #8
 1e4:	b286      	uxth	r6, r0
 1e6:	4620      	mov	r0, r4
 1e8:	f7ff fffe 	bl	0 <_ZN6OV264016begin_omnivisionE11framesize_t11pixformat_tiib>
 1ec:	7a23      	ldrb	r3, [r4, #8]
 1ee:	4306      	orrs	r6, r0
 1f0:	b2b6      	uxth	r6, r6
 1f2:	2b00      	cmp	r3, #0
 1f4:	f040 80a7 	bne.w	346 <_ZN6OV264016begin_omnivisionE11framesize_t11pixformat_tiib+0x346>
 1f8:	f242 6341 	movw	r3, #9793	; 0x2641
 1fc:	429e      	cmp	r6, r3
 1fe:	d055      	beq.n	2ac <_ZN6OV264016begin_omnivisionE11framesize_t11pixformat_tiib+0x2ac>
 200:	6823      	ldr	r3, [r4, #0]
 202:	f8d3 3088 	ldr.w	r3, [r3, #136]	; 0x88
 206:	4543      	cmp	r3, r8
 208:	f040 80f4 	bne.w	3f4 <_ZN6OV264016begin_omnivisionE11framesize_t11pixformat_tiib+0x3f4>
 20c:	210a      	movs	r1, #10
 20e:	4620      	mov	r0, r4
 210:	f7ff fffe 	bl	0 <_ZN6OV264016begin_omnivisionE11framesize_t11pixformat_tiib>
 214:	210b      	movs	r1, #11
 216:	0200      	lsls	r0, r0, #8
 218:	b286      	uxth	r6, r0
 21a:	4620      	mov	r0, r4
 21c:	f7ff fffe 	bl	0 <_ZN6OV264016begin_omnivisionE11framesize_t11pixformat_tiib>
 220:	7a23      	ldrb	r3, [r4, #8]
 222:	4306      	orrs	r6, r0
 224:	b2b6      	uxth	r6, r6
 226:	2b00      	cmp	r3, #0
 228:	f040 80cd 	bne.w	3c6 <_ZN6OV264016begin_omnivisionE11framesize_t11pixformat_tiib+0x3c6>
 22c:	f242 6342 	movw	r3, #9794	; 0x2642
 230:	429e      	cmp	r6, r3
 232:	d03b      	beq.n	2ac <_ZN6OV264016begin_omnivisionE11framesize_t11pixformat_tiib+0x2ac>
 234:	6823      	ldr	r3, [r4, #0]
 236:	4620      	mov	r0, r4
 238:	4949      	ldr	r1, [pc, #292]	; (360 <_ZN6OV264016begin_omnivisionE11framesize_t11pixformat_tiib+0x360>)
 23a:	695a      	ldr	r2, [r3, #20]
 23c:	428a      	cmp	r2, r1
 23e:	f040 80dd 	bne.w	3fc <_ZN6OV264016begin_omnivisionE11framesize_t11pixformat_tiib+0x3fc>
 242:	f8d3 3148 	ldr.w	r3, [r3, #328]	; 0x148
 246:	4798      	blx	r3
 248:	f894 0020 	ldrb.w	r0, [r4, #32]
 24c:	2100      	movs	r1, #0
 24e:	f7ff fffe 	bl	0 <pinMode>
 252:	6ea0      	ldr	r0, [r4, #104]	; 0x68
 254:	f7ff fffe 	bl	0 <_ZN7TwoWire3endEv>
 258:	7a23      	ldrb	r3, [r4, #8]
 25a:	2b00      	cmp	r3, #0
 25c:	f43f af3d 	beq.w	da <_ZN6OV264016begin_omnivisionE11framesize_t11pixformat_tiib+0xda>
 260:	2114      	movs	r1, #20
 262:	4840      	ldr	r0, [pc, #256]	; (364 <_ZN6OV264016begin_omnivisionE11framesize_t11pixformat_tiib+0x364>)
 264:	f7ff fffe 	bl	0 <usb_serial_write>
 268:	483f      	ldr	r0, [pc, #252]	; (368 <_ZN6OV264016begin_omnivisionE11framesize_t11pixformat_tiib+0x368>)
 26a:	f7ff fffe 	bl	0 <_ZN5Print7printlnEv>
 26e:	2000      	movs	r0, #0
 270:	e734      	b.n	dc <_ZN6OV264016begin_omnivisionE11framesize_t11pixformat_tiib+0xdc>
 272:	2102      	movs	r1, #2
 274:	2201      	movs	r2, #1
 276:	2304      	movs	r3, #4
 278:	2703      	movs	r7, #3
 27a:	65e1      	str	r1, [r4, #92]	; 0x5c
 27c:	f884 20bd 	strb.w	r2, [r4, #189]	; 0xbd
 280:	e736      	b.n	f0 <_ZN6OV264016begin_omnivisionE11framesize_t11pixformat_tiib+0xf0>
 282:	2202      	movs	r2, #2
 284:	2301      	movs	r3, #1
 286:	65e2      	str	r2, [r4, #92]	; 0x5c
 288:	e732      	b.n	f0 <_ZN6OV264016begin_omnivisionE11framesize_t11pixformat_tiib+0xf0>
 28a:	2202      	movs	r2, #2
 28c:	4613      	mov	r3, r2
 28e:	65e2      	str	r2, [r4, #92]	; 0x5c
 290:	e72e      	b.n	f0 <_ZN6OV264016begin_omnivisionE11framesize_t11pixformat_tiib+0xf0>
 292:	2202      	movs	r2, #2
 294:	2300      	movs	r3, #0
 296:	65e2      	str	r2, [r4, #92]	; 0x5c
 298:	e72a      	b.n	f0 <_ZN6OV264016begin_omnivisionE11framesize_t11pixformat_tiib+0xf0>
 29a:	2115      	movs	r1, #21
 29c:	4833      	ldr	r0, [pc, #204]	; (36c <_ZN6OV264016begin_omnivisionE11framesize_t11pixformat_tiib+0x36c>)
 29e:	f7ff fffe 	bl	0 <usb_serial_write>
 2a2:	4831      	ldr	r0, [pc, #196]	; (368 <_ZN6OV264016begin_omnivisionE11framesize_t11pixformat_tiib+0x368>)
 2a4:	f7ff fffe 	bl	0 <_ZN5Print7printlnEv>
 2a8:	4630      	mov	r0, r6
 2aa:	e717      	b.n	dc <_ZN6OV264016begin_omnivisionE11framesize_t11pixformat_tiib+0xdc>
 2ac:	7ae3      	ldrb	r3, [r4, #11]
 2ae:	b923      	cbnz	r3, 2ba <_ZN6OV264016begin_omnivisionE11framesize_t11pixformat_tiib+0x2ba>
 2b0:	6823      	ldr	r3, [r4, #0]
 2b2:	4620      	mov	r0, r4
 2b4:	f8d3 3138 	ldr.w	r3, [r3, #312]	; 0x138
 2b8:	4798      	blx	r3
 2ba:	6823      	ldr	r3, [r4, #0]
 2bc:	2166      	movs	r1, #102	; 0x66
 2be:	4620      	mov	r0, r4
 2c0:	f8d3 310c 	ldr.w	r3, [r3, #268]	; 0x10c
 2c4:	4798      	blx	r3
 2c6:	6823      	ldr	r3, [r4, #0]
 2c8:	4a29      	ldr	r2, [pc, #164]	; (370 <_ZN6OV264016begin_omnivisionE11framesize_t11pixformat_tiib+0x370>)
 2ca:	f8d3 3110 	ldr.w	r3, [r3, #272]	; 0x110
 2ce:	4293      	cmp	r3, r2
 2d0:	f040 808c 	bne.w	3ec <_ZN6OV264016begin_omnivisionE11framesize_t11pixformat_tiib+0x3ec>
 2d4:	4b27      	ldr	r3, [pc, #156]	; (374 <_ZN6OV264016begin_omnivisionE11framesize_t11pixformat_tiib+0x374>)
 2d6:	21c0      	movs	r1, #192	; 0xc0
 2d8:	4a27      	ldr	r2, [pc, #156]	; (378 <_ZN6OV264016begin_omnivisionE11framesize_t11pixformat_tiib+0x378>)
 2da:	791b      	ldrb	r3, [r3, #4]
 2dc:	f003 030f 	and.w	r3, r3, #15
 2e0:	5499      	strb	r1, [r3, r2]
 2e2:	6823      	ldr	r3, [r4, #0]
 2e4:	4a25      	ldr	r2, [pc, #148]	; (37c <_ZN6OV264016begin_omnivisionE11framesize_t11pixformat_tiib+0x37c>)
 2e6:	699b      	ldr	r3, [r3, #24]
 2e8:	4293      	cmp	r3, r2
 2ea:	d17c      	bne.n	3e6 <_ZN6OV264016begin_omnivisionE11framesize_t11pixformat_tiib+0x3e6>
 2ec:	4e24      	ldr	r6, [pc, #144]	; (380 <_ZN6OV264016begin_omnivisionE11framesize_t11pixformat_tiib+0x380>)
 2ee:	2200      	movs	r2, #0
 2f0:	21ff      	movs	r1, #255	; 0xff
 2f2:	e001      	b.n	2f8 <_ZN6OV264016begin_omnivisionE11framesize_t11pixformat_tiib+0x2f8>
 2f4:	b139      	cbz	r1, 306 <_ZN6OV264016begin_omnivisionE11framesize_t11pixformat_tiib+0x306>
 2f6:	7872      	ldrb	r2, [r6, #1]
 2f8:	4620      	mov	r0, r4
 2fa:	f7ff fffe 	bl	0 <_ZN6OV264016begin_omnivisionE11framesize_t11pixformat_tiib>
 2fe:	f816 1f02 	ldrb.w	r1, [r6, #2]!
 302:	2800      	cmp	r0, #0
 304:	d0f6      	beq.n	2f4 <_ZN6OV264016begin_omnivisionE11framesize_t11pixformat_tiib+0x2f4>
 306:	200a      	movs	r0, #10
 308:	f7ff fffe 	bl	0 <delay>
 30c:	6823      	ldr	r3, [r4, #0]
 30e:	4639      	mov	r1, r7
 310:	4620      	mov	r0, r4
 312:	6b1b      	ldr	r3, [r3, #48]	; 0x30
 314:	4798      	blx	r3
 316:	4606      	mov	r6, r0
 318:	2800      	cmp	r0, #0
 31a:	d139      	bne.n	390 <_ZN6OV264016begin_omnivisionE11framesize_t11pixformat_tiib+0x390>
 31c:	6823      	ldr	r3, [r4, #0]
 31e:	4629      	mov	r1, r5
 320:	4620      	mov	r0, r4
 322:	6b9b      	ldr	r3, [r3, #56]	; 0x38
 324:	4798      	blx	r3
 326:	2800      	cmp	r0, #0
 328:	f43f aedb 	beq.w	e2 <_ZN6OV264016begin_omnivisionE11framesize_t11pixformat_tiib+0xe2>
 32c:	7a23      	ldrb	r3, [r4, #8]
 32e:	2b00      	cmp	r3, #0
 330:	f43f aed3 	beq.w	da <_ZN6OV264016begin_omnivisionE11framesize_t11pixformat_tiib+0xda>
 334:	211a      	movs	r1, #26
 336:	4813      	ldr	r0, [pc, #76]	; (384 <_ZN6OV264016begin_omnivisionE11framesize_t11pixformat_tiib+0x384>)
 338:	f7ff fffe 	bl	0 <usb_serial_write>
 33c:	480a      	ldr	r0, [pc, #40]	; (368 <_ZN6OV264016begin_omnivisionE11framesize_t11pixformat_tiib+0x368>)
 33e:	f7ff fffe 	bl	0 <_ZN5Print7printlnEv>
 342:	4630      	mov	r0, r6
 344:	e6ca      	b.n	dc <_ZN6OV264016begin_omnivisionE11framesize_t11pixformat_tiib+0xdc>
 346:	4632      	mov	r2, r6
 348:	490f      	ldr	r1, [pc, #60]	; (388 <_ZN6OV264016begin_omnivisionE11framesize_t11pixformat_tiib+0x388>)
 34a:	4807      	ldr	r0, [pc, #28]	; (368 <_ZN6OV264016begin_omnivisionE11framesize_t11pixformat_tiib+0x368>)
 34c:	f7ff fffe 	bl	0 <_ZN5Print6printfEPKcz>
 350:	e752      	b.n	1f8 <_ZN6OV264016begin_omnivisionE11framesize_t11pixformat_tiib+0x1f8>
 352:	bf00      	nop
 354:	00000000 	.word	0x00000000
 358:	00000000 	.word	0x00000000
 35c:	0001869f 	.word	0x0001869f
 360:	00000000 	.word	0x00000000
 364:	00000018 	.word	0x00000018
 368:	00000000 	.word	0x00000000
 36c:	00000000 	.word	0x00000000
 370:	00000000 	.word	0x00000000
 374:	00000000 	.word	0x00000000
 378:	e000e400 	.word	0xe000e400
 37c:	00000000 	.word	0x00000000
 380:	00000000 	.word	0x00000000
 384:	0000004c 	.word	0x0000004c
 388:	00000000 	.word	0x00000000
 38c:	00000000 	.word	0x00000000
 390:	7a23      	ldrb	r3, [r4, #8]
 392:	2b00      	cmp	r3, #0
 394:	f43f aea1 	beq.w	da <_ZN6OV264016begin_omnivisionE11framesize_t11pixformat_tiib+0xda>
 398:	211a      	movs	r1, #26
 39a:	4819      	ldr	r0, [pc, #100]	; (400 <_ZN6OV264016begin_omnivisionE11framesize_t11pixformat_tiib+0x400>)
 39c:	f7ff fffe 	bl	0 <usb_serial_write>
 3a0:	4818      	ldr	r0, [pc, #96]	; (404 <_ZN6OV264016begin_omnivisionE11framesize_t11pixformat_tiib+0x404>)
 3a2:	f7ff fffe 	bl	0 <_ZN5Print7printlnEv>
 3a6:	2000      	movs	r0, #0
 3a8:	e698      	b.n	dc <_ZN6OV264016begin_omnivisionE11framesize_t11pixformat_tiib+0xdc>
 3aa:	2100      	movs	r1, #0
 3ac:	b2c0      	uxtb	r0, r0
 3ae:	f7ff fffe 	bl	0 <pinMode>
 3b2:	e64b      	b.n	4c <_ZN6OV264016begin_omnivisionE11framesize_t11pixformat_tiib+0x4c>
 3b4:	2100      	movs	r1, #0
 3b6:	b2c0      	uxtb	r0, r0
 3b8:	f7ff fffe 	bl	0 <pinMode>
 3bc:	e666      	b.n	8c <_ZN6OV264016begin_omnivisionE11framesize_t11pixformat_tiib+0x8c>
 3be:	4620      	mov	r0, r4
 3c0:	4798      	blx	r3
 3c2:	4606      	mov	r6, r0
 3c4:	e718      	b.n	1f8 <_ZN6OV264016begin_omnivisionE11framesize_t11pixformat_tiib+0x1f8>
 3c6:	4632      	mov	r2, r6
 3c8:	490f      	ldr	r1, [pc, #60]	; (408 <_ZN6OV264016begin_omnivisionE11framesize_t11pixformat_tiib+0x408>)
 3ca:	480e      	ldr	r0, [pc, #56]	; (404 <_ZN6OV264016begin_omnivisionE11framesize_t11pixformat_tiib+0x404>)
 3cc:	f7ff fffe 	bl	0 <_ZN5Print6printfEPKcz>
 3d0:	e72c      	b.n	22c <_ZN6OV264016begin_omnivisionE11framesize_t11pixformat_tiib+0x22c>
 3d2:	2102      	movs	r1, #2
 3d4:	b2c0      	uxtb	r0, r0
 3d6:	f7ff fffe 	bl	0 <pinMode>
 3da:	e637      	b.n	4c <_ZN6OV264016begin_omnivisionE11framesize_t11pixformat_tiib+0x4c>
 3dc:	2102      	movs	r1, #2
 3de:	b2c0      	uxtb	r0, r0
 3e0:	f7ff fffe 	bl	0 <pinMode>
 3e4:	e652      	b.n	8c <_ZN6OV264016begin_omnivisionE11framesize_t11pixformat_tiib+0x8c>
 3e6:	4620      	mov	r0, r4
 3e8:	4798      	blx	r3
 3ea:	e78f      	b.n	30c <_ZN6OV264016begin_omnivisionE11framesize_t11pixformat_tiib+0x30c>
 3ec:	21c0      	movs	r1, #192	; 0xc0
 3ee:	4620      	mov	r0, r4
 3f0:	4798      	blx	r3
 3f2:	e776      	b.n	2e2 <_ZN6OV264016begin_omnivisionE11framesize_t11pixformat_tiib+0x2e2>
 3f4:	4620      	mov	r0, r4
 3f6:	4798      	blx	r3
 3f8:	4606      	mov	r6, r0
 3fa:	e717      	b.n	22c <_ZN6OV264016begin_omnivisionE11framesize_t11pixformat_tiib+0x22c>
 3fc:	4790      	blx	r2
 3fe:	e72b      	b.n	258 <_ZN6OV264016begin_omnivisionE11framesize_t11pixformat_tiib+0x258>
 400:	00000030 	.word	0x00000030
 404:	00000000 	.word	0x00000000
 408:	00000000 	.word	0x00000000

Disassembly of section .text.startup._GLOBAL__sub_I__ZN6OV2640C2Ev:

00000000 <_GLOBAL__sub_I__ZN6OV2640C2Ev>:
   0:	b508      	push	{r3, lr}
   2:	2100      	movs	r1, #0
   4:	4808      	ldr	r0, [pc, #32]	; (28 <_GLOBAL__sub_I__ZN6OV2640C2Ev+0x28>)
   6:	f7ff fffe 	bl	0 <_ZN10DMAChannel5beginEb>
   a:	4a08      	ldr	r2, [pc, #32]	; (2c <_GLOBAL__sub_I__ZN6OV2640C2Ev+0x2c>)
   c:	4908      	ldr	r1, [pc, #32]	; (30 <_GLOBAL__sub_I__ZN6OV2640C2Ev+0x30>)
   e:	4806      	ldr	r0, [pc, #24]	; (28 <_GLOBAL__sub_I__ZN6OV2640C2Ev+0x28>)
  10:	f7ff fffe 	bl	0 <__aeabi_atexit>
  14:	4b07      	ldr	r3, [pc, #28]	; (34 <_GLOBAL__sub_I__ZN6OV2640C2Ev+0x34>)
  16:	f503 7220 	add.w	r2, r3, #640	; 0x280
  1a:	f843 3c20 	str.w	r3, [r3, #-32]
  1e:	3340      	adds	r3, #64	; 0x40
  20:	4293      	cmp	r3, r2
  22:	d1fa      	bne.n	1a <_GLOBAL__sub_I__ZN6OV2640C2Ev+0x1a>
  24:	bd08      	pop	{r3, pc}
  26:	bf00      	nop
  28:	00000000 	.word	0x00000000
  2c:	00000000 	.word	0x00000000
  30:	00000000 	.word	0x00000000
  34:	00000020 	.word	0x00000020
