
build/./libraries/Teensy_Camera/OV5640.cpp.o:     file format elf32-littlearm

SYMBOL TABLE:
00000000 l    df *ABS*	00000000 OV5640.cpp
00000000 l    d  .text	00000000 .text
00000000 l    d  .data	00000000 .data
00000000 l    d  .bss	00000000 .bss
00000000 l    d  .text._ZN7TwoWire4readEv	00000000 .text._ZN7TwoWire4readEv
00000000 l    d  .text._ZN11ImageSensor5debugEb	00000000 .text._ZN11ImageSensor5debugEb
00000000 l    d  .text._ZN11ImageSensor5debugEv	00000000 .text._ZN11ImageSensor5debugEv
00000000 l    d  .text._ZN11ImageSensor12getPixformatEv	00000000 .text._ZN11ImageSensor12getPixformatEv
00000000 l    d  .text._ZN11ImageSensor21readFrameReturnBufferEv	00000000 .text._ZN11ImageSensor21readFrameReturnBufferEv
00000000 l    d  .text._ZN11ImageSensor18readImageSizeBytesEv	00000000 .text._ZN11ImageSensor18readImageSizeBytesEv
00000000 l    d  .text._ZN11ImageSensor6useDMAEb	00000000 .text._ZN11ImageSensor6useDMAEb
00000000 l    d  .text._ZN11ImageSensor6useDMAEv	00000000 .text._ZN11ImageSensor6useDMAEv
00000000 l    d  .text._ZN11ImageSensor12data4BitModeEb	00000000 .text._ZN11ImageSensor12data4BitModeEb
00000000 l    d  .text._ZN11ImageSensor12data4BitModeEv	00000000 .text._ZN11ImageSensor12data4BitModeEv
00000000 l    d  .text._ZN11ImageSensor16dataPinsReversedEv	00000000 .text._ZN11ImageSensor16dataPinsReversedEv
00000000 l    d  .text._ZN11ImageSensor5widthEv	00000000 .text._ZN11ImageSensor5widthEv
00000000 l    d  .text._ZN11ImageSensor6heightEv	00000000 .text._ZN11ImageSensor6heightEv
00000000 l    d  .text._ZN11ImageSensor10frameWidthEv	00000000 .text._ZN11ImageSensor10frameWidthEv
00000000 l    d  .text._ZN11ImageSensor11frameHeightEv	00000000 .text._ZN11ImageSensor11frameHeightEv
00000000 l    d  .text._ZN11ImageSensor26processFrameStartInterruptEv	00000000 .text._ZN11ImageSensor26processFrameStartInterruptEv
00000000 l    d  .text._ZN11ImageSensor16supports4BitModeEv	00000000 .text._ZN11ImageSensor16supports4BitModeEv
00000000 l    d  .text._ZN6OV564017changeFrameBufferEPhS0_	00000000 .text._ZN6OV564017changeFrameBufferEPhS0_
00000000 l    d  .text._ZN6OV564010frameCountEv	00000000 .text._ZN6OV564010frameCountEv
00000000 l    d  .text._ZN6OV564019setVSyncISRPriorityEh	00000000 .text._ZN6OV564019setVSyncISRPriorityEh
00000000 l    d  .text._ZN6OV564025setDMACompleteISRPriorityEh	00000000 .text._ZN6OV564025setDMACompleteISRPriorityEh
00000000 l    d  .text._ZN6OV564013setZoomWindowEtttt	00000000 .text._ZN6OV564013setZoomWindowEtttt
00000000 l    d  .text._ZN6OV56407setGainEi	00000000 .text._ZN6OV56407setGainEi
00000000 l    d  .text._ZN6OV564012autoExposureEi	00000000 .text._ZN6OV564012autoExposureEi
00000000 l    d  .text._ZN6OV564012readRegisterEh	00000000 .text._ZN6OV564012readRegisterEh
00000000 l    d  .text._ZN6OV564013writeRegisterEhh	00000000 .text._ZN6OV564013writeRegisterEhh
00000000 l    d  .text._ZN6OV564011setExposureEi	00000000 .text._ZN6OV564011setExposureEi
00000000 l    d  .text._ZN6OV56405beginE11framesize_tib	00000000 .text._ZN6OV56405beginE11framesize_tib
00000000 l    d  .text._ZN6OV56407setModeEhh	00000000 .text._ZN6OV56407setModeEhh
00000000 l    d  .text._ZN6OV564012setFramerateEi	00000000 .text._ZN6OV564012setFramerateEi
00000000 l    d  .text._ZN6OV564014get_vt_pix_clkEPm	00000000 .text._ZN6OV564014get_vt_pix_clkEPm
00000000 l    d  .text._ZN6OV564014getCameraClockEPm	00000000 .text._ZN6OV564014getCameraClockEPm
00000000 l    d  .text._ZN6OV56409cmdUpdateEv	00000000 .text._ZN6OV56409cmdUpdateEv
00000000 l    d  .text._ZN6OV564012loadSettingsE21camera_reg_settings_t	00000000 .text._ZN6OV564012loadSettingsE21camera_reg_settings_t
00000000 l    d  .text._ZN6OV56405getAEEP8ae_cfg_t	00000000 .text._ZN6OV56405getAEEP8ae_cfg_t
00000000 l    d  .text._ZN6OV56405calAEEhPhmP8ae_cfg_t	00000000 .text._ZN6OV56405calAEEhPhmP8ae_cfg_t
00000000 l    d  .text._ZN6OV56404modeEv	00000000 .text._ZN6OV56404modeEv
00000000 l    d  .text._ZN6OV56408autoGainEiff	00000000 .text._ZN6OV56408autoGainEiff
00000000 l    d  .text._ZN6OV564012dmaInterruptEv	00000000 .text._ZN6OV564012dmaInterruptEv
00000000 l    d  .text._ZN6OV5640D2Ev	00000000 .text._ZN6OV5640D2Ev
00000000 l    d  .text._ZN6OV56403endEv	00000000 .text._ZN6OV56403endEv
00000000 l    d  .text._ZN6OV5640D0Ev	00000000 .text._ZN6OV5640D0Ev
00000000 l    d  .text._ZN10DMAChannelD2Ev	00000000 .text._ZN10DMAChannelD2Ev
00000000 l    d  .rodata._ZN6OV564017startReadFrameDMAEPFbPvEPhS3_.str1.4	00000000 .rodata._ZN6OV564017startReadFrameDMAEPFbPvEPhS3_.str1.4
00000000 l    d  .text._ZN6OV564017startReadFrameDMAEPFbPvEPhS3_	00000000 .text._ZN6OV564017startReadFrameDMAEPFbPvEPhS3_
00000000 l    d  .rodata._ZN6OV564022captureFrameStatisticsEv.str1.4	00000000 .rodata._ZN6OV564022captureFrameStatisticsEv.str1.4
00000000 l    d  .text._ZN6OV564022captureFrameStatisticsEv	00000000 .text._ZN6OV564022captureFrameStatisticsEv
00000000 l    d  .rodata._ZN6OV564017readFrame4BitGPIOEPv.str1.4	00000000 .rodata._ZN6OV564017readFrame4BitGPIOEPv.str1.4
00000000 l    d  .text._ZN6OV564017readFrame4BitGPIOEPv	00000000 .text._ZN6OV564017readFrame4BitGPIOEPv
00000000 l    d  .rodata._ZN6OV564016stopReadFrameDMAEv.str1.4	00000000 .rodata._ZN6OV564016stopReadFrameDMAEv.str1.4
00000000 l    d  .text._ZN6OV564016stopReadFrameDMAEv	00000000 .text._ZN6OV564016stopReadFrameDMAEv
00000000 l    d  .rodata._ZN6OV564019processDMAInterruptEv.str1.4	00000000 .rodata._ZN6OV564019processDMAInterruptEv.str1.4
00000000 l    d  .text._ZN6OV564019processDMAInterruptEv	00000000 .text._ZN6OV564019processDMAInterruptEv
00000000 l    d  .text._ZN6OV5640C2Ev	00000000 .text._ZN6OV5640C2Ev
00000000 l    d  .rodata._ZN6OV564018cameraReadRegisterEtRh.str1.4	00000000 .rodata._ZN6OV564018cameraReadRegisterEtRh.str1.4
00000000 l    d  .text._ZN6OV564018cameraReadRegisterEtRh	00000000 .text._ZN6OV564018cameraReadRegisterEtRh
00000000 l    d  .rodata._ZN6OV564010getModelidEv.str1.4	00000000 .rodata._ZN6OV564010getModelidEv.str1.4
00000000 l    d  .text._ZN6OV564010getModelidEv	00000000 .text._ZN6OV564010getModelidEv
00000000 l    d  .text._ZN6OV564010getGain_dbEPf	00000000 .text._ZN6OV564010getGain_dbEPf
00000000 l    d  .rodata._ZN6OV564013showRegistersEv.str1.4	00000000 .rodata._ZN6OV564013showRegistersEv.str1.4
00000000 l    d  .text._ZN6OV564013showRegistersEv	00000000 .text._ZN6OV564013showRegistersEv
00000000 l    d  .rodata._ZN6OV564019cameraWriteRegisterEth.str1.4	00000000 .rodata._ZN6OV564019cameraWriteRegisterEth.str1.4
00000000 l    d  .text._ZN6OV564019cameraWriteRegisterEth	00000000 .text._ZN6OV564019cameraWriteRegisterEth
00000000 l    d  .text._ZN6OV564011setContrastEi	00000000 .text._ZN6OV564011setContrastEi
00000000 l    d  .text._ZN6OV564013setBrightnessEi	00000000 .text._ZN6OV564013setBrightnessEi
00000000 l    d  .text._ZN6OV564013setSaturationEi	00000000 .text._ZN6OV564013setSaturationEi
00000000 l    d  .text._ZN6OV564014setGainceilingE13gainceiling_t	00000000 .text._ZN6OV564014setGainceilingE13gainceiling_t
00000000 l    d  .text._ZN6OV564011setColorbarEi	00000000 .text._ZN6OV564011setColorbarEi
00000000 l    d  .text._ZN6OV564010setHmirrorEi	00000000 .text._ZN6OV564010setHmirrorEi
00000000 l    d  .text._ZN6OV56408setVflipEi	00000000 .text._ZN6OV56408setVflipEi
00000000 l    d  .text._ZN6OV56406setHueEi	00000000 .text._ZN6OV56406setHueEi
00000000 l    d  .text._ZN6OV564011setAutoGainEiff	00000000 .text._ZN6OV564011setAutoGainEiff
00000000 l    d  .text._ZN6OV564015setAutoWhitebalEifff	00000000 .text._ZN6OV564015setAutoWhitebalEifff
00000000 l    d  .text._ZN6OV564019cameraWriteFirmwareEv	00000000 .text._ZN6OV564019cameraWriteFirmwareEv
00000000 l    d  .text._ZN6OV564013calculate_htsEt	00000000 .text._ZN6OV564013calculate_htsEt
00000000 l    d  .rodata._ZN6OV564012setPixformatE11pixformat_t.str1.4	00000000 .rodata._ZN6OV564012setPixformatE11pixformat_t.str1.4
00000000 l    d  .text._ZN6OV564012setPixformatE11pixformat_t	00000000 .text._ZN6OV564012setPixformatE11pixformat_t
00000000 l    d  .rodata._ZN6OV564012setFramesizeEii.part.0.str1.4	00000000 .rodata._ZN6OV564012setFramesizeEii.part.0.str1.4
00000000 l    d  .text._ZN6OV564012setFramesizeEii.part.0	00000000 .text._ZN6OV564012setFramesizeEii.part.0
00000000 l     F .text._ZN6OV564012setFramesizeEii.part.0	0000062c _ZN6OV564012setFramesizeEii.part.0
00000000 l    d  .text._ZN6OV564012setFramesizeEii	00000000 .text._ZN6OV564012setFramesizeEii
00000000 l    d  .text._ZN6OV564012setFramesizeE11framesize_t	00000000 .text._ZN6OV564012setFramesizeE11framesize_t
00000000 l    d  .text._ZN6OV564013calculate_vtsEt	00000000 .text._ZN6OV564013calculate_vtsEt
00000000 l    d  .rodata._Z14print_pin_infoPKch.str1.4	00000000 .rodata._Z14print_pin_infoPKch.str1.4
00000000 l    d  .text._Z14print_pin_infoPKch	00000000 .text._Z14print_pin_infoPKch
00000000 l    d  .rodata._ZN6OV564016checkAFCmdStatusEth.str1.4	00000000 .rodata._ZN6OV564016checkAFCmdStatusEth.str1.4
00000000 l    d  .text._ZN6OV564016checkAFCmdStatusEth	00000000 .text._ZN6OV564016checkAFCmdStatusEth
00000000 l    d  .rodata._ZN6OV56405resetEv.str1.4	00000000 .rodata._ZN6OV56405resetEv.str1.4
00000000 l    d  .text._ZN6OV56405resetEv	00000000 .text._ZN6OV56405resetEv
00000000 l    d  .text._ZN6OV564015enableAutoFocusEb	00000000 .text._ZN6OV564015enableAutoFocusEb
00000000 l    d  .text._ZN6OV564010setQualityEi	00000000 .text._ZN6OV564010setQualityEi
00000000 l    d  .text._ZN6OV564010getQualityEv	00000000 .text._ZN6OV564010getQualityEv
00000000 l    d  .text._ZN6OV564014calc_pclk_freqEhhhhh	00000000 .text._ZN6OV564014calc_pclk_freqEhhhhh
00000000 l    d  .text._ZN6OV564014getExposure_usEPi	00000000 .text._ZN6OV564014getExposure_usEPi
00000000 l    d  .text._ZN6OV564015setAutoExposureEii	00000000 .text._ZN6OV564015setAutoExposureEii
00000000 l    d  .text._ZN6OV564014getRGB_Gain_dbEPfS0_S0_	00000000 .text._ZN6OV564014getRGB_Gain_dbEPfS0_S0_
00000000 l    d  .text._ZN6OV56409setWBmodeEi	00000000 .text._ZN6OV56409setWBmodeEi
00000000 l    d  .text._ZN6OV564016setSpecialEffectE5sde_t	00000000 .text._ZN6OV564016setSpecialEffectE5sde_t
00000000 l    d  .text._ZN6OV564010setAutoBlcEiPi	00000000 .text._ZN6OV564010setAutoBlcEiPi
00000000 l    d  .text._ZN6OV564010getBlcRegsEPi	00000000 .text._ZN6OV564010getBlcRegsEPi
00000000 l    d  .text._ZN6OV564017setLensCorrectionEi	00000000 .text._ZN6OV564017setLensCorrectionEi
00000000 l    d  .text._ZN6OV564012setNightModeEi	00000000 .text._ZN6OV564012setNightModeEi
00000000 l    d  .text._ZN6OV564012setSharpnessEi	00000000 .text._ZN6OV564012setSharpnessEi
00000000 l    d  .text._ZN6OV564016setAutoSharpnessEi	00000000 .text._ZN6OV564016setAutoSharpnessEi
00000000 l    d  .text._ZN6OV564016setAutoFocusModeEv	00000000 .text._ZN6OV564016setAutoFocusModeEv
00000000 l    d  .rodata._ZN6OV564016begin_omnivisionE11framesize_t11pixformat_tiib.str1.4	00000000 .rodata._ZN6OV564016begin_omnivisionE11framesize_t11pixformat_tiib.str1.4
00000000 l    d  .text._ZN6OV564016begin_omnivisionE11framesize_t11pixformat_tiib	00000000 .text._ZN6OV564016begin_omnivisionE11framesize_t11pixformat_tiib
00000000 l    d  .rodata._ZN6OV564018readFrameGPIO_JPEGEPvjS0_j.str1.4	00000000 .rodata._ZN6OV564018readFrameGPIO_JPEGEPvjS0_j.str1.4
00000000 l    d  .text._ZN6OV564018readFrameGPIO_JPEGEPvjS0_j	00000000 .text._ZN6OV564018readFrameGPIO_JPEGEPvjS0_j
00000000 l    d  .text.startup._GLOBAL__sub_I__ZN6OV5640C2Ev	00000000 .text.startup._GLOBAL__sub_I__ZN6OV5640C2Ev
00000000 l     F .text.startup._GLOBAL__sub_I__ZN6OV5640C2Ev	00000038 _GLOBAL__sub_I__ZN6OV5640C2Ev
00000000 l    d  .init_array	00000000 .init_array
00000000 l    d  .rodata.str1.4	00000000 .rodata.str1.4
00000000 l    d  .rodata	00000000 .rodata
00000000 l    d  .bss._ZL10hts_target	00000000 .bss._ZL10hts_target
00000000 l     O .bss._ZL10hts_target	00000002 _ZL10hts_target
00000000 l    d  .bss._ZL9readout_x	00000000 .bss._ZL9readout_x
00000000 l     O .bss._ZL9readout_x	00000002 _ZL9readout_x
00000000 l    d  .bss._ZL9readout_y	00000000 .bss._ZL9readout_y
00000000 l     O .bss._ZL9readout_y	00000002 _ZL9readout_y
00000000 l    d  .bss._ZN6OV564011_dmaBuffer1E	00000000 .bss._ZN6OV564011_dmaBuffer1E
00000000 l    d  .bss._ZN6OV564011_dmaBuffer2E	00000000 .bss._ZN6OV564011_dmaBuffer2E
00000000 l    d  .bss._ZN6OV564011_dmachannelE	00000000 .bss._ZN6OV564011_dmachannelE
00000000 l    d  .bss._ZN6OV564012_dmasettingsE	00000000 .bss._ZN6OV564012_dmasettingsE
00000000 l    d  .bss.fstatOmni40	00000000 .bss.fstatOmni40
00000000 l    d  .data._ZL16af_firmware_regs	00000000 .data._ZL16af_firmware_regs
00000000 l     O .data._ZL16af_firmware_regs	00000fed _ZL16af_firmware_regs
00000000 l    d  .data._ZL9readout_h	00000000 .data._ZL9readout_h
00000000 l     O .data._ZL9readout_h	00000002 _ZL9readout_h
00000000 l    d  .data._ZL9readout_w	00000000 .data._ZL9readout_w
00000000 l     O .data._ZL9readout_w	00000002 _ZL9readout_w
00000000 l    d  .progmem	00000000 .progmem
00000000 l     O .progmem	00000248 _ZL21OV5640_reg_name_table
00000000 l    d  .rodata._ZL10resolution	00000000 .rodata._ZL10resolution
00000000 l     O .rodata._ZL10resolution	000000d8 _ZL10resolution
00000000 l    d  .rodata._ZL12default_regs	00000000 .rodata._ZL12default_regs
00000000 l     O .rodata._ZL12default_regs	00000357 _ZL12default_regs
00000000 l    d  .rodata._ZL13contrast_regs	00000000 .rodata._ZL13contrast_regs
00000000 l     O .rodata._ZL13contrast_regs	00000007 _ZL13contrast_regs
00000000 l    d  .rodata._ZL13wb_modes_regs	00000000 .rodata._ZL13wb_modes_regs
00000000 l     O .rodata._ZL13wb_modes_regs	00000023 _ZL13wb_modes_regs
00000000 l    d  .rodata._ZL14sharpness_regs	00000000 .rodata._ZL14sharpness_regs
00000000 l     O .rodata._ZL14sharpness_regs	00000009 _ZL14sharpness_regs
00000000 l    d  .rodata._ZL15saturation_regs	00000000 .rodata._ZL15saturation_regs
00000000 l     O .rodata._ZL15saturation_regs	00000012 _ZL15saturation_regs
00000000 l    d  .rodata._ZL20special_effects_regs	00000000 .rodata._ZL20special_effects_regs
00000000 l     O .rodata._ZL20special_effects_regs	00000024 _ZL20special_effects_regs
00000000 l    d  .rodata._ZL8hue_regs	00000000 .rodata._ZL8hue_regs
00000000 l     O .rodata._ZL8hue_regs	00000024 _ZL8hue_regs
00000000 l    d  .rodata._ZTV6OV5640	00000000 .rodata._ZTV6OV5640
00000000 l       .group	00000000 _ZN6OV5640D5Ev
00000000 l       .group	00000000 _ZN10DMAChannelD5Ev
00000000 l    d  .comment	00000000 .comment
00000000 l    d  .ARM.attributes	00000000 .ARM.attributes
00000000 l    d  .group	00000000 .group
00000000 l    d  .group	00000000 .group
00000000 l    d  .group	00000000 .group
00000000 l    d  .group	00000000 .group
00000000 l    d  .group	00000000 .group
00000000 l    d  .group	00000000 .group
00000000 l    d  .group	00000000 .group
00000000 l    d  .group	00000000 .group
00000000 l    d  .group	00000000 .group
00000000 l    d  .group	00000000 .group
00000000 l    d  .group	00000000 .group
00000000 l    d  .group	00000000 .group
00000000 l    d  .group	00000000 .group
00000000 l    d  .group	00000000 .group
00000000 l    d  .group	00000000 .group
00000000 l    d  .group	00000000 .group
00000000 l    d  .group	00000000 .group
00000000 l    d  .group	00000000 .group
00000000 l    d  .group	00000000 .group
00000000 l    d  .group	00000000 .group
00000000 l    d  .group	00000000 .group
00000000 l    d  .group	00000000 .group
00000000 l    d  .group	00000000 .group
00000000 l    d  .group	00000000 .group
00000000 l    d  .group	00000000 .group
00000000 l    d  .group	00000000 .group
00000000 l    d  .group	00000000 .group
00000000 l    d  .group	00000000 .group
00000000 l    d  .group	00000000 .group
00000000 l    d  .group	00000000 .group
00000000 l    d  .group	00000000 .group
00000000 l    d  .group	00000000 .group
00000000 l    d  .group	00000000 .group
00000000 l    d  .group	00000000 .group
00000000 l    d  .group	00000000 .group
00000000 l    d  .group	00000000 .group
00000000 l    d  .group	00000000 .group
00000000 l    d  .group	00000000 .group
00000000 l    d  .group	00000000 .group
00000000 l    d  .group	00000000 .group
00000000 l    d  .group	00000000 .group
00000000  w    F .text._ZN7TwoWire4readEv	0000001e _ZN7TwoWire4readEv
00000000  w    F .text._ZN11ImageSensor5debugEb	00000004 _ZN11ImageSensor5debugEb
00000000  w    F .text._ZN11ImageSensor5debugEv	00000004 _ZN11ImageSensor5debugEv
00000000  w    F .text._ZN11ImageSensor12getPixformatEv	00000006 _ZN11ImageSensor12getPixformatEv
00000000  w    F .text._ZN11ImageSensor21readFrameReturnBufferEv	00000006 _ZN11ImageSensor21readFrameReturnBufferEv
00000000  w    F .text._ZN11ImageSensor18readImageSizeBytesEv	00000006 _ZN11ImageSensor18readImageSizeBytesEv
00000000  w    F .text._ZN11ImageSensor6useDMAEb	00000004 _ZN11ImageSensor6useDMAEb
00000000  w    F .text._ZN11ImageSensor6useDMAEv	00000004 _ZN11ImageSensor6useDMAEv
00000000  w    F .text._ZN11ImageSensor12data4BitModeEb	00000004 _ZN11ImageSensor12data4BitModeEb
00000000  w    F .text._ZN11ImageSensor12data4BitModeEv	00000004 _ZN11ImageSensor12data4BitModeEv
00000000  w    F .text._ZN11ImageSensor16dataPinsReversedEv	00000006 _ZN11ImageSensor16dataPinsReversedEv
00000000  w    F .text._ZN11ImageSensor5widthEv	00000006 _ZN11ImageSensor5widthEv
00000000  w    F .text._ZN11ImageSensor6heightEv	00000006 _ZN11ImageSensor6heightEv
00000000  w    F .text._ZN11ImageSensor10frameWidthEv	00000006 _ZN11ImageSensor10frameWidthEv
00000000  w    F .text._ZN11ImageSensor11frameHeightEv	00000006 _ZN11ImageSensor11frameHeightEv
00000000  w    F .text._ZN11ImageSensor26processFrameStartInterruptEv	00000002 _ZN11ImageSensor26processFrameStartInterruptEv
00000000  w    F .text._ZN11ImageSensor16supports4BitModeEv	00000004 _ZN11ImageSensor16supports4BitModeEv
00000000  w    F .text._ZN6OV564017changeFrameBufferEPhS0_	00000014 _ZN6OV564017changeFrameBufferEPhS0_
00000000  w    F .text._ZN6OV564010frameCountEv	00000006 _ZN6OV564010frameCountEv
00000000  w    F .text._ZN6OV564019setVSyncISRPriorityEh	0000000c _ZN6OV564019setVSyncISRPriorityEh
00000000  w    F .text._ZN6OV564025setDMACompleteISRPriorityEh	00000018 _ZN6OV564025setDMACompleteISRPriorityEh
00000000  w    F .text._ZN6OV564013setZoomWindowEtttt	00000004 _ZN6OV564013setZoomWindowEtttt
00000000  w    F .text._ZN6OV56407setGainEi	00000002 _ZN6OV56407setGainEi
00000000  w    F .text._ZN6OV564012autoExposureEi	00000002 _ZN6OV564012autoExposureEi
00000000  w    F .text._ZN6OV564012readRegisterEh	00000004 _ZN6OV564012readRegisterEh
00000000  w    F .text._ZN6OV564013writeRegisterEhh	00000004 _ZN6OV564013writeRegisterEhh
00000000  w    F .text._ZN6OV564011setExposureEi	00000002 _ZN6OV564011setExposureEi
00000000  w    F .text._ZN6OV56405beginE11framesize_tib	00000004 _ZN6OV56405beginE11framesize_tib
00000000  w    F .text._ZN6OV56407setModeEhh	00000004 _ZN6OV56407setModeEhh
00000000  w    F .text._ZN6OV564012setFramerateEi	00000004 _ZN6OV564012setFramerateEi
00000000  w    F .text._ZN6OV564014get_vt_pix_clkEPm	00000004 _ZN6OV564014get_vt_pix_clkEPm
00000000  w    F .text._ZN6OV564014getCameraClockEPm	00000004 _ZN6OV564014getCameraClockEPm
00000000  w    F .text._ZN6OV56409cmdUpdateEv	00000004 _ZN6OV56409cmdUpdateEv
00000000  w    F .text._ZN6OV564012loadSettingsE21camera_reg_settings_t	00000004 _ZN6OV564012loadSettingsE21camera_reg_settings_t
00000000  w    F .text._ZN6OV56405getAEEP8ae_cfg_t	00000004 _ZN6OV56405getAEEP8ae_cfg_t
00000000  w    F .text._ZN6OV56405calAEEhPhmP8ae_cfg_t	00000004 _ZN6OV56405calAEEhPhmP8ae_cfg_t
00000000  w    F .text._ZN6OV56404modeEv	00000004 _ZN6OV56404modeEv
00000000  w    F .text._ZN6OV56408autoGainEiff	00000002 _ZN6OV56408autoGainEiff
00000000 g     F .text._ZN6OV564012dmaInterruptEv	00000010 _ZN6OV564012dmaInterruptEv
00000000         *UND*	00000000 _ZN11ImageSensor17active_dma_cameraE
00000000  w    F .text._ZN6OV5640D2Ev	00000002 _ZN6OV5640D2Ev
00000000  w    F .text._ZN6OV5640D2Ev	00000002 _ZN6OV5640D1Ev
00000000 g     F .text._ZN6OV56403endEv	00000020 _ZN6OV56403endEv
00000000         *UND*	00000000 pinMode
00000000         *UND*	00000000 _ZN7TwoWire3endEv
00000000  w    F .text._ZN6OV5640D0Ev	00000010 _ZN6OV5640D0Ev
00000000         *UND*	00000000 _ZdlPvj
00000000  w    F .text._ZN10DMAChannelD2Ev	0000000c _ZN10DMAChannelD2Ev
00000000         *UND*	00000000 _ZN10DMAChannel7releaseEv
00000000  w    F .text._ZN10DMAChannelD2Ev	0000000c _ZN10DMAChannelD1Ev
00000000 g     F .text._ZN6OV564017startReadFrameDMAEPFbPvEPhS3_	000002f8 _ZN6OV564017startReadFrameDMAEPFbPvEPhS3_
00000000         *UND*	00000000 _ZN10DMAChannel5beginEb
00000000         *UND*	00000000 xbar_connect
00000000         *UND*	00000000 _ZN11ImageSensor11dumpDMA_TCDEP12DMABaseClassPKc
00000000         *UND*	00000000 _ZN5Print6printfEPKcz
00000000         *UND*	00000000 malloc
00000000 g     O .bss._ZN6OV564011_dmaBuffer1E	00001440 _ZN6OV564011_dmaBuffer1E
00000000 g     O .bss._ZN6OV564011_dmaBuffer2E	00001440 _ZN6OV564011_dmaBuffer2E
00000000         *UND*	00000000 _VectorsRam
00000000         *UND*	00000000 Serial
00000000         *UND*	00000000 digital_pin_to_info_PGM
00000000 g     F .text._ZN6OV564022captureFrameStatisticsEv	000001b4 _ZN6OV564022captureFrameStatisticsEv
00000000         *UND*	00000000 memset
00000000         *UND*	00000000 micros
00000000         *UND*	00000000 usb_serial_write
00000000         *UND*	00000000 _ZN5Print7printlnEv
00000000  w    F .text._ZN6OV564017readFrame4BitGPIOEPv	0000001c _ZN6OV564017readFrame4BitGPIOEPv
00000000 g     F .text._ZN6OV564016stopReadFrameDMAEv	000000c8 _ZN6OV564016stopReadFrameDMAEv
00000000         *UND*	00000000 systick_millis_count
00000000 g     F .text._ZN6OV564019processDMAInterruptEv	00000220 _ZN6OV564019processDMAInterruptEv
00000000 g     F .text._ZN6OV5640C2Ev	000000cc _ZN6OV5640C2Ev
00000000         *UND*	00000000 Wire
00000000 g     F .text._ZN6OV5640C2Ev	000000cc _ZN6OV5640C1Ev
00000000 g     F .text._ZN6OV564018cameraReadRegisterEtRh	000000ec _ZN6OV564018cameraReadRegisterEtRh
00000000         *UND*	00000000 _ZN7TwoWire15endTransmissionEh
00000000         *UND*	00000000 _ZN7TwoWire11requestFromEhhh
00000000         *UND*	00000000 delay
00000000 g     F .text._ZN6OV564010getModelidEv	00000060 _ZN6OV564010getModelidEv
00000000 g     F .text._ZN6OV564010getGain_dbEPf	00000062 _ZN6OV564010getGain_dbEPf
00000000         *UND*	00000000 log10f
00000000 g     F .text._ZN6OV564013showRegistersEv	0000007c _ZN6OV564013showRegistersEv
00000000 g     F .text._ZN6OV564019cameraWriteRegisterEth	00000068 _ZN6OV564019cameraWriteRegisterEth
00000000 g     F .text._ZN6OV564011setContrastEi	00000060 _ZN6OV564011setContrastEi
00000000 g     F .text._ZN6OV564013setBrightnessEi	00000062 _ZN6OV564013setBrightnessEi
00000000 g     F .text._ZN6OV564013setSaturationEi	0000007c _ZN6OV564013setSaturationEi
00000000 g     F .text._ZN6OV564014setGainceilingE13gainceiling_t	0000005c _ZN6OV564014setGainceilingE13gainceiling_t
00000000 g     F .text._ZN6OV564011setColorbarEi	00000040 _ZN6OV564011setColorbarEi
00000000 g     F .text._ZN6OV564010setHmirrorEi	00000048 _ZN6OV564010setHmirrorEi
00000000 g     F .text._ZN6OV56408setVflipEi	00000048 _ZN6OV56408setVflipEi
00000000 g     F .text._ZN6OV56406setHueEi	00000064 _ZN6OV56406setHueEi
00000000 g     F .text._ZN6OV564011setAutoGainEiff	000001bc _ZN6OV564011setAutoGainEiff
00000000         *UND*	00000000 expf
00000000 g     F .text._ZN6OV564015setAutoWhitebalEifff	000001d4 _ZN6OV564015setAutoWhitebalEifff
00000000 g     F .text._ZN6OV564019cameraWriteFirmwareEv	0000007c _ZN6OV564019cameraWriteFirmwareEv
00000000 g     F .text._ZN6OV564013calculate_htsEt	00000050 _ZN6OV564013calculate_htsEt
00000000 g     F .text._ZN6OV564012setPixformatE11pixformat_t	00000294 _ZN6OV564012setPixformatE11pixformat_t
00000000 g     F .text._ZN6OV564012setFramesizeEii	0000000c _ZN6OV564012setFramesizeEii
00000000 g     F .text._ZN6OV564012setFramesizeE11framesize_t	0000004c _ZN6OV564012setFramesizeE11framesize_t
00000000 g     F .text._ZN6OV564013calculate_vtsEt	0000000c _ZN6OV564013calculate_vtsEt
00000000 g     F .text._Z14print_pin_infoPKch	00000054 _Z14print_pin_infoPKch
00000000 g     F .text._ZN6OV564016checkAFCmdStatusEth	00000078 _ZN6OV564016checkAFCmdStatusEth
00000000 g     F .text._ZN6OV56405resetEv	0000018c _ZN6OV56405resetEv
00000000 g     F .text._ZN6OV564015enableAutoFocusEb	00000006 _ZN6OV564015enableAutoFocusEb
00000000 g     F .text._ZN6OV564010setQualityEi	0000003c _ZN6OV564010setQualityEi
00000000 g     F .text._ZN6OV564010getQualityEv	00000020 _ZN6OV564010getQualityEv
00000000 g     F .text._ZN6OV564014calc_pclk_freqEhhhhh	00000088 _ZN6OV564014calc_pclk_freqEhhhhh
00000000 g     F .text._ZN6OV564014getExposure_usEPi	00000178 _ZN6OV564014getExposure_usEPi
00000000 g     F .text._ZN6OV564015setAutoExposureEii	000001f4 _ZN6OV564015setAutoExposureEii
00000000 g     F .text._ZN6OV564014getRGB_Gain_dbEPfS0_S0_	00000110 _ZN6OV564014getRGB_Gain_dbEPfS0_S0_
00000000 g     F .text._ZN6OV56409setWBmodeEi	00000130 _ZN6OV56409setWBmodeEi
00000000 g     F .text._ZN6OV564016setSpecialEffectE5sde_t	00000088 _ZN6OV564016setSpecialEffectE5sde_t
00000000 g     F .text._ZN6OV564010setAutoBlcEiPi	0000006e _ZN6OV564010setAutoBlcEiPi
00000000 g     F .text._ZN6OV564010getBlcRegsEPi	00000042 _ZN6OV564010getBlcRegsEPi
00000000 g     F .text._ZN6OV564017setLensCorrectionEi	0000003a _ZN6OV564017setLensCorrectionEi
00000000 g     F .text._ZN6OV564012setNightModeEi	00000046 _ZN6OV564012setNightModeEi
00000000 g     F .text._ZN6OV564012setSharpnessEi	00000034 _ZN6OV564012setSharpnessEi
00000000 g     F .text._ZN6OV564016setAutoSharpnessEi	000000f2 _ZN6OV564016setAutoSharpnessEi
00000000 g     F .text._ZN6OV564016setAutoFocusModeEv	0000005c _ZN6OV564016setAutoFocusModeEv
00000000 g     F .text._ZN6OV564016begin_omnivisionE11framesize_t11pixformat_tiib	00000548 _ZN6OV564016begin_omnivisionE11framesize_t11pixformat_tiib
00000000         *UND*	00000000 digitalWrite
00000000         *UND*	00000000 _ZN7TwoWire5beginEv
00000000         *UND*	00000000 _ZN5Print11printNumberEmhh
00000000 g     F .text._ZN6OV564018readFrameGPIO_JPEGEPvjS0_j	000001a8 _ZN6OV564018readFrameGPIO_JPEGEPvjS0_j
00000000         *UND*	00000000 __aeabi_atexit
00000000         *UND*	00000000 .hidden __dso_handle
00000000 g     O .rodata._ZTV6OV5640	00000164 _ZTV6OV5640
00000000 g     O .bss.fstatOmni40	00000848 fstatOmni40
00000000 g     O .bss._ZN6OV564012_dmasettingsE	00000280 _ZN6OV564012_dmasettingsE
00000000 g     O .bss._ZN6OV564011_dmachannelE	00000008 _ZN6OV564011_dmachannelE
00000000         *UND*	00000000 _ZN11ImageSensor9call_backEP13FlexIOHandler
00000000         *UND*	00000000 _ZN11ImageSensor7setPinsEhhhhhhhhhhhhhhR7TwoWire
00000000         *UND*	00000000 _ZN11ImageSensor9readFrameEPvjS0_j
00000000         *UND*	00000000 _ZN11ImageSensor13readFrameGPIOEPvjS0_j
00000000         *UND*	00000000 _ZN11ImageSensor14readContinuousEPFbPvES0_jS0_j
00000000         *UND*	00000000 _ZN11ImageSensor18stopReadContinuousEv
00000000         *UND*	00000000 _ZN11ImageSensor15readFrameFlexIOEPvjS0_j
00000000         *UND*	00000000 _ZN11ImageSensor15startReadFlexIOEPFbPvES0_jS0_j
00000000         *UND*	00000000 _ZN11ImageSensor14stopReadFlexIOEv
00000000         *UND*	00000000 _ZN11ImageSensor12readFrameCSIEPvjS0_j
00000000         *UND*	00000000 _ZN11ImageSensor12startReadCSIEPFbPvES0_jS0_j
00000000         *UND*	00000000 _ZN11ImageSensor11stopReadCSIEv
00000000         *UND*	00000000 _ZN11ImageSensor23readFrameCSI_use_FlexIOEPvjS0_j
00000000         *UND*	00000000 _ZN11ImageSensor25processDMAInterruptFlexIOEv
00000000         *UND*	00000000 _ZN11ImageSensor32processFrameStartInterruptFlexIOEv
00000000         *UND*	00000000 _ZN11ImageSensor18hardware_configureEv
00000000         *UND*	00000000 _ZN11ImageSensor16flexio_configureEv
00000000         *UND*	00000000 _ZN11ImageSensor13csi_configureEv
00000000         *UND*	00000000 _ZN11ImageSensor9beginXClkEv
00000000         *UND*	00000000 _ZN11ImageSensor7endXClkEv
00000000         *UND*	00000000 _ZN11ImageSensor19processCSIInterruptEv
00000000         *UND*	00000000 _ZN11ImageSensor13csi_reset_dmaEv


Contents of section .group:
 0000 01000000 2d000000                    ....-...        
Contents of section .group:
 0000 01000000 2e000000                    ........        
Contents of section .group:
 0000 01000000 2f000000                    ..../...        
Contents of section .group:
 0000 01000000 30000000                    ....0...        
Contents of section .group:
 0000 01000000 31000000                    ....1...        
Contents of section .group:
 0000 01000000 32000000                    ....2...        
Contents of section .group:
 0000 01000000 33000000                    ....3...        
Contents of section .group:
 0000 01000000 34000000                    ....4...        
Contents of section .group:
 0000 01000000 35000000                    ....5...        
Contents of section .group:
 0000 01000000 36000000                    ....6...        
Contents of section .group:
 0000 01000000 37000000                    ....7...        
Contents of section .group:
 0000 01000000 38000000                    ....8...        
Contents of section .group:
 0000 01000000 39000000                    ....9...        
Contents of section .group:
 0000 01000000 3a000000                    ....:...        
Contents of section .group:
 0000 01000000 3b000000                    ....;...        
Contents of section .group:
 0000 01000000 3c000000                    ....<...        
Contents of section .group:
 0000 01000000 3d000000                    ....=...        
Contents of section .group:
 0000 01000000 3e000000                    ....>...        
Contents of section .group:
 0000 01000000 3f000000                    ....?...        
Contents of section .group:
 0000 01000000 40000000                    ....@...        
Contents of section .group:
 0000 01000000 41000000 42000000           ....A...B...    
Contents of section .group:
 0000 01000000 43000000                    ....C...        
Contents of section .group:
 0000 01000000 44000000                    ....D...        
Contents of section .group:
 0000 01000000 45000000                    ....E...        
Contents of section .group:
 0000 01000000 46000000                    ....F...        
Contents of section .group:
 0000 01000000 47000000                    ....G...        
Contents of section .group:
 0000 01000000 48000000                    ....H...        
Contents of section .group:
 0000 01000000 49000000                    ....I...        
Contents of section .group:
 0000 01000000 4a000000                    ....J...        
Contents of section .group:
 0000 01000000 4b000000                    ....K...        
Contents of section .group:
 0000 01000000 4c000000                    ....L...        
Contents of section .group:
 0000 01000000 4d000000                    ....M...        
Contents of section .group:
 0000 01000000 4e000000                    ....N...        
Contents of section .group:
 0000 01000000 4f000000                    ....O...        
Contents of section .group:
 0000 01000000 50000000                    ....P...        
Contents of section .group:
 0000 01000000 51000000                    ....Q...        
Contents of section .group:
 0000 01000000 52000000                    ....R...        
Contents of section .group:
 0000 01000000 53000000                    ....S...        
Contents of section .group:
 0000 01000000 56000000 59000000 5a000000  ....V...Y...Z...
Contents of section .group:
 0000 01000000 5b000000 5c000000           ....[...\...    
Contents of section .group:
 0000 01000000 64000000 65000000           ....d...e...    
Contents of section .text._ZN7TwoWire4readEv:
 0000 90f8a230 90f8a320 9a4205d9 5a1c0344  ...0... .B..Z..D
 0010 80f8a220 987e7047 4ff0ff30 704700bf  ... .~pGO..0pG..
Contents of section .text._ZN11ImageSensor5debugEb:
 0000 01727047                             .rpG            
Contents of section .text._ZN11ImageSensor5debugEv:
 0000 007a7047                             .zpG            
Contents of section .text._ZN11ImageSensor12getPixformatEv:
 0000 90f86400 704700bf                    ..d.pG..        
Contents of section .text._ZN11ImageSensor21readFrameReturnBufferEv:
 0000 d0f8b400 704700bf                    ....pG..        
Contents of section .text._ZN11ImageSensor18readImageSizeBytesEv:
 0000 d0f8b800 704700bf                    ....pG..        
Contents of section .text._ZN11ImageSensor6useDMAEb:
 0000 41727047                             ArpG            
Contents of section .text._ZN11ImageSensor6useDMAEv:
 0000 407a7047                             @zpG            
Contents of section .text._ZN11ImageSensor12data4BitModeEb:
 0000 81727047                             .rpG            
Contents of section .text._ZN11ImageSensor12data4BitModeEv:
 0000 807a7047                             .zpG            
Contents of section .text._ZN11ImageSensor16dataPinsReversedEv:
 0000 90f88e00 704700bf                    ....pG..        
Contents of section .text._ZN11ImageSensor5widthEv:
 0000 b0f95400 704700bf                    ..T.pG..        
Contents of section .text._ZN11ImageSensor6heightEv:
 0000 b0f95600 704700bf                    ..V.pG..        
Contents of section .text._ZN11ImageSensor10frameWidthEv:
 0000 b0f95800 704700bf                    ..X.pG..        
Contents of section .text._ZN11ImageSensor11frameHeightEv:
 0000 b0f95a00 704700bf                    ..Z.pG..        
Contents of section .text._ZN11ImageSensor26processFrameStartInterruptEv:
 0000 704700bf                             pG..            
Contents of section .text._ZN11ImageSensor16supports4BitModeEv:
 0000 00207047                             . pG            
Contents of section .text._ZN6OV564017changeFrameBufferEPhS0_:
 0000 036f8b42 04d0836f 8b4208bf 82677047  .o.B...o.B...gpG
 0010 02677047                             .gpG            
Contents of section .text._ZN6OV564010frameCountEv:
 0000 d0f8e400 704700bf                    ....pG..        
Contents of section .text._ZN6OV564019setVSyncISRPriorityEh:
 0000 014b83f8 9d107047 00e400e0           .K....pG....    
Contents of section .text._ZN6OV564025setDMACompleteISRPriorityEh:
 0000 034b044a 1b7903f0 0f039954 704700bf  .K.J.y.....TpG..
 0010 00000000 00e400e0                    ........        
Contents of section .text._ZN6OV564013setZoomWindowEtttt:
 0000 00207047                             . pG            
Contents of section .text._ZN6OV56407setGainEi:
 0000 704700bf                             pG..            
Contents of section .text._ZN6OV564012autoExposureEi:
 0000 704700bf                             pG..            
Contents of section .text._ZN6OV564012readRegisterEh:
 0000 ff207047                             . pG            
Contents of section .text._ZN6OV564013writeRegisterEhh:
 0000 00207047                             . pG            
Contents of section .text._ZN6OV564011setExposureEi:
 0000 704700bf                             pG..            
Contents of section .text._ZN6OV56405beginE11framesize_tib:
 0000 00207047                             . pG            
Contents of section .text._ZN6OV56407setModeEhh:
 0000 00207047                             . pG            
Contents of section .text._ZN6OV564012setFramerateEi:
 0000 00207047                             . pG            
Contents of section .text._ZN6OV564014get_vt_pix_clkEPm:
 0000 00207047                             . pG            
Contents of section .text._ZN6OV564014getCameraClockEPm:
 0000 00207047                             . pG            
Contents of section .text._ZN6OV56409cmdUpdateEv:
 0000 00207047                             . pG            
Contents of section .text._ZN6OV564012loadSettingsE21camera_reg_settings_t:
 0000 00207047                             . pG            
Contents of section .text._ZN6OV56405getAEEP8ae_cfg_t:
 0000 00207047                             . pG            
Contents of section .text._ZN6OV56405calAEEhPhmP8ae_cfg_t:
 0000 00207047                             . pG            
Contents of section .text._ZN6OV56404modeEv:
 0000 00207047                             . pG            
Contents of section .text._ZN6OV56408autoGainEiff:
 0000 704700bf                             pG..            
Contents of section .text._ZN6OV564012dmaInterruptEv:
 0000 024b1868 0368d3f8 34311847 00000000  .K.h.h..41.G....
Contents of section .text._ZN6OV5640D2Ev:
 0000 704700bf                             pG..            
Contents of section .text._ZN6OV56403endEv:
 0000 036810b5 0446d3f8 48319847 002194f8  .h...F..H1.G.!..
 0010 2000fff7 feffa06e bde81040 fff7febf   ......n...@....
Contents of section .text._ZN6OV5640D0Ev:
 0000 10b50446 4ff48871 fff7feff 204610bd  ...FO..q.... F..
Contents of section .text._ZN10DMAChannelD2Ev:
 0000 10b50446 fff7feff 204610bd           ...F.... F..    
Contents of section .rodata._ZN6OV564017startReadFrameDMAEPFbPvEPhS3_.str1.4:
 0000 73746172 74526561 64467261 6d65444d  startReadFrameDM
 0010 41206361 6c6c6564 20627566 66657273  A called buffers
 0020 20257820 25780a00 2043483a 20000000   %x %x.. CH: ...
 0030 20303a20 00000000 20313a20 00000000   0: .... 1: ....
 0040 70636c6b 2070696e 3a202564 20636f6e  pclk pin: %d con
 0050 6669673a 256c7820 636f6e74 726f6c3a  fig:%lx control:
 0060 256c780a 00000000 494f4d55 58435f47  %lx.....IOMUXC_G
 0070 50525f47 50523236 2d32393a 256c7820  PR_GPR26-29:%lx 
 0080 256c7820 256c7820 256c780a 00000000  %lx %lx %lx.....
 0090 4750494f 313a2025 6c782025 6c782c20  GPIO1: %lx %lx, 
 00a0 4750494f 363a2025 6c782025 6c780a00  GPIO6: %lx %lx..
 00b0 58424152 20435452 4c303a25 78204354  XBAR CTRL0:%x CT
 00c0 524c313a 25780a0a 00                 RL1:%x...       
Contents of section .text._ZN6OV564017startReadFrameDMAEPFbPvEPhS3_:
 0000 2de9f047 044684b0 0d46002a 00f02b81  -..G.F...F.*..+.
 0010 0267002b 00f01581 a3679c4a 237ac4f8  .g.+.....g.J#z..
 0020 e0501460 002b40f0 0581994d 0021236f  .P.`.+@....M.!#o
 0030 0026984f 28464ff0 0108c4e9 4033fff7  .&.O(FO.....@3..
 0040 feff3b68 4ff4a260 dff898c2 924a4ff0  ..;hO..`.....JO.
 0050 020ec3f8 00c01a61 d883d882 998b3a6c  .......a......:l
 0060 21f08001 83f807e0 9a610904 83f806e0  !........a......
 0070 9e80090c de609983 998b89b2 41f01001  .....`......A...
 0080 9983998b 89b241f0 02019983 998b21f0  ......A.......!.
 0090 08010904 090c9983 04219982 99609182  .........!...`..
 00a0 91607e49 c2f800c0 82f807e0 116182f8  .`~I.........a..
 00b0 06e0d083 9361d082 9680d660 918b21f0  .....a.....`..!.
 00c0 80010904 090c9183 918b89b2 41f01001  ............A...
 00d0 9183918b 89b241ea 0e019183 918b21f0  ......A.......!.
 00e0 08010904 090c9183 6d4a5660 16602a68  ........mJV`.`*h
 00f0 9868918b 21f08001 0904090c d3e900ec  .h..!...........
 0100 9183d968 c2e900ec c2e90201 29796548  ...h........)yeH
 0110 01f01f0c 00eb5110 08fa0cfc 8000d3e9  ......Q.........
 0120 04a9d3e9 06e3c2e9 04a9c2e9 06e3dff8  ................
 0130 b8910ab2 dff8b4e1 10315b4b dff8b0a1  .........1[K....
 0140 43f82190 c0f800c0 0e204ef8 2260dff8  C.!...... N."`..
 0150 a491e369 554909eb 03135b68 4ef82210  ...iUI....[hN.".
 0160 534a1968 c4f8f010 3146c3f8 0080136f  SJ.h....1F.....o
 0170 43f44003 1367fff7 feff2946 15234d4d  C.@..g....)F.#MM
 0180 2046aaf8 8430ab69 23f08063 ab614a4b   F...0.i#..c.aJK
 0190 c3f84482 ab6ec4f8 ec30ab6e 23f47f63  ..D..n...0.n#..c
 01a0 ab66ab6e d4f8a020 23ea0203 434aab66  .f.n... #...CJ.f
 01b0 fff7feff 3946424a 2046fff7 feff07f1  ....9FBJ F......
 01c0 4001404a 2046fff7 feffe269 3e4909eb  @.@J F.....i>I..
 01d0 02193e48 d9e90137 1b683f68 0097fff7  ..>H...7.h?h....
 01e0 feffaa6e eb6e286f 696fcde9 00013849  ...n.n(oio....8I
 01f0 3648fff7 feff374b 4ff08440 36491a68  6H....7KO..@6I.h
 0200 9b680568 8068cde9 00503048 fff7feff  .h.h.h...P0H....
 0210 baf88420 baf88630 92b23049 9bb22b48  ... ...0..0I..+H
 0220 fff7feff 404684f8 bc80c4e9 396604b0  ....@F......9f..
 0230 bde8f087 a36f226f 29492448 fff7feff  .....o"o)I$H....
 0240 f3e6a36f 002b7ff4 e8aeb4f8 5400b4f8  ...o.+......T...
 0250 563010fb 03f0fff7 feffa067 00287ff4  V0.........g.(..
 0260 dcae0020 e3e7026f 002a7ff4 d2aeb0f8  ... ...o.*......
 0270 5400b4f8 56200393 10fb02f0 fff7feff  T...V ..........
 0280 039b2067 00287ff4 c4aeeae7 00000000  .. g.(..........
 0290 00000000 00000000 00000000 00000000  ................
 02a0 00c01b40 40380038 00000000 1e000080  ...@@8.8........
 02b0 00c00f40 00c00a40 00841f40 28000000  ...@...@...@(...
 02c0 30000000 38000000 40000000 00000000  0...8...@.......
 02d0 68000000 00801b40 90000000 b0000000  h......@........
 02e0 00000000 08c01b40 00000000 00c00e40  .......@.......@
 02f0 00c03b40 00000000                    ..;@....        
Contents of section .rodata._ZN6OV564022captureFrameStatisticsEv.str1.4:
 0000 2a2a2a20 4672616d 65204361 70747572  *** Frame Captur
 0010 65204461 74613a20 656c6170 73656420  e Data: elapsed 
 0020 4d696372 6f733a20 2575206c 6f6f7073  Micros: %u loops
 0030 3a202575 0a000000 20202056 53796e63  : %u....   VSync
 0040 204c6f6f 70732053 74617274 3a202575   Loops Start: %u
 0050 20656e64 3a202575 0a000000 20202068   end: %u....   h
 0060 72656620 636f756e 743a2025 75207063  ref count: %u pc
 0070 6c6b2021 20687265 6620636f 756e743a  lk ! href count:
 0080 2025750a 20202020 00000000 25337528   %u.    ....%3u(
 0090 25752920 00000000 0a202020 2000      %u) .....    .  
Contents of section .text._ZN6OV564022captureFrameStatisticsEv:
 0000 2de9f843 064640f6 48020021 6248fff7  -..C.F@.H..!bH..
 0010 feffd6e9 25211368 0b42fcd1 13681942  ....%!.h.B...h.B
 0020 40f0b780 01231068 5c1c1f46 0142a3b2  @....#.h\..F.B..
 0030 f9d0594d af80d6e9 27120b68 1342fcd0  ..YM....'..h.B..
 0040 d6e92923 17681f40 fcd1fff7 feffd6f8  ..)#.h.@........
 0050 94e08046 d6f89810 c5f8cc02 0ee0eb68  ...F...........h
 0060 d6f8a020 0133d6f8 a800eb60 42ea0004  ... .3.....`B...
 0070 d6f89c30 1b681c40 a7425bd1 def80040  ...0.h.@.B[....@
 0080 0c40ecd1 def80030 0b420ad1 eb880133  .@.....0.B.....3
 0090 9bb2def8 0020581c 1e460a42 83b2f8d0  ..... X..F.B....
 00a0 ee80fff7 feffa0eb 0802eb68 00263b49  ...........h.&;I
 00b0 3b4f3b48 2a60fff7 feffeb88 aa883949  ;O;H*`........9I
 00c0 3748fff7 feffb5f8 44382a89 38463649  7H......D8*.8F6I
 00d0 dff8d880 dff8d890 fff7feff 0ae0fff7  ................
 00e0 feff0134 05214846 fff7feff 2b89a6b2  ...4.!HF....+...
 00f0 b3421ad3 a2b24146 38463346 05eb820e  .B....AF8F3F....
 0100 0832f446 35f81220 002ee8d0 def8cce2  .2.F5.. ........
 0110 dcf8c832 aeeb0303 fff7feff 3307e0d0  ...2........3...
 0120 01342b89 a6b2b342 e4d21d48 bde8f843  .4+....B...H...C
 0130 fff7febf 224201d0 174215d0 044211d0  ...."B...B...B..
 0140 074206d1 2b890833 35f81320 013225f8  .B..+..35.. .2%.
 0150 1320d6f8 a0301f42 04d1b5f8 44380133  . ...0.B....D8.3
 0160 a5f84438 274689e7 b5f80890 09f10109  ..D8'F..........
 0170 1ffa89f9 a5f80890 05eb8909 fff7feff  ................
 0180 c9f8cc02 d6f8a800 0442d6e9 25e1e9d0  .........B..%...
 0190 d6e7014d 4fe700bf 00000000 00000000  ...MO...........
 01a0 00000000 38000000 5c000000 8c000000  ....8...\.......
 01b0 98000000                             ....            
Contents of section .rodata._ZN6OV564017readFrame4BitGPIOEPv.str1.4:
 0000 34204269 74206d6f 6465206e 6f742073  4 Bit mode not s
 0010 7570706f 72746564 202e2e2e 2e2e2021  upported ..... !
 0020 21212121 00                          !!!!.           
Contents of section .text._ZN6OV564017readFrame4BitGPIOEPv:
 0000 08b52421 0348fff7 feff0348 bde80840  ..$!.H.....H...@
 0010 fff7febf 00000000 00000000           ............    
Contents of section .rodata._ZN6OV564016stopReadFrameDMAEv.str1.4:
 0000 2a2a2a20 73746f70 52656164 4672616d  *** stopReadFram
 0010 65444d41 20444d41 20646964 206e6f74  eDMA DMA did not
 0020 20657869 7420636f 72726563 746c792e   exit correctly.
 0030 2e2e0000 20204279 74657320 4c656674  ....  Bytes Left
 0040 3a202575 20667261 6d652062 75666665  : %u frame buffe
 0050 723a2578 20526f77 3a257520 436f6c3a  r:%x Row:%u Col:
 0060 25750a00                             %u..            
Contents of section .text._ZN6OV564016stopReadFrameDMAEv:
 0000 70b50223 274d82b0 04462e68 80f8bc30  p..#'M...F.h...0
 0010 03e094f8 bc30022b 04d12b68 9b1bb3f5  .....0.+..+h....
 0020 7a7ff6d3 94f8bc30 032b14d0 32211e48  z......0.+..2!.H
 0030 fff7feff 1d48fff7 feffb4f8 fa20b4f8  .....H....... ..
 0040 fc301b49 1948cde9 0032d4f8 0031d4f8  .0.I.H...2...1..
 0050 f420fff7 feff2046 00221649 fff7feff  . .... F.".I....
 0060 20460022 1449fff7 feff0022 13492046   F.".I.....".I F
 0070 fff7feff 0d48fff7 feffd4f8 ec20104b  .....H....... .K
 0080 e1699a66 0f4bd4f8 f02003eb 01135b68  .i.f.K... ....[h
 0090 1a602868 801bb0f5 7a7f2cbf 00200120  .`(h....z.,.. . 
 00a0 02b070bd 00000000 00000000 00000000  ..p.............
 00b0 34000000 00000000 00000000 40000000  4...........@...
 00c0 00c00a40 00000000                    ...@....        
Contents of section .rodata._ZN6OV564019processDMAInterruptEv.str1.4:
 0000 4f563536 34303a3a 646d6149 6e746572  OV5640::dmaInter
 0010 72757074 2063616c 6c656420 7768656e  rupt called when
 0020 20444d41 5f535441 54455f53 544f5050   DMA_STATE_STOPP
 0030 45440000 4f563536 34303a3a 646d6149  ED..OV5640::dmaI
 0040 6e746572 72757074 202d2053 746f7020  nterrupt - Stop 
 0050 72657175 65737465 6400               requested.      
Contents of section .text._ZN6OV564019processDMAInterruptEv:
 0000 f8b57f4d 7f4b2a79 da77bff3 4f8f90f8  ...M.K*y.w..O...
 0010 bc30032b 00f0e780 90f80831 04467a4e  .0.+.......1.FzN
 0020 0133dbb2 80f80831 d8074ad5 33687749  .3.....1..J.3hwI
 0030 d88a80b2 002800f0 df800138 d4f8f430  .....(.....8...0
 0040 b4f8fc20 4ff0000c 80b201eb 80000439  ... O..........9
 0050 28e0b4f9 56309a42 29da51f8 043fd4f8  (...V0.B).Q..?..
 0060 0021c3f3 0713571c c4f80071 1370b4f8  .!....W....q.p..
 0070 fa30b4f9 54200133 9bb29342 a4f8fa30  .0..T .3...B...0
 0080 b4f8fc20 05d10132 a4f8fac0 92b2a4f8  ... ...2........
 0090 fc20d4f8 f4308842 03f1ff33 c4f8f430  . ...0.B...3...0
 00a0 00f09180 1746002b d3d1b4f9 56309f42  .....F.+....V0.B
 00b0 0cd0d4f8 f4304bb1 b3f5226f 00f08780  .....0K..."o....
 00c0 f8bd336c 5249d88a 80b2b3e7 2a794d4b  ..3lRI......*yMK
 00d0 9a760022 d4f8e430 d4f80401 0133a4f8  .v."...0.....3..
 00e0 fc20c4f8 e800c4f8 e430d4f8 e030002b  . .......0...0.+
 00f0 55d09847 002852d1 94f8bc20 d4f80431  U..G.(R.... ...1
 0100 022ac4f8 003153d0 b4f8fe30 b4f95420  .*...1S....0..T 
 0110 1a44b4f9 563003fb 02f20023 c4f8f420  .D..V0.....#... 
 0120 4ff6ff72 84f80831 a4f8fc30 3368c4f8  O..r...1...03h..
 0130 f820da8b 110403d4 4ff4a262 da83da82  . ......O..b....
 0140 9a8b306c 22f00802 1204120c 9a83c28b  ..0l"...........
 0150 120403d4 4ff4a262 c283c282 818b2a68  ....O..b......*h
 0160 21f00801 1e680904 090c8183 918b21f0  !....h........!.
 0170 80010904 090cd3e9 01409183 d968c2e9  .........@...h..
 0180 0064c2e9 02012979 d3e90640 d3e90465  .d....)y...@...e
 0190 1c4bc2e9 0465c2e9 0640d976 f8bd94f8  .K...e...@.v....
 01a0 bc20a36f 022ac4f8 0431c4f8 0031abd1  . .o.*...1...1..
 01b0 25211848 fff7feff 1748fff7 feff0323  %!.H.....H.....#
 01c0 84f8bc30 f8bd1746 b4f95630 6fe794f8  ...0...F..V0o...
 01d0 0831db07 4cbf3268 326c938b 9bb243f0  .1..L.2h2l....C.
 01e0 08039383 f8bd3221 0c48fff7 feff0a48  ......2!.H.....H
 01f0 bde8f840 fff7febf b4f8fc70 55e700bf  ...@.......pU...
 0200 00000000 00800e40 00000000 00000000  .......@........
 0210 00000000 34000000 00000000 00000000  ....4...........
Contents of section .text._ZN6OV5640C2Ev:
 0000 40f20113 11222821 84462de9 f04f8360  @...."(!.F-..O.`
 0010 4ff4fa63 00244ff0 ff360361 10234ff0  O..c.$O..6.a.#O.
 0020 ff08274d 848100f1 340e0663 0c274ff0  ..'M....4..c.'O.
 0030 02094ff0 780b4ff0 030ac0e9 05232923  ..O.x.O......#)#
 0040 c0e90713 0e23c0e9 0a684362 0fcdaee8  .....#...hCb....
 0050 0f0095e8 0f008ee8 0f001a4b 60468cf8  ...........K`F..
 0060 6040ccf8 6830184b ccf86440 8cf86c40  `@..h0.K..d@..l@
 0070 cce91c44 8cf8bc40 8cf88860 acf88c80  ...D...@...`....
 0080 ccf80030 ccf8c890 8cf88e40 ccf89070  ...0.......@...p
 0090 ccf8c070 ccf8ac40 8cf8ccb0 ccf8d040  ...p...@.......@
 00a0 8cf8d440 ccf8e040 acf8fe40 ccf80041  ...@...@...@...A
 00b0 ccf80c41 cce91e44 cce936a4 bde8f08f  ...A...D..6.....
 00c0 00000000 00000000 08000000           ............    
Contents of section .rodata._ZN6OV564018cameraReadRegisterEtRh.str1.4:
 0000 6572726f 72207265 6164696e 67204f56  error reading OV
 0010 35363430 2c206164 64726573 73000000  5640, address...
 0020 7265675f 61646472 203d2025 3034780a  reg_addr = %04x.
 0030 00000000 6572726f 72207265 6164696e  ....error readin
 0040 67204f56 35363430 2c206461 746100    g OV5640, data. 
Contents of section .text._ZN6OV564018cameraReadRegisterEtRh:
 0000 2de9f041 836e0127 78250446 83f83071  -..A.n.'x%.F..0q
 0010 0e4683f8 a550090a 83f82f71 9046806e  .F...P..../q.F.n
 0020 03681b68 9847a06e f1b20368 1b689847  .h.h.G.n...h.h.G
 0030 0021a06e fff7feff 20b1257a 1dbb2846  .!.n.... .%z..(F
 0040 bde8f081 05463b46 3a463c21 a06efff7  .....F;F:F<!.n..
 0050 feff90b3 a36e2049 1a685269 8a4222d1  .....n I.hRi.B".
 0060 93f8a220 384693f8 a3109142 2dd9511c  ... 8F.....B-.Q.
 0070 83f8a210 13449c7e fff7feff 284688f8  .....D.~....(F..
 0080 0040bde8 f0811d21 1448fff7 feff0025  .@.....!.H.....%
 0090 1348fff7 feff3246 12491148 fff7feff  .H....2F.I.H....
 00a0 2846bde8 f0811846 90470446 3846fff7  (F.....F.G.F8F..
 00b0 feff002c 0dda3d46 c1e71a21 0a48fff7  ...,..=F...!.H..
 00c0 feff0748 fff7feff b9e73d46 fff7feff  ...H......=F....
 00d0 b5e7e4b2 d2e700bf 00000000 00000000  ................
 00e0 00000000 20000000 34000000           .... ...4...    
Contents of section .rodata._ZN6OV564010getModelidEv.str1.4:
 0000 656e7465 72656420 6765744d 6f64656c  entered getModel
 0010 69640000 45786974 696e6720 6765744d  id..Exiting getM
 0020 6f64656c 69643a20 4d494420 3d202530  odelid: MID = %0
 0030 34780a00                             4x..            
Contents of section .text._ZN6OV564010getModelidEv:
 0000 70b50023 82b0134e 05461221 12488df8  p..#...N.F.!.H..
 0010 0730fff7 feff3046 fff7feff 0df10702  .0....0F........
 0020 43f20a01 2846fff7 feff9df8 07400df1  C...(F.......@..
 0030 070243f2 0b012846 2402fff7 feff9df8  ..C...(F$.......
 0040 07300649 30461c43 2246fff7 feff2046  .0.I0F.C"F.... F
 0050 02b070bd 00000000 00000000 14000000  ..p.............
Contents of section .text._ZN6OV564010getGain_dbEPf:
 0000 70b582b0 00230646 0d460df1 060243f2  p....#.F.F....C.
 0010 0a518df8 06308df8 0730fff7 feff0df1  .Q...0...0......
 0020 07020446 43f20b51 3046fff7 feff9df8  ...FC..Q0F......
 0030 06309df8 07200646 1b0203f4 40731343  .0... .F....@s.C
 0040 00ee103a baeece0a fff7feff f3ee047a  ...:...........z
 0050 44ea0600 20ee270a c0b285ed 000a02b0  D... .'.........
 0060 70bd00bf                             p...            
Contents of section .rodata._ZN6OV564013showRegistersEv.str1.4:
 0000 0a2a2a2a 2043616d 65726120 52656769  .*** Camera Regi
 0010 73746572 73202a2a 2a000000 25732825  sters ***...%s(%
 0020 78293a20 25752825 78290a00           x): %u(%x)..    
Contents of section .text._ZN6OV564013showRegistersEv:
 0000 2de9f043 002387b0 19210646 17488df8  -..C.#...!.F.H..
 0010 1730fff7 feff164c 43f20803 15480393  .0.....LC....H..
 0020 04f51279 fff7feff dff84c80 114f039b  ...y......L..O..
 0030 01e034f8 083c1946 0df11702 30460834  ..4..<.F....0F.4
 0040 0393fff7 feff9df8 17504146 54f8142c  .........PAFT..,
 0050 3846039b cde90055 fff7feff 4c45e8d1  8F.....U....LE..
 0060 044807b0 bde8f043 fff7febf 00000000  .H.....C........
 0070 0c000000 00000000 1c000000           ............    
Contents of section .rodata._ZN6OV564019cameraWriteRegisterEth.str1.4:
 0000 6572726f 72207772 6974696e 6720746f  error writing to
 0010 204f5635 36343000                     OV5640.        
Contents of section .text._ZN6OV564019cameraWriteRegisterEth:
 0000 f8b5836e 01267827 044683f8 30610d46  ...n.&x'.F..0a.F
 0010 83f8a570 090a83f8 2f611746 806e0368  ...p..../a.F.n.h
 0020 1b689847 a06ee9b2 03681b68 9847a06e  .h.G.n...h.h.G.n
 0030 39460368 1b689847 3146a06e fff7feff  9F.h.h.G1F.n....
 0040 00b9f8bd 237a0bb9 3046f8bd 17210448  ....#z..0F...!.H
 0050 fff7feff 0348fff7 feff3046 f8bd00bf  .....H....0F....
 0060 00000000 00000000                    ........        
Contents of section .text._ZN6OV564011setContrastEi:
 0000 70b5ce1c 0546062e 24d801f1 0804a400  p....F..$.......
 0010 e4b243f2 12210322 2846fff7 feff2246  ..C..!."(F...."F
 0020 45f28651 2846fff7 feff0c4b 45f28551  E..Q(F.....KE..Q
 0030 28469a5d fff7feff 132243f2 12212846  (F.]....."C..!(F
 0040 fff7feff 2846a322 43f21221 bde87040  ....(F."C..!..p@
 0050 fff7febf 20240326 dbe700bf 00000000  .... $.&........
Contents of section .text._ZN6OV564013setBrightnessEi:
 0000 04310829 70b50546 29d80901 ceb20322  .1.)p..F)......"
 0010 43f21221 2846fff7 feff0446 324645f2  C..!(F.....F2FE.
 0020 87512846 fff7feff 04430122 45f28851  .Q(F.....C."E..Q
 0030 e4b22846 fff7feff 13220443 43f21221  ..(F.....".CC..!
 0040 2846e4b2 fff7feff a3220443 43f21221  (F.......".CC..!
 0050 2846e4b2 fff7feff 2043c0b2 70bd5026  (F...... C..p.P&
 0060 d5e700bf                             ....            
Contents of section .text._ZN6OV564013setSaturationEi:
 0000 70b50d46 04460322 43f21221 04351a4e  p..F.F."C..!.5.N
 0010 092d28bf 0525fff7 feffff22 45f20101  .-(..%....."E...
 0020 2046fff7 feff16f8 152006eb 450645f2   F....... ..E.E.
 0030 83512046 fff7feff 727845f2 84512046  .Q F....rxE..Q F
 0040 fff7feff 02224ff4 ab412046 fff7feff  ....."O..A F....
 0050 412245f2 88512046 fff7feff 132243f2  A"E..Q F....."C.
 0060 12212046 fff7feff 2046a322 43f21221  .! F.... F."C..!
 0070 bde87040 fff7febf 00000000           ..p@........    
Contents of section .text._ZN6OV564014setGainceilingE13gainceiling_t:
 0000 70b50131 102582b0 00238d40 8df80730  p..1.%...#.@...0
 0010 b5f5806f 02db0120 02b070bd 0df10702  ...o... ..p.....
 0020 43f61821 0646fff7 feff9df8 07200446  C..!.F....... .F
 0030 43f61821 304622f0 030242ea 2522d2b2  C..!0F"...B.%"..
 0040 fff7feff 0443eab2 43f61821 e4b23046  .....C..C..!..0F
 0050 fff7feff 2043c0b2 02b070bd           .... C....p.    
Contents of section .text._ZN6OV564011setColorbarEi:
 0000 70b582b0 00230d46 45f23d01 0df10702  p....#.FE.=.....
 0010 06468df8 0730fff7 feff003d 9df80720  .F...0.....=... 
 0020 044645f2 3d0118bf 012502f0 7f023046  .FE.=....%....0F
 0030 42eac512 fff7feff 2043c0b2 02b070bd  B....... C....p.
Contents of section .text._ZN6OV564010setHmirrorEi:
 0000 70b582b0 00230546 0e460df1 070243f6  p....#.F.F....C.
 0010 21018df8 0730fff7 feff9df8 07200446  !....0....... .F
 0020 43f62101 28463eb1 42f00602 fff7feff  C.!.(F>.B.......
 0030 2043c0b2 02b070bd 02f0f902 fff7feff   C....p.........
 0040 2043c0b2 02b070bd                     C....p.        
Contents of section .text._ZN6OV56408setVflipEi:
 0000 70b582b0 00230546 0e460df1 070243f6  p....#.F.F....C.
 0010 20018df8 0730fff7 feff9df8 07200446   ....0....... .F
 0020 43f62001 28463eb9 42f00602 fff7feff  C. .(F>.B.......
 0030 2043c0b2 02b070bd 02f0f902 fff7feff   C....p.........
 0040 2043c0b2 02b070bd                     C....p.        
Contents of section .text._ZN6OV56406setHueEi:
 0000 70b50c46 0546ff22 45f20101 06340c2c  p..F.F."E....4.,
 0010 28bf0624 fff7feff 01224ff4 ab412846  (..$....."O..A(F
 0020 04eb4404 fff7feff 0d4b45f2 86512846  ..D......KE..Q(F
 0030 1e191a5d fff7feff 45f28551 72782846  ...]....E..Qrx(F
 0040 fff7feff b27845f2 82512846 fff7feff  .....xE..Q(F....
 0050 2846a322 45f28851 bde87040 fff7febf  (F."E..Q..p@....
 0060 00000000                             ....            
Contents of section .text._ZN6OV564011setAutoGainEiff:
 0000 2de9f041 2ded028b 82b00027 0e4643f2  -..A-......'.FC.
 0010 03510df1 0702b0ee 408af0ee 608a0546  .Q......@...`..F
 0020 8df80770 fff7feff 9df90720 044622f0  ...p....... .F".
 0030 0202eeb9 42f00202 43f20351 2846d2b2  ....B...C..Q(F..
 0040 fff7feff b4ee488a 0443f1ee 10fae4b2  ......H..C......
 0050 204608d6 f0eec87a 9fed577a f4ee477a   F.....z..Wz..Gz
 0060 f1ee10fa 54dd02b0 bdec028b bde8f081  ....T...........
 0070 02f0fd02 43f20351 2846fff7 fefff4ee  ....C..Q(F......
 0080 688a0443 f1ee10fa e4b22046 ebd6f0ee  h..C...... F....
 0090 e87a9fed 497af4ee 477af1ee 10fae2dc  .z..Iz..Gz......
 00a0 f3ee046a 9fed427b 88eea60a b7eec00a  ...j..B{........
 00b0 20ee070b b7eec00b fff7feff f3ee007a   ..............z
 00c0 20ee270a fdee407a 40f2fe33 17ee902a   .'...@z@..3...*
 00d0 9a4266dc 002a66da b8460df1 070243f6  .Bf..*f..F....C.
 00e0 18212846 fff7feff 9df80730 064643f6  .!(F.......0.FC.
 00f0 182123f0 03032846 48ea0302 d2b2fff7  .!#...(FH.......
 0100 feff0346 3a462846 1e4343f6 182137e0  ...F:F(F.CC..!7.
 0110 f3ee046a 9fed267b 88ee260a b7eec00a  ...j..&{..&.....
 0120 20ee070b b7eec00b fff7feff f3ee007a   ..............z
 0130 20ee270a fdee407a 40f2fe33 17ee902a   .'...@z@..3...*
 0140 9a4228dc 002a28da 3746b046 0df10702  .B(..*(.7F.F....
 0150 43f20a51 2846fff7 feff9df8 07300646  C..Q(F.......0.F
 0160 43f20a51 23f00303 284648ea 0302d2b2  C..Q#...(FH.....
 0170 fff7feff 03463a46 28461e43 43f20b51  .....F:F(F.CC..Q
 0180 3443fff7 feffe4b2 2043c0b2 02b0bdec  4C...... C......
 0190 028bbde8 f08140f2 ff3242f3 0728d7b2  ......@..2B..(..
 01a0 d4e740f2 ff3242f3 0728d7b2 95e700bf  ..@..2B..(......
 01b0 1655b5bb b16b0240 ffff7f7f           .U...k.@....    
Contents of section .text._ZN6OV564015setAutoWhitebalEifff:
 0000 2de9f04f 2ded048b 83b00027 b1fa81f4  -..O-......'....
 0010 43f20641 0df10702 b0ee408a f0ee608a  C..A......@...`.
 0020 0646b0ee 419a8df8 0770fff7 feff9df8  .F..A....p......
 0030 07206409 054622f0 010243f2 06413046  . d..F"...C..A0F
 0040 224304f0 0104fff7 feffb4ee 488a0543  "C..........H..C
 0050 f1ee10fa edb22846 68bf0024 dcb1f4ee  ......(Fh..$....
 0060 498af1ee 10fa16d6 f0eec87a 9fed587a  I..........z..Xz
 0070 f4ee477a f1ee10fa 0ddcf0ee e87af4ee  ..Gz.........z..
 0080 477af1ee 10fa06dc f0eec97a f4ee477a  Gz.........z..Gz
 0090 f1ee10fa 04dd03b0 bdec048b bde8f08f  ................
 00a0 f3ee046a 9fed487b 88ee260a b7eec00a  ...j..H{..&.....
 00b0 20ee070b b7eec00b fff7feff fdee407a   .............@z
 00c0 40f6fe73 17ee904a 9c426adc bc426ada  @..s...J.Bj..Bj.
 00d0 3c46bb46 f3ee046a 9fed3b7b 88eea60a  <F.F...j..;{....
 00e0 b7eec00a 20ee070b b7eec00b fff7feff  .... ...........
 00f0 fdee407a 40f6fe73 17ee908a 98455cdc  ..@z@..s.....E\.
 0100 b8f1000f 5bda4ff0 0008c246 f3ee046a  ....[.O....F...j
 0110 9fed2d7b 89ee260a b7eec00a 20ee070b  ..-{..&..... ...
 0120 b7eec00b fff7feff fdee407a 40f6fe73  ..........@z@..s
 0130 17ee907a 9f423adc 002f3ada 0027b946  ...z.B:../:..'.F
 0140 5a464ff4 50513046 fff7feff 22460446  ZFO.PQ0F...."F.F
 0150 43f20141 3046fff7 feff2043 524643f2  C..A0F.... CRFC.
 0160 02410543 3046fff7 feff4246 edb243f2  .A.C0F....BF..C.
 0170 03412843 c4b23046 fff7feff 4a460443  .A(C..0F....JF.C
 0180 43f20441 3046e4b2 fff7feff 3a460443  C..A0F......:F.C
 0190 43f20541 3046e4b2 fff7feff 2043c0b2  C..A0F...... C..
 01a0 79e740f6 ff74c4f3 072be4b2 92e740f6  y.@..t...+....@.
 01b0 ff77c7f3 0729ffb2 c2e740f6 ff78c8f3  .w...)....@..x..
 01c0 072a5ffa 88f8a1e7 1655b5bb b16b0240  .*_......U...k.@
 01d0 ffff7f7f                             ....            
Contents of section .text._ZN6OV564019cameraWriteFirmwareEv:
 0000 2de9f84f 1c4e4ff4 004440f6 ed7b0546  -..O.NO..D@..{.F
 0010 06f58059 4ff07808 4ff0010a ab6e5f46  ...YO.x.O....n_F
 0020 210a83f8 a580802f 83f830a1 83f82fa1  !....../..0.../.
 0030 38bf8027 a86e803f 03681b68 9847a86e  8..'.n.?.h.h.G.n
 0040 e1b28034 0368a4b2 1b689847 a86e8022  ...4.h...h.G.n."
 0050 31460368 16445b68 9847bbf1 800fa86e  1F.h.D[h.G.....n
 0060 1ffa87fb 8cbf0021 0121fff7 feff4e45  .......!.!....NE
 0070 d4d10020 bde8f88f 00000000           ... ........    
Contents of section .text._ZN6OV564013calculate_htsEt:
 0000 436e124a 063b1088 022b15d8 b1f5a06f  Cn.J.;...+.....o
 0010 0bd80b1d 9bb25b00 9842b8bf 1846b1f5  ......[..B...F..
 0020 207f80b2 01d8a030 80b2fc30 40f29e53   ......0...0@..S
 0030 9842b8bf 18467047 b1f5207f f3d90431  .B...FpG.. ....1
 0040 49008842 b8bf0846 80b2eee7 00000000  I..B...F........
Contents of section .rodata._ZN6OV564012setPixformatE11pixformat_t.str1.4:
 0000 4a504547 20467261 6d657369 7a65206e  JPEG Framesize n
 0010 6f742064 69766973 69626c65 20627920  ot divisible by 
 0020 382e2e2e 2e2e2e2e 2e000000 466f726d  8...........Form
 0030 61743a20 25642c20 4672616d 6573697a  at: %d, Framesiz
 0040 653a2025 640a00                      e: %d..         
Contents of section .text._ZN6OV564012setPixformatE11pixformat_t:
 0000 2de9f047 002382b0 04460e46 8df80730  -..G.#...F.F...0
 0010 436e082b 00f09780 731e072b 00f2a480  Cn.+....s..+....
 0020 dfe813f0 1201c200 1c01a200 1a01c200  ................
 0030 12010800 30224ff4 86412046 fff7feff  ....0"O..A F....
 0040 05460022 45f21f01 2046fff7 feff0543  .F."E... F.....C
 0050 0df10702 44f21371 edb22046 fff7feff  ....D..q.. F....
 0060 9df80720 054344f2 137102f0 f8022046  ... .CD..q.... F
 0070 edb28df8 072042f0 0302fff7 feff4022  ..... B.......@"
 0080 054343f6 20012046 fff7feff 692243f2  .CC. . F....i"C.
 0090 36012046 fff7feff 312243f2 35012046  6. F....1"C.5. F
 00a0 fff7feff d4f8c830 75490822 7548edb2  .......0uI."uH..
 00b0 fff7feff 0df10702 43f62101 2046fff7  ........C.!. F..
 00c0 feff9df8 07208246 43f62101 22f02002  ..... .FC.!.". .
 00d0 204645ea 0a0542f0 2602fff7 feff0df1   FE...B.&.......
 00e0 07020746 43f20201 2046fff7 feff9df8  ...FC... F......
 00f0 07208146 43f20201 02f0e302 2f432046  . .FC......./C F
 0100 fff7feff 0df10702 804643f2 06012046  .........FC... F
 0110 fff7feff 49ea0702 48ea0203 9df90720  ....I...H...... 
 0120 184342f0 2802c5b2 d2b243f2 06012046  .CB.(.....C... F
 0130 fff7feff 544b0543 1b88d3b9 66662846  ....TK.C....ff(F
 0140 02b0bde8 f087d0f8 c820504b 53f83210  ......... PKS.2.
 0150 490705d1 03ebc203 5b685b07 3ff45caf  I.......[h[.?.\.
 0160 237a002b 40f08280 01252846 02b0bde8  #z.+@....%(F....
 0170 f087d4f8 c8202046 444b33f8 3210fff7  .....  FDK3.2...
 0180 feff0746 c0f30722 43f60c01 2046fff7  ...F..."C... F..
 0190 feff43f6 0d01fab2 07462046 fff7feff  ..C......F F....
 01a0 0743ffb2 3d43c9e7 00224ff4 86412046  .C..=C..."O..A F
 01b0 fff7feff 01220746 45f21f01 2046fff7  .....".FE... F..
 01c0 feffd4f8 c8300743 32462d49 2d48ffb2  .....0.C2F-I-H..
 01d0 fff7feff 0df10702 43f62101 2046fff7  ........C.!. F..
 01e0 feff9df8 07208046 43f62101 02f0df02  ..... .FC.!.....
 01f0 2046fff7 feff0df1 07020546 43f20201   F.........FC...
 0200 2046fff7 feff9df8 07208146 43f20201   F....... .FC...
 0210 22f01c02 204645ea 080542f0 1c02fff7  "... FE...B.....
 0220 feff40ea 09030df1 070243f2 0601dbb2  ..@.......C.....
 0230 2046edb2 1f43fff7 feff9df9 07203843   F...C....... 8C
 0240 22f02802 05436fe7 10224ff4 86412046  ".(..Co.."O..A F
 0250 fff7feff 0022aee7 6f22a6e7 30224ff4  ....."..o"..0"O.
 0260 86412046 fff7feff 0022a4e7 29210848  .A F....."..)!.H
 0270 fff7feff 03480125 fff7feff 5fe700bf  .....H.%...._...
 0280 2c000000 00000000 00000000 00000000  ,...............
 0290 00000000                             ....            
Contents of section .rodata._ZN6OV564012setFramesizeEii.part.0.str1.4:
 0000 572f483a 2025642f 25640a00 4a504547  W/H: %d/%d..JPEG
 0010 206e6f74 206d756c 7469706c 65206f66   not multiple of
 0020 20383a20 6661696c 65642074 6f207365   8: failed to se
 0030 742e2e2e 2e2e2e2e 00000000 53657474  t...........Sett
 0040 696e6720 4672616d 6553697a 653a0000  ing FrameSize:..
 0050 20205374 65702030 3a000000 20202072    Step 0:...   r
 0060 6561646f 75745f77 3a202564 2c207265  eadout_w: %d, re
 0070 61646f75 745f683a 2025642c 20726561  adout_h: %d, rea
 0080 646f7574 5f785f6d 61783a20 25642c20  dout_x_max: %d, 
 0090 72656164 6f75745f 785f6d61 783a2025  readout_x_max: %
 00a0 640a0000 20202072 6561646f 75745f78  d...   readout_x
 00b0 3a202564 2c207265 61646f75 745f793a  : %d, readout_y:
 00c0 2025640a 00000000 20205374 65702031   %d.....  Step 1
 00d0 3a000000 20202073 656e736f 725f6469  :...   sensor_di
 00e0 763a2025 640a0000 20205374 65702032  v: %d...  Step 2
 00f0 3a000000 20207365 6e736f72 5f773a20  :...  sensor_w: 
 0100 25642c20 73656e73 6f725f68 3a202564  %d, sensor_h: %d
 0110 2c207365 6e736f72 5f77733a 2025642c  , sensor_ws: %d,
 0120 2073656e 736f725f 77653a20 25640a00   sensor_we: %d..
 0130 20207365 6e736f72 5f68733a 2025642c    sensor_hs: %d,
 0140 2073656e 736f725f 68733a20 25640a00   sensor_hs: %d..
 0150 20205374 65702033 3a000000 20207261    Step 3:...  ra
 0160 74696f3a 2025662c 20775f6d 756c3a20  tio: %f, w_mul: 
 0170 25642c20 685f6d75 6c3a2025 640a0000  %d, h_mul: %d...
 0180 2020785f 6f66663a 2025642c 20795f6f    x_off: %d, y_o
 0190 66663a20 25640a00 20205374 65702034  ff: %d..  Step 4
 01a0 3a000000 20206874 735f7461 72676574  :...  hts_target
 01b0 3a202564 2c207365 6e736f72 5f687473  : %d, sensor_hts
 01c0 3a202564 2c207365 6e736f72 5f767473  : %d, sensor_vts
 01d0 3a202564 3a202564 0a000000 20207365  : %d: %d....  se
 01e0 6e736f72 5f785f69 6e633a20 25642c20  nsor_x_inc: %d, 
 01f0 73656e73 6f725f78 5f696e63 3a25640a  sensor_x_inc:%d.
 0200 00                                   .               
Contents of section .text._ZN6OV564012setFramesizeEii.part.0:
 0000 037a2de9 f04f0446 0d461646 2ded048b  .z-..O.F.F.F-...
 0010 a0f85410 97b0a0f8 5620002b 40f03a82  ..T.....V .+@.:.
 0020 636e0022 082b8df8 572000f0 2582b6f5  cn.".+..W ..%...
 0030 f36f00f3 1b82b5f5 236f00f3 17827c4b  .o......#o....|K
 0040 7c4f1988 3a88a942 b8bf2946 b2421ffa  |O..:..B..)F.B..
 0050 81feb8bf 3246a3f8 00e0d1f5 236390b2  ....2F......#c..
 0060 934648bf 01333880 5b100293 d2f5f363  .FH..38.[......c
 0070 714a48bf 0133b2f9 0090029a 5f10029b  qJH..3......_...
 0080 91451197 c3f10003 a8bf9146 6a4a9945  .E.........FjJ.E
 0090 b8bf9946 7b420ffa 89f9a2f8 0090674a  ...F{B........gJ
 00a0 b2f900c0 bc45a8bf bc469c45 b8bf9c46  .....E...F.E...F
 00b0 b5eb5e0f 4fea5e03 0ffa8cfc a2f800c0  ..^.O.^.........
 00c0 40f3f981 4ff01108 01270023 13970593  @...O....'.#....
 00d0 cdf80c80 0ef11003 9ab200f1 0803c2f5  ................
 00e0 236a9bb2 0692baf1 000f0393 5346b8bf  #j..........SF..
 00f0 0af10303 b9f1000f 4feaa303 b8bf09f1  ........O.......
 0100 010903eb 69035b00 5345a8bf 534613f1  ....i.[.SE..SF..
 0110 080f80f2 c6814ff0 000a08ee 90aacdf8  ......O.........
 0120 28a00a9b 0ef10f0e 9e441ffa 8ef30493  (........D......
 0130 039bc3f5 f36ebef1 000f7346 b8bf0ef1  .....n....sF....
 0140 0303bcf1 000f4fea a303b8bf 0cf1010c  ......O.........
 0150 a3eb6c03 5b007345 a8bf7346 1a1dc0f2  ..l.[.sE..sF....
 0160 bb810633 9ab20b92 c3f30722 dbb209ee  ...3......."....
 0170 102a1093 07ee901a 0b9b0730 f8eee76a  .*.........0...j
 0180 07ee90ba 1844069b b8eee77a 07ee906a  .....D.....z...j
 0190 1ffa80f9 b8eee76a 07ee905a f8eee77a  .......j...Z...z
 01a0 87ee068a c6eea75a b3fbf7f1 f4ee485a  .......Z......HZ
 01b0 f1ee10fa 48bfb0ee 658a67ee 887a26ee  ....H...e.g..z&.
 01c0 086afcee e77abcee c66a17ee 903a9bb2  .j...z...j...:..
 01d0 ca1a1293 039b48bf 01325010 c2f34f02  ......H..2P...O.
 01e0 b3fbf7f3 0c9216ee 102a03f1 180b0790  .........*......
 01f0 97b22046 da1b124b 48bf0132 1980bbf1  .. F...KH..2....
 0200 f80fa9b2 4fea6203 b8bf4ff0 f80b0893  ....O.b...O.....
 0210 c2f34f03 0d93fff7 feff1ffa 8bf2237a  ..O...........#z
 0220 09900f92 82b20e92 002b40f0 5c8109e0  .........+@.\...
 0230 00000000 00000000 00000000 00000000  ................
 0240 00000000 18ee902a 4ff46051 2046fff7  .......*O.`Q F..
 0250 feff0746 524643f6 01012046 c5f3072a  ...FRFC... F...*
 0260 fff7feff 074319ee 102a43f6 0201ffb2  .....C...*C.....
 0270 2046fff7 feff109a 074343f6 03012046   F.......CC... F
 0280 edb2ffb2 fff7feff 049b0743 43f60401  ...........CC...
 0290 1a0a2046 ffb2fff7 feff9df8 10200743  .. F......... .C
 02a0 43f60501 2046ffb2 fff7feff 43f60601  C... F......C...
 02b0 07434fea 19222046 ffb2fff7 feff43f6  .CO.." F......C.
 02c0 07010743 5ffa89f2 2046c6f3 0729ffb2  ...C_... F...)..
 02d0 fff7feff 52460743 43f60801 2046f6b2  ....RF.CC... F..
 02e0 ffb2fff7 feff2a46 074343f6 09012046  ......*F.CC... F
 02f0 ffb2fff7 feff4a46 074343f6 0a012046  ......JF.CC... F
 0300 ffb2fff7 feff3246 074343f6 0b012046  ......2F.CC... F
 0310 ffb2fff7 feff0e9b 074343f6 0c011a0a  .........CC.....
 0320 2046ffb2 fff7feff 9df82420 074343f6   F........$ .CC.
 0330 0d012046 ffb2fff7 feff0f9b 074343f6  .. F.........CC.
 0340 0e011a0a 2046ffb2 fff7feff 43f60f01  .... F......C...
 0350 07435ffa 8bf22046 ffb2fff7 feff0c9b  .C_... F........
 0360 074343f6 10011a0a 2046ffb2 fff7feff  .CC..... F......
 0370 9df81c20 074343f6 11012046 ffb2fff7  ... .CC... F....
 0380 feff0d9b 384343f6 12011a0a c7b22046  ....8CC....... F
 0390 fff7feff 9df82020 384343f6 1301c7b2  ......  8CC.....
 03a0 2046fff7 feff4246 074343f6 14012046   F....BF.CC... F
 03b0 ffb2fff7 feff4246 074343f6 15012046  ......BF.CC... F
 03c0 ffb2fff7 feff0df1 57020743 43f62001  ........W..CC. .
 03d0 2046ffb2 fff7feff 9df85720 3843059b   F........W 8C..
 03e0 22f00102 43f62001 c7b22046 1a43fff7  "...C. ... F.C..
 03f0 feff3843 0df15702 43f62101 c7b22046  ..8C..W.C.!... F
 0400 fff7feff 9df85720 0743059b 22f00102  ......W .C.."...
 0410 43f62101 ffb22046 1a43fff7 feff0743  C.!... F.C.....C
 0420 524644f2 0261ffb2 2046fff7 feff2a46  RFD..a.. F....*F
 0430 384344f2 0361c5b2 2046fff7 feff4a46  8CD..a.. F....JF
 0440 054344f2 04612046 edb2fff7 feff3246  .CD..a F......2F
 0450 054344f2 05612046 edb2fff7 feff2843  .CD..a F......(C
 0460 c0b217b0 bdec048b bde8f08f 012017b0  ............. ..
 0470 bdec048b bde8f08f 45ea0603 59073ff4  ........E...Y.?.
 0480 d6ad237a 002bf1d0 2c215148 fff7feff  ..#z.+..,!QH....
 0490 0120ece7 13464f48 0a464f49 fff7feff  . ...FOH.FOI....
 04a0 bee50833 9ab25ffa 83fa0a92 c3f30722  ...3.._........"
 04b0 08ee902a 35e6b6eb 500f4fea 50073ff7  ...*5...P.O.P.?.
 04c0 01ae1946 bb464ff0 31080227 01231397  ...F.FO.1..'.#..
 04d0 0593cdf8 0c80fde5 02230022 109309ee  .........#."....
 04e0 102a0b93 46e61221 3c48fff7 feff3948  .*..F..!<H....9H
 04f0 fff7feff 09213a48 fff7feff 3548fff7  .....!:H....5H..
 0500 feff119b 374a0193 029b3749 0093374b  ....7J....7I..7K
 0510 12881b88 2f48fff7 feff354b 354ab3f9  ..../H....5K5J..
 0520 0030b2f9 00203449 2a48fff7 feff0921  .0... 4I*H.....!
 0530 3248fff7 feff2748 fff7feff 139a3049  2H....'H......0I
 0540 2448fff7 feff0921 2e48fff7 feff2148  $H.....!.H....!H
 0550 fff7feff 0a9b0499 069a0093 0191039b  ................
 0560 29491c48 fff7feff 4b460b9a 27491948  )I.H....KF..'I.H
 0570 fff7feff 26491748 fff7feff b7eec87a  ....&I.H.......z
 0580 129b2449 00930197 124853ec 172bfff7  ..$I.....HS..+..
 0590 feffbdf8 2030bdf8 1c201f49 0d48fff7  .... 0... .I.H..
 05a0 feff1e49 0b48fff7 feff1d4b 1d491a88  ...I.H.....K.I..
 05b0 1ffa8bf3 07480093 bdf82430 fff7feff  .....H....$0....
 05c0 43464246 18490348 fff7feff 3ae600bf  CFBF.I.H....:...
 05d0 0c000000 00000000 00000000 3c000000  ............<...
 05e0 50000000 00000000 5c000000 00000000  P.......\.......
 05f0 00000000 00000000 a4000000 c8000000  ................
 0600 d4000000 e8000000 f4000000 30010000  ............0...
 0610 50010000 5c010000 80010000 98010000  P...\...........
 0620 00000000 a4010000 dc010000           ............    
Contents of section .text._ZN6OV564012setFramesizeEii:
 0000 11b10ab1 fff7febf 01207047           ......... pG    
Contents of section .text._ZN6OV564012setFramesizeE11framesize_t:
 0000 1a2918d8 0f4a10b4 0468c0f8 c810e36b  .)...J...h.....k
 0010 52f83140 02ebc102 0b495268 8b420cd1  R.1@.....IRh.B..
 0020 2ab124b1 21465df8 044bfff7 febf0120  *.$.!F]..K..... 
 0030 5df8044b 70470120 70472146 5df8044b  ]..KpG. pG!F]..K
 0040 184700bf 00000000 00000000           .G..........    
Contents of section .text._ZN6OV564013calculate_vtsEt:
 0000 01f11800 f828b8bf f8207047           .....(... pG    
Contents of section .rodata._Z14print_pin_infoPKch.str1.4:
 0000 09257328 25642900 202a2a20 756e7573  .%s(%d). ** unus
 0010 6564202a 2a000000 3a202530 38782025  ed **...: %08x %
 0020 3038780a 00                          08x..           
Contents of section .text._Z14print_pin_infoPKch:
 0000 10b50c46 02460e49 0e482346 fff7feff  ...F.F.I.H#F....
 0010 362c08d9 0d210c48 fff7feff 0948bde8  6,...!.H.....H..
 0020 1040fff7 febf094b 094903eb 04130548  .@.....K.I.....H
 0030 d3e90132 bde81040 12681b68 fff7febf  ...2...@.h.h....
 0040 00000000 00000000 08000000 00000000  ................
 0050 18000000                             ....            
Contents of section .rodata._ZN6OV564016checkAFCmdStatusEth.str1.4:
 0000 41462063 6f6d6d61 6e643a20 30782578  AF command: 0x%x
 0010 20666169 6c656420 746f2073 74617274   failed to start
 0020 21210a00                             !!..            
Contents of section .text._ZN6OV564016checkAFCmdStatusEth:
 0000 2de9f043 ff2383b0 184e0446 89461546  -..C.#...N.F.F.F
 0010 d6f80080 41f28837 8df80730 0be0fff7  ....A..7...0....
 0020 feff0120 fff7feff 3368a3eb 0803bb42  ... ....3h.....B
 0030 0bd89df8 07309d42 0df10702 49462046  .....0.B....IF F
 0040 edd10020 03b0bde8 f083237a 23b94ff0  ... ......#z#.O.
 0050 ff3003b0 bde8f083 2a460549 0548fff7  .0......*F.I.H..
 0060 feff4ff0 ff3003b0 bde8f083 00000000  ..O..0..........
 0070 00000000 00000000                    ........        
Contents of section .rodata._ZN6OV56405resetEv.str1.4:
 0000 2e2e2e2e 204c6f61 64696e67 20666972  .... Loading fir
 0010 6d776172 652e2e2e 2e000000 41462063  mware.......AF c
 0020 6f6e6669 67206661 696c6564 20746f20  onfig failed to 
 0030 73746172 74212100                    start!!.        
Contents of section .text._ZN6OV56405resetEv:
 0000 00235849 584a2de9 f0411380 06460b80  .#XIXJ-..A...F..
 0010 4ff42361 554a564c 11804ff4 f361554a  O.#aUJVL..O..aUJ
 0020 11801122 54490b80 43f20311 fff7feff  ..."TI..C.......
 0030 822243f2 08010546 3046fff7 feff0346  ."C....F0F.....F
 0040 05201d43 fff7feff 20224021 edb24723  . .C.... "@!..G#
 0050 01e06178 a27841ea 03213046 fff7feff  ..ax.xA..!0F....
 0060 14f8033f 0543002b f3d196f8 d43033b9  ...?.C.+.....03.
 0070 4ff49670 fff7feff 2846bde8 f0813f4f  O..p....(F....?O
 0080 20224ff4 40513046 3c46fff7 feff07f6   "O.@Q0F<F......
 0090 ed771921 3a48c4f5 0048fff7 feff3948  .w.!:H...H....9H
 00a0 fff7feff 08eb0401 14f8012f 304689b2  .........../0F..
 00b0 fff7feff bc4245ea 0005f3d1 032243f2  .....BE......"C.
 00c0 22013046 fff7feff 002243f2 23013046  ".0F....."C.#.0F
 00d0 fff7feff 002243f2 24013046 fff7feff  ....."C.$.0F....
 00e0 002243f2 25013046 fff7feff 002243f2  ."C.%.0F....."C.
 00f0 26013046 fff7feff 002243f2 27013046  &.0F....."C.'.0F
 0100 fff7feff 002243f2 28013046 fff7feff  ....."C.(.0F....
 0110 7f2243f2 29013046 fff7feff 00224ff4  ."C.).0F....."O.
 0120 40513046 fff7feff 702243f2 29010446  @Q0F....p"C.)..F
 0130 3046fff7 feff0028 45ea0005 07db2543  0F.....(E.....%C
 0140 4ff49670 fff7feff 2846bde8 f081337a  O..p....(F....3z
 0150 002bf4d0 1b210c48 fff7feff 0948fff7  .+...!.H.....H..
 0160 feffece7 00000000 00000000 00000000  ................
 0170 00000000 00000000 00000000 ffffffff  ................
 0180 00000000 00000000 1c000000           ............    
Contents of section .text._ZN6OV564015enableAutoFocusEb:
 0000 80f8d410 704700bf                    ....pG..        
Contents of section .text._ZN6OV564010setQualityEi:
 0000 70b582b0 00230d46 44f20741 0df10702  p....#.FD..A....
 0010 06468df8 0730fff7 feff9df8 07200446  .F...0....... .F
 0020 44f20741 304622f0 3f0242ea a502d2b2  D..A0F".?.B.....
 0030 fff7feff 2043c0b2 02b070bd           .... C....p.    
Contents of section .text._ZN6OV564010getQualityEv:
 0000 00b583b0 002344f2 07410df1 07028df8  .....#D..A......
 0010 0730fff7 feff9df8 070003b0 5df804fb  .0..........]...
Contents of section .text._ZN6OV564014calc_pclk_freqEhhhhh:
 0000 30b5d0f8 c04001f0 0f019df8 0ce01c4d  0....@.........M
 0010 1ef0100f 0ef00f0e 05fb04fc 9df81040  ...............@
 0020 18bf4fea 5c0c0a29 0cbf0a21 0821bcfb  ..O.\..)...!.!..
 0030 f1f1bef1 050f04d8 dfe80ef0 0706031a  ................
 0040 17201048 a0fb0101 490801fb 03f304f0  . .H....I.......
 0050 30011209 2029b3fb f2f00bd0 30290bd0  0... )......0)..
 0060 102900d0 30bd4008 30bd0648 a0fb0101  .)..0.@.0..H....
 0070 8908eae7 800830bd c00830bd c908e4e7  ......0...0.....
 0080 40420f00 abaaaaaa                    @B......        
Contents of section .text._ZN6OV564014getExposure_usEPi:
 0000 f0b587b0 00230446 0e4603aa 43f23401  .....#.F.F..C.4.
 0010 8df80c30 8df80d30 8df80e30 8df80f30  ...0...0...0...0
 0020 8df81030 8df81130 8df81230 8df81330  ...0...0...0...0
 0030 8df81530 8df81630 8df81730 fff7feff  ...0...0...0....
 0040 05460df1 0d0243f2 35012046 fff7feff  .F....C.5. F....
 0050 05430df1 0e0243f2 3601edb2 2046fff7  .C....C.6... F..
 0060 feff0df1 0f020543 43f23701 2046edb2  .......CC.7. F..
 0070 fff7feff 04aa2843 43f20811 c5b22046  ......(CC..... F
 0080 fff7feff 0df11502 28434ff4 5451c5b2  ........(CO.TQ..
 0090 2046fff7 feff0df1 16022843 43f20151   F........(CC..Q
 00a0 c5b22046 fff7feff 0df11702 054343f2  .. F.........CC.
 00b0 02512046 edb2fff7 feff0df1 11022843  .Q F..........(C
 00c0 43f60c01 c5b22046 fff7feff 0df11202  C..... F........
 00d0 054343f6 0d012046 edb2fff7 feff0df1  .CC... F........
 00e0 13022843 43f60e01 c7b22046 fff7feff  ..(CC..... F....
 00f0 05aa3843 43f60f01 c5b22046 fff7feff  ..8CC..... F....
 0100 07462046 9df81640 9df81530 2f432402  .F F...@...0/C$.
 0110 9df81320 9df80c10 44ea0344 9df81730  ... ....D..D...0
 0120 1c439df8 14302411 43ea0223 9df80d20  .C...0$.C..#... 
 0130 9c4228bf 1c469df8 10300193 9df80f30  .B(..F...0.....0
 0140 00939df8 0e30fff7 feff9df8 11109df8  .....0..........
 0150 12200346 f8b242ea 01220649 04fb02f2  . .F..B..".I....
 0160 81fb0341 db17c3eb a143b2fb f3f33360  ...A.....C....3`
 0170 07b0f0bd 83de1b43                    .......C        
Contents of section .text._ZN6OV564015setAutoExposureEii:
 0000 2de9f041 86b00025 1746b1fa 81f80df1  -..A...%.F......
 0010 0e0243f2 03510646 8df80e50 8df80f50  ..C..Q.F...P...P
 0020 4fea5818 8df81050 8df81150 8df81250  O.X....P...P...P
 0030 8df81350 8df81450 8df81550 8df81650  ...P...P...P...P
 0040 fff7feff 9df80e20 044643f2 03513046  ....... .FC..Q0F
 0050 22f00102 42ea0802 fff7feff af4244ea  "...B........BD.
 0060 0004e4b2 02dbb8f1 000f03d1 204606b0  ............ F..
 0070 bde8f081 0df10f02 43f23401 3046fff7  ........C.4.0F..
 0080 feff8046 04aa43f2 35013046 fff7feff  ...F..C.5.0F....
 0090 48ea0000 0df11102 43f23601 04433046  H.......C.6..C0F
 00a0 fff7feff 0df11202 e4b243f2 37012043  ..........C.7. C
 00b0 c4b23046 fff7feff 0df11302 204343f2  ..0F........ CC.
 00c0 0811c4b2 3046fff7 feff05aa 204343f6  ....0F...... CC.
 00d0 0c01c4b2 3046fff7 feff0df1 15022043  ....0F........ C
 00e0 43f60d01 5ffa80f8 3046fff7 feff0df1  C..._...0F......
 00f0 160248ea 000843f6 0e013046 5ffa88f8  ..H...C...0F_...
 0100 fff7feff 0df11702 48ea0008 43f60f01  ........H...C...
 0110 3046fff7 feff9df8 13209df8 16305ffa  0F....... ...0_.
 0120 88f80192 9df81740 48ea0008 9df81220  .......@H...... 
 0130 30469df8 0f1044ea 03240092 5ffa88f8  0F....D..$.._...
 0140 9df81130 9df81020 fff7feff 284a9df8  ...0... ....(J..
 0150 141082fb 0032c317 c3eba243 9df81520  .....2.....C... 
 0160 07fb03f3 42ea0122 93fbf2f3 4ff6fe72  ....B.."....O..r
 0170 934237dd 4ff6ff73 1d01c3f3 0732c3f3  .B7.O..s.....2..
 0180 0717edb2 9c424ff4 54513046 b8bf1c46  .....BO.TQ0F...F
 0190 fff7feff 40ea0800 3a4643f2 0151c7b2  ....@...:FC..Q..
 01a0 3046fff7 feff2a46 384343f2 0251c5b2  0F....*F8CC..Q..
 01b0 3046fff7 feffc4f3 07220543 43f60e01  0F.......".CC...
 01c0 3046edb2 fff7feff 43f60f01 e2b245ea  0F......C.....E.
 01d0 00043046 e4b2fff7 feff2043 c0b206b0  ..0F...... C....
 01e0 bde8f081 002bc7da 2f462a46 2b46c9e7  .....+../F*F+F..
 01f0 83de1b43                             ...C            
Contents of section .text._ZN6OV564014getRGB_Gain_dbEPfS0_S0_:
 0000 2de9f041 2ded028b 82b01d46 00230746  -..A-......F.#.F
 0010 88461646 4ff45051 0df10202 8df80230  .F.FO.PQ.......0
 0020 b3ee048a 8df80330 8df80430 8df80530  .......0...0...0
 0030 8df80630 8df80730 fff7feff 04460df1  ...0...0.....F..
 0040 030243f2 01413846 fff7feff 044301aa  ..C..A8F.....C..
 0050 43f20241 e4b23846 fff7feff 0df10502  C..A..8F........
 0060 204343f2 0341c4b2 3846fff7 feff0df1   CC..A..8F......
 0070 06022043 43f20441 c4b23846 fff7feff  .. CC..A..8F....
 0080 0df10702 43f20541 04433846 fff7feff  ....C..A.C8F....
 0090 9df80230 9df80320 07461b02 e4b203f4  ...0... .F......
 00a0 70631343 00ee103a b8eec00a fff7feff  pc.C...:........
 00b0 9df80410 9df80530 20ee080a 090201f4  .......0 .......
 00c0 706188ed 000a0b43 00ee103a b8eec00a  pa.....C...:....
 00d0 fff7feff 9df80610 9df80730 20ee080a  ...........0 ...
 00e0 090201f4 706286ed 000a1343 00ee103a  ....pb.....C...:
 00f0 b8eec00a fff7feff 47ea0400 20ee080a  ........G... ...
 0100 c0b285ed 000a02b0 bdec028b bde8f081  ................
Contents of section .text._ZN6OV56409setWBmodeEi:
 0000 052970b5 054653d8 0c460322 43f21221  .)p..FS..F."C..!
 0010 fff7feff 454bc4eb c4010446 28465e18  ....EK.....F(F^.
 0020 5a5c43f2 0641fff7 feff0443 72784ff4  Z\C..A.....CrxO.
 0030 5051e4b2 2846fff7 feffb278 044343f2  PQ..(F.....x.CC.
 0040 01412846 e4b2fff7 fefff278 044343f2  .A(F.......x.CC.
 0050 02412846 e4b2fff7 feff3279 044343f2  .A(F......2y.CC.
 0060 03412846 e4b2fff7 feff7279 044343f2  .A(F......ry.CC.
 0070 04412846 e4b2fff7 feffb279 044343f2  .A(F.......y.CC.
 0080 05412846 e4b2fff7 feff1322 044343f2  .A(F.......".CC.
 0090 12212846 e4b2fff7 feffa322 044343f2  .!(F.......".CC.
 00a0 12212846 e4b2fff7 feff2043 c0b270bd  .!(F...... C..p.
 00b0 032243f2 1221fff7 feff0022 43f20641  ."C..!....."C..A
 00c0 2846fff7 feff0422 4ff45051 2846fff7  (F....."O.PQ(F..
 00d0 feff0022 43f20141 2846fff7 feff0422  ..."C..A(F....."
 00e0 43f20241 2846fff7 feff0022 43f20341  C..A(F....."C..A
 00f0 2846fff7 feff0422 43f20441 2846fff7  (F....."C..A(F..
 0100 feff0022 43f20541 2846fff7 feff1322  ..."C..A(F....."
 0110 43f21221 2846fff7 feffa322 43f21221  C..!(F....."C..!
 0120 2846fff7 feff0120 70bd00bf 00000000  (F..... p.......
Contents of section .text._ZN6OV564016setSpecialEffectE5sde_t:
 0000 092901d9 01207047 70b50322 0e4643f2  .)... pGp..".FC.
 0010 12210546 fff7feff 1a4b0446 4ff4ab41  .!.F.....K.FO..A
 0020 13f82620 284603eb 8606fff7 feff0443  ..& (F.........C
 0030 727845f2 8351e4b2 2846fff7 feffb278  rxE..Q..(F.....x
 0040 044345f2 84512846 e4b2fff7 fefff278  .CE..Q(F.......x
 0050 044345f2 03012846 e4b2fff7 feff1322  .CE...(F......."
 0060 204343f2 1221c4b2 2846fff7 feffa322   CC..!..(F....."
 0070 044343f2 12212846 e4b2fff7 feff2043  .CC..!(F...... C
 0080 c0b270bd 00000000                    ..p.....        
Contents of section .text._ZN6OV564010setAutoBlcEiPi:
 0000 2de9f041 82b00023 0c461646 4ff48041  -..A...#.F.FO..A
 0010 0df10702 07468df8 0730fff7 feff9df8  .....F...0......
 0020 07200546 4ff48041 22f00102 3846002c  . .FO..A"...8F.,
 0030 18bf42f0 0102fff7 feff0543 edb294b9  ..B........C....
 0040 8eb1043e 44f22c04 44f23408 21460134  ...>D.,.D.4.!F.4
 0050 56f8042f 3846a4b2 d2b2fff7 feff4445  V../8F........DE
 0060 45ea0005 f2d12846 02b0bde8 f08100bf  E.....(F........
Contents of section .text._ZN6OV564010getBlcRegsEPi:
 0000 2de9f043 002583b0 44f22c04 07460e1f  -..C.%..D.,..F..
 0010 a94644f2 34082146 01340df1 07023846  .FD.4.!F.4....8F
 0020 a4b28df8 0790fff7 feff9df8 07304445  .............0DE
 0030 45ea0005 46f8043f edd12846 03b0bde8  E...F..?..(F....
 0040 f08300bf                             ....            
Contents of section .text._ZN6OV564017setLensCorrectionEi:
 0000 70b582b0 0d464ff4 a6410646 0df10702  p....FO..A.F....
 0010 fff7feff 003d9df8 07200446 18bf0125  .....=... .F...%
 0020 4ff4a641 02f07f02 304642ea c512fff7  O..A....0FB.....
 0030 feff2043 c0b202b0 70bd00bf           .. C....p...    
Contents of section .text._ZN6OV564012setNightModeEi:
 0000 10b50023 82b00446 8df80730 41b10df1  ...#...F...0A...
 0010 07024ff4 6851fff7 feff48b1 02b010bd  ..O.hQ....H.....
 0020 90f8cc20 4ff46851 fff7feff 02b010bd  ... O.hQ........
 0030 9df80720 4ff46851 204602f0 fb02fff7  ... O.hQ F......
 0040 feff02b0 10bd00bf                    ........        
Contents of section .text._ZN6OV564012setSharpnessEi:
 0000 092901d9 01207047 70b56522 0d4645f2  .)... pGp.e".FE.
 0010 08310646 fff7feff 054b0446 45f20231  .1.F.....K.FE..1
 0020 30465a5d fff7feff 2043c0b2 70bd00bf  0FZ].... C..p...
 0030 00000000                             ....            
Contents of section .text._ZN6OV564016setAutoSharpnessEi:
 0000 38b52522 04460029 46d045f2 0831fff7  8.%".F.)F.E..1..
 0010 feff0546 08224ff4 a6412046 fff7feff  ...F."O..A F....
 0020 05433022 45f20131 edb22046 fff7feff  .C0"E..1.. F....
 0030 10222843 45f20231 c5b22046 fff7feff  ."(CE..1.. F....
 0040 00222843 45f20231 c5b22046 fff7feff  ."(CE..1.. F....
 0050 08222843 45f20931 c5b22046 fff7feff  ."(CE..1.. F....
 0060 30222843 45f20a31 c5b22046 fff7feff  0"(CE..1.. F....
 0070 04222843 45f20b31 c5b22046 fff7feff  ."(CE..1.. F....
 0080 062240ea 05032046 45f20c31 dcb2fff7  ."@... FE..1....
 0090 feff2043 c0b238bd 45f20831 fff7feff  .. C..8.E..1....
 00a0 05460822 4ff4a641 2046fff7 feff0543  .F."O..A F.....C
 00b0 482245f2 0131edb2 2046fff7 feff1822  H"E..1.. F....."
 00c0 054345f2 02312046 edb2fff7 feff0e22  .CE..1 F......."
 00d0 284345f2 0231c5b2 2046fff7 feff0822  (CE..1.. F....."
 00e0 284345f2 0931c5b2 2046fff7 feff4822  (CE..1.. F....H"
 00f0 b7e700bf                             ....            
Contents of section .text._ZN6OV564016setAutoFocusModeEv:
 0000 38b50122 054643f2 2201fff7 feff0446  8..".FC."......F
 0010 082243f2 22012846 fff7feff 04430022  ."C.".(F.....C."
 0020 43f22301 2846e4b2 fff7feff 012243f2  C.#.(F......."C.
 0030 23012846 fff7feff 04430422 43f22201  #.(F.....C."C.".
 0040 e4b22846 fff7feff 00220443 43f22301  ..(F.....".CC.#.
 0050 2846e4b2 fff7feff 204638bd           (F...... F8.    
Contents of section .rodata._ZN6OV564016begin_omnivisionE11framesize_t11pixformat_tiib.str1.4:
 0000 4672616d 65205369 7a652049 6e76616c  Frame Size Inval
 0010 69642121 21000000 20205653 3d25642c  id!!!...  VS=%d,
 0020 2048523d 25642c20 50433d25 64205843   HR=%d, PC=%d XC
 0030 3d25640a 00000000 20205253 543d2564  =%d.....  RST=%d
 0040 28256429 2c205057 444e3d25 64282564  (%d), PWDN=%d(%d
 0050 290a0000 20205f64 70696e73 28256429  )...  _dpins(%d)
 0060 3d25640a 00000000 43616d65 72612064  =%d.....Camera d
 0070 65746563 74206661 696c6564 00000000  etect failed....
 0080 43616c6c 696e6720 6f763536 34305f63  Calling ov5640_c
 0090 6f6e6669 67757265 0a000000 43616d20  onfigure....Cam 
 00a0 4e616d65 3a202564 2c20466f 726d6174  Name: %d, Format
 00b0 3a202564 2c205265 736f6c75 74696f6e  : %d, Resolution
 00c0 3a202564 2c20436c 6f636b3a 2025640a  : %d, Clock: %d.
 00d0 00000000 4672616d 65207261 74653a20  ....Frame rate: 
 00e0 25640a00 4572726f 723a2052 45534554  %d..Error: RESET
 00f0 20666169 6c656400 4572726f 723a2073   failed.Error: s
 0100 65745069 78666f72 6d617420 6661696c  etPixformat fail
 0110 65640000 4572726f 723a2073 65744672  ed..Error: setFr
 0120 616d6573 697a6520 6661696c 65640000  amesize failed..
 0130 4572726f 723a2046 61696c65 6420746f  Error: Failed to
 0140 20736574 4175746f 466f6375 734d6f64   setAutoFocusMod
 0150 65000000 0a2a2a2a 2043616d 65726120  e....*** Camera 
 0160 50696e20 53657474 696e6773 202a2a2a  Pin Settings ***
 0170 00000000 7673796e 6350696e 00000000  ....vsyncPin....
 0180 68726566 50696e00 70636c6b 50696e00  hrefPin.pclkPin.
 0190 78636c6b 50696e00 72737400 7077646e  xclkPin.rst.pwdn
 01a0 00000000 44300000 44310000 44320000  ....D0..D1..D2..
 01b0 44330000 44340000 44350000 44360000  D3..D4..D5..D6..
 01c0 443700                               D7.             
Contents of section .text._ZN6OV564016begin_omnivisionE11framesize_t11pixformat_tiib:
 0000 2de9f04f 85b00446 0f469246 9df83c00  -..O...F.F.F..<.
 0010 9b46e072 606aff28 1cd0a36a 002b0cda  .F.r`j.(...j.+..
 0020 5e1c00f0 bf819d1c 00f0c381 03330ed1  ^............3..
 0030 c0b20321 fff7feff 09e0c0b2 0121fff7  ...!.........!..
 0040 feff94f8 281094f8 2400fff7 feff0520  ....(...$...... 
 0050 fff7feff e06aff28 1cd0236b 002b0cda  .....j.(..#k.+..
 0060 591c00f0 9a819a1c 00f0a881 03330ed1  Y............3..
 0070 c0b20321 fff7feff 09e0c0b2 0121fff7  ...!.........!..
 0080 feff94f8 301094f8 2c00fff7 feff0520  ....0...,...... 
 0090 fff7feff a06efff7 feff8b4b 33f93750  .....n.....K3.7P
 00a0 a4f85450 bdb103eb c703c4f8 c8705b68  ..TP.........p[h
 00b0 a4f85630 002384f8 c4300af1 ff33072b  ..V0.#...0...3.+
 00c0 0dd8dfe8 13f0e100 1100f500 0c00f900  ................
 00d0 1100e100 fc00237a 002b40f0 de800025  ......#z.+@....%
 00e0 284605b0 bde8f08f 0223e365 01236366  (F.......#.e.#cf
 00f0 0021207d 04f13006 fff7feff 0021207e  .! }..0......! ~
 0100 0025fff7 feff0321 207ffff7 feff0121  .%.....! ......!
 0110 94f82000 fff7feff 236a6c49 0193e369  .. .....#jlI...i
 0120 6b480093 dff8a881 dff8c091 d4e90523  kH.............#
 0130 fff7feff 236b6749 40460193 e36a0093  ....#kgI@F...j..
 0140 a36a626a fff7feff 56f8040f 0321c0b2  .jbj....V....!..
 0150 fff7feff 2a460135 33684946 4046fff7  ....*F.53hIF@F..
 0160 feff082d f0d16169 5b4d0801 05eb0111  ...-..ai[M......
 0170 2e58c868 0836c4f8 98002046 c4f89460  .X.h.6.... F...`
 0180 d4e90623 110105eb 02126958 d2680831  ...#......iX.h.1
 0190 c4f8a020 1a0105eb 0313c4f8 9c10aa58  ... ...........X
 01a0 db680832 c4f8a830 2368c4f8 a420d3f8  .h.2...0#h... ..
 01b0 44319847 606aff28 26d0c0b2 0121fff7  D1.G`j.(&....!..
 01c0 feff94f8 24300026 444a1901 05eb0313  ....$0.&DJ......
 01d0 6958d868 c1f88800 0296029b 934205d8  iX.h.........B..
 01e0 029b0133 0293029b 9342f9d9 0023c1f8  ...3.....B...#..
 01f0 84003a4a 0393039b 934205d8 039b0133  ..:J.....B.....3
 0200 0393039b 9342f9d9 a06efff7 feff4ff4  .....B...n....O.
 0210 fa70fff7 feff2368 2046d3f8 88309847  .p....#h F...0.G
 0220 00230146 10222a48 fff7feff 2848fff7  .#.F."*H....(H..
 0230 feff2368 2046d3f8 88309847 45f24063  ..#h F...0.GE.@c
 0240 984255d0 23682046 25495a69 8a4240f0  .BU.#h F%IZi.B@.
 0250 ae80d3f8 48319847 94f82000 0021fff7  ....H1.G.. ..!..
 0260 feffa06e fff7feff 237a002b 3ff437af  ...n....#z.+?.7.
 0270 14210025 1b48fff7 feff1548 fff7feff  .!.%.H.....H....
 0280 284605b0 bde8f08f 01230222 4ff0030a  (F.......#."O...
 0290 84f8c430 0423e265 29e71521 1248fff7  ...0.#.e)..!.H..
 02a0 feff0b48 fff7feff 284605b0 bde8f08f  ...H....(F......
 02b0 0223e365 00231ae7 0223e365 17e70223  .#.e.#...#.e...#
 02c0 e3650823 13e700bf 00000000 18000000  .e.#............
 02d0 00000000 38000000 00000000 9f860100  ....8...........
 02e0 00000000 68000000 00000000 54000000  ....h.......T...
 02f0 7a497b48 fff7feff d4f8c030 79490193  zI{H.......0yI..
 0300 d4f8c830 0e9a0093 7548636e fff7feff  ...0....uHcn....
 0310 5a467549 7248fff7 feffe37a 23b92368  ZFuIrH.....z#.#h
 0320 2046d3f8 38319847 2368704a d3f80c31   F..81.G#hpJ...1
 0330 934240f0 bf806e4b 662283f8 9d202368  .B@...nKf"... #h
 0340 6c4ad3f8 10319342 40f0b880 6a4bc021  lJ...1.B@...jK.!
 0350 674a1b79 03f00f03 99542368 20469b69  gJ.y.....T#h F.i
 0360 98470028 c0f28c80 23685146 20461b6b  .G.(....#hQF F.k
 0370 98470546 002840f0 90802368 39462046  .G.F.(@...#h9F F
 0380 9b6b9847 06460028 40f09c80 94f8d430  .k.G.F.(@......0
 0390 cbb9257a 4dbb0125 a2e6c0b2 0021fff7  ..%zM..%.....!..
 03a0 feff74e6 c0b20021 fff7feff 4fe69047  ..t....!....O..G
 03b0 5ae7c0b2 0221fff7 feff48e6 c0b20221  Z....!....H....!
 03c0 fff7feff 63e62046 fff7feff 0028e0d0  ....c. F.....(..
 03d0 237a002b 3ff483ae 21214848 fff7feff  #z.+?...!!HH....
 03e0 3f483546 fff7feff 7ae61c21 4448fff7  ?H5F....z..!DH..
 03f0 feff3b48 fff7feff 217d4248 fff7feff  ..;H....!}BH....
 0400 217e4148 fff7feff 217f4048 fff7feff  !~AH....!.@H....
 0410 94f82010 3e48fff7 feff94f8 24103d48  .. .>H......$.=H
 0420 fff7feff 94f82c10 3b48fff7 feff94f8  ......,.;H......
 0430 34103a48 fff7feff 94f83810 3848fff7  4.:H......8.8H..
 0440 feff94f8 3c103748 fff7feff 94f84010  ....<.7H......@.
 0450 3548fff7 feff94f8 44103448 fff7feff  5H......D.4H....
 0460 94f84810 3248fff7 feff94f8 4c103148  ..H.2H......L.1H
 0470 fff7feff 94f85010 2f48fff7 feff2fe6  ......P./H..../.
 0480 237a002b 3ff42bae 13212c48 fff7feff  #z.+?.+..!,H....
 0490 13480025 fff7feff 22e6237a 002b3ff4  .H.%....".#z.+?.
 04a0 1eae1a21 2648fff7 feff0d48 0025fff7  ...!&H.....H.%..
 04b0 feff15e6 66212046 984740e7 c0212046  ....f! F.G@..! F
 04c0 98474ae7 237a002b 3ff409ae 1a211d48  .GJ.#z.+?....!.H
 04d0 fff7feff 0248fff7 feff01e6 80000000  .....H..........
 04e0 00000000 9c000000 d4000000 00000000  ................
 04f0 00e400e0 00000000 00000000 30010000  ............0...
 0500 54010000 74010000 80010000 88010000  T...t...........
 0510 90010000 98010000 9c010000 a4010000  ................
 0520 a8010000 ac010000 b0010000 b4010000  ................
 0530 b8010000 bc010000 c0010000 e4000000  ................
 0540 f8000000 14010000                    ........        
Contents of section .rodata._ZN6OV564018readFrameGPIO_JPEGEPvjS0_j.str1.4:
 0000 24247265 61644672 616d6547 50494f5f  $$readFrameGPIO_
 0010 4a504547 2825702c 2025752c 2025702c  JPEG(%p, %u, %p,
 0020 20257529 0a000000 5761726e 696e6720   %u)....Warning 
 0030 42756666 65727320 6d617920 62652074  Buffers may be t
 0040 6f6f2073 6d616c6c 20666f72 204a5045  oo small for JPE
 0050 47202575 203c2025 750a0000 09242420  G %u < %u....$$ 
 0060 326e6420 62756666 65723a20 25752025  2nd buffer: %u %
 0070 750a0000 4572726f 72206661 696c6564  u...Error failed
 0080 20627566 66657273 20746f6f 20736d61   buffers too sma
 0090 6c6c0a00                             ll..            
Contents of section .text._ZN6OV564018readFrameGPIO_JPEGEPvjS0_j:
 0000 2de9f04f 87b09a46 04461746 109b8946  -..O...F.F.F...F
 0010 cde900a3 b0f85630 b0f85450 1e460393  ......V0..TP.F..
 0020 5a481346 0a465a49 fff7feff 06fb05f3  ZH.F.FZI........
 0030 e16d584a 01fb03f3 82fb0302 db17c3eb  .mXJ............
 0040 6203109a ba180593 9a4203d2 237a002b  b........B..#z.+
 0050 40f08f80 b4f95430 01fb03f3 0493fff7  @.....T0........
 0060 feffd4e9 25120b68 1342fcd0 fff7feff  ....%..h.B......
 0070 0646d4e9 25120d68 1540fcd1 fff7feff  .F..%..h.@......
 0080 b042eed0 039b002b 52d0bc46 2e46d646  .B.....+R..F.F.F
 0090 109f0295 d4e92712 0b681342 fcd0d4e9  ......'..h.B....
 00a0 29120b68 13ea020a fbd172b6 049b002b  )..h......r....+
 00b0 4cddb046 03eb050b d4e92902 03681342  L..F......)..h.B
 00c0 fcd0354b 1af0010f 9e684fea 1616f6b2  ..5K.....hO.....
 00d0 02d094f8 c43033b9 bcf1010c 89f80060  .....03........`
 00e0 16d009f1 0109b8f1 ff0f1cd0 0135d4e9  .............5..
 00f0 290204e0 d4e92713 09681942 02d00368  ).....'..h.B...h
 0100 1342f7d1 ab450af1 010a1fd0 b046d5e7  .B...E.......F..
 0110 237abef1 000f26d0 f1466bb9 b8f1ff0f  #z....&..Fk.....
 0120 9e46bc46 e2d1d92e e0d162b6 6b1c0593  .F.F......b.k...
 0130 059807b0 bde8f08f 5346029a 17491348  ........SF...I.H
 0140 fff7feff bc464ff0 000ecce7 d4e92712  .....FO.......'.
 0150 0b681342 fcd162b6 029b039a 01339a42  .h.B..b......3.B
 0160 029397d1 e4e75bb9 62b60598 07b0bde8  ......[.b.......
 0170 f08f0b49 059b0548 fff7feff e16d69e7  ...I...H.....mi.
 0180 08490248 fff7feff eee700bf 00000000  .I.H............
 0190 00000000 67666666 00400042 5c000000  ....gfff.@.B\...
 01a0 28000000 74000000                    (...t...        
Contents of section .text.startup._GLOBAL__sub_I__ZN6OV5640C2Ev:
 0000 08b50021 0848fff7 feff084a 08490648  ...!.H.....J.I.H
 0010 fff7feff 074b03f5 207243f8 203c4033  .....K.. rC. <@3
 0020 9342fad1 08bd00bf 00000000 00000000  .B..............
 0030 00000000 20000000                    .... ...        
Contents of section .init_array:
 0000 00000000                             ....            
Contents of section .rodata.str1.4:
 0000 53595354 454d5f43 54524f4c 30000000  SYSTEM_CTROL0...
 0010 44524956 455f4341 50414249 4c495459  DRIVE_CAPABILITY
 0020 00000000 53435f50 4c4c535f 4354524c  ....SC_PLLS_CTRL
 0030 30000000 53435f50 4c4c535f 4354524c  0...SC_PLLS_CTRL
 0040 31000000 53435f50 4c4c535f 4354524c  1...SC_PLLS_CTRL
 0050 32000000 53435f50 4c4c535f 4354524c  2...SC_PLLS_CTRL
 0060 33000000 4145435f 504b5f4d 414e5541  3...AEC_PK_MANUA
 0070 4c000000 585f4144 44525f53 545f4800  L...X_ADDR_ST_H.
 0080 585f4144 44525f53 545f4c00 595f4144  X_ADDR_ST_L.Y_AD
 0090 44525f53 545f4800 595f4144 44525f53  DR_ST_H.Y_ADDR_S
 00a0 545f4c00 585f4144 44525f45 4e445f48  T_L.X_ADDR_END_H
 00b0 00000000 585f4144 44525f45 4e445f4c  ....X_ADDR_END_L
 00c0 00000000 595f4144 44525f45 4e445f48  ....Y_ADDR_END_H
 00d0 00000000 595f4144 44525f45 4e445f4c  ....Y_ADDR_END_L
 00e0 00000000 585f4f55 54505554 5f53495a  ....X_OUTPUT_SIZ
 00f0 455f4800 585f4f55 54505554 5f53495a  E_H.X_OUTPUT_SIZ
 0100 455f4c00 595f4f55 54505554 5f53495a  E_L.Y_OUTPUT_SIZ
 0110 455f4800 595f4f55 54505554 5f53495a  E_H.Y_OUTPUT_SIZ
 0120 455f4c00 585f544f 54414c5f 53495a45  E_L.X_TOTAL_SIZE
 0130 5f480000 585f544f 54414c5f 53495a45  _H..X_TOTAL_SIZE
 0140 5f4c0000 595f544f 54414c5f 53495a45  _L..Y_TOTAL_SIZE
 0150 5f480000 595f544f 54414c5f 53495a45  _H..Y_TOTAL_SIZE
 0160 5f4c0000 585f4f46 46534554 5f480000  _L..X_OFFSET_H..
 0170 585f4f46 46534554 5f4c0000 595f4f46  X_OFFSET_L..Y_OF
 0180 46534554 5f480000 595f4f46 46534554  FSET_H..Y_OFFSET
 0190 5f4c0000 585f494e 4352454d 454e5400  _L..X_INCREMENT.
 01a0 595f494e 4352454d 454e5400 54494d49  Y_INCREMENT.TIMI
 01b0 4e475f54 435f5245 47323000 54494d49  NG_TC_REG20.TIMI
 01c0 4e475f54 435f5245 47323100 50434c4b  NG_TC_REG21.PCLK
 01d0 5f524154 494f0000 4652414d 455f4354  _RATIO..FRAME_CT
 01e0 524c3031 00000000 4652414d 455f4354  RL01....FRAME_CT
 01f0 524c3032 00000000 464f524d 41545f43  RL02....FORMAT_C
 0200 54524c30 30000000 434c4f43 4b5f504f  TRL00...CLOCK_PO
 0210 4c5f434f 4e54524f 4c000000 4953505f  L_CONTROL...ISP_
 0220 434f4e54 524f4c5f 30310000 464f524d  CONTROL_01..FORM
 0230 41545f43 54524c00 5052455f 4953505f  AT_CTRL.PRE_ISP_
 0240 54455354 5f534554 54494e47 5f310000  TEST_SETTING_1..
 0250 5343414c 455f4354 524c5f31 00000000  SCALE_CTRL_1....
 0260 5343414c 455f4354 524c5f32 00000000  SCALE_CTRL_2....
 0270 5343414c 455f4354 524c5f33 00000000  SCALE_CTRL_3....
 0280 5343414c 455f4354 524c5f34 00000000  SCALE_CTRL_4....
 0290 5343414c 455f4354 524c5f35 00000000  SCALE_CTRL_5....
 02a0 5343414c 455f4354 524c5f36 00000000  SCALE_CTRL_6....
 02b0 585f5354 4152545f 48000000 585f5354  X_START_H...X_ST
 02c0 4152545f 4c000000 595f5354 4152545f  ART_L...Y_START_
 02d0 48000000 595f5354 4152545f 4c000000  H...Y_START_L...
 02e0 585f5749 4e444f57 5f480000 585f5749  X_WINDOW_H..X_WI
 02f0 4e444f57 5f4c0000 595f5749 4e444f57  NDOW_L..Y_WINDOW
 0300 5f480000 595f5749 4e444f57 5f4c0000  _H..Y_WINDOW_L..
 0310 56464946 4f5f4354 524c3043 00000000  VFIFO_CTRL0C....
 0320 56464946 4f5f585f 53495a45 5f480000  VFIFO_X_SIZE_H..
 0330 56464946 4f5f585f 53495a45 5f4c0000  VFIFO_X_SIZE_L..
 0340 56464946 4f5f595f 53495a45 5f480000  VFIFO_Y_SIZE_H..
 0350 56464946 4f5f595f 53495a45 5f4c0000  VFIFO_Y_SIZE_L..
 0360 434f4d50 52455353 494f4e5f 4354524c  COMPRESSION_CTRL
 0370 30300000 434f4d50 52455353 494f4e5f  00..COMPRESSION_
 0380 4354524c 30310000 434f4d50 52455353  CTRL01..COMPRESS
 0390 494f4e5f 4354524c 30320000 434f4d50  ION_CTRL02..COMP
 03a0 52455353 494f4e5f 4354524c 30330000  RESSION_CTRL03..
 03b0 434f4d50 52455353 494f4e5f 4354524c  COMPRESSION_CTRL
 03c0 30340000 434f4d50 52455353 494f4e5f  04..COMPRESSION_
 03d0 4354524c 30350000 434f4d50 52455353  CTRL05..COMPRESS
 03e0 494f4e5f 4354524c 30360000 434f4d50  ION_CTRL06..COMP
 03f0 52455353 494f4e5f 4354524c 30370000  RESSION_CTRL07..
 0400 434f4d50 52455353 494f4e5f 4953495f  COMPRESSION_ISI_
 0410 4354524c 00000000 434f4d50 52455353  CTRL....COMPRESS
 0420 494f4e5f 4354524c 30390000 434f4d50  ION_CTRL09..COMP
 0430 52455353 494f4e5f 4354524c 30610000  RESSION_CTRL0a..
 0440 434f4d50 52455353 494f4e5f 4354524c  COMPRESSION_CTRL
 0450 30620000 434f4d50 52455353 494f4e5f  0b..COMPRESSION_
 0460 4354524c 30630000 434f4d50 52455353  CTRL0c..COMPRESS
 0470 494f4e5f 4354524c 30640000 434f4d50  ION_CTRL0d..COMP
 0480 52455353 494f4e5f 4354524c 304500    RESSION_CTRL0E. 
Contents of section .rodata:
 0000 1b000000 1a000000 27000000 26000000  ........'...&...
 0010 15000000 14000000 17000000 16000000  ................
Contents of section .data._ZL16af_firmware_regs:
 0000 020fd602 0a39c201 22220002 0fb2e51f  .....9..""......
 0010 7072f51e d235ffef 25e0244e f8e4f608  pr...5..%.$N....
 0020 f60fbf34 f2900e93 e493ffe5 4bc39f50  ...4........K..P
 0030 047f0580 027ffb78 bda60712 0f044004  .......x......@.
 0040 7f038002 7f3078bc a607e618 f608e678  .....0x........x
 0050 b9f678bc e678baf6 78bf7633 e408f678  ..x..x..x.v3...x
 0060 b8760175 4a0278b6 f608f674 ff78c1f6  .v.uJ.x....t.x..
 0070 08f6751f 0178bce6 75f005a4 f54b120a  ..u..x..u....K..
 0080 ffc23722 78b8e6d3 94004002 1622e51f  ..7"x.....@.."..
 0090 b40523e4 f51fc201 78b6e6fe 08e6ff78  ..#.....x......x
 00a0 4ea60608 a607a237 e433f53c 903028f0  N......7.3.<.0(.
 00b0 751e10d2 3522e54b 75f00584 78bcf690  u...5".Ku...x...
 00c0 0e8ce493 ff25e024 0af8e6fc 08e6fd78  .....%.$.......x
 00d0 bce625e0 244ef8a6 0408a605 ef120f0b  ..%.$N..........
 00e0 d378b796 ee189640 0d78bce6 78b9f678  .x.....@.x..x..x
 00f0 b6a60608 a607900e 8ce49312 0f0bc378  ...............x
 0100 c296ee18 96500d78 bce678ba f678c1a6  .....P.x..x..x..
 0110 0608a607 78b6e6fe 08e6c378 c296ffee  ....x......x....
 0120 189678c3 f608a607 900e95e4 18120ee9  ..x.............
 0130 4002d237 78bce608 2608f6e5 1f640170  @..7x...&....d.p
 0140 4ae6c378 c0120edf 4005120e da403912  J..x....@....@9.
 0150 0f024004 7ffe8002 7f0278bd a60778b9  ..@.......x...x.
 0160 e6240378 bff678b9 e624fd78 c0f6120f  .$.x..x..$.x....
 0170 02400678 c0e6ff80 0478bfe6 ff78bea6  .@.x.....x...x..
 0180 07751f02 78b87601 02024ae5 1f640260  .u..x.v...J..d.`
 0190 0302022a 78bee6ff c378c012 0ee04008  ...*x....x....@.
 01a0 120eda50 03020228 120f0240 047fff80  ...P...(...@....
 01b0 027f0178 bda60778 b9e60478 bff678b9  ...x...x...x..x.
 01c0 e61478c0 f618120f 044004e6 ff80027f  ..x......@......
 01d0 0078bfa6 07d308e6 64809480 4004e6ff  .x......d...@...
 01e0 80027f00 78c0a607 c318e664 8094b350  ....x......d...P
 01f0 04e6ff80 027f3378 bfa607c3 08e66480  ......3x......d.
 0200 94b35004 e6ff8002 7f3378c0 a607120f  ..P......3x.....
 0210 02400678 c0e6ff80 0478bfe6 ff78bea6  .@.x.....x...x..
 0220 07751f03 78b87601 8020e51f 64037026  .u..x.v.. ..d.p&
 0230 78bee6ff c378c012 0ee04005 120eda40  x....x....@....@
 0240 0978b9e6 78bef675 1f0478be e675f005  .x..x..u..x..u..
 0250 a4f54b02 0affe51f b4041090 0e94e478  ..K............x
 0260 c3120ee9 4002d237 751f0522 30010302  ....@..7u.."0...
 0270 04c03002 030204c0 9051a5e0 7893f6a3  ..0......Q..x...
 0280 e008f6a3 e008f6e5 1f703c75 1e20d235  .........p<u. .5
 0290 120c7a78 7ea60608 a607788b a6091876  ..zx~.....x....v
 02a0 01120c5b 784ea606 08a60778 8be6786e  ...[xN.....x..xn
 02b0 f6751f01 7893e678 90f67894 e67891f6  .u..x..x..x..x..
 02c0 7895e678 92f62279 90e7d378 93964005  x..x.."y...x..@.
 02d0 e796ff80 08c37993 e7789096 ff788876  ......y..x...x.v
 02e0 0008a607 7991e7d3 78949640 05e796ff  ....y...x..@....
 02f0 8008c379 94e77891 96ff120c 8e7992e7  ...y..x......y..
 0300 d3789596 4005e796 ff8008c3 7995e778  .x..@.......y..x
 0310 9296ff12 0c8e120c 5b788ae6 25e0244e  ........[x..%.$N
 0320 f8a60608 a607788a e6246ef8 a609788a  ......x..$n...x.
 0330 e62401ff e433fed3 ef940fee 64809480  .$...3......d...
 0340 40047f00 8005788a e604ff78 8aa607e5  @.....x....x....
 0350 1fb4010a e6600302 04c0751f 0222120c  .....`....u.."..
 0360 7a7880a6 0608a607 120c7a78 82a60608  zx........zx....
 0370 a607786e e6788cf6 786ee678 8df67f01  ..xn.x..xn.x....
 0380 ef25e024 4ff9c378 81e69718 e6199750  .%.$O..x.......P
 0390 0a120c82 7880a604 08a60574 6e2ff978  ....x......tn/.x
 03a0 8ce6c397 5008746e 2ff8e678 8cf6ef25  ....P.tn/..x...%
 03b0 e0244ff9 d37883e6 9718e619 97400a12  .$O..x.......@..
 03c0 0c827882 a60408a6 05746e2f f9788de6  ..x......tn/.x..
 03d0 d3974008 746e2ff8 e6788df6 0fef6410  ..@.tn/..x....d.
 03e0 709ec379 81e77883 96ff19e7 18967884  p..y..x.......x.
 03f0 f608a607 c3798ce7 788d9608 f6d37981  .....y..x.....y.
 0400 e7787f96 19e71896 400509e7 088006c3  .x......@.......
 0410 797fe778 8196ff19 e71896fe 7886a606  y..x........x...
 0420 08a60779 8ce7d378 8b964005 e796ff80  ...y...x..@.....
 0430 08c3798b e7788c96 ff788fa6 07e51f64  ..y..x...x.....d
 0440 02706990 0e9193ff 18e6c39f 5072120c  .pi.........Pr..
 0450 4a120c2f 900e8e12 0c387880 120c6b7b  J../.....8x...k{
 0460 04120c1d c3120645 5056900e 92e493ff  .......EPV......
 0470 788fe69f 40028011 900e90e4 93ffd378  x...@..........x
 0480 89e69f18 e6940040 03751f05 120c4a12  .......@.u....J.
 0490 0c2f900e 8f120c38 787e120c 6b7b4012  ./.....8x~..k{@.
 04a0 0c1dd312 06454018 751f0522 e51fb405  .....E@.u.."....
 04b0 0fd201c2 02e4f51f f51ed235 d233d236  ...........5.3.6
 04c0 22ef8df0 a4a8f0cf 8cf0a428 ce8df0a4  "..........(....
 04d0 2efe22bc 000bbe00 29ef8df0 84ffadf0  ..".....).......
 04e0 22e4ccf8 75f008ef 2fffee33 feec33fc  "...u.../..3..3.
 04f0 ee9dec98 4005fcee 9dfe0fd5 f0e9e4ce  ....@...........
 0500 fd22edf8 f5f0ee84 20d21cfe adf075f0  ."...... .....u.
 0510 08ef2fff ed33fd40 07985006 d5f0f222  ../..3.@..P...."
 0520 c398fd0f d5f0ea22 e88ff0a4 cc8bf0a4  ......."........
 0530 2cfce98e f0a42cfc 8af0eda4 2cfcea8e  ,.....,.....,...
 0540 f0a4cda8 f08bf0a4 2dcc3825 f0fde98f  ........-.8%....
 0550 f0a42ccd 35f0fceb 8ef0a4fe a9f0eb8f  ..,.5...........
 0560 f0a4cfc5 f02ecd39 fee43cfc eaa42dce  .......9..<...-.
 0570 35f0fde4 3cfc2275 f0087582 00ef2fff  5...<."u..u.../.
 0580 ee33fecd 33cdcc33 ccc58233 c5829bed  .3..3..3...3....
 0590 9aec99e5 8298400c f582ee9b feed9afd  ......@.........
 05a0 ec99fc0f d5f0d6e4 cefbe4cd fae4ccf9  ................
 05b0 a88222b8 00c1b900 59ba002d ec8bf084  ..".....Y..-....
 05c0 cfcecdfc e5f0cbf9 7818ef2f ffee33fe  ........x../..3.
 05d0 ed33fdec 33fceb33 fb10d703 994004eb  .3..3..3.....@..
 05e0 99fb0fd8 e5e4f9fa 227818ef 2fffee33  ........"x../..3
 05f0 feed33fd ec33fcc9 33c910d7 059be99a  ..3..3..3.......
 0600 4007ec9b fce99af9 0fd8e0e4 c9fae4cc  @...............
 0610 fb2275f0 10ef2fff ee33feed 33fdcc33  ."u.../..3..3..3
 0620 ccc833c8 10d7079b ec9ae899 400aed9b  ..3.........@...
 0630 fdec9afc e899f80f d5f0dae4 cdfbe4cc  ................
 0640 fae4c8f9 22eb9ff5 f0ea9e42 f0e99d42  ...."......B...B
 0650 f0e89c45 f022e860 0fecc313 fced13fd  ...E.".`........
 0660 ee13feef 13ffd8f1 22e8600f efc333ff  ........".`...3.
 0670 ee33feed 33fdec33 fcd8f122 e493fc74  .3..3..3..."...t
 0680 0193fd74 0293fe74 0393ff22 e6fb08e6  ...t...t..."....
 0690 f908e6fa 08e6cbf8 22ecf608 edf608ee  ........".......
 06a0 f608eff6 22a42582 f582e5f0 3583f583  ....".%.....5...
 06b0 22d083d0 82f8e493 70127401 93700da3  ".......p.t..p..
 06c0 a393f874 0193f582 8883e473 74029368  ...t.......st..h
 06d0 60efa3a3 a380df90 38047852 120bfd90  `.......8.xR....
 06e0 3800e0fe a3e0fded ffc3120b 9e903810  8.............8.
 06f0 120b9290 38067854 120bfd90 3802e0fe  ....8.xT....8...
 0700 a3e0fded ffc3120b 9e903812 120b92a3  ..........8.....
 0710 e0b43107 78527952 120c1390 3814e0b4  ..1.xRyR....8...
 0720 71157852 e6fe08e6 7802cec3 13ce13d8  q.xR....x.......
 0730 f97953f7 ee19f790 3815e0b4 31077854  .yS.....8...1.xT
 0740 7954120c 13903815 e0b47115 7854e6fe  yT....8...q.xT..
 0750 08e67802 cec313ce 13d8f979 55f7ee19  ..x........yU...
 0760 f7795212 0bd90912 0bd9af47 120bb2e5  .yR........G....
 0770 44fb7a00 fd7c0012 04d3785a a60608a6  D.z..|....xZ....
 0780 07af4512 0bb2ad03 7c001204 d37856a6  ..E.....|....xV.
 0790 0608a607 af487854 120bb4e5 43fbfd7c  .....HxT....C..|
 07a0 001204d3 785ca606 08a607af 467e0078  ....x\......F~.x
 07b0 54120bb6 ad037c00 1204d378 58a60608  T.....|....xX...
 07c0 a607c378 5be69408 18e69400 50057600  ...x[.......P.v.
 07d0 087608c3 785de694 0818e694 00500576  .v..x].......P.v
 07e0 00087608 785a120b c6ffd378 57e69f18  ..v.xZ.....xW...
 07f0 e69e400e 785ae613 fe08e678 57120c08  ..@.xZ.....xW...
 0800 80047e00 7f00785e 120bbeff d37859e6  ..~...x^.....xY.
 0810 9f18e69e 400e785c e613fe08 e6785912  ....@.x\.....xY.
 0820 0c088004 7e007f00 e4fcfd78 62120699  ....~......xb...
 0830 785a120b c6785726 ffee1836 fe786612  xZ...xW&...6.xf.
 0840 0bbe7859 26ffee18 36fee4fc fd786a12  ..xY&...6....xj.
 0850 0699120b ce786612 068cd312 06454008  .....xf......E@.
 0860 120bce78 66120699 7854120b d0786a12  ...xf...xT...xj.
 0870 068cd312 0645400a 7854120b d0786a12  .....E@.xT...xj.
 0880 06997861 e6906001 f07865e6 a3f07869  ..xa..`..xe...xi
 0890 e6a3f078 55e6a3f0 7d017861 120be924  ...xU...}.xa...$
 08a0 01120ba6 7865120b e9240212 0ba67869  ....xe...$....xi
 08b0 120be924 03120ba6 786d120b e9240412  ...$....xm...$..
 08c0 0ba60dbd 05d4c20e c2062285 08419030  .........."..A.0
 08d0 24e0f53d a3e0f53e a3e0f53f a3e0f540  $..=...>...?...@
 08e0 a3e0f53c d234e541 1206b109 31030935  ...<.4.A....1..5
 08f0 04093b05 093e0609 4107094a 08095b12  ..;..>..A..J..[.
 0900 09731809 8919095e 1a096a1b 09ad8009  .s.....^..j.....
 0910 b2810a1d 8f0a0990 0a1d910a 1d920a1d  ................
 0920 930a1d94 0a1d980a 179f0a1a ec00000a  ................
 0930 38120f74 22120f74 d20322d2 0322c203  8..t"..t..".."..
 0940 22a237e4 33f53c02 0a1dc201 c202c203  ".7.3.<.........
 0950 120d0d75 1e70d235 020a1d02 0a048540  ...u.p.5.......@
 0960 4a853c4b 120aff02 0a1d854a 40854b3c  J.<K.......J@.K<
 0970 020a1de4 f522f523 85403185 3f30853e  .....".#.@1.?0.>
 0980 2f853d2e 120f4680 1f752200 75230174  /.=...F..u".u#.t
 0990 fff52df5 2cf52bf5 2a120f46 852d4085  ..-.,.+.*..F.-@.
 09a0 2c3f852b 3e852a3d e4f53c80 70120f16  ,?.+>.*=..<.p...
 09b0 806b853d 45853e46 e547c313 ffe545c3  .k.=E.>F.G....E.
 09c0 9f50028f 45e548c3 13ffe546 c39f5002  .P..E.H....F..P.
 09d0 8f46e547 c313fffd e5452dfd e433fce5  .F.G.....E-..3..
 09e0 44120f90 4005e544 9ff545e5 48c313ff  D...@..D..E.H...
 09f0 fde5462d fde433fc e543120f 904005e5  ..F-..3..C...@..
 0a00 439ff546 1206d780 14854048 853f4785  C..F......@H.?G.
 0a10 3e46853d 45800602 06d7120d 7e903024  >F.=E.......~.0$
 0a20 e53df0a3 e53ef0a3 e53ff0a3 e540f0a3  .=...>...?...@..
 0a30 e53cf090 3023e4f0 22c0e0c0 83c082c0  .<..0#..".......
 0a40 d0903f0c e0f532e5 3230e374 30366690  ..?...2.20.t06f.
 0a50 6019e0f5 0aa3e0f5 0b90601d e0f514a3  `.........`.....
 0a60 e0f51590 6021e0f5 0ca3e0f5 0d906029  ....`!........`)
 0a70 e0f50ea3 e0f50f90 6031e0f5 10a3e0f5  ........`1......
 0a80 11906039 e0f512a3 e0f51330 01063033  ..`9.......0..03
 0a90 03d38001 c3920930 02063033 03d38001  .......0..03....
 0aa0 c3920a30 330c3003 09200206 200103d3  ...03.0.. .. ...
 0ab0 8001c392 0b903001 e04440f0 e054bff0  ......0..D@..T..
 0ac0 e53230e1 14303411 903022e0 f508e4f0  .20..04..0".....
 0ad0 300003d3 8001c392 08e53230 e5129056  0.........20...V
 0ae0 a1e0f509 30310930 0503d380 01c3920d  ....01.0........
 0af0 903f0ce5 32f0d0d0 d082d083 d0e03290  .?..2.........2.
 0b00 0e7ee493 fe740193 ffc3900e 7c740193  .~...t......|t..
 0b10 9fffe493 9efee48f 3b8e3af5 39f538ab  ........;.:.9.8.
 0b20 3baa3aa9 39a838af 4bfcfdfe 12052812  ;.:.9.8.K.....(.
 0b30 0de1e47b fffaf9f8 1205b312 0de1900e  ...{............
 0b40 69e4120d f6120de1 e4854a37 f536f535  i.........J7.6.5
 0b50 f534af37 ae36ad35 ac34a312 0df68f37  .4.7.6.5.4.....7
 0b60 8e368d35 8c34e53b 4537f53b e53a4536  .6.5.4.;E7.;.:E6
 0b70 f53ae539 4535f539 e5384534 f538e4f5  .:.9E5.9.8E4.8..
 0b80 22f52385 3b31853a 3085392f 85382e02  ".#.;1.:0.9/.8..
 0b90 0f46e0a3 e075f002 a4ffaef0 c308e69f  .F...u..........
 0ba0 f618e69e f622ffe5 f034608f 82f583ec  ....."...4`.....
 0bb0 f0227852 7e00e6fc 08e6fd02 04c1e4fc  ."xR~...........
 0bc0 fd120699 785ce6c3 13fe08e6 13227852  ....x\......."xR
 0bd0 e6fe08e6 ffe4fcfd 22e7c4f8 54f0c868  ........"...T..h
 0be0 f709e7c4 540f48f7 22e6fced 75f004a4  ....T.H."...u...
 0bf0 2212067c 8f488e47 8d468c45 22e0fea3  "..|.H.G.F.E"...
 0c00 e0fdeef6 ed08f622 13ffc3e6 9fff18e6  ......."........
 0c10 9efe22e6 c313f708 e61309f7 22ad39ac  ..".........".9.
 0c20 38faf9f8 1205288f 3b8e3a8d 398c38ab  8.....(.;.:.9.8.
 0c30 37aa36a9 35a83422 93ffe4fc fdfe1205  7.6.5.4"........
 0c40 288f378e 368d358c 34227884 e6fe08e6  (.7.6.5.4"x.....
 0c50 ffe48f37 8e36f535 f5342290 0e8ce493  ...7.6.5.4".....
 0c60 25e0240a f8e6fe08 e6ff22e6 fe08e6ff  %.$.......".....
 0c70 e48f3b8e 3af539f5 3822784e e6fe08e6  ..;.:.9.8"xN....
 0c80 ff22ef25 e0244ef8 e6fc08e6 fd227889  .".%.$N......"x.
 0c90 ef26f618 e436f622 75890375 a80175b8  .&...6."u..u..u.
 0ca0 047534ff 75350e75 36157537 0d120e9a  .u4.u5.u6.u7....
 0cb0 12000912 0f161200 06d200d2 34d2af75  ............4..u
 0cc0 34ff7535 0e753649 75370312 0e9a3008  4.u5.u6Iu7....0.
 0cd0 09c23412 08cbc208 d234300b 09c23612  ..4......40...6.
 0ce0 026cc20b d2363009 09c23612 000ec209  .l...60...6.....
 0cf0 d236300e 031206d7 3035d390 3029e51e  .60.....05..0)..
 0d00 f0b41005 903023e4 f0c23580 c1e4f54b  .....0#...5....K
 0d10 900e7a93 ffe48f37 f536f535 f534af37  ..z....7.6.5.4.7
 0d20 ae36ad35 ac34900e 6a120df6 8f378e36  .6.5.4..j....7.6
 0d30 8d358c34 900e7212 067cef45 37f537ee  .5.4..r..|.E7.7.
 0d40 4536f536 ed4535f5 35ec4534 f534e4f5  E6.6.E5.5.E4.4..
 0d50 22f52385 37318536 3085352f 85342e12  ".#.71.60.5/.4..
 0d60 0f46e4f5 22f52390 0e72120d ea120f46  .F..".#..r.....F
 0d70 e4f522f5 23900e6e 120dea02 0f46e540  ..".#..n.....F.@
 0d80 24f2f537 e53f3443 f536e53e 34a2f535  $..7.?4C.6.>4..5
 0d90 e53d3428 f534e537 ffe4fefd fc781812  .=4(.4.7.....x..
 0da0 06698f40 8e3f8d3e 8c3de537 54a0ffe5  .i.@.?.>.=.7T...
 0db0 36fee4fd fc780712 06567810 120f9ae4  6....x...Vx.....
 0dc0 fffee535 fde4fc78 0e120656 120f9de4  ...5...x...V....
 0dd0 fffefde5 34fc7818 12065678 08120f9a  ....4.x...Vx....
 0de0 228f3b8e 3a8d398c 38221206 7c8f318e  ".;.:.9.8"..|.1.
 0df0 308d2f8c 2e2293f9 f8020669 00000000  0./..".....i....
 0e00 12011708 31155354 44202020 20201301  ....1.STD     ..
 0e10 10015640 1a30297e 00300420 df300540  ..V@.0)~.0. .0.@
 0e20 bf500300 fd502701 fe600011 003f0530  .P...P'..`...?.0
 0e30 003f0622 003f012a 003f0200 00360607  .?.".?.*.?...6..
 0e40 003f0b0f f0000000 00300140 bf300100  .?.......0.@.0..
 0e50 bf302970 003a0000 ff3a0000 ff360336  .0)p.:...:...6.6
 0e60 02414458 2018100a 04040003 ff640000  .ADX ........d..
 0e70 80000000 00000002 04060600 0351007a  .............Q.z
 0e80 503c281e 1010502d 28161010 0200100c  P<(...P-(.......
 0e90 10040c6e 060500a5 5a00ae35 af36e4fd  ...n....Z..5.6..
 0ea0 edc39537 5033120f e2e493f5 38740193  ...7P3......8t..
 0eb0 f5394538 60238539 82853883 e0fc120f  .9E8`#.9..8.....
 0ec0 e2740393 5204120f e2740293 42048539  .t..R....t..B..9
 0ed0 82853883 ecf00d80 c72278be e6d308ff  ..8......"x.....
 0ee0 e66480f8 ef648098 2293ff7e 00e6fc08  .d...d.."..~....
 0ef0 e6fd1204 c178c1e6 fc08e6fd d3ef9dee  .....x..........
 0f00 9c2278bd d3e66480 94802225 e0240af8  ."x...d..."%.$..
 0f10 e6fe08e6 ff22e53c d3940040 0b900e88  .....".<...@....
 0f20 120bf190 0e868009 900e8212 0bf1900e  ................
 0f30 80e493f5 44a3e493 f543d206 300603d3  ....D....C..0...
 0f40 8001c392 0e22a2af 9232c2af e5234522  ....."...2...#E"
 0f50 900e5d60 0e120fcb e0f52c12 0fc8e0f5  ..]`......,.....
 0f60 2d800c12 0fcbe530 f0120fc8 e531f0a2  -......0.....1..
 0f70 3292af22 d201c202 e4f51ff5 1ed235d2  2.."..........5.
 0f80 33d236d2 01c202f5 1ff51ed2 35d23322  3.6.........5.3"
 0f90 fbd3ed9b 7480f86c 98221206 69e5402f  ....t..l."..i.@/
 0fa0 f540e53f 3ef53fe5 3e3df53e e53d3cf5  .@.?>.?.>=.>.=<.
 0fb0 3d22c0e0 c083c082 903f0de0 f533e533  =".......?...3.3
 0fc0 f0d082d0 83d0e032 900e5fe4 93fe7401  .......2.._...t.
 0fd0 93f5828e 8322787f e4f6d8fd 7581cd02  ....."x.....u...
 0fe0 0c988f82 8e8375f0 04ed0206 a5        ......u......   
Contents of section .data._ZL9readout_h:
 0000 9807                                 ..              
Contents of section .data._ZL9readout_w:
 0000 300a                                 0.              
Contents of section .progmem:
 0000 00000000 08300000 10000000 2c300000  .....0......,0..
 0010 24000000 3a300000 34000000 3b300000  $...:0..4...;0..
 0020 44000000 3c300000 54000000 3d300000  D...<0..T...=0..
 0030 64000000 03350000 74000000 00380000  d....5..t....8..
 0040 80000000 01380000 8c000000 02380000  .....8.......8..
 0050 98000000 03380000 a4000000 04380000  .....8.......8..
 0060 b4000000 05380000 c4000000 06380000  .....8.......8..
 0070 d4000000 07380000 e4000000 08380000  .....8.......8..
 0080 f4000000 09380000 04010000 0a380000  .....8.......8..
 0090 14010000 0b380000 24010000 0c380000  .....8..$....8..
 00a0 34010000 0d380000 44010000 0e380000  4....8..D....8..
 00b0 54010000 0f380000 64010000 10380000  T....8..d....8..
 00c0 70010000 11380000 7c010000 12380000  p....8..|....8..
 00d0 88010000 13380000 94010000 14380000  .....8.......8..
 00e0 a0010000 15380000 ac010000 20380000  .....8...... 8..
 00f0 bc010000 21380000 cc010000 24380000  ....!8......$8..
 0100 d8010000 01420000 e8010000 02420000  .....B.......B..
 0110 f8010000 00430000 08020000 40470000  .....C......@G..
 0120 1c020000 01500000 2c020000 1f500000  .....P..,....P..
 0130 38020000 3d500000 50020000 01560000  8...=P..P....V..
 0140 60020000 02560000 70020000 03560000  `....V..p....V..
 0150 80020000 04560000 90020000 05560000  .....V.......V..
 0160 a0020000 06560000 b0020000 80560000  .....V.......V..
 0170 bc020000 81560000 c8020000 82560000  .....V.......V..
 0180 d4020000 83560000 e0020000 84560000  .....V.......V..
 0190 ec020000 85560000 f8020000 86560000  .....V.......V..
 01a0 04030000 87560000 10030000 0c460000  .....V.......F..
 01b0 20030000 02460000 30030000 03460000   ....F..0....F..
 01c0 40030000 04460000 50030000 05460000  @....F..P....F..
 01d0 60030000 00440000 74030000 01440000  `....D..t....D..
 01e0 88030000 02440000 9c030000 03440000  .....D.......D..
 01f0 b0030000 04440000 c4030000 05440000  .....D.......D..
 0200 d8030000 06440000 ec030000 07440000  .....D.......D..
 0210 00040000 08440000 18040000 09440000  .....D.......D..
 0220 2c040000 0a440000 40040000 0b440000  ,....D..@....D..
 0230 54040000 0c440000 68040000 0d440000  T....D..h....D..
 0240 7c040000 0e440000                    |....D..        
Contents of section .rodata._ZL10resolution:
 0000 80020000 e0010000 a0000000 78000000  ............x...
 0010 40010000 f0000000 e0010000 40010000  @...........@...
 0020 40010000 40010000 40010000 f0000000  @...@...@.......
 0030 b0000000 90000000 90010000 28010000  ............(...
 0040 20030000 58020000 40060000 b0040000   ...X...@.......
 0050 60000000 60000000 f0000000 b0000000  `...`...........
 0060 f0000000 f0000000 e0010000 40010000  ............@...
 0070 00040000 00030000 00050000 d0020000  ................
 0080 00050000 00040000 80070000 38040000  ............8...
 0090 d0020000 00050000 60030000 00060000  ........`.......
 00a0 00080000 00060000 000a0000 a0050000  ................
 00b0 000a0000 40060000 40040000 80070000  ....@...@.......
 00c0 000a0000 80070000 00040000 58020000  ............X...
 00d0 00000000 00000000                    ........        
Contents of section .rodata._ZL12default_regs:
 0000 47402040 506e4051 8f300842 31030330  G@ @Pn@Q.0.B1..0
 0010 17ff3018 ff302c03 31080136 302e3632  ..0..0,.1..60.62
 0020 e2363323 3621e037 04a03703 5a371578  .63#6!.7..7.Z7.x
 0030 37170137 0b603705 1a390502 39061039  7..7.`7..9..9..9
 0040 010a3731 12360008 36013330 2d603620  ..71.6..6.30-`6 
 0050 52371b20 471c503a 18003a19 f836351c  R7. G.P:..:..65.
 0060 36344036 22013c04 283c0598 3c06003c  64@6".<.(<..<..<
 0070 07083c08 003c091c 3c0a9c3c 0b403820  ..<..<..<..<.@8 
 0080 47382101 38000038 01003802 00380304  G8!.8..8..8..8..
 0090 38040a38 053f3806 0738079b 38080538  8..8.?8..8..8..8
 00a0 0900380a 03380bc0 38100038 11103812  ..8..8..8..8..8.
 00b0 00381306 38143138 15313034 1a303511  .8..8.18.104.05.
 00c0 30366030 37133038 00303900 380c0738  06`07.08.09.8..8
 00d0 0d68380e 03380fd8 3c01b43c 00043a08  .h8..8..<..<..:.
 00e0 003a0993 3a0e063a 0a003a0b 7b3a0d08  .:..:..:..:.{:..
 00f0 3a00383a 02053a03 c43a1405 3a15c436  :.8:..:..:..:..6
 0100 18003612 29370864 37095237 0c034001  ..6.)7.d7.R7..@.
 0110 02400402 30000030 021c3004 ff3006c3  .@..0..0..0..0..
 0120 300e5830 2e004300 30501f00 47130444  0.X0..C.0P..G..D
 0130 0704460b 35460c22 38240250 01a33406  ..F.5F."8$.P..4.
 0140 01340006 34018034 02043403 00340406  .4..4..4..4..4..
 0150 34050051 80ff5181 f2518200 51831451  4..Q..Q..Q..Q..Q
 0160 84255185 24518616 51871651 88165189  .%Q.$Q..Q..Q..Q.
 0170 62518a62 518bf051 8cb2518d 50518e30  bQ.bQ..Q..Q.PQ.0
 0180 518f3051 90505191 f8519204 51937051  Q.0Q.PQ..Q..Q.pQ
 0190 94f05195 f0519603 51970151 98045199  ..Q..Q..Q..Q..Q.
 01a0 12519a04 519b0051 9c06519d 82519e38  .Q..Q..Q..Q..Q.8
 01b0 53811e53 825b5383 14538406 53858253  S..S.[S..S..S..S
 01c0 86885387 7c538860 53891c53 8a01538b  ..S.|S.`S..S..S.
 01d0 98530008 53013053 023f5303 10530408  .S..S.0S.?S..S..
 01e0 53053053 06185307 28530908 530a3053  S.0S..S.(S..S.0S
 01f0 0b04530c 06548001 54810654 82125483  ..S..T..T..T..T.
 0200 2454844a 54855854 86655487 7254887d  $T.JT.XT.eT.rT.}
 0210 54898854 8a92548b a3548cb2 548dc854  T..T..T..T..T..T
 0220 8edd548f f0549015 55800655 83405584  ..T..T..U..U.@U.
 0230 20558910 558a0055 8bf85000 27580020   U..U..U..P.'X. 
 0240 58011958 02175803 16580418 58052158  X..X..X..X..X.!X
 0250 060f5807 0a580807 58090758 0a0a580b  ..X..X..X..X..X.
 0260 0c580c0a 580d0358 0e01580f 01581003  .X..X..X..X..X..
 0270 58110958 120a5813 03581401 58150158  X..X..X..X..X..X
 0280 16035817 08581810 58190a58 1a06581b  ..X..X..X..X..X.
 0290 06581c08 581d0e58 1e22581f 18582013  .X..X..X."X..X .
 02a0 58211258 22165823 1e582464 58252a58  X!.X".X#.X$dX%*X
 02b0 262c5827 2a582846 58292a58 2a26582b  &,X'*X(FX)*X*&X+
 02c0 24582c26 582d2a58 2e28582f 42583040  $X,&X-*X.(X/BX0@
 02d0 58314258 32085833 28583426 58352458  X1BX2.X3(X4&X5$X
 02e0 36265837 2a583844 58394a58 3a2c583b  6&X7*X8DX9JX:,X;
 02f0 2a583c46 583dce56 88115689 11568a11  *X<FX=.V..V..V..
 0300 568b1156 8c11568d 11568e11 568f1150  V..V..V..V..V..P
 0310 25003a0f 423a1038 3a1b443a 1e363a11  %.:.B:.8:.D:.6:.
 0320 603a1f10 40051a34 06003503 00300802  `:..@..4..5..0..
 0330 3a02073a 03ae3a08 013a0927 3a0a003a  :..:..:..:.':..:
 0340 0bf63a0e 063a0d08 3a14073a 15ae4401  ..:..:..:..:..D.
 0350 0d472303 000000                      .G#....         
Contents of section .rodata._ZL13contrast_regs:
 0000 14181c00 10181c                      .......         
Contents of section .rodata._ZL13wb_modes_regs:
 0000 00040004 00040001 061c0400 04f30106  ................
 0010 48040004 d3010548 040007cf 01041004  H......H........
 0020 000850                               ..P             
Contents of section .rodata._ZL14sharpness_regs:
 0000 00020408 0c101820 14                 ....... .       
Contents of section .rodata._ZL15saturation_regs:
 0000 00001010 20203030 40405050 60607070  ....  00@@PP``pp
 0010 8080                                 ..              
Contents of section .rodata._ZL20special_effects_regs:
 0000 06401008 40084010 1e808008 1e80c008  .@..@.@.........
 0010 1e606008 1ea04008 1e40a008 1ef0f008  .``...@..@......
 0020 06401009                             .@..            
Contents of section .rodata._ZL8hue_regs:
 0000 80003264 4032406f 32008002 406f026f  ..2d@2@o2...@o.o
 0010 40028000 016f4001 406f0100 8031406f  @....o@.@o...1@o
 0020 316f4031                             1o@1            
Contents of section .rodata._ZTV6OV5640:
 0000 00000000 00000000 00000000 00000000  ................
 0010 00000000 00000000 00000000 00000000  ................
 0020 00000000 00000000 00000000 00000000  ................
 0030 00000000 00000000 00000000 00000000  ................
 0040 00000000 00000000 00000000 00000000  ................
 0050 00000000 00000000 00000000 00000000  ................
 0060 00000000 00000000 00000000 00000000  ................
 0070 00000000 00000000 00000000 00000000  ................
 0080 00000000 00000000 00000000 00000000  ................
 0090 00000000 00000000 00000000 00000000  ................
 00a0 00000000 00000000 00000000 00000000  ................
 00b0 00000000 00000000 00000000 00000000  ................
 00c0 00000000 00000000 00000000 00000000  ................
 00d0 00000000 00000000 00000000 00000000  ................
 00e0 00000000 00000000 00000000 00000000  ................
 00f0 00000000 00000000 00000000 00000000  ................
 0100 00000000 00000000 00000000 00000000  ................
 0110 00000000 00000000 00000000 00000000  ................
 0120 00000000 00000000 00000000 00000000  ................
 0130 00000000 00000000 00000000 00000000  ................
 0140 00000000 00000000 00000000 00000000  ................
 0150 00000000 00000000 00000000 00000000  ................
 0160 00000000                             ....            
Contents of section .comment:
 0000 00474343 3a202841 726d2047 4e552054  .GCC: (Arm GNU T
 0010 6f6f6c63 6861696e 2031312e 332e5265  oolchain 11.3.Re
 0020 6c312920 31312e33 2e312032 30323230  l1) 11.3.1 20220
 0030 37313200                             712.            
Contents of section .ARM.attributes:
 0000 41310000 00616561 62690001 27000000  A1...aeabi..'...
 0010 0537452d 4d00060d 074d0902 0a081204  .7E-M....M......
 0020 14011501 17031801 19011a01 1c011e02  ................
 0030 2201                                 ".              

Disassembly of section .text._ZN7TwoWire4readEv:

00000000 <_ZN7TwoWire4readEv>:
   0:	f890 30a2 	ldrb.w	r3, [r0, #162]	; 0xa2
   4:	f890 20a3 	ldrb.w	r2, [r0, #163]	; 0xa3
   8:	429a      	cmp	r2, r3
   a:	d905      	bls.n	18 <_ZN7TwoWire4readEv+0x18>
   c:	1c5a      	adds	r2, r3, #1
   e:	4403      	add	r3, r0
  10:	f880 20a2 	strb.w	r2, [r0, #162]	; 0xa2
  14:	7e98      	ldrb	r0, [r3, #26]
  16:	4770      	bx	lr
  18:	f04f 30ff 	mov.w	r0, #4294967295	; 0xffffffff
  1c:	4770      	bx	lr
  1e:	bf00      	nop

Disassembly of section .text._ZN11ImageSensor5debugEb:

00000000 <_ZN11ImageSensor5debugEb>:
   0:	7201      	strb	r1, [r0, #8]
   2:	4770      	bx	lr

Disassembly of section .text._ZN11ImageSensor5debugEv:

00000000 <_ZN11ImageSensor5debugEv>:
   0:	7a00      	ldrb	r0, [r0, #8]
   2:	4770      	bx	lr

Disassembly of section .text._ZN11ImageSensor12getPixformatEv:

00000000 <_ZN11ImageSensor12getPixformatEv>:
   0:	f890 0064 	ldrb.w	r0, [r0, #100]	; 0x64
   4:	4770      	bx	lr
   6:	bf00      	nop

Disassembly of section .text._ZN11ImageSensor21readFrameReturnBufferEv:

00000000 <_ZN11ImageSensor21readFrameReturnBufferEv>:
   0:	f8d0 00b4 	ldr.w	r0, [r0, #180]	; 0xb4
   4:	4770      	bx	lr
   6:	bf00      	nop

Disassembly of section .text._ZN11ImageSensor18readImageSizeBytesEv:

00000000 <_ZN11ImageSensor18readImageSizeBytesEv>:
   0:	f8d0 00b8 	ldr.w	r0, [r0, #184]	; 0xb8
   4:	4770      	bx	lr
   6:	bf00      	nop

Disassembly of section .text._ZN11ImageSensor6useDMAEb:

00000000 <_ZN11ImageSensor6useDMAEb>:
   0:	7241      	strb	r1, [r0, #9]
   2:	4770      	bx	lr

Disassembly of section .text._ZN11ImageSensor6useDMAEv:

00000000 <_ZN11ImageSensor6useDMAEv>:
   0:	7a40      	ldrb	r0, [r0, #9]
   2:	4770      	bx	lr

Disassembly of section .text._ZN11ImageSensor12data4BitModeEb:

00000000 <_ZN11ImageSensor12data4BitModeEb>:
   0:	7281      	strb	r1, [r0, #10]
   2:	4770      	bx	lr

Disassembly of section .text._ZN11ImageSensor12data4BitModeEv:

00000000 <_ZN11ImageSensor12data4BitModeEv>:
   0:	7a80      	ldrb	r0, [r0, #10]
   2:	4770      	bx	lr

Disassembly of section .text._ZN11ImageSensor16dataPinsReversedEv:

00000000 <_ZN11ImageSensor16dataPinsReversedEv>:
   0:	f890 008e 	ldrb.w	r0, [r0, #142]	; 0x8e
   4:	4770      	bx	lr
   6:	bf00      	nop

Disassembly of section .text._ZN11ImageSensor5widthEv:

00000000 <_ZN11ImageSensor5widthEv>:
   0:	f9b0 0054 	ldrsh.w	r0, [r0, #84]	; 0x54
   4:	4770      	bx	lr
   6:	bf00      	nop

Disassembly of section .text._ZN11ImageSensor6heightEv:

00000000 <_ZN11ImageSensor6heightEv>:
   0:	f9b0 0056 	ldrsh.w	r0, [r0, #86]	; 0x56
   4:	4770      	bx	lr
   6:	bf00      	nop

Disassembly of section .text._ZN11ImageSensor10frameWidthEv:

00000000 <_ZN11ImageSensor10frameWidthEv>:
   0:	f9b0 0058 	ldrsh.w	r0, [r0, #88]	; 0x58
   4:	4770      	bx	lr
   6:	bf00      	nop

Disassembly of section .text._ZN11ImageSensor11frameHeightEv:

00000000 <_ZN11ImageSensor11frameHeightEv>:
   0:	f9b0 005a 	ldrsh.w	r0, [r0, #90]	; 0x5a
   4:	4770      	bx	lr
   6:	bf00      	nop

Disassembly of section .text._ZN11ImageSensor26processFrameStartInterruptEv:

00000000 <_ZN11ImageSensor26processFrameStartInterruptEv>:
   0:	4770      	bx	lr
   2:	bf00      	nop

Disassembly of section .text._ZN11ImageSensor16supports4BitModeEv:

00000000 <_ZN11ImageSensor16supports4BitModeEv>:
   0:	2000      	movs	r0, #0
   2:	4770      	bx	lr

Disassembly of section .text._ZN6OV564017changeFrameBufferEPhS0_:

00000000 <_ZN6OV564017changeFrameBufferEPhS0_>:
   0:	6f03      	ldr	r3, [r0, #112]	; 0x70
   2:	428b      	cmp	r3, r1
   4:	d004      	beq.n	10 <_ZN6OV564017changeFrameBufferEPhS0_+0x10>
   6:	6f83      	ldr	r3, [r0, #120]	; 0x78
   8:	428b      	cmp	r3, r1
   a:	bf08      	it	eq
   c:	6782      	streq	r2, [r0, #120]	; 0x78
   e:	4770      	bx	lr
  10:	6702      	str	r2, [r0, #112]	; 0x70
  12:	4770      	bx	lr

Disassembly of section .text._ZN6OV564010frameCountEv:

00000000 <_ZN6OV564010frameCountEv>:
   0:	f8d0 00e4 	ldr.w	r0, [r0, #228]	; 0xe4
   4:	4770      	bx	lr
   6:	bf00      	nop

Disassembly of section .text._ZN6OV564019setVSyncISRPriorityEh:

00000000 <_ZN6OV564019setVSyncISRPriorityEh>:
   0:	4b01      	ldr	r3, [pc, #4]	; (8 <_ZN6OV564019setVSyncISRPriorityEh+0x8>)
   2:	f883 109d 	strb.w	r1, [r3, #157]	; 0x9d
   6:	4770      	bx	lr
   8:	e000e400 	.word	0xe000e400

Disassembly of section .text._ZN6OV564025setDMACompleteISRPriorityEh:

00000000 <_ZN6OV564025setDMACompleteISRPriorityEh>:
   0:	4b03      	ldr	r3, [pc, #12]	; (10 <_ZN6OV564025setDMACompleteISRPriorityEh+0x10>)
   2:	4a04      	ldr	r2, [pc, #16]	; (14 <_ZN6OV564025setDMACompleteISRPriorityEh+0x14>)
   4:	791b      	ldrb	r3, [r3, #4]
   6:	f003 030f 	and.w	r3, r3, #15
   a:	5499      	strb	r1, [r3, r2]
   c:	4770      	bx	lr
   e:	bf00      	nop
  10:	00000000 	.word	0x00000000
  14:	e000e400 	.word	0xe000e400

Disassembly of section .text._ZN6OV564013setZoomWindowEtttt:

00000000 <_ZN6OV564013setZoomWindowEtttt>:
   0:	2000      	movs	r0, #0
   2:	4770      	bx	lr

Disassembly of section .text._ZN6OV56407setGainEi:

00000000 <_ZN6OV56407setGainEi>:
   0:	4770      	bx	lr
   2:	bf00      	nop

Disassembly of section .text._ZN6OV564012autoExposureEi:

00000000 <_ZN6OV564012autoExposureEi>:
   0:	4770      	bx	lr
   2:	bf00      	nop

Disassembly of section .text._ZN6OV564012readRegisterEh:

00000000 <_ZN6OV564012readRegisterEh>:
   0:	20ff      	movs	r0, #255	; 0xff
   2:	4770      	bx	lr

Disassembly of section .text._ZN6OV564013writeRegisterEhh:

00000000 <_ZN6OV564013writeRegisterEhh>:
   0:	2000      	movs	r0, #0
   2:	4770      	bx	lr

Disassembly of section .text._ZN6OV564011setExposureEi:

00000000 <_ZN6OV564011setExposureEi>:
   0:	4770      	bx	lr
   2:	bf00      	nop

Disassembly of section .text._ZN6OV56405beginE11framesize_tib:

00000000 <_ZN6OV56405beginE11framesize_tib>:
   0:	2000      	movs	r0, #0
   2:	4770      	bx	lr

Disassembly of section .text._ZN6OV56407setModeEhh:

00000000 <_ZN6OV56407setModeEhh>:
   0:	2000      	movs	r0, #0
   2:	4770      	bx	lr

Disassembly of section .text._ZN6OV564012setFramerateEi:

00000000 <_ZN6OV564012setFramerateEi>:
   0:	2000      	movs	r0, #0
   2:	4770      	bx	lr

Disassembly of section .text._ZN6OV564014get_vt_pix_clkEPm:

00000000 <_ZN6OV564014get_vt_pix_clkEPm>:
   0:	2000      	movs	r0, #0
   2:	4770      	bx	lr

Disassembly of section .text._ZN6OV564014getCameraClockEPm:

00000000 <_ZN6OV564014getCameraClockEPm>:
   0:	2000      	movs	r0, #0
   2:	4770      	bx	lr

Disassembly of section .text._ZN6OV56409cmdUpdateEv:

00000000 <_ZN6OV56409cmdUpdateEv>:
   0:	2000      	movs	r0, #0
   2:	4770      	bx	lr

Disassembly of section .text._ZN6OV564012loadSettingsE21camera_reg_settings_t:

00000000 <_ZN6OV564012loadSettingsE21camera_reg_settings_t>:
   0:	2000      	movs	r0, #0
   2:	4770      	bx	lr

Disassembly of section .text._ZN6OV56405getAEEP8ae_cfg_t:

00000000 <_ZN6OV56405getAEEP8ae_cfg_t>:
   0:	2000      	movs	r0, #0
   2:	4770      	bx	lr

Disassembly of section .text._ZN6OV56405calAEEhPhmP8ae_cfg_t:

00000000 <_ZN6OV56405calAEEhPhmP8ae_cfg_t>:
   0:	2000      	movs	r0, #0
   2:	4770      	bx	lr

Disassembly of section .text._ZN6OV56404modeEv:

00000000 <_ZN6OV56404modeEv>:
   0:	2000      	movs	r0, #0
   2:	4770      	bx	lr

Disassembly of section .text._ZN6OV56408autoGainEiff:

00000000 <_ZN6OV56408autoGainEiff>:
   0:	4770      	bx	lr
   2:	bf00      	nop

Disassembly of section .text._ZN6OV564012dmaInterruptEv:

00000000 <_ZN6OV564012dmaInterruptEv>:
   0:	4b02      	ldr	r3, [pc, #8]	; (c <_ZN6OV564012dmaInterruptEv+0xc>)
   2:	6818      	ldr	r0, [r3, #0]
   4:	6803      	ldr	r3, [r0, #0]
   6:	f8d3 3134 	ldr.w	r3, [r3, #308]	; 0x134
   a:	4718      	bx	r3
   c:	00000000 	.word	0x00000000

Disassembly of section .text._ZN6OV5640D2Ev:

00000000 <_ZN6OV5640D1Ev>:
   0:	4770      	bx	lr
   2:	bf00      	nop

Disassembly of section .text._ZN6OV56403endEv:

00000000 <_ZN6OV56403endEv>:
   0:	6803      	ldr	r3, [r0, #0]
   2:	b510      	push	{r4, lr}
   4:	4604      	mov	r4, r0
   6:	f8d3 3148 	ldr.w	r3, [r3, #328]	; 0x148
   a:	4798      	blx	r3
   c:	2100      	movs	r1, #0
   e:	f894 0020 	ldrb.w	r0, [r4, #32]
  12:	f7ff fffe 	bl	0 <pinMode>
  16:	6ea0      	ldr	r0, [r4, #104]	; 0x68
  18:	e8bd 4010 	ldmia.w	sp!, {r4, lr}
  1c:	f7ff bffe 	b.w	0 <_ZN7TwoWire3endEv>

Disassembly of section .text._ZN6OV5640D0Ev:

00000000 <_ZN6OV5640D0Ev>:
   0:	b510      	push	{r4, lr}
   2:	4604      	mov	r4, r0
   4:	f44f 7188 	mov.w	r1, #272	; 0x110
   8:	f7ff fffe 	bl	0 <_ZdlPvj>
   c:	4620      	mov	r0, r4
   e:	bd10      	pop	{r4, pc}

Disassembly of section .text._ZN10DMAChannelD2Ev:

00000000 <_ZN10DMAChannelD1Ev>:
   0:	b510      	push	{r4, lr}
   2:	4604      	mov	r4, r0
   4:	f7ff fffe 	bl	0 <_ZN10DMAChannel7releaseEv>
   8:	4620      	mov	r0, r4
   a:	bd10      	pop	{r4, pc}

Disassembly of section .text._ZN6OV564017startReadFrameDMAEPFbPvEPhS3_:

00000000 <_ZN6OV564017startReadFrameDMAEPFbPvEPhS3_>:
   0:	e92d 47f0 	stmdb	sp!, {r4, r5, r6, r7, r8, r9, sl, lr}
   4:	4604      	mov	r4, r0
   6:	b084      	sub	sp, #16
   8:	460d      	mov	r5, r1
   a:	2a00      	cmp	r2, #0
   c:	f000 812b 	beq.w	266 <_ZN6OV564017startReadFrameDMAEPFbPvEPhS3_+0x266>
  10:	6702      	str	r2, [r0, #112]	; 0x70
  12:	2b00      	cmp	r3, #0
  14:	f000 8115 	beq.w	242 <_ZN6OV564017startReadFrameDMAEPFbPvEPhS3_+0x242>
  18:	67a3      	str	r3, [r4, #120]	; 0x78
  1a:	4a9c      	ldr	r2, [pc, #624]	; (28c <_ZN6OV564017startReadFrameDMAEPFbPvEPhS3_+0x28c>)
  1c:	7a23      	ldrb	r3, [r4, #8]
  1e:	f8c4 50e0 	str.w	r5, [r4, #224]	; 0xe0
  22:	6014      	str	r4, [r2, #0]
  24:	2b00      	cmp	r3, #0
  26:	f040 8105 	bne.w	234 <_ZN6OV564017startReadFrameDMAEPFbPvEPhS3_+0x234>
  2a:	4d99      	ldr	r5, [pc, #612]	; (290 <_ZN6OV564017startReadFrameDMAEPFbPvEPhS3_+0x290>)
  2c:	2100      	movs	r1, #0
  2e:	6f23      	ldr	r3, [r4, #112]	; 0x70
  30:	2600      	movs	r6, #0
  32:	4f98      	ldr	r7, [pc, #608]	; (294 <_ZN6OV564017startReadFrameDMAEPFbPvEPhS3_+0x294>)
  34:	4628      	mov	r0, r5
  36:	f04f 0801 	mov.w	r8, #1
  3a:	e9c4 3340 	strd	r3, r3, [r4, #256]	; 0x100
  3e:	f7ff fffe 	bl	0 <_ZN10DMAChannel5beginEb>
  42:	683b      	ldr	r3, [r7, #0]
  44:	f44f 60a2 	mov.w	r0, #1296	; 0x510
  48:	f8df c298 	ldr.w	ip, [pc, #664]	; 2e4 <_ZN6OV564017startReadFrameDMAEPFbPvEPhS3_+0x2e4>
  4c:	4a92      	ldr	r2, [pc, #584]	; (298 <_ZN6OV564017startReadFrameDMAEPFbPvEPhS3_+0x298>)
  4e:	f04f 0e02 	mov.w	lr, #2
  52:	f8c3 c000 	str.w	ip, [r3]
  56:	611a      	str	r2, [r3, #16]
  58:	83d8      	strh	r0, [r3, #30]
  5a:	82d8      	strh	r0, [r3, #22]
  5c:	8b99      	ldrh	r1, [r3, #28]
  5e:	6c3a      	ldr	r2, [r7, #64]	; 0x40
  60:	f021 0180 	bic.w	r1, r1, #128	; 0x80
  64:	f883 e007 	strb.w	lr, [r3, #7]
  68:	619a      	str	r2, [r3, #24]
  6a:	0409      	lsls	r1, r1, #16
  6c:	f883 e006 	strb.w	lr, [r3, #6]
  70:	809e      	strh	r6, [r3, #4]
  72:	0c09      	lsrs	r1, r1, #16
  74:	60de      	str	r6, [r3, #12]
  76:	8399      	strh	r1, [r3, #28]
  78:	8b99      	ldrh	r1, [r3, #28]
  7a:	b289      	uxth	r1, r1
  7c:	f041 0110 	orr.w	r1, r1, #16
  80:	8399      	strh	r1, [r3, #28]
  82:	8b99      	ldrh	r1, [r3, #28]
  84:	b289      	uxth	r1, r1
  86:	f041 0102 	orr.w	r1, r1, #2
  8a:	8399      	strh	r1, [r3, #28]
  8c:	8b99      	ldrh	r1, [r3, #28]
  8e:	f021 0108 	bic.w	r1, r1, #8
  92:	0409      	lsls	r1, r1, #16
  94:	0c09      	lsrs	r1, r1, #16
  96:	8399      	strh	r1, [r3, #28]
  98:	2104      	movs	r1, #4
  9a:	8299      	strh	r1, [r3, #20]
  9c:	6099      	str	r1, [r3, #8]
  9e:	8291      	strh	r1, [r2, #20]
  a0:	6091      	str	r1, [r2, #8]
  a2:	497e      	ldr	r1, [pc, #504]	; (29c <_ZN6OV564017startReadFrameDMAEPFbPvEPhS3_+0x29c>)
  a4:	f8c2 c000 	str.w	ip, [r2]
  a8:	f882 e007 	strb.w	lr, [r2, #7]
  ac:	6111      	str	r1, [r2, #16]
  ae:	f882 e006 	strb.w	lr, [r2, #6]
  b2:	83d0      	strh	r0, [r2, #30]
  b4:	6193      	str	r3, [r2, #24]
  b6:	82d0      	strh	r0, [r2, #22]
  b8:	8096      	strh	r6, [r2, #4]
  ba:	60d6      	str	r6, [r2, #12]
  bc:	8b91      	ldrh	r1, [r2, #28]
  be:	f021 0180 	bic.w	r1, r1, #128	; 0x80
  c2:	0409      	lsls	r1, r1, #16
  c4:	0c09      	lsrs	r1, r1, #16
  c6:	8391      	strh	r1, [r2, #28]
  c8:	8b91      	ldrh	r1, [r2, #28]
  ca:	b289      	uxth	r1, r1
  cc:	f041 0110 	orr.w	r1, r1, #16
  d0:	8391      	strh	r1, [r2, #28]
  d2:	8b91      	ldrh	r1, [r2, #28]
  d4:	b289      	uxth	r1, r1
  d6:	ea41 010e 	orr.w	r1, r1, lr
  da:	8391      	strh	r1, [r2, #28]
  dc:	8b91      	ldrh	r1, [r2, #28]
  de:	f021 0108 	bic.w	r1, r1, #8
  e2:	0409      	lsls	r1, r1, #16
  e4:	0c09      	lsrs	r1, r1, #16
  e6:	8391      	strh	r1, [r2, #28]
  e8:	4a6d      	ldr	r2, [pc, #436]	; (2a0 <_ZN6OV564017startReadFrameDMAEPFbPvEPhS3_+0x2a0>)
  ea:	6056      	str	r6, [r2, #4]
  ec:	6016      	str	r6, [r2, #0]
  ee:	682a      	ldr	r2, [r5, #0]
  f0:	6898      	ldr	r0, [r3, #8]
  f2:	8b91      	ldrh	r1, [r2, #28]
  f4:	f021 0180 	bic.w	r1, r1, #128	; 0x80
  f8:	0409      	lsls	r1, r1, #16
  fa:	0c09      	lsrs	r1, r1, #16
  fc:	e9d3 ec00 	ldrd	lr, ip, [r3]
 100:	8391      	strh	r1, [r2, #28]
 102:	68d9      	ldr	r1, [r3, #12]
 104:	e9c2 ec00 	strd	lr, ip, [r2]
 108:	e9c2 0102 	strd	r0, r1, [r2, #8]
 10c:	7929      	ldrb	r1, [r5, #4]
 10e:	4865      	ldr	r0, [pc, #404]	; (2a4 <_ZN6OV564017startReadFrameDMAEPFbPvEPhS3_+0x2a4>)
 110:	f001 0c1f 	and.w	ip, r1, #31
 114:	eb00 1051 	add.w	r0, r0, r1, lsr #5
 118:	fa08 fc0c 	lsl.w	ip, r8, ip
 11c:	0080      	lsls	r0, r0, #2
 11e:	e9d3 a904 	ldrd	sl, r9, [r3, #16]
 122:	e9d3 e306 	ldrd	lr, r3, [r3, #24]
 126:	e9c2 a904 	strd	sl, r9, [r2, #16]
 12a:	e9c2 e306 	strd	lr, r3, [r2, #24]
 12e:	f8df 91b8 	ldr.w	r9, [pc, #440]	; 2e8 <_ZN6OV564017startReadFrameDMAEPFbPvEPhS3_+0x2e8>
 132:	b20a      	sxth	r2, r1
 134:	f8df e1b4 	ldr.w	lr, [pc, #436]	; 2ec <_ZN6OV564017startReadFrameDMAEPFbPvEPhS3_+0x2ec>
 138:	3110      	adds	r1, #16
 13a:	4b5b      	ldr	r3, [pc, #364]	; (2a8 <_ZN6OV564017startReadFrameDMAEPFbPvEPhS3_+0x2a8>)
 13c:	f8df a1b0 	ldr.w	sl, [pc, #432]	; 2f0 <_ZN6OV564017startReadFrameDMAEPFbPvEPhS3_+0x2f0>
 140:	f843 9021 	str.w	r9, [r3, r1, lsl #2]
 144:	f8c0 c000 	str.w	ip, [r0]
 148:	200e      	movs	r0, #14
 14a:	f84e 6022 	str.w	r6, [lr, r2, lsl #2]
 14e:	f8df 91a4 	ldr.w	r9, [pc, #420]	; 2f4 <_ZN6OV564017startReadFrameDMAEPFbPvEPhS3_+0x2f4>
 152:	69e3      	ldr	r3, [r4, #28]
 154:	4955      	ldr	r1, [pc, #340]	; (2ac <_ZN6OV564017startReadFrameDMAEPFbPvEPhS3_+0x2ac>)
 156:	eb09 1303 	add.w	r3, r9, r3, lsl #4
 15a:	685b      	ldr	r3, [r3, #4]
 15c:	f84e 1022 	str.w	r1, [lr, r2, lsl #2]
 160:	4a53      	ldr	r2, [pc, #332]	; (2b0 <_ZN6OV564017startReadFrameDMAEPFbPvEPhS3_+0x2b0>)
 162:	6819      	ldr	r1, [r3, #0]
 164:	f8c4 10f0 	str.w	r1, [r4, #240]	; 0xf0
 168:	4631      	mov	r1, r6
 16a:	f8c3 8000 	str.w	r8, [r3]
 16e:	6f13      	ldr	r3, [r2, #112]	; 0x70
 170:	f443 0340 	orr.w	r3, r3, #12582912	; 0xc00000
 174:	6713      	str	r3, [r2, #112]	; 0x70
 176:	f7ff fffe 	bl	0 <xbar_connect>
 17a:	4629      	mov	r1, r5
 17c:	2315      	movs	r3, #21
 17e:	4d4d      	ldr	r5, [pc, #308]	; (2b4 <_ZN6OV564017startReadFrameDMAEPFbPvEPhS3_+0x2b4>)
 180:	4620      	mov	r0, r4
 182:	f8aa 3084 	strh.w	r3, [sl, #132]	; 0x84
 186:	69ab      	ldr	r3, [r5, #24]
 188:	f023 6380 	bic.w	r3, r3, #67108864	; 0x4000000
 18c:	61ab      	str	r3, [r5, #24]
 18e:	4b4a      	ldr	r3, [pc, #296]	; (2b8 <_ZN6OV564017startReadFrameDMAEPFbPvEPhS3_+0x2b8>)
 190:	f8c3 8244 	str.w	r8, [r3, #580]	; 0x244
 194:	6eab      	ldr	r3, [r5, #104]	; 0x68
 196:	f8c4 30ec 	str.w	r3, [r4, #236]	; 0xec
 19a:	6eab      	ldr	r3, [r5, #104]	; 0x68
 19c:	f423 637f 	bic.w	r3, r3, #4080	; 0xff0
 1a0:	66ab      	str	r3, [r5, #104]	; 0x68
 1a2:	6eab      	ldr	r3, [r5, #104]	; 0x68
 1a4:	f8d4 20a0 	ldr.w	r2, [r4, #160]	; 0xa0
 1a8:	ea23 0302 	bic.w	r3, r3, r2
 1ac:	4a43      	ldr	r2, [pc, #268]	; (2bc <_ZN6OV564017startReadFrameDMAEPFbPvEPhS3_+0x2bc>)
 1ae:	66ab      	str	r3, [r5, #104]	; 0x68
 1b0:	f7ff fffe 	bl	0 <_ZN11ImageSensor11dumpDMA_TCDEP12DMABaseClassPKc>
 1b4:	4639      	mov	r1, r7
 1b6:	4a42      	ldr	r2, [pc, #264]	; (2c0 <_ZN6OV564017startReadFrameDMAEPFbPvEPhS3_+0x2c0>)
 1b8:	4620      	mov	r0, r4
 1ba:	f7ff fffe 	bl	0 <_ZN11ImageSensor11dumpDMA_TCDEP12DMABaseClassPKc>
 1be:	f107 0140 	add.w	r1, r7, #64	; 0x40
 1c2:	4a40      	ldr	r2, [pc, #256]	; (2c4 <_ZN6OV564017startReadFrameDMAEPFbPvEPhS3_+0x2c4>)
 1c4:	4620      	mov	r0, r4
 1c6:	f7ff fffe 	bl	0 <_ZN11ImageSensor11dumpDMA_TCDEP12DMABaseClassPKc>
 1ca:	69e2      	ldr	r2, [r4, #28]
 1cc:	493e      	ldr	r1, [pc, #248]	; (2c8 <_ZN6OV564017startReadFrameDMAEPFbPvEPhS3_+0x2c8>)
 1ce:	eb09 1902 	add.w	r9, r9, r2, lsl #4
 1d2:	483e      	ldr	r0, [pc, #248]	; (2cc <_ZN6OV564017startReadFrameDMAEPFbPvEPhS3_+0x2cc>)
 1d4:	e9d9 3701 	ldrd	r3, r7, [r9, #4]
 1d8:	681b      	ldr	r3, [r3, #0]
 1da:	683f      	ldr	r7, [r7, #0]
 1dc:	9700      	str	r7, [sp, #0]
 1de:	f7ff fffe 	bl	0 <_ZN5Print6printfEPKcz>
 1e2:	6eaa      	ldr	r2, [r5, #104]	; 0x68
 1e4:	6eeb      	ldr	r3, [r5, #108]	; 0x6c
 1e6:	6f28      	ldr	r0, [r5, #112]	; 0x70
 1e8:	6f69      	ldr	r1, [r5, #116]	; 0x74
 1ea:	e9cd 0100 	strd	r0, r1, [sp]
 1ee:	4938      	ldr	r1, [pc, #224]	; (2d0 <_ZN6OV564017startReadFrameDMAEPFbPvEPhS3_+0x2d0>)
 1f0:	4836      	ldr	r0, [pc, #216]	; (2cc <_ZN6OV564017startReadFrameDMAEPFbPvEPhS3_+0x2cc>)
 1f2:	f7ff fffe 	bl	0 <_ZN5Print6printfEPKcz>
 1f6:	4b37      	ldr	r3, [pc, #220]	; (2d4 <_ZN6OV564017startReadFrameDMAEPFbPvEPhS3_+0x2d4>)
 1f8:	f04f 4084 	mov.w	r0, #1107296256	; 0x42000000
 1fc:	4936      	ldr	r1, [pc, #216]	; (2d8 <_ZN6OV564017startReadFrameDMAEPFbPvEPhS3_+0x2d8>)
 1fe:	681a      	ldr	r2, [r3, #0]
 200:	689b      	ldr	r3, [r3, #8]
 202:	6805      	ldr	r5, [r0, #0]
 204:	6880      	ldr	r0, [r0, #8]
 206:	e9cd 5000 	strd	r5, r0, [sp]
 20a:	4830      	ldr	r0, [pc, #192]	; (2cc <_ZN6OV564017startReadFrameDMAEPFbPvEPhS3_+0x2cc>)
 20c:	f7ff fffe 	bl	0 <_ZN5Print6printfEPKcz>
 210:	f8ba 2084 	ldrh.w	r2, [sl, #132]	; 0x84
 214:	f8ba 3086 	ldrh.w	r3, [sl, #134]	; 0x86
 218:	b292      	uxth	r2, r2
 21a:	4930      	ldr	r1, [pc, #192]	; (2dc <_ZN6OV564017startReadFrameDMAEPFbPvEPhS3_+0x2dc>)
 21c:	b29b      	uxth	r3, r3
 21e:	482b      	ldr	r0, [pc, #172]	; (2cc <_ZN6OV564017startReadFrameDMAEPFbPvEPhS3_+0x2cc>)
 220:	f7ff fffe 	bl	0 <_ZN5Print6printfEPKcz>
 224:	4640      	mov	r0, r8
 226:	f884 80bc 	strb.w	r8, [r4, #188]	; 0xbc
 22a:	e9c4 6639 	strd	r6, r6, [r4, #228]	; 0xe4
 22e:	b004      	add	sp, #16
 230:	e8bd 87f0 	ldmia.w	sp!, {r4, r5, r6, r7, r8, r9, sl, pc}
 234:	6fa3      	ldr	r3, [r4, #120]	; 0x78
 236:	6f22      	ldr	r2, [r4, #112]	; 0x70
 238:	4929      	ldr	r1, [pc, #164]	; (2e0 <_ZN6OV564017startReadFrameDMAEPFbPvEPhS3_+0x2e0>)
 23a:	4824      	ldr	r0, [pc, #144]	; (2cc <_ZN6OV564017startReadFrameDMAEPFbPvEPhS3_+0x2cc>)
 23c:	f7ff fffe 	bl	0 <_ZN5Print6printfEPKcz>
 240:	e6f3      	b.n	2a <_ZN6OV564017startReadFrameDMAEPFbPvEPhS3_+0x2a>
 242:	6fa3      	ldr	r3, [r4, #120]	; 0x78
 244:	2b00      	cmp	r3, #0
 246:	f47f aee8 	bne.w	1a <_ZN6OV564017startReadFrameDMAEPFbPvEPhS3_+0x1a>
 24a:	f8b4 0054 	ldrh.w	r0, [r4, #84]	; 0x54
 24e:	f8b4 3056 	ldrh.w	r3, [r4, #86]	; 0x56
 252:	fb10 f003 	smulbb	r0, r0, r3
 256:	f7ff fffe 	bl	0 <malloc>
 25a:	67a0      	str	r0, [r4, #120]	; 0x78
 25c:	2800      	cmp	r0, #0
 25e:	f47f aedc 	bne.w	1a <_ZN6OV564017startReadFrameDMAEPFbPvEPhS3_+0x1a>
 262:	2000      	movs	r0, #0
 264:	e7e3      	b.n	22e <_ZN6OV564017startReadFrameDMAEPFbPvEPhS3_+0x22e>
 266:	6f02      	ldr	r2, [r0, #112]	; 0x70
 268:	2a00      	cmp	r2, #0
 26a:	f47f aed2 	bne.w	12 <_ZN6OV564017startReadFrameDMAEPFbPvEPhS3_+0x12>
 26e:	f8b0 0054 	ldrh.w	r0, [r0, #84]	; 0x54
 272:	f8b4 2056 	ldrh.w	r2, [r4, #86]	; 0x56
 276:	9303      	str	r3, [sp, #12]
 278:	fb10 f002 	smulbb	r0, r0, r2
 27c:	f7ff fffe 	bl	0 <malloc>
 280:	9b03      	ldr	r3, [sp, #12]
 282:	6720      	str	r0, [r4, #112]	; 0x70
 284:	2800      	cmp	r0, #0
 286:	f47f aec4 	bne.w	12 <_ZN6OV564017startReadFrameDMAEPFbPvEPhS3_+0x12>
 28a:	e7ea      	b.n	262 <_ZN6OV564017startReadFrameDMAEPFbPvEPhS3_+0x262>
 28c:	00000000 	.word	0x00000000
 290:	00000000 	.word	0x00000000
 294:	00000000 	.word	0x00000000
 298:	00000000 	.word	0x00000000
 29c:	00000000 	.word	0x00000000
 2a0:	401bc000 	.word	0x401bc000
 2a4:	38003840 	.word	0x38003840
 2a8:	00000000 	.word	0x00000000
 2ac:	8000001e 	.word	0x8000001e
 2b0:	400fc000 	.word	0x400fc000
 2b4:	400ac000 	.word	0x400ac000
 2b8:	401f8400 	.word	0x401f8400
 2bc:	00000028 	.word	0x00000028
 2c0:	00000030 	.word	0x00000030
 2c4:	00000038 	.word	0x00000038
 2c8:	00000040 	.word	0x00000040
 2cc:	00000000 	.word	0x00000000
 2d0:	00000068 	.word	0x00000068
 2d4:	401b8000 	.word	0x401b8000
 2d8:	00000090 	.word	0x00000090
 2dc:	000000b0 	.word	0x000000b0
 2e0:	00000000 	.word	0x00000000
 2e4:	401bc008 	.word	0x401bc008
 2e8:	00000000 	.word	0x00000000
 2ec:	400ec000 	.word	0x400ec000
 2f0:	403bc000 	.word	0x403bc000
 2f4:	00000000 	.word	0x00000000

Disassembly of section .text._ZN6OV564022captureFrameStatisticsEv:

00000000 <_ZN6OV564022captureFrameStatisticsEv>:
   0:	e92d 43f8 	stmdb	sp!, {r3, r4, r5, r6, r7, r8, r9, lr}
   4:	4606      	mov	r6, r0
   6:	f640 0248 	movw	r2, #2120	; 0x848
   a:	2100      	movs	r1, #0
   c:	4862      	ldr	r0, [pc, #392]	; (198 <_ZN6OV564022captureFrameStatisticsEv+0x198>)
   e:	f7ff fffe 	bl	0 <memset>
  12:	e9d6 2125 	ldrd	r2, r1, [r6, #148]	; 0x94
  16:	6813      	ldr	r3, [r2, #0]
  18:	420b      	tst	r3, r1
  1a:	d1fc      	bne.n	16 <_ZN6OV564022captureFrameStatisticsEv+0x16>
  1c:	6813      	ldr	r3, [r2, #0]
  1e:	4219      	tst	r1, r3
  20:	f040 80b7 	bne.w	192 <_ZN6OV564022captureFrameStatisticsEv+0x192>
  24:	2301      	movs	r3, #1
  26:	6810      	ldr	r0, [r2, #0]
  28:	1c5c      	adds	r4, r3, #1
  2a:	461f      	mov	r7, r3
  2c:	4201      	tst	r1, r0
  2e:	b2a3      	uxth	r3, r4
  30:	d0f9      	beq.n	26 <_ZN6OV564022captureFrameStatisticsEv+0x26>
  32:	4d59      	ldr	r5, [pc, #356]	; (198 <_ZN6OV564022captureFrameStatisticsEv+0x198>)
  34:	80af      	strh	r7, [r5, #4]
  36:	e9d6 1227 	ldrd	r1, r2, [r6, #156]	; 0x9c
  3a:	680b      	ldr	r3, [r1, #0]
  3c:	4213      	tst	r3, r2
  3e:	d0fc      	beq.n	3a <_ZN6OV564022captureFrameStatisticsEv+0x3a>
  40:	e9d6 2329 	ldrd	r2, r3, [r6, #164]	; 0xa4
  44:	6817      	ldr	r7, [r2, #0]
  46:	401f      	ands	r7, r3
  48:	d1fc      	bne.n	44 <_ZN6OV564022captureFrameStatisticsEv+0x44>
  4a:	f7ff fffe 	bl	0 <micros>
  4e:	f8d6 e094 	ldr.w	lr, [r6, #148]	; 0x94
  52:	4680      	mov	r8, r0
  54:	f8d6 1098 	ldr.w	r1, [r6, #152]	; 0x98
  58:	f8c5 02cc 	str.w	r0, [r5, #716]	; 0x2cc
  5c:	e00e      	b.n	7c <_ZN6OV564022captureFrameStatisticsEv+0x7c>
  5e:	68eb      	ldr	r3, [r5, #12]
  60:	f8d6 20a0 	ldr.w	r2, [r6, #160]	; 0xa0
  64:	3301      	adds	r3, #1
  66:	f8d6 00a8 	ldr.w	r0, [r6, #168]	; 0xa8
  6a:	60eb      	str	r3, [r5, #12]
  6c:	ea42 0400 	orr.w	r4, r2, r0
  70:	f8d6 309c 	ldr.w	r3, [r6, #156]	; 0x9c
  74:	681b      	ldr	r3, [r3, #0]
  76:	401c      	ands	r4, r3
  78:	42a7      	cmp	r7, r4
  7a:	d15b      	bne.n	134 <_ZN6OV564022captureFrameStatisticsEv+0x134>
  7c:	f8de 4000 	ldr.w	r4, [lr]
  80:	400c      	ands	r4, r1
  82:	d1ec      	bne.n	5e <_ZN6OV564022captureFrameStatisticsEv+0x5e>
  84:	f8de 3000 	ldr.w	r3, [lr]
  88:	420b      	tst	r3, r1
  8a:	d10a      	bne.n	a2 <_ZN6OV564022captureFrameStatisticsEv+0xa2>
  8c:	88eb      	ldrh	r3, [r5, #6]
  8e:	3301      	adds	r3, #1
  90:	b29b      	uxth	r3, r3
  92:	f8de 2000 	ldr.w	r2, [lr]
  96:	1c58      	adds	r0, r3, #1
  98:	461e      	mov	r6, r3
  9a:	420a      	tst	r2, r1
  9c:	b283      	uxth	r3, r0
  9e:	d0f8      	beq.n	92 <_ZN6OV564022captureFrameStatisticsEv+0x92>
  a0:	80ee      	strh	r6, [r5, #6]
  a2:	f7ff fffe 	bl	0 <micros>
  a6:	eba0 0208 	sub.w	r2, r0, r8
  aa:	68eb      	ldr	r3, [r5, #12]
  ac:	2600      	movs	r6, #0
  ae:	493b      	ldr	r1, [pc, #236]	; (19c <_ZN6OV564022captureFrameStatisticsEv+0x19c>)
  b0:	4f3b      	ldr	r7, [pc, #236]	; (1a0 <_ZN6OV564022captureFrameStatisticsEv+0x1a0>)
  b2:	483b      	ldr	r0, [pc, #236]	; (1a0 <_ZN6OV564022captureFrameStatisticsEv+0x1a0>)
  b4:	602a      	str	r2, [r5, #0]
  b6:	f7ff fffe 	bl	0 <_ZN5Print6printfEPKcz>
  ba:	88eb      	ldrh	r3, [r5, #6]
  bc:	88aa      	ldrh	r2, [r5, #4]
  be:	4939      	ldr	r1, [pc, #228]	; (1a4 <_ZN6OV564022captureFrameStatisticsEv+0x1a4>)
  c0:	4837      	ldr	r0, [pc, #220]	; (1a0 <_ZN6OV564022captureFrameStatisticsEv+0x1a0>)
  c2:	f7ff fffe 	bl	0 <_ZN5Print6printfEPKcz>
  c6:	f8b5 3844 	ldrh.w	r3, [r5, #2116]	; 0x844
  ca:	892a      	ldrh	r2, [r5, #8]
  cc:	4638      	mov	r0, r7
  ce:	4936      	ldr	r1, [pc, #216]	; (1a8 <_ZN6OV564022captureFrameStatisticsEv+0x1a8>)
  d0:	f8df 80d8 	ldr.w	r8, [pc, #216]	; 1ac <_ZN6OV564022captureFrameStatisticsEv+0x1ac>
  d4:	f8df 90d8 	ldr.w	r9, [pc, #216]	; 1b0 <_ZN6OV564022captureFrameStatisticsEv+0x1b0>
  d8:	f7ff fffe 	bl	0 <_ZN5Print6printfEPKcz>
  dc:	e00a      	b.n	f4 <_ZN6OV564022captureFrameStatisticsEv+0xf4>
  de:	f7ff fffe 	bl	0 <_ZN5Print6printfEPKcz>
  e2:	3401      	adds	r4, #1
  e4:	2105      	movs	r1, #5
  e6:	4648      	mov	r0, r9
  e8:	f7ff fffe 	bl	0 <usb_serial_write>
  ec:	892b      	ldrh	r3, [r5, #8]
  ee:	b2a6      	uxth	r6, r4
  f0:	42b3      	cmp	r3, r6
  f2:	d31a      	bcc.n	12a <_ZN6OV564022captureFrameStatisticsEv+0x12a>
  f4:	b2a2      	uxth	r2, r4
  f6:	4641      	mov	r1, r8
  f8:	4638      	mov	r0, r7
  fa:	4633      	mov	r3, r6
  fc:	eb05 0e82 	add.w	lr, r5, r2, lsl #2
 100:	3208      	adds	r2, #8
 102:	46f4      	mov	ip, lr
 104:	f835 2012 	ldrh.w	r2, [r5, r2, lsl #1]
 108:	2e00      	cmp	r6, #0
 10a:	d0e8      	beq.n	de <_ZN6OV564022captureFrameStatisticsEv+0xde>
 10c:	f8de e2cc 	ldr.w	lr, [lr, #716]	; 0x2cc
 110:	f8dc 32c8 	ldr.w	r3, [ip, #712]	; 0x2c8
 114:	ebae 0303 	sub.w	r3, lr, r3
 118:	f7ff fffe 	bl	0 <_ZN5Print6printfEPKcz>
 11c:	0733      	lsls	r3, r6, #28
 11e:	d0e0      	beq.n	e2 <_ZN6OV564022captureFrameStatisticsEv+0xe2>
 120:	3401      	adds	r4, #1
 122:	892b      	ldrh	r3, [r5, #8]
 124:	b2a6      	uxth	r6, r4
 126:	42b3      	cmp	r3, r6
 128:	d2e4      	bcs.n	f4 <_ZN6OV564022captureFrameStatisticsEv+0xf4>
 12a:	481d      	ldr	r0, [pc, #116]	; (1a0 <_ZN6OV564022captureFrameStatisticsEv+0x1a0>)
 12c:	e8bd 43f8 	ldmia.w	sp!, {r3, r4, r5, r6, r7, r8, r9, lr}
 130:	f7ff bffe 	b.w	0 <_ZN5Print7printlnEv>
 134:	4222      	tst	r2, r4
 136:	d001      	beq.n	13c <_ZN6OV564022captureFrameStatisticsEv+0x13c>
 138:	4217      	tst	r7, r2
 13a:	d015      	beq.n	168 <_ZN6OV564022captureFrameStatisticsEv+0x168>
 13c:	4204      	tst	r4, r0
 13e:	d011      	beq.n	164 <_ZN6OV564022captureFrameStatisticsEv+0x164>
 140:	4207      	tst	r7, r0
 142:	d106      	bne.n	152 <_ZN6OV564022captureFrameStatisticsEv+0x152>
 144:	892b      	ldrh	r3, [r5, #8]
 146:	3308      	adds	r3, #8
 148:	f835 2013 	ldrh.w	r2, [r5, r3, lsl #1]
 14c:	3201      	adds	r2, #1
 14e:	f825 2013 	strh.w	r2, [r5, r3, lsl #1]
 152:	f8d6 30a0 	ldr.w	r3, [r6, #160]	; 0xa0
 156:	421f      	tst	r7, r3
 158:	d104      	bne.n	164 <_ZN6OV564022captureFrameStatisticsEv+0x164>
 15a:	f8b5 3844 	ldrh.w	r3, [r5, #2116]	; 0x844
 15e:	3301      	adds	r3, #1
 160:	f8a5 3844 	strh.w	r3, [r5, #2116]	; 0x844
 164:	4627      	mov	r7, r4
 166:	e789      	b.n	7c <_ZN6OV564022captureFrameStatisticsEv+0x7c>
 168:	f8b5 9008 	ldrh.w	r9, [r5, #8]
 16c:	f109 0901 	add.w	r9, r9, #1
 170:	fa1f f989 	uxth.w	r9, r9
 174:	f8a5 9008 	strh.w	r9, [r5, #8]
 178:	eb05 0989 	add.w	r9, r5, r9, lsl #2
 17c:	f7ff fffe 	bl	0 <micros>
 180:	f8c9 02cc 	str.w	r0, [r9, #716]	; 0x2cc
 184:	f8d6 00a8 	ldr.w	r0, [r6, #168]	; 0xa8
 188:	4204      	tst	r4, r0
 18a:	e9d6 e125 	ldrd	lr, r1, [r6, #148]	; 0x94
 18e:	d0e9      	beq.n	164 <_ZN6OV564022captureFrameStatisticsEv+0x164>
 190:	e7d6      	b.n	140 <_ZN6OV564022captureFrameStatisticsEv+0x140>
 192:	4d01      	ldr	r5, [pc, #4]	; (198 <_ZN6OV564022captureFrameStatisticsEv+0x198>)
 194:	e74f      	b.n	36 <_ZN6OV564022captureFrameStatisticsEv+0x36>
 196:	bf00      	nop
 198:	00000000 	.word	0x00000000
 19c:	00000000 	.word	0x00000000
 1a0:	00000000 	.word	0x00000000
 1a4:	00000038 	.word	0x00000038
 1a8:	0000005c 	.word	0x0000005c
 1ac:	0000008c 	.word	0x0000008c
 1b0:	00000098 	.word	0x00000098

Disassembly of section .text._ZN6OV564017readFrame4BitGPIOEPv:

00000000 <_ZN6OV564017readFrame4BitGPIOEPv>:
   0:	b508      	push	{r3, lr}
   2:	2124      	movs	r1, #36	; 0x24
   4:	4803      	ldr	r0, [pc, #12]	; (14 <_ZN6OV564017readFrame4BitGPIOEPv+0x14>)
   6:	f7ff fffe 	bl	0 <usb_serial_write>
   a:	4803      	ldr	r0, [pc, #12]	; (18 <_ZN6OV564017readFrame4BitGPIOEPv+0x18>)
   c:	e8bd 4008 	ldmia.w	sp!, {r3, lr}
  10:	f7ff bffe 	b.w	0 <_ZN5Print7printlnEv>
  14:	00000000 	.word	0x00000000
  18:	00000000 	.word	0x00000000

Disassembly of section .text._ZN6OV564016stopReadFrameDMAEv:

00000000 <_ZN6OV564016stopReadFrameDMAEv>:
   0:	b570      	push	{r4, r5, r6, lr}
   2:	2302      	movs	r3, #2
   4:	4d27      	ldr	r5, [pc, #156]	; (a4 <_ZN6OV564016stopReadFrameDMAEv+0xa4>)
   6:	b082      	sub	sp, #8
   8:	4604      	mov	r4, r0
   a:	682e      	ldr	r6, [r5, #0]
   c:	f880 30bc 	strb.w	r3, [r0, #188]	; 0xbc
  10:	e003      	b.n	1a <_ZN6OV564016stopReadFrameDMAEv+0x1a>
  12:	f894 30bc 	ldrb.w	r3, [r4, #188]	; 0xbc
  16:	2b02      	cmp	r3, #2
  18:	d104      	bne.n	24 <_ZN6OV564016stopReadFrameDMAEv+0x24>
  1a:	682b      	ldr	r3, [r5, #0]
  1c:	1b9b      	subs	r3, r3, r6
  1e:	f5b3 7f7a 	cmp.w	r3, #1000	; 0x3e8
  22:	d3f6      	bcc.n	12 <_ZN6OV564016stopReadFrameDMAEv+0x12>
  24:	f894 30bc 	ldrb.w	r3, [r4, #188]	; 0xbc
  28:	2b03      	cmp	r3, #3
  2a:	d014      	beq.n	56 <_ZN6OV564016stopReadFrameDMAEv+0x56>
  2c:	2132      	movs	r1, #50	; 0x32
  2e:	481e      	ldr	r0, [pc, #120]	; (a8 <_ZN6OV564016stopReadFrameDMAEv+0xa8>)
  30:	f7ff fffe 	bl	0 <usb_serial_write>
  34:	481d      	ldr	r0, [pc, #116]	; (ac <_ZN6OV564016stopReadFrameDMAEv+0xac>)
  36:	f7ff fffe 	bl	0 <_ZN5Print7printlnEv>
  3a:	f8b4 20fa 	ldrh.w	r2, [r4, #250]	; 0xfa
  3e:	f8b4 30fc 	ldrh.w	r3, [r4, #252]	; 0xfc
  42:	491b      	ldr	r1, [pc, #108]	; (b0 <_ZN6OV564016stopReadFrameDMAEv+0xb0>)
  44:	4819      	ldr	r0, [pc, #100]	; (ac <_ZN6OV564016stopReadFrameDMAEv+0xac>)
  46:	e9cd 3200 	strd	r3, r2, [sp]
  4a:	f8d4 3100 	ldr.w	r3, [r4, #256]	; 0x100
  4e:	f8d4 20f4 	ldr.w	r2, [r4, #244]	; 0xf4
  52:	f7ff fffe 	bl	0 <_ZN5Print6printfEPKcz>
  56:	4620      	mov	r0, r4
  58:	2200      	movs	r2, #0
  5a:	4916      	ldr	r1, [pc, #88]	; (b4 <_ZN6OV564016stopReadFrameDMAEv+0xb4>)
  5c:	f7ff fffe 	bl	0 <_ZN11ImageSensor11dumpDMA_TCDEP12DMABaseClassPKc>
  60:	4620      	mov	r0, r4
  62:	2200      	movs	r2, #0
  64:	4914      	ldr	r1, [pc, #80]	; (b8 <_ZN6OV564016stopReadFrameDMAEv+0xb8>)
  66:	f7ff fffe 	bl	0 <_ZN11ImageSensor11dumpDMA_TCDEP12DMABaseClassPKc>
  6a:	2200      	movs	r2, #0
  6c:	4913      	ldr	r1, [pc, #76]	; (bc <_ZN6OV564016stopReadFrameDMAEv+0xbc>)
  6e:	4620      	mov	r0, r4
  70:	f7ff fffe 	bl	0 <_ZN11ImageSensor11dumpDMA_TCDEP12DMABaseClassPKc>
  74:	480d      	ldr	r0, [pc, #52]	; (ac <_ZN6OV564016stopReadFrameDMAEv+0xac>)
  76:	f7ff fffe 	bl	0 <_ZN5Print7printlnEv>
  7a:	f8d4 20ec 	ldr.w	r2, [r4, #236]	; 0xec
  7e:	4b10      	ldr	r3, [pc, #64]	; (c0 <_ZN6OV564016stopReadFrameDMAEv+0xc0>)
  80:	69e1      	ldr	r1, [r4, #28]
  82:	669a      	str	r2, [r3, #104]	; 0x68
  84:	4b0f      	ldr	r3, [pc, #60]	; (c4 <_ZN6OV564016stopReadFrameDMAEv+0xc4>)
  86:	f8d4 20f0 	ldr.w	r2, [r4, #240]	; 0xf0
  8a:	eb03 1301 	add.w	r3, r3, r1, lsl #4
  8e:	685b      	ldr	r3, [r3, #4]
  90:	601a      	str	r2, [r3, #0]
  92:	6828      	ldr	r0, [r5, #0]
  94:	1b80      	subs	r0, r0, r6
  96:	f5b0 7f7a 	cmp.w	r0, #1000	; 0x3e8
  9a:	bf2c      	ite	cs
  9c:	2000      	movcs	r0, #0
  9e:	2001      	movcc	r0, #1
  a0:	b002      	add	sp, #8
  a2:	bd70      	pop	{r4, r5, r6, pc}
  a4:	00000000 	.word	0x00000000
  a8:	00000000 	.word	0x00000000
  ac:	00000000 	.word	0x00000000
  b0:	00000034 	.word	0x00000034
  b4:	00000000 	.word	0x00000000
  b8:	00000000 	.word	0x00000000
  bc:	00000040 	.word	0x00000040
  c0:	400ac000 	.word	0x400ac000
  c4:	00000000 	.word	0x00000000

Disassembly of section .text._ZN6OV564019processDMAInterruptEv:

00000000 <_ZN6OV564019processDMAInterruptEv>:
   0:	b5f8      	push	{r3, r4, r5, r6, r7, lr}
   2:	4d7f      	ldr	r5, [pc, #508]	; (200 <_ZN6OV564019processDMAInterruptEv+0x200>)
   4:	4b7f      	ldr	r3, [pc, #508]	; (204 <_ZN6OV564019processDMAInterruptEv+0x204>)
   6:	792a      	ldrb	r2, [r5, #4]
   8:	77da      	strb	r2, [r3, #31]
   a:	f3bf 8f4f 	dsb	sy
   e:	f890 30bc 	ldrb.w	r3, [r0, #188]	; 0xbc
  12:	2b03      	cmp	r3, #3
  14:	f000 80e7 	beq.w	1e6 <_ZN6OV564019processDMAInterruptEv+0x1e6>
  18:	f890 3108 	ldrb.w	r3, [r0, #264]	; 0x108
  1c:	4604      	mov	r4, r0
  1e:	4e7a      	ldr	r6, [pc, #488]	; (208 <_ZN6OV564019processDMAInterruptEv+0x208>)
  20:	3301      	adds	r3, #1
  22:	b2db      	uxtb	r3, r3
  24:	f880 3108 	strb.w	r3, [r0, #264]	; 0x108
  28:	07d8      	lsls	r0, r3, #31
  2a:	d54a      	bpl.n	c2 <_ZN6OV564019processDMAInterruptEv+0xc2>
  2c:	6833      	ldr	r3, [r6, #0]
  2e:	4977      	ldr	r1, [pc, #476]	; (20c <_ZN6OV564019processDMAInterruptEv+0x20c>)
  30:	8ad8      	ldrh	r0, [r3, #22]
  32:	b280      	uxth	r0, r0
  34:	2800      	cmp	r0, #0
  36:	f000 80df 	beq.w	1f8 <_ZN6OV564019processDMAInterruptEv+0x1f8>
  3a:	3801      	subs	r0, #1
  3c:	f8d4 30f4 	ldr.w	r3, [r4, #244]	; 0xf4
  40:	f8b4 20fc 	ldrh.w	r2, [r4, #252]	; 0xfc
  44:	f04f 0c00 	mov.w	ip, #0
  48:	b280      	uxth	r0, r0
  4a:	eb01 0080 	add.w	r0, r1, r0, lsl #2
  4e:	3904      	subs	r1, #4
  50:	e028      	b.n	a4 <_ZN6OV564019processDMAInterruptEv+0xa4>
  52:	f9b4 3056 	ldrsh.w	r3, [r4, #86]	; 0x56
  56:	429a      	cmp	r2, r3
  58:	da29      	bge.n	ae <_ZN6OV564019processDMAInterruptEv+0xae>
  5a:	f851 3f04 	ldr.w	r3, [r1, #4]!
  5e:	f8d4 2100 	ldr.w	r2, [r4, #256]	; 0x100
  62:	f3c3 1307 	ubfx	r3, r3, #4, #8
  66:	1c57      	adds	r7, r2, #1
  68:	f8c4 7100 	str.w	r7, [r4, #256]	; 0x100
  6c:	7013      	strb	r3, [r2, #0]
  6e:	f8b4 30fa 	ldrh.w	r3, [r4, #250]	; 0xfa
  72:	f9b4 2054 	ldrsh.w	r2, [r4, #84]	; 0x54
  76:	3301      	adds	r3, #1
  78:	b29b      	uxth	r3, r3
  7a:	4293      	cmp	r3, r2
  7c:	f8a4 30fa 	strh.w	r3, [r4, #250]	; 0xfa
  80:	f8b4 20fc 	ldrh.w	r2, [r4, #252]	; 0xfc
  84:	d105      	bne.n	92 <_ZN6OV564019processDMAInterruptEv+0x92>
  86:	3201      	adds	r2, #1
  88:	f8a4 c0fa 	strh.w	ip, [r4, #250]	; 0xfa
  8c:	b292      	uxth	r2, r2
  8e:	f8a4 20fc 	strh.w	r2, [r4, #252]	; 0xfc
  92:	f8d4 30f4 	ldr.w	r3, [r4, #244]	; 0xf4
  96:	4288      	cmp	r0, r1
  98:	f103 33ff 	add.w	r3, r3, #4294967295	; 0xffffffff
  9c:	f8c4 30f4 	str.w	r3, [r4, #244]	; 0xf4
  a0:	f000 8091 	beq.w	1c6 <_ZN6OV564019processDMAInterruptEv+0x1c6>
  a4:	4617      	mov	r7, r2
  a6:	2b00      	cmp	r3, #0
  a8:	d1d3      	bne.n	52 <_ZN6OV564019processDMAInterruptEv+0x52>
  aa:	f9b4 3056 	ldrsh.w	r3, [r4, #86]	; 0x56
  ae:	429f      	cmp	r7, r3
  b0:	d00c      	beq.n	cc <_ZN6OV564019processDMAInterruptEv+0xcc>
  b2:	f8d4 30f4 	ldr.w	r3, [r4, #244]	; 0xf4
  b6:	b14b      	cbz	r3, cc <_ZN6OV564019processDMAInterruptEv+0xcc>
  b8:	f5b3 6f22 	cmp.w	r3, #2592	; 0xa20
  bc:	f000 8087 	beq.w	1ce <_ZN6OV564019processDMAInterruptEv+0x1ce>
  c0:	bdf8      	pop	{r3, r4, r5, r6, r7, pc}
  c2:	6c33      	ldr	r3, [r6, #64]	; 0x40
  c4:	4952      	ldr	r1, [pc, #328]	; (210 <_ZN6OV564019processDMAInterruptEv+0x210>)
  c6:	8ad8      	ldrh	r0, [r3, #22]
  c8:	b280      	uxth	r0, r0
  ca:	e7b3      	b.n	34 <_ZN6OV564019processDMAInterruptEv+0x34>
  cc:	792a      	ldrb	r2, [r5, #4]
  ce:	4b4d      	ldr	r3, [pc, #308]	; (204 <_ZN6OV564019processDMAInterruptEv+0x204>)
  d0:	769a      	strb	r2, [r3, #26]
  d2:	2200      	movs	r2, #0
  d4:	f8d4 30e4 	ldr.w	r3, [r4, #228]	; 0xe4
  d8:	f8d4 0104 	ldr.w	r0, [r4, #260]	; 0x104
  dc:	3301      	adds	r3, #1
  de:	f8a4 20fc 	strh.w	r2, [r4, #252]	; 0xfc
  e2:	f8c4 00e8 	str.w	r0, [r4, #232]	; 0xe8
  e6:	f8c4 30e4 	str.w	r3, [r4, #228]	; 0xe4
  ea:	f8d4 30e0 	ldr.w	r3, [r4, #224]	; 0xe0
  ee:	2b00      	cmp	r3, #0
  f0:	d055      	beq.n	19e <_ZN6OV564019processDMAInterruptEv+0x19e>
  f2:	4798      	blx	r3
  f4:	2800      	cmp	r0, #0
  f6:	d152      	bne.n	19e <_ZN6OV564019processDMAInterruptEv+0x19e>
  f8:	f894 20bc 	ldrb.w	r2, [r4, #188]	; 0xbc
  fc:	f8d4 3104 	ldr.w	r3, [r4, #260]	; 0x104
 100:	2a02      	cmp	r2, #2
 102:	f8c4 3100 	str.w	r3, [r4, #256]	; 0x100
 106:	d053      	beq.n	1b0 <_ZN6OV564019processDMAInterruptEv+0x1b0>
 108:	f8b4 30fe 	ldrh.w	r3, [r4, #254]	; 0xfe
 10c:	f9b4 2054 	ldrsh.w	r2, [r4, #84]	; 0x54
 110:	441a      	add	r2, r3
 112:	f9b4 3056 	ldrsh.w	r3, [r4, #86]	; 0x56
 116:	fb03 f202 	mul.w	r2, r3, r2
 11a:	2300      	movs	r3, #0
 11c:	f8c4 20f4 	str.w	r2, [r4, #244]	; 0xf4
 120:	f64f 72ff 	movw	r2, #65535	; 0xffff
 124:	f884 3108 	strb.w	r3, [r4, #264]	; 0x108
 128:	f8a4 30fc 	strh.w	r3, [r4, #252]	; 0xfc
 12c:	6833      	ldr	r3, [r6, #0]
 12e:	f8c4 20f8 	str.w	r2, [r4, #248]	; 0xf8
 132:	8bda      	ldrh	r2, [r3, #30]
 134:	0411      	lsls	r1, r2, #16
 136:	d403      	bmi.n	140 <_ZN6OV564019processDMAInterruptEv+0x140>
 138:	f44f 62a2 	mov.w	r2, #1296	; 0x510
 13c:	83da      	strh	r2, [r3, #30]
 13e:	82da      	strh	r2, [r3, #22]
 140:	8b9a      	ldrh	r2, [r3, #28]
 142:	6c30      	ldr	r0, [r6, #64]	; 0x40
 144:	f022 0208 	bic.w	r2, r2, #8
 148:	0412      	lsls	r2, r2, #16
 14a:	0c12      	lsrs	r2, r2, #16
 14c:	839a      	strh	r2, [r3, #28]
 14e:	8bc2      	ldrh	r2, [r0, #30]
 150:	0412      	lsls	r2, r2, #16
 152:	d403      	bmi.n	15c <_ZN6OV564019processDMAInterruptEv+0x15c>
 154:	f44f 62a2 	mov.w	r2, #1296	; 0x510
 158:	83c2      	strh	r2, [r0, #30]
 15a:	82c2      	strh	r2, [r0, #22]
 15c:	8b81      	ldrh	r1, [r0, #28]
 15e:	682a      	ldr	r2, [r5, #0]
 160:	f021 0108 	bic.w	r1, r1, #8
 164:	681e      	ldr	r6, [r3, #0]
 166:	0409      	lsls	r1, r1, #16
 168:	0c09      	lsrs	r1, r1, #16
 16a:	8381      	strh	r1, [r0, #28]
 16c:	8b91      	ldrh	r1, [r2, #28]
 16e:	f021 0180 	bic.w	r1, r1, #128	; 0x80
 172:	0409      	lsls	r1, r1, #16
 174:	0c09      	lsrs	r1, r1, #16
 176:	e9d3 4001 	ldrd	r4, r0, [r3, #4]
 17a:	8391      	strh	r1, [r2, #28]
 17c:	68d9      	ldr	r1, [r3, #12]
 17e:	e9c2 6400 	strd	r6, r4, [r2]
 182:	e9c2 0102 	strd	r0, r1, [r2, #8]
 186:	7929      	ldrb	r1, [r5, #4]
 188:	e9d3 4006 	ldrd	r4, r0, [r3, #24]
 18c:	e9d3 6504 	ldrd	r6, r5, [r3, #16]
 190:	4b1c      	ldr	r3, [pc, #112]	; (204 <_ZN6OV564019processDMAInterruptEv+0x204>)
 192:	e9c2 6504 	strd	r6, r5, [r2, #16]
 196:	e9c2 4006 	strd	r4, r0, [r2, #24]
 19a:	76d9      	strb	r1, [r3, #27]
 19c:	bdf8      	pop	{r3, r4, r5, r6, r7, pc}
 19e:	f894 20bc 	ldrb.w	r2, [r4, #188]	; 0xbc
 1a2:	6fa3      	ldr	r3, [r4, #120]	; 0x78
 1a4:	2a02      	cmp	r2, #2
 1a6:	f8c4 3104 	str.w	r3, [r4, #260]	; 0x104
 1aa:	f8c4 3100 	str.w	r3, [r4, #256]	; 0x100
 1ae:	d1ab      	bne.n	108 <_ZN6OV564019processDMAInterruptEv+0x108>
 1b0:	2125      	movs	r1, #37	; 0x25
 1b2:	4818      	ldr	r0, [pc, #96]	; (214 <_ZN6OV564019processDMAInterruptEv+0x214>)
 1b4:	f7ff fffe 	bl	0 <usb_serial_write>
 1b8:	4817      	ldr	r0, [pc, #92]	; (218 <_ZN6OV564019processDMAInterruptEv+0x218>)
 1ba:	f7ff fffe 	bl	0 <_ZN5Print7printlnEv>
 1be:	2303      	movs	r3, #3
 1c0:	f884 30bc 	strb.w	r3, [r4, #188]	; 0xbc
 1c4:	bdf8      	pop	{r3, r4, r5, r6, r7, pc}
 1c6:	4617      	mov	r7, r2
 1c8:	f9b4 3056 	ldrsh.w	r3, [r4, #86]	; 0x56
 1cc:	e76f      	b.n	ae <_ZN6OV564019processDMAInterruptEv+0xae>
 1ce:	f894 3108 	ldrb.w	r3, [r4, #264]	; 0x108
 1d2:	07db      	lsls	r3, r3, #31
 1d4:	bf4c      	ite	mi
 1d6:	6832      	ldrmi	r2, [r6, #0]
 1d8:	6c32      	ldrpl	r2, [r6, #64]	; 0x40
 1da:	8b93      	ldrh	r3, [r2, #28]
 1dc:	b29b      	uxth	r3, r3
 1de:	f043 0308 	orr.w	r3, r3, #8
 1e2:	8393      	strh	r3, [r2, #28]
 1e4:	bdf8      	pop	{r3, r4, r5, r6, r7, pc}
 1e6:	2132      	movs	r1, #50	; 0x32
 1e8:	480c      	ldr	r0, [pc, #48]	; (21c <_ZN6OV564019processDMAInterruptEv+0x21c>)
 1ea:	f7ff fffe 	bl	0 <usb_serial_write>
 1ee:	480a      	ldr	r0, [pc, #40]	; (218 <_ZN6OV564019processDMAInterruptEv+0x218>)
 1f0:	e8bd 40f8 	ldmia.w	sp!, {r3, r4, r5, r6, r7, lr}
 1f4:	f7ff bffe 	b.w	0 <_ZN5Print7printlnEv>
 1f8:	f8b4 70fc 	ldrh.w	r7, [r4, #252]	; 0xfc
 1fc:	e755      	b.n	aa <_ZN6OV564019processDMAInterruptEv+0xaa>
 1fe:	bf00      	nop
 200:	00000000 	.word	0x00000000
 204:	400e8000 	.word	0x400e8000
 208:	00000000 	.word	0x00000000
 20c:	00000000 	.word	0x00000000
 210:	00000000 	.word	0x00000000
 214:	00000034 	.word	0x00000034
 218:	00000000 	.word	0x00000000
 21c:	00000000 	.word	0x00000000

Disassembly of section .text._ZN6OV5640C2Ev:

00000000 <_ZN6OV5640C1Ev>:
   0:	f240 1301 	movw	r3, #257	; 0x101
   4:	2211      	movs	r2, #17
   6:	2128      	movs	r1, #40	; 0x28
   8:	4684      	mov	ip, r0
   a:	e92d 4ff0 	stmdb	sp!, {r4, r5, r6, r7, r8, r9, sl, fp, lr}
   e:	6083      	str	r3, [r0, #8]
  10:	f44f 63fa 	mov.w	r3, #2000	; 0x7d0
  14:	2400      	movs	r4, #0
  16:	f04f 36ff 	mov.w	r6, #4294967295	; 0xffffffff
  1a:	6103      	str	r3, [r0, #16]
  1c:	2310      	movs	r3, #16
  1e:	f04f 08ff 	mov.w	r8, #255	; 0xff
  22:	4d27      	ldr	r5, [pc, #156]	; (c0 <_ZN6OV5640C1Ev+0xc0>)
  24:	8184      	strh	r4, [r0, #12]
  26:	f100 0e34 	add.w	lr, r0, #52	; 0x34
  2a:	6306      	str	r6, [r0, #48]	; 0x30
  2c:	270c      	movs	r7, #12
  2e:	f04f 0902 	mov.w	r9, #2
  32:	f04f 0b78 	mov.w	fp, #120	; 0x78
  36:	f04f 0a03 	mov.w	sl, #3
  3a:	e9c0 2305 	strd	r2, r3, [r0, #20]
  3e:	2329      	movs	r3, #41	; 0x29
  40:	e9c0 1307 	strd	r1, r3, [r0, #28]
  44:	230e      	movs	r3, #14
  46:	e9c0 680a 	strd	r6, r8, [r0, #40]	; 0x28
  4a:	6243      	str	r3, [r0, #36]	; 0x24
  4c:	cd0f      	ldmia	r5!, {r0, r1, r2, r3}
  4e:	e8ae 000f 	stmia.w	lr!, {r0, r1, r2, r3}
  52:	e895 000f 	ldmia.w	r5, {r0, r1, r2, r3}
  56:	e88e 000f 	stmia.w	lr, {r0, r1, r2, r3}
  5a:	4b1a      	ldr	r3, [pc, #104]	; (c4 <_ZN6OV5640C1Ev+0xc4>)
  5c:	4660      	mov	r0, ip
  5e:	f88c 4060 	strb.w	r4, [ip, #96]	; 0x60
  62:	f8cc 3068 	str.w	r3, [ip, #104]	; 0x68
  66:	4b18      	ldr	r3, [pc, #96]	; (c8 <_ZN6OV5640C1Ev+0xc8>)
  68:	f8cc 4064 	str.w	r4, [ip, #100]	; 0x64
  6c:	f88c 406c 	strb.w	r4, [ip, #108]	; 0x6c
  70:	e9cc 441c 	strd	r4, r4, [ip, #112]	; 0x70
  74:	f88c 40bc 	strb.w	r4, [ip, #188]	; 0xbc
  78:	f88c 6088 	strb.w	r6, [ip, #136]	; 0x88
  7c:	f8ac 808c 	strh.w	r8, [ip, #140]	; 0x8c
  80:	f8cc 3000 	str.w	r3, [ip]
  84:	f8cc 90c8 	str.w	r9, [ip, #200]	; 0xc8
  88:	f88c 408e 	strb.w	r4, [ip, #142]	; 0x8e
  8c:	f8cc 7090 	str.w	r7, [ip, #144]	; 0x90
  90:	f8cc 70c0 	str.w	r7, [ip, #192]	; 0xc0
  94:	f8cc 40ac 	str.w	r4, [ip, #172]	; 0xac
  98:	f88c b0cc 	strb.w	fp, [ip, #204]	; 0xcc
  9c:	f8cc 40d0 	str.w	r4, [ip, #208]	; 0xd0
  a0:	f88c 40d4 	strb.w	r4, [ip, #212]	; 0xd4
  a4:	f8cc 40e0 	str.w	r4, [ip, #224]	; 0xe0
  a8:	f8ac 40fe 	strh.w	r4, [ip, #254]	; 0xfe
  ac:	f8cc 4100 	str.w	r4, [ip, #256]	; 0x100
  b0:	f8cc 410c 	str.w	r4, [ip, #268]	; 0x10c
  b4:	e9cc 441e 	strd	r4, r4, [ip, #120]	; 0x78
  b8:	e9cc a436 	strd	sl, r4, [ip, #216]	; 0xd8
  bc:	e8bd 8ff0 	ldmia.w	sp!, {r4, r5, r6, r7, r8, r9, sl, fp, pc}
  c0:	00000000 	.word	0x00000000
  c4:	00000000 	.word	0x00000000
  c8:	00000008 	.word	0x00000008

Disassembly of section .text._ZN6OV564018cameraReadRegisterEtRh:

00000000 <_ZN6OV564018cameraReadRegisterEtRh>:
   0:	e92d 41f0 	stmdb	sp!, {r4, r5, r6, r7, r8, lr}
   4:	6e83      	ldr	r3, [r0, #104]	; 0x68
   6:	2701      	movs	r7, #1
   8:	2578      	movs	r5, #120	; 0x78
   a:	4604      	mov	r4, r0
   c:	f883 7130 	strb.w	r7, [r3, #304]	; 0x130
  10:	460e      	mov	r6, r1
  12:	f883 50a5 	strb.w	r5, [r3, #165]	; 0xa5
  16:	0a09      	lsrs	r1, r1, #8
  18:	f883 712f 	strb.w	r7, [r3, #303]	; 0x12f
  1c:	4690      	mov	r8, r2
  1e:	6e80      	ldr	r0, [r0, #104]	; 0x68
  20:	6803      	ldr	r3, [r0, #0]
  22:	681b      	ldr	r3, [r3, #0]
  24:	4798      	blx	r3
  26:	6ea0      	ldr	r0, [r4, #104]	; 0x68
  28:	b2f1      	uxtb	r1, r6
  2a:	6803      	ldr	r3, [r0, #0]
  2c:	681b      	ldr	r3, [r3, #0]
  2e:	4798      	blx	r3
  30:	2100      	movs	r1, #0
  32:	6ea0      	ldr	r0, [r4, #104]	; 0x68
  34:	f7ff fffe 	bl	0 <_ZN7TwoWire15endTransmissionEh>
  38:	b120      	cbz	r0, 44 <_ZN6OV564018cameraReadRegisterEtRh+0x44>
  3a:	7a25      	ldrb	r5, [r4, #8]
  3c:	bb1d      	cbnz	r5, 86 <_ZN6OV564018cameraReadRegisterEtRh+0x86>
  3e:	4628      	mov	r0, r5
  40:	e8bd 81f0 	ldmia.w	sp!, {r4, r5, r6, r7, r8, pc}
  44:	4605      	mov	r5, r0
  46:	463b      	mov	r3, r7
  48:	463a      	mov	r2, r7
  4a:	213c      	movs	r1, #60	; 0x3c
  4c:	6ea0      	ldr	r0, [r4, #104]	; 0x68
  4e:	f7ff fffe 	bl	0 <_ZN7TwoWire11requestFromEhhh>
  52:	b390      	cbz	r0, ba <_ZN6OV564018cameraReadRegisterEtRh+0xba>
  54:	6ea3      	ldr	r3, [r4, #104]	; 0x68
  56:	4920      	ldr	r1, [pc, #128]	; (d8 <_ZN6OV564018cameraReadRegisterEtRh+0xd8>)
  58:	681a      	ldr	r2, [r3, #0]
  5a:	6952      	ldr	r2, [r2, #20]
  5c:	428a      	cmp	r2, r1
  5e:	d122      	bne.n	a6 <_ZN6OV564018cameraReadRegisterEtRh+0xa6>
  60:	f893 20a2 	ldrb.w	r2, [r3, #162]	; 0xa2
  64:	4638      	mov	r0, r7
  66:	f893 10a3 	ldrb.w	r1, [r3, #163]	; 0xa3
  6a:	4291      	cmp	r1, r2
  6c:	d92d      	bls.n	ca <_ZN6OV564018cameraReadRegisterEtRh+0xca>
  6e:	1c51      	adds	r1, r2, #1
  70:	f883 10a2 	strb.w	r1, [r3, #162]	; 0xa2
  74:	4413      	add	r3, r2
  76:	7e9c      	ldrb	r4, [r3, #26]
  78:	f7ff fffe 	bl	0 <delay>
  7c:	4628      	mov	r0, r5
  7e:	f888 4000 	strb.w	r4, [r8]
  82:	e8bd 81f0 	ldmia.w	sp!, {r4, r5, r6, r7, r8, pc}
  86:	211d      	movs	r1, #29
  88:	4814      	ldr	r0, [pc, #80]	; (dc <_ZN6OV564018cameraReadRegisterEtRh+0xdc>)
  8a:	f7ff fffe 	bl	0 <usb_serial_write>
  8e:	2500      	movs	r5, #0
  90:	4813      	ldr	r0, [pc, #76]	; (e0 <_ZN6OV564018cameraReadRegisterEtRh+0xe0>)
  92:	f7ff fffe 	bl	0 <_ZN5Print7printlnEv>
  96:	4632      	mov	r2, r6
  98:	4912      	ldr	r1, [pc, #72]	; (e4 <_ZN6OV564018cameraReadRegisterEtRh+0xe4>)
  9a:	4811      	ldr	r0, [pc, #68]	; (e0 <_ZN6OV564018cameraReadRegisterEtRh+0xe0>)
  9c:	f7ff fffe 	bl	0 <_ZN5Print6printfEPKcz>
  a0:	4628      	mov	r0, r5
  a2:	e8bd 81f0 	ldmia.w	sp!, {r4, r5, r6, r7, r8, pc}
  a6:	4618      	mov	r0, r3
  a8:	4790      	blx	r2
  aa:	4604      	mov	r4, r0
  ac:	4638      	mov	r0, r7
  ae:	f7ff fffe 	bl	0 <delay>
  b2:	2c00      	cmp	r4, #0
  b4:	da0d      	bge.n	d2 <_ZN6OV564018cameraReadRegisterEtRh+0xd2>
  b6:	463d      	mov	r5, r7
  b8:	e7c1      	b.n	3e <_ZN6OV564018cameraReadRegisterEtRh+0x3e>
  ba:	211a      	movs	r1, #26
  bc:	480a      	ldr	r0, [pc, #40]	; (e8 <_ZN6OV564018cameraReadRegisterEtRh+0xe8>)
  be:	f7ff fffe 	bl	0 <usb_serial_write>
  c2:	4807      	ldr	r0, [pc, #28]	; (e0 <_ZN6OV564018cameraReadRegisterEtRh+0xe0>)
  c4:	f7ff fffe 	bl	0 <_ZN5Print7printlnEv>
  c8:	e7b9      	b.n	3e <_ZN6OV564018cameraReadRegisterEtRh+0x3e>
  ca:	463d      	mov	r5, r7
  cc:	f7ff fffe 	bl	0 <delay>
  d0:	e7b5      	b.n	3e <_ZN6OV564018cameraReadRegisterEtRh+0x3e>
  d2:	b2e4      	uxtb	r4, r4
  d4:	e7d2      	b.n	7c <_ZN6OV564018cameraReadRegisterEtRh+0x7c>
  d6:	bf00      	nop
  d8:	00000000 	.word	0x00000000
  dc:	00000000 	.word	0x00000000
  e0:	00000000 	.word	0x00000000
  e4:	00000020 	.word	0x00000020
  e8:	00000034 	.word	0x00000034

Disassembly of section .text._ZN6OV564010getModelidEv:

00000000 <_ZN6OV564010getModelidEv>:
   0:	b570      	push	{r4, r5, r6, lr}
   2:	2300      	movs	r3, #0
   4:	b082      	sub	sp, #8
   6:	4e13      	ldr	r6, [pc, #76]	; (54 <_ZN6OV564010getModelidEv+0x54>)
   8:	4605      	mov	r5, r0
   a:	2112      	movs	r1, #18
   c:	4812      	ldr	r0, [pc, #72]	; (58 <_ZN6OV564010getModelidEv+0x58>)
   e:	f88d 3007 	strb.w	r3, [sp, #7]
  12:	f7ff fffe 	bl	0 <usb_serial_write>
  16:	4630      	mov	r0, r6
  18:	f7ff fffe 	bl	0 <_ZN5Print7printlnEv>
  1c:	f10d 0207 	add.w	r2, sp, #7
  20:	f243 010a 	movw	r1, #12298	; 0x300a
  24:	4628      	mov	r0, r5
  26:	f7ff fffe 	bl	0 <_ZN6OV564010getModelidEv>
  2a:	f89d 4007 	ldrb.w	r4, [sp, #7]
  2e:	f10d 0207 	add.w	r2, sp, #7
  32:	f243 010b 	movw	r1, #12299	; 0x300b
  36:	4628      	mov	r0, r5
  38:	0224      	lsls	r4, r4, #8
  3a:	f7ff fffe 	bl	0 <_ZN6OV564010getModelidEv>
  3e:	f89d 3007 	ldrb.w	r3, [sp, #7]
  42:	4906      	ldr	r1, [pc, #24]	; (5c <_ZN6OV564010getModelidEv+0x5c>)
  44:	4630      	mov	r0, r6
  46:	431c      	orrs	r4, r3
  48:	4622      	mov	r2, r4
  4a:	f7ff fffe 	bl	0 <_ZN5Print6printfEPKcz>
  4e:	4620      	mov	r0, r4
  50:	b002      	add	sp, #8
  52:	bd70      	pop	{r4, r5, r6, pc}
  54:	00000000 	.word	0x00000000
  58:	00000000 	.word	0x00000000
  5c:	00000014 	.word	0x00000014

Disassembly of section .text._ZN6OV564010getGain_dbEPf:

00000000 <_ZN6OV564010getGain_dbEPf>:
   0:	b570      	push	{r4, r5, r6, lr}
   2:	b082      	sub	sp, #8
   4:	2300      	movs	r3, #0
   6:	4606      	mov	r6, r0
   8:	460d      	mov	r5, r1
   a:	f10d 0206 	add.w	r2, sp, #6
   e:	f243 510a 	movw	r1, #13578	; 0x350a
  12:	f88d 3006 	strb.w	r3, [sp, #6]
  16:	f88d 3007 	strb.w	r3, [sp, #7]
  1a:	f7ff fffe 	bl	0 <_ZN6OV564010getGain_dbEPf>
  1e:	f10d 0207 	add.w	r2, sp, #7
  22:	4604      	mov	r4, r0
  24:	f243 510b 	movw	r1, #13579	; 0x350b
  28:	4630      	mov	r0, r6
  2a:	f7ff fffe 	bl	0 <_ZN6OV564010getGain_dbEPf>
  2e:	f89d 3006 	ldrb.w	r3, [sp, #6]
  32:	f89d 2007 	ldrb.w	r2, [sp, #7]
  36:	4606      	mov	r6, r0
  38:	021b      	lsls	r3, r3, #8
  3a:	f403 7340 	and.w	r3, r3, #768	; 0x300
  3e:	4313      	orrs	r3, r2
  40:	ee00 3a10 	vmov	s0, r3
  44:	eeba 0ace 	vcvt.f32.s32	s0, s0, #4
  48:	f7ff fffe 	bl	0 <log10f>
  4c:	eef3 7a04 	vmov.f32	s15, #52	; 0x41a00000  20.0
  50:	ea44 0006 	orr.w	r0, r4, r6
  54:	ee20 0a27 	vmul.f32	s0, s0, s15
  58:	b2c0      	uxtb	r0, r0
  5a:	ed85 0a00 	vstr	s0, [r5]
  5e:	b002      	add	sp, #8
  60:	bd70      	pop	{r4, r5, r6, pc}
  62:	bf00      	nop

Disassembly of section .text._ZN6OV564013showRegistersEv:

00000000 <_ZN6OV564013showRegistersEv>:
   0:	e92d 43f0 	stmdb	sp!, {r4, r5, r6, r7, r8, r9, lr}
   4:	2300      	movs	r3, #0
   6:	b087      	sub	sp, #28
   8:	2119      	movs	r1, #25
   a:	4606      	mov	r6, r0
   c:	4817      	ldr	r0, [pc, #92]	; (6c <_ZN6OV564013showRegistersEv+0x6c>)
   e:	f88d 3017 	strb.w	r3, [sp, #23]
  12:	f7ff fffe 	bl	0 <usb_serial_write>
  16:	4c16      	ldr	r4, [pc, #88]	; (70 <_ZN6OV564013showRegistersEv+0x70>)
  18:	f243 0308 	movw	r3, #12296	; 0x3008
  1c:	4815      	ldr	r0, [pc, #84]	; (74 <_ZN6OV564013showRegistersEv+0x74>)
  1e:	9303      	str	r3, [sp, #12]
  20:	f504 7912 	add.w	r9, r4, #584	; 0x248
  24:	f7ff fffe 	bl	0 <_ZN5Print7printlnEv>
  28:	f8df 804c 	ldr.w	r8, [pc, #76]	; 78 <_ZN6OV564013showRegistersEv+0x78>
  2c:	4f11      	ldr	r7, [pc, #68]	; (74 <_ZN6OV564013showRegistersEv+0x74>)
  2e:	9b03      	ldr	r3, [sp, #12]
  30:	e001      	b.n	36 <_ZN6OV564013showRegistersEv+0x36>
  32:	f834 3c08 	ldrh.w	r3, [r4, #-8]
  36:	4619      	mov	r1, r3
  38:	f10d 0217 	add.w	r2, sp, #23
  3c:	4630      	mov	r0, r6
  3e:	3408      	adds	r4, #8
  40:	9303      	str	r3, [sp, #12]
  42:	f7ff fffe 	bl	0 <_ZN6OV564013showRegistersEv>
  46:	f89d 5017 	ldrb.w	r5, [sp, #23]
  4a:	4641      	mov	r1, r8
  4c:	f854 2c14 	ldr.w	r2, [r4, #-20]
  50:	4638      	mov	r0, r7
  52:	9b03      	ldr	r3, [sp, #12]
  54:	e9cd 5500 	strd	r5, r5, [sp]
  58:	f7ff fffe 	bl	0 <_ZN5Print6printfEPKcz>
  5c:	454c      	cmp	r4, r9
  5e:	d1e8      	bne.n	32 <_ZN6OV564013showRegistersEv+0x32>
  60:	4804      	ldr	r0, [pc, #16]	; (74 <_ZN6OV564013showRegistersEv+0x74>)
  62:	b007      	add	sp, #28
  64:	e8bd 43f0 	ldmia.w	sp!, {r4, r5, r6, r7, r8, r9, lr}
  68:	f7ff bffe 	b.w	0 <_ZN5Print7printlnEv>
  6c:	00000000 	.word	0x00000000
  70:	0000000c 	.word	0x0000000c
  74:	00000000 	.word	0x00000000
  78:	0000001c 	.word	0x0000001c

Disassembly of section .text._ZN6OV564019cameraWriteRegisterEth:

00000000 <_ZN6OV564019cameraWriteRegisterEth>:
   0:	b5f8      	push	{r3, r4, r5, r6, r7, lr}
   2:	6e83      	ldr	r3, [r0, #104]	; 0x68
   4:	2601      	movs	r6, #1
   6:	2778      	movs	r7, #120	; 0x78
   8:	4604      	mov	r4, r0
   a:	f883 6130 	strb.w	r6, [r3, #304]	; 0x130
   e:	460d      	mov	r5, r1
  10:	f883 70a5 	strb.w	r7, [r3, #165]	; 0xa5
  14:	0a09      	lsrs	r1, r1, #8
  16:	f883 612f 	strb.w	r6, [r3, #303]	; 0x12f
  1a:	4617      	mov	r7, r2
  1c:	6e80      	ldr	r0, [r0, #104]	; 0x68
  1e:	6803      	ldr	r3, [r0, #0]
  20:	681b      	ldr	r3, [r3, #0]
  22:	4798      	blx	r3
  24:	6ea0      	ldr	r0, [r4, #104]	; 0x68
  26:	b2e9      	uxtb	r1, r5
  28:	6803      	ldr	r3, [r0, #0]
  2a:	681b      	ldr	r3, [r3, #0]
  2c:	4798      	blx	r3
  2e:	6ea0      	ldr	r0, [r4, #104]	; 0x68
  30:	4639      	mov	r1, r7
  32:	6803      	ldr	r3, [r0, #0]
  34:	681b      	ldr	r3, [r3, #0]
  36:	4798      	blx	r3
  38:	4631      	mov	r1, r6
  3a:	6ea0      	ldr	r0, [r4, #104]	; 0x68
  3c:	f7ff fffe 	bl	0 <_ZN7TwoWire15endTransmissionEh>
  40:	b900      	cbnz	r0, 44 <_ZN6OV564019cameraWriteRegisterEth+0x44>
  42:	bdf8      	pop	{r3, r4, r5, r6, r7, pc}
  44:	7a23      	ldrb	r3, [r4, #8]
  46:	b90b      	cbnz	r3, 4c <_ZN6OV564019cameraWriteRegisterEth+0x4c>
  48:	4630      	mov	r0, r6
  4a:	bdf8      	pop	{r3, r4, r5, r6, r7, pc}
  4c:	2117      	movs	r1, #23
  4e:	4804      	ldr	r0, [pc, #16]	; (60 <_ZN6OV564019cameraWriteRegisterEth+0x60>)
  50:	f7ff fffe 	bl	0 <usb_serial_write>
  54:	4803      	ldr	r0, [pc, #12]	; (64 <_ZN6OV564019cameraWriteRegisterEth+0x64>)
  56:	f7ff fffe 	bl	0 <_ZN5Print7printlnEv>
  5a:	4630      	mov	r0, r6
  5c:	bdf8      	pop	{r3, r4, r5, r6, r7, pc}
  5e:	bf00      	nop
  60:	00000000 	.word	0x00000000
  64:	00000000 	.word	0x00000000

Disassembly of section .text._ZN6OV564011setContrastEi:

00000000 <_ZN6OV564011setContrastEi>:
   0:	b570      	push	{r4, r5, r6, lr}
   2:	1cce      	adds	r6, r1, #3
   4:	4605      	mov	r5, r0
   6:	2e06      	cmp	r6, #6
   8:	d824      	bhi.n	54 <_ZN6OV564011setContrastEi+0x54>
   a:	f101 0408 	add.w	r4, r1, #8
   e:	00a4      	lsls	r4, r4, #2
  10:	b2e4      	uxtb	r4, r4
  12:	f243 2112 	movw	r1, #12818	; 0x3212
  16:	2203      	movs	r2, #3
  18:	4628      	mov	r0, r5
  1a:	f7ff fffe 	bl	0 <_ZN6OV564011setContrastEi>
  1e:	4622      	mov	r2, r4
  20:	f245 5186 	movw	r1, #21894	; 0x5586
  24:	4628      	mov	r0, r5
  26:	f7ff fffe 	bl	0 <_ZN6OV564011setContrastEi>
  2a:	4b0c      	ldr	r3, [pc, #48]	; (5c <_ZN6OV564011setContrastEi+0x5c>)
  2c:	f245 5185 	movw	r1, #21893	; 0x5585
  30:	4628      	mov	r0, r5
  32:	5d9a      	ldrb	r2, [r3, r6]
  34:	f7ff fffe 	bl	0 <_ZN6OV564011setContrastEi>
  38:	2213      	movs	r2, #19
  3a:	f243 2112 	movw	r1, #12818	; 0x3212
  3e:	4628      	mov	r0, r5
  40:	f7ff fffe 	bl	0 <_ZN6OV564011setContrastEi>
  44:	4628      	mov	r0, r5
  46:	22a3      	movs	r2, #163	; 0xa3
  48:	f243 2112 	movw	r1, #12818	; 0x3212
  4c:	e8bd 4070 	ldmia.w	sp!, {r4, r5, r6, lr}
  50:	f7ff bffe 	b.w	0 <_ZN6OV564011setContrastEi>
  54:	2420      	movs	r4, #32
  56:	2603      	movs	r6, #3
  58:	e7db      	b.n	12 <_ZN6OV564011setContrastEi+0x12>
  5a:	bf00      	nop
  5c:	00000000 	.word	0x00000000

Disassembly of section .text._ZN6OV564013setBrightnessEi:

00000000 <_ZN6OV564013setBrightnessEi>:
   0:	3104      	adds	r1, #4
   2:	2908      	cmp	r1, #8
   4:	b570      	push	{r4, r5, r6, lr}
   6:	4605      	mov	r5, r0
   8:	d829      	bhi.n	5e <_ZN6OV564013setBrightnessEi+0x5e>
   a:	0109      	lsls	r1, r1, #4
   c:	b2ce      	uxtb	r6, r1
   e:	2203      	movs	r2, #3
  10:	f243 2112 	movw	r1, #12818	; 0x3212
  14:	4628      	mov	r0, r5
  16:	f7ff fffe 	bl	0 <_ZN6OV564013setBrightnessEi>
  1a:	4604      	mov	r4, r0
  1c:	4632      	mov	r2, r6
  1e:	f245 5187 	movw	r1, #21895	; 0x5587
  22:	4628      	mov	r0, r5
  24:	f7ff fffe 	bl	0 <_ZN6OV564013setBrightnessEi>
  28:	4304      	orrs	r4, r0
  2a:	2201      	movs	r2, #1
  2c:	f245 5188 	movw	r1, #21896	; 0x5588
  30:	b2e4      	uxtb	r4, r4
  32:	4628      	mov	r0, r5
  34:	f7ff fffe 	bl	0 <_ZN6OV564013setBrightnessEi>
  38:	2213      	movs	r2, #19
  3a:	4304      	orrs	r4, r0
  3c:	f243 2112 	movw	r1, #12818	; 0x3212
  40:	4628      	mov	r0, r5
  42:	b2e4      	uxtb	r4, r4
  44:	f7ff fffe 	bl	0 <_ZN6OV564013setBrightnessEi>
  48:	22a3      	movs	r2, #163	; 0xa3
  4a:	4304      	orrs	r4, r0
  4c:	f243 2112 	movw	r1, #12818	; 0x3212
  50:	4628      	mov	r0, r5
  52:	b2e4      	uxtb	r4, r4
  54:	f7ff fffe 	bl	0 <_ZN6OV564013setBrightnessEi>
  58:	4320      	orrs	r0, r4
  5a:	b2c0      	uxtb	r0, r0
  5c:	bd70      	pop	{r4, r5, r6, pc}
  5e:	2650      	movs	r6, #80	; 0x50
  60:	e7d5      	b.n	e <_ZN6OV564013setBrightnessEi+0xe>
  62:	bf00      	nop

Disassembly of section .text._ZN6OV564013setSaturationEi:

00000000 <_ZN6OV564013setSaturationEi>:
   0:	b570      	push	{r4, r5, r6, lr}
   2:	460d      	mov	r5, r1
   4:	4604      	mov	r4, r0
   6:	2203      	movs	r2, #3
   8:	f243 2112 	movw	r1, #12818	; 0x3212
   c:	3504      	adds	r5, #4
   e:	4e1a      	ldr	r6, [pc, #104]	; (78 <_ZN6OV564013setSaturationEi+0x78>)
  10:	2d09      	cmp	r5, #9
  12:	bf28      	it	cs
  14:	2505      	movcs	r5, #5
  16:	f7ff fffe 	bl	0 <_ZN6OV564013setSaturationEi>
  1a:	22ff      	movs	r2, #255	; 0xff
  1c:	f245 0101 	movw	r1, #20481	; 0x5001
  20:	4620      	mov	r0, r4
  22:	f7ff fffe 	bl	0 <_ZN6OV564013setSaturationEi>
  26:	f816 2015 	ldrb.w	r2, [r6, r5, lsl #1]
  2a:	eb06 0645 	add.w	r6, r6, r5, lsl #1
  2e:	f245 5183 	movw	r1, #21891	; 0x5583
  32:	4620      	mov	r0, r4
  34:	f7ff fffe 	bl	0 <_ZN6OV564013setSaturationEi>
  38:	7872      	ldrb	r2, [r6, #1]
  3a:	f245 5184 	movw	r1, #21892	; 0x5584
  3e:	4620      	mov	r0, r4
  40:	f7ff fffe 	bl	0 <_ZN6OV564013setSaturationEi>
  44:	2202      	movs	r2, #2
  46:	f44f 41ab 	mov.w	r1, #21888	; 0x5580
  4a:	4620      	mov	r0, r4
  4c:	f7ff fffe 	bl	0 <_ZN6OV564013setSaturationEi>
  50:	2241      	movs	r2, #65	; 0x41
  52:	f245 5188 	movw	r1, #21896	; 0x5588
  56:	4620      	mov	r0, r4
  58:	f7ff fffe 	bl	0 <_ZN6OV564013setSaturationEi>
  5c:	2213      	movs	r2, #19
  5e:	f243 2112 	movw	r1, #12818	; 0x3212
  62:	4620      	mov	r0, r4
  64:	f7ff fffe 	bl	0 <_ZN6OV564013setSaturationEi>
  68:	4620      	mov	r0, r4
  6a:	22a3      	movs	r2, #163	; 0xa3
  6c:	f243 2112 	movw	r1, #12818	; 0x3212
  70:	e8bd 4070 	ldmia.w	sp!, {r4, r5, r6, lr}
  74:	f7ff bffe 	b.w	0 <_ZN6OV564013setSaturationEi>
  78:	00000000 	.word	0x00000000

Disassembly of section .text._ZN6OV564014setGainceilingE13gainceiling_t:

00000000 <_ZN6OV564014setGainceilingE13gainceiling_t>:
   0:	b570      	push	{r4, r5, r6, lr}
   2:	3101      	adds	r1, #1
   4:	2510      	movs	r5, #16
   6:	b082      	sub	sp, #8
   8:	2300      	movs	r3, #0
   a:	408d      	lsls	r5, r1
   c:	f88d 3007 	strb.w	r3, [sp, #7]
  10:	f5b5 6f80 	cmp.w	r5, #1024	; 0x400
  14:	db02      	blt.n	1c <_ZN6OV564014setGainceilingE13gainceiling_t+0x1c>
  16:	2001      	movs	r0, #1
  18:	b002      	add	sp, #8
  1a:	bd70      	pop	{r4, r5, r6, pc}
  1c:	f10d 0207 	add.w	r2, sp, #7
  20:	f643 2118 	movw	r1, #14872	; 0x3a18
  24:	4606      	mov	r6, r0
  26:	f7ff fffe 	bl	0 <_ZN6OV564014setGainceilingE13gainceiling_t>
  2a:	f89d 2007 	ldrb.w	r2, [sp, #7]
  2e:	4604      	mov	r4, r0
  30:	f643 2118 	movw	r1, #14872	; 0x3a18
  34:	4630      	mov	r0, r6
  36:	f022 0203 	bic.w	r2, r2, #3
  3a:	ea42 2225 	orr.w	r2, r2, r5, asr #8
  3e:	b2d2      	uxtb	r2, r2
  40:	f7ff fffe 	bl	0 <_ZN6OV564014setGainceilingE13gainceiling_t>
  44:	4304      	orrs	r4, r0
  46:	b2ea      	uxtb	r2, r5
  48:	f643 2118 	movw	r1, #14872	; 0x3a18
  4c:	b2e4      	uxtb	r4, r4
  4e:	4630      	mov	r0, r6
  50:	f7ff fffe 	bl	0 <_ZN6OV564014setGainceilingE13gainceiling_t>
  54:	4320      	orrs	r0, r4
  56:	b2c0      	uxtb	r0, r0
  58:	b002      	add	sp, #8
  5a:	bd70      	pop	{r4, r5, r6, pc}

Disassembly of section .text._ZN6OV564011setColorbarEi:

00000000 <_ZN6OV564011setColorbarEi>:
   0:	b570      	push	{r4, r5, r6, lr}
   2:	b082      	sub	sp, #8
   4:	2300      	movs	r3, #0
   6:	460d      	mov	r5, r1
   8:	f245 013d 	movw	r1, #20541	; 0x503d
   c:	f10d 0207 	add.w	r2, sp, #7
  10:	4606      	mov	r6, r0
  12:	f88d 3007 	strb.w	r3, [sp, #7]
  16:	f7ff fffe 	bl	0 <_ZN6OV564011setColorbarEi>
  1a:	3d00      	subs	r5, #0
  1c:	f89d 2007 	ldrb.w	r2, [sp, #7]
  20:	4604      	mov	r4, r0
  22:	f245 013d 	movw	r1, #20541	; 0x503d
  26:	bf18      	it	ne
  28:	2501      	movne	r5, #1
  2a:	f002 027f 	and.w	r2, r2, #127	; 0x7f
  2e:	4630      	mov	r0, r6
  30:	ea42 12c5 	orr.w	r2, r2, r5, lsl #7
  34:	f7ff fffe 	bl	0 <_ZN6OV564011setColorbarEi>
  38:	4320      	orrs	r0, r4
  3a:	b2c0      	uxtb	r0, r0
  3c:	b002      	add	sp, #8
  3e:	bd70      	pop	{r4, r5, r6, pc}

Disassembly of section .text._ZN6OV564010setHmirrorEi:

00000000 <_ZN6OV564010setHmirrorEi>:
   0:	b570      	push	{r4, r5, r6, lr}
   2:	b082      	sub	sp, #8
   4:	2300      	movs	r3, #0
   6:	4605      	mov	r5, r0
   8:	460e      	mov	r6, r1
   a:	f10d 0207 	add.w	r2, sp, #7
   e:	f643 0121 	movw	r1, #14369	; 0x3821
  12:	f88d 3007 	strb.w	r3, [sp, #7]
  16:	f7ff fffe 	bl	0 <_ZN6OV564010setHmirrorEi>
  1a:	f89d 2007 	ldrb.w	r2, [sp, #7]
  1e:	4604      	mov	r4, r0
  20:	f643 0121 	movw	r1, #14369	; 0x3821
  24:	4628      	mov	r0, r5
  26:	b13e      	cbz	r6, 38 <_ZN6OV564010setHmirrorEi+0x38>
  28:	f042 0206 	orr.w	r2, r2, #6
  2c:	f7ff fffe 	bl	0 <_ZN6OV564010setHmirrorEi>
  30:	4320      	orrs	r0, r4
  32:	b2c0      	uxtb	r0, r0
  34:	b002      	add	sp, #8
  36:	bd70      	pop	{r4, r5, r6, pc}
  38:	f002 02f9 	and.w	r2, r2, #249	; 0xf9
  3c:	f7ff fffe 	bl	0 <_ZN6OV564010setHmirrorEi>
  40:	4320      	orrs	r0, r4
  42:	b2c0      	uxtb	r0, r0
  44:	b002      	add	sp, #8
  46:	bd70      	pop	{r4, r5, r6, pc}

Disassembly of section .text._ZN6OV56408setVflipEi:

00000000 <_ZN6OV56408setVflipEi>:
   0:	b570      	push	{r4, r5, r6, lr}
   2:	b082      	sub	sp, #8
   4:	2300      	movs	r3, #0
   6:	4605      	mov	r5, r0
   8:	460e      	mov	r6, r1
   a:	f10d 0207 	add.w	r2, sp, #7
   e:	f643 0120 	movw	r1, #14368	; 0x3820
  12:	f88d 3007 	strb.w	r3, [sp, #7]
  16:	f7ff fffe 	bl	0 <_ZN6OV56408setVflipEi>
  1a:	f89d 2007 	ldrb.w	r2, [sp, #7]
  1e:	4604      	mov	r4, r0
  20:	f643 0120 	movw	r1, #14368	; 0x3820
  24:	4628      	mov	r0, r5
  26:	b93e      	cbnz	r6, 38 <_ZN6OV56408setVflipEi+0x38>
  28:	f042 0206 	orr.w	r2, r2, #6
  2c:	f7ff fffe 	bl	0 <_ZN6OV56408setVflipEi>
  30:	4320      	orrs	r0, r4
  32:	b2c0      	uxtb	r0, r0
  34:	b002      	add	sp, #8
  36:	bd70      	pop	{r4, r5, r6, pc}
  38:	f002 02f9 	and.w	r2, r2, #249	; 0xf9
  3c:	f7ff fffe 	bl	0 <_ZN6OV56408setVflipEi>
  40:	4320      	orrs	r0, r4
  42:	b2c0      	uxtb	r0, r0
  44:	b002      	add	sp, #8
  46:	bd70      	pop	{r4, r5, r6, pc}

Disassembly of section .text._ZN6OV56406setHueEi:

00000000 <_ZN6OV56406setHueEi>:
   0:	b570      	push	{r4, r5, r6, lr}
   2:	460c      	mov	r4, r1
   4:	4605      	mov	r5, r0
   6:	22ff      	movs	r2, #255	; 0xff
   8:	f245 0101 	movw	r1, #20481	; 0x5001
   c:	3406      	adds	r4, #6
   e:	2c0c      	cmp	r4, #12
  10:	bf28      	it	cs
  12:	2406      	movcs	r4, #6
  14:	f7ff fffe 	bl	0 <_ZN6OV56406setHueEi>
  18:	2201      	movs	r2, #1
  1a:	f44f 41ab 	mov.w	r1, #21888	; 0x5580
  1e:	4628      	mov	r0, r5
  20:	eb04 0444 	add.w	r4, r4, r4, lsl #1
  24:	f7ff fffe 	bl	0 <_ZN6OV56406setHueEi>
  28:	4b0d      	ldr	r3, [pc, #52]	; (60 <_ZN6OV56406setHueEi+0x60>)
  2a:	f245 5186 	movw	r1, #21894	; 0x5586
  2e:	4628      	mov	r0, r5
  30:	191e      	adds	r6, r3, r4
  32:	5d1a      	ldrb	r2, [r3, r4]
  34:	f7ff fffe 	bl	0 <_ZN6OV56406setHueEi>
  38:	f245 5185 	movw	r1, #21893	; 0x5585
  3c:	7872      	ldrb	r2, [r6, #1]
  3e:	4628      	mov	r0, r5
  40:	f7ff fffe 	bl	0 <_ZN6OV56406setHueEi>
  44:	78b2      	ldrb	r2, [r6, #2]
  46:	f245 5182 	movw	r1, #21890	; 0x5582
  4a:	4628      	mov	r0, r5
  4c:	f7ff fffe 	bl	0 <_ZN6OV56406setHueEi>
  50:	4628      	mov	r0, r5
  52:	22a3      	movs	r2, #163	; 0xa3
  54:	f245 5188 	movw	r1, #21896	; 0x5588
  58:	e8bd 4070 	ldmia.w	sp!, {r4, r5, r6, lr}
  5c:	f7ff bffe 	b.w	0 <_ZN6OV56406setHueEi>
  60:	00000000 	.word	0x00000000

Disassembly of section .text._ZN6OV564011setAutoGainEiff:

00000000 <_ZN6OV564011setAutoGainEiff>:
   0:	e92d 41f0 	stmdb	sp!, {r4, r5, r6, r7, r8, lr}
   4:	ed2d 8b02 	vpush	{d8}
   8:	b082      	sub	sp, #8
   a:	2700      	movs	r7, #0
   c:	460e      	mov	r6, r1
   e:	f243 5103 	movw	r1, #13571	; 0x3503
  12:	f10d 0207 	add.w	r2, sp, #7
  16:	eeb0 8a40 	vmov.f32	s16, s0
  1a:	eef0 8a60 	vmov.f32	s17, s1
  1e:	4605      	mov	r5, r0
  20:	f88d 7007 	strb.w	r7, [sp, #7]
  24:	f7ff fffe 	bl	0 <_ZN6OV564011setAutoGainEiff>
  28:	f99d 2007 	ldrsb.w	r2, [sp, #7]
  2c:	4604      	mov	r4, r0
  2e:	f022 0202 	bic.w	r2, r2, #2
  32:	b9ee      	cbnz	r6, 70 <_ZN6OV564011setAutoGainEiff+0x70>
  34:	f042 0202 	orr.w	r2, r2, #2
  38:	f243 5103 	movw	r1, #13571	; 0x3503
  3c:	4628      	mov	r0, r5
  3e:	b2d2      	uxtb	r2, r2
  40:	f7ff fffe 	bl	0 <_ZN6OV564011setAutoGainEiff>
  44:	eeb4 8a48 	vcmp.f32	s16, s16
  48:	4304      	orrs	r4, r0
  4a:	eef1 fa10 	vmrs	APSR_nzcv, fpscr
  4e:	b2e4      	uxtb	r4, r4
  50:	4620      	mov	r0, r4
  52:	d608      	bvs.n	66 <_ZN6OV564011setAutoGainEiff+0x66>
  54:	eef0 7ac8 	vabs.f32	s15, s16
  58:	ed9f 7a57 	vldr	s14, [pc, #348]	; 1b8 <_ZN6OV564011setAutoGainEiff+0x1b8>
  5c:	eef4 7a47 	vcmp.f32	s15, s14
  60:	eef1 fa10 	vmrs	APSR_nzcv, fpscr
  64:	dd54      	ble.n	110 <_ZN6OV564011setAutoGainEiff+0x110>
  66:	b002      	add	sp, #8
  68:	ecbd 8b02 	vpop	{d8}
  6c:	e8bd 81f0 	ldmia.w	sp!, {r4, r5, r6, r7, r8, pc}
  70:	f002 02fd 	and.w	r2, r2, #253	; 0xfd
  74:	f243 5103 	movw	r1, #13571	; 0x3503
  78:	4628      	mov	r0, r5
  7a:	f7ff fffe 	bl	0 <_ZN6OV564011setAutoGainEiff>
  7e:	eef4 8a68 	vcmp.f32	s17, s17
  82:	4304      	orrs	r4, r0
  84:	eef1 fa10 	vmrs	APSR_nzcv, fpscr
  88:	b2e4      	uxtb	r4, r4
  8a:	4620      	mov	r0, r4
  8c:	d6eb      	bvs.n	66 <_ZN6OV564011setAutoGainEiff+0x66>
  8e:	eef0 7ae8 	vabs.f32	s15, s17
  92:	ed9f 7a49 	vldr	s14, [pc, #292]	; 1b8 <_ZN6OV564011setAutoGainEiff+0x1b8>
  96:	eef4 7a47 	vcmp.f32	s15, s14
  9a:	eef1 fa10 	vmrs	APSR_nzcv, fpscr
  9e:	dce2      	bgt.n	66 <_ZN6OV564011setAutoGainEiff+0x66>
  a0:	eef3 6a04 	vmov.f32	s13, #52	; 0x41a00000  20.0
  a4:	ed9f 7b42 	vldr	d7, [pc, #264]	; 1b0 <_ZN6OV564011setAutoGainEiff+0x1b0>
  a8:	ee88 0aa6 	vdiv.f32	s0, s17, s13
  ac:	eeb7 0ac0 	vcvt.f64.f32	d0, s0
  b0:	ee20 0b07 	vmul.f64	d0, d0, d7
  b4:	eeb7 0bc0 	vcvt.f32.f64	s0, d0
  b8:	f7ff fffe 	bl	0 <expf>
  bc:	eef3 7a00 	vmov.f32	s15, #48	; 0x41800000  16.0
  c0:	ee20 0a27 	vmul.f32	s0, s0, s15
  c4:	eefd 7a40 	vcvtr.s32.f32	s15, s0
  c8:	f240 33fe 	movw	r3, #1022	; 0x3fe
  cc:	ee17 2a90 	vmov	r2, s15
  d0:	429a      	cmp	r2, r3
  d2:	dc66      	bgt.n	1a2 <_ZN6OV564011setAutoGainEiff+0x1a2>
  d4:	2a00      	cmp	r2, #0
  d6:	da66      	bge.n	1a6 <_ZN6OV564011setAutoGainEiff+0x1a6>
  d8:	46b8      	mov	r8, r7
  da:	f10d 0207 	add.w	r2, sp, #7
  de:	f643 2118 	movw	r1, #14872	; 0x3a18
  e2:	4628      	mov	r0, r5
  e4:	f7ff fffe 	bl	0 <_ZN6OV564011setAutoGainEiff>
  e8:	f89d 3007 	ldrb.w	r3, [sp, #7]
  ec:	4606      	mov	r6, r0
  ee:	f643 2118 	movw	r1, #14872	; 0x3a18
  f2:	f023 0303 	bic.w	r3, r3, #3
  f6:	4628      	mov	r0, r5
  f8:	ea48 0203 	orr.w	r2, r8, r3
  fc:	b2d2      	uxtb	r2, r2
  fe:	f7ff fffe 	bl	0 <_ZN6OV564011setAutoGainEiff>
 102:	4603      	mov	r3, r0
 104:	463a      	mov	r2, r7
 106:	4628      	mov	r0, r5
 108:	431e      	orrs	r6, r3
 10a:	f643 2118 	movw	r1, #14872	; 0x3a18
 10e:	e037      	b.n	180 <_ZN6OV564011setAutoGainEiff+0x180>
 110:	eef3 6a04 	vmov.f32	s13, #52	; 0x41a00000  20.0
 114:	ed9f 7b26 	vldr	d7, [pc, #152]	; 1b0 <_ZN6OV564011setAutoGainEiff+0x1b0>
 118:	ee88 0a26 	vdiv.f32	s0, s16, s13
 11c:	eeb7 0ac0 	vcvt.f64.f32	d0, s0
 120:	ee20 0b07 	vmul.f64	d0, d0, d7
 124:	eeb7 0bc0 	vcvt.f32.f64	s0, d0
 128:	f7ff fffe 	bl	0 <expf>
 12c:	eef3 7a00 	vmov.f32	s15, #48	; 0x41800000  16.0
 130:	ee20 0a27 	vmul.f32	s0, s0, s15
 134:	eefd 7a40 	vcvtr.s32.f32	s15, s0
 138:	f240 33fe 	movw	r3, #1022	; 0x3fe
 13c:	ee17 2a90 	vmov	r2, s15
 140:	429a      	cmp	r2, r3
 142:	dc28      	bgt.n	196 <_ZN6OV564011setAutoGainEiff+0x196>
 144:	2a00      	cmp	r2, #0
 146:	da28      	bge.n	19a <_ZN6OV564011setAutoGainEiff+0x19a>
 148:	4637      	mov	r7, r6
 14a:	46b0      	mov	r8, r6
 14c:	f10d 0207 	add.w	r2, sp, #7
 150:	f243 510a 	movw	r1, #13578	; 0x350a
 154:	4628      	mov	r0, r5
 156:	f7ff fffe 	bl	0 <_ZN6OV564011setAutoGainEiff>
 15a:	f89d 3007 	ldrb.w	r3, [sp, #7]
 15e:	4606      	mov	r6, r0
 160:	f243 510a 	movw	r1, #13578	; 0x350a
 164:	f023 0303 	bic.w	r3, r3, #3
 168:	4628      	mov	r0, r5
 16a:	ea48 0203 	orr.w	r2, r8, r3
 16e:	b2d2      	uxtb	r2, r2
 170:	f7ff fffe 	bl	0 <_ZN6OV564011setAutoGainEiff>
 174:	4603      	mov	r3, r0
 176:	463a      	mov	r2, r7
 178:	4628      	mov	r0, r5
 17a:	431e      	orrs	r6, r3
 17c:	f243 510b 	movw	r1, #13579	; 0x350b
 180:	4334      	orrs	r4, r6
 182:	f7ff fffe 	bl	0 <_ZN6OV564011setAutoGainEiff>
 186:	b2e4      	uxtb	r4, r4
 188:	4320      	orrs	r0, r4
 18a:	b2c0      	uxtb	r0, r0
 18c:	b002      	add	sp, #8
 18e:	ecbd 8b02 	vpop	{d8}
 192:	e8bd 81f0 	ldmia.w	sp!, {r4, r5, r6, r7, r8, pc}
 196:	f240 32ff 	movw	r2, #1023	; 0x3ff
 19a:	f342 2807 	sbfx	r8, r2, #8, #8
 19e:	b2d7      	uxtb	r7, r2
 1a0:	e7d4      	b.n	14c <_ZN6OV564011setAutoGainEiff+0x14c>
 1a2:	f240 32ff 	movw	r2, #1023	; 0x3ff
 1a6:	f342 2807 	sbfx	r8, r2, #8, #8
 1aa:	b2d7      	uxtb	r7, r2
 1ac:	e795      	b.n	da <_ZN6OV564011setAutoGainEiff+0xda>
 1ae:	bf00      	nop
 1b0:	bbb55516 	.word	0xbbb55516
 1b4:	40026bb1 	.word	0x40026bb1
 1b8:	7f7fffff 	.word	0x7f7fffff

Disassembly of section .text._ZN6OV564015setAutoWhitebalEifff:

00000000 <_ZN6OV564015setAutoWhitebalEifff>:
   0:	e92d 4ff0 	stmdb	sp!, {r4, r5, r6, r7, r8, r9, sl, fp, lr}
   4:	ed2d 8b04 	vpush	{d8-d9}
   8:	b083      	sub	sp, #12
   a:	2700      	movs	r7, #0
   c:	fab1 f481 	clz	r4, r1
  10:	f243 4106 	movw	r1, #13318	; 0x3406
  14:	f10d 0207 	add.w	r2, sp, #7
  18:	eeb0 8a40 	vmov.f32	s16, s0
  1c:	eef0 8a60 	vmov.f32	s17, s1
  20:	4606      	mov	r6, r0
  22:	eeb0 9a41 	vmov.f32	s18, s2
  26:	f88d 7007 	strb.w	r7, [sp, #7]
  2a:	f7ff fffe 	bl	0 <_ZN6OV564015setAutoWhitebalEifff>
  2e:	f89d 2007 	ldrb.w	r2, [sp, #7]
  32:	0964      	lsrs	r4, r4, #5
  34:	4605      	mov	r5, r0
  36:	f022 0201 	bic.w	r2, r2, #1
  3a:	f243 4106 	movw	r1, #13318	; 0x3406
  3e:	4630      	mov	r0, r6
  40:	4322      	orrs	r2, r4
  42:	f004 0401 	and.w	r4, r4, #1
  46:	f7ff fffe 	bl	0 <_ZN6OV564015setAutoWhitebalEifff>
  4a:	eeb4 8a48 	vcmp.f32	s16, s16
  4e:	4305      	orrs	r5, r0
  50:	eef1 fa10 	vmrs	APSR_nzcv, fpscr
  54:	b2ed      	uxtb	r5, r5
  56:	4628      	mov	r0, r5
  58:	bf68      	it	vs
  5a:	2400      	movvs	r4, #0
  5c:	b1dc      	cbz	r4, 96 <_ZN6OV564015setAutoWhitebalEifff+0x96>
  5e:	eef4 8a49 	vcmp.f32	s17, s18
  62:	eef1 fa10 	vmrs	APSR_nzcv, fpscr
  66:	d616      	bvs.n	96 <_ZN6OV564015setAutoWhitebalEifff+0x96>
  68:	eef0 7ac8 	vabs.f32	s15, s16
  6c:	ed9f 7a58 	vldr	s14, [pc, #352]	; 1d0 <_ZN6OV564015setAutoWhitebalEifff+0x1d0>
  70:	eef4 7a47 	vcmp.f32	s15, s14
  74:	eef1 fa10 	vmrs	APSR_nzcv, fpscr
  78:	dc0d      	bgt.n	96 <_ZN6OV564015setAutoWhitebalEifff+0x96>
  7a:	eef0 7ae8 	vabs.f32	s15, s17
  7e:	eef4 7a47 	vcmp.f32	s15, s14
  82:	eef1 fa10 	vmrs	APSR_nzcv, fpscr
  86:	dc06      	bgt.n	96 <_ZN6OV564015setAutoWhitebalEifff+0x96>
  88:	eef0 7ac9 	vabs.f32	s15, s18
  8c:	eef4 7a47 	vcmp.f32	s15, s14
  90:	eef1 fa10 	vmrs	APSR_nzcv, fpscr
  94:	dd04      	ble.n	a0 <_ZN6OV564015setAutoWhitebalEifff+0xa0>
  96:	b003      	add	sp, #12
  98:	ecbd 8b04 	vpop	{d8-d9}
  9c:	e8bd 8ff0 	ldmia.w	sp!, {r4, r5, r6, r7, r8, r9, sl, fp, pc}
  a0:	eef3 6a04 	vmov.f32	s13, #52	; 0x41a00000  20.0
  a4:	ed9f 7b48 	vldr	d7, [pc, #288]	; 1c8 <_ZN6OV564015setAutoWhitebalEifff+0x1c8>
  a8:	ee88 0a26 	vdiv.f32	s0, s16, s13
  ac:	eeb7 0ac0 	vcvt.f64.f32	d0, s0
  b0:	ee20 0b07 	vmul.f64	d0, d0, d7
  b4:	eeb7 0bc0 	vcvt.f32.f64	s0, d0
  b8:	f7ff fffe 	bl	0 <expf>
  bc:	eefd 7a40 	vcvtr.s32.f32	s15, s0
  c0:	f640 73fe 	movw	r3, #4094	; 0xffe
  c4:	ee17 4a90 	vmov	r4, s15
  c8:	429c      	cmp	r4, r3
  ca:	dc6a      	bgt.n	1a2 <_ZN6OV564015setAutoWhitebalEifff+0x1a2>
  cc:	42bc      	cmp	r4, r7
  ce:	da6a      	bge.n	1a6 <_ZN6OV564015setAutoWhitebalEifff+0x1a6>
  d0:	463c      	mov	r4, r7
  d2:	46bb      	mov	fp, r7
  d4:	eef3 6a04 	vmov.f32	s13, #52	; 0x41a00000  20.0
  d8:	ed9f 7b3b 	vldr	d7, [pc, #236]	; 1c8 <_ZN6OV564015setAutoWhitebalEifff+0x1c8>
  dc:	ee88 0aa6 	vdiv.f32	s0, s17, s13
  e0:	eeb7 0ac0 	vcvt.f64.f32	d0, s0
  e4:	ee20 0b07 	vmul.f64	d0, d0, d7
  e8:	eeb7 0bc0 	vcvt.f32.f64	s0, d0
  ec:	f7ff fffe 	bl	0 <expf>
  f0:	eefd 7a40 	vcvtr.s32.f32	s15, s0
  f4:	f640 73fe 	movw	r3, #4094	; 0xffe
  f8:	ee17 8a90 	vmov	r8, s15
  fc:	4598      	cmp	r8, r3
  fe:	dc5c      	bgt.n	1ba <_ZN6OV564015setAutoWhitebalEifff+0x1ba>
 100:	f1b8 0f00 	cmp.w	r8, #0
 104:	da5b      	bge.n	1be <_ZN6OV564015setAutoWhitebalEifff+0x1be>
 106:	f04f 0800 	mov.w	r8, #0
 10a:	46c2      	mov	sl, r8
 10c:	eef3 6a04 	vmov.f32	s13, #52	; 0x41a00000  20.0
 110:	ed9f 7b2d 	vldr	d7, [pc, #180]	; 1c8 <_ZN6OV564015setAutoWhitebalEifff+0x1c8>
 114:	ee89 0a26 	vdiv.f32	s0, s18, s13
 118:	eeb7 0ac0 	vcvt.f64.f32	d0, s0
 11c:	ee20 0b07 	vmul.f64	d0, d0, d7
 120:	eeb7 0bc0 	vcvt.f32.f64	s0, d0
 124:	f7ff fffe 	bl	0 <expf>
 128:	eefd 7a40 	vcvtr.s32.f32	s15, s0
 12c:	f640 73fe 	movw	r3, #4094	; 0xffe
 130:	ee17 7a90 	vmov	r7, s15
 134:	429f      	cmp	r7, r3
 136:	dc3a      	bgt.n	1ae <_ZN6OV564015setAutoWhitebalEifff+0x1ae>
 138:	2f00      	cmp	r7, #0
 13a:	da3a      	bge.n	1b2 <_ZN6OV564015setAutoWhitebalEifff+0x1b2>
 13c:	2700      	movs	r7, #0
 13e:	46b9      	mov	r9, r7
 140:	465a      	mov	r2, fp
 142:	f44f 5150 	mov.w	r1, #13312	; 0x3400
 146:	4630      	mov	r0, r6
 148:	f7ff fffe 	bl	0 <_ZN6OV564015setAutoWhitebalEifff>
 14c:	4622      	mov	r2, r4
 14e:	4604      	mov	r4, r0
 150:	f243 4101 	movw	r1, #13313	; 0x3401
 154:	4630      	mov	r0, r6
 156:	f7ff fffe 	bl	0 <_ZN6OV564015setAutoWhitebalEifff>
 15a:	4320      	orrs	r0, r4
 15c:	4652      	mov	r2, sl
 15e:	f243 4102 	movw	r1, #13314	; 0x3402
 162:	4305      	orrs	r5, r0
 164:	4630      	mov	r0, r6
 166:	f7ff fffe 	bl	0 <_ZN6OV564015setAutoWhitebalEifff>
 16a:	4642      	mov	r2, r8
 16c:	b2ed      	uxtb	r5, r5
 16e:	f243 4103 	movw	r1, #13315	; 0x3403
 172:	4328      	orrs	r0, r5
 174:	b2c4      	uxtb	r4, r0
 176:	4630      	mov	r0, r6
 178:	f7ff fffe 	bl	0 <_ZN6OV564015setAutoWhitebalEifff>
 17c:	464a      	mov	r2, r9
 17e:	4304      	orrs	r4, r0
 180:	f243 4104 	movw	r1, #13316	; 0x3404
 184:	4630      	mov	r0, r6
 186:	b2e4      	uxtb	r4, r4
 188:	f7ff fffe 	bl	0 <_ZN6OV564015setAutoWhitebalEifff>
 18c:	463a      	mov	r2, r7
 18e:	4304      	orrs	r4, r0
 190:	f243 4105 	movw	r1, #13317	; 0x3405
 194:	4630      	mov	r0, r6
 196:	b2e4      	uxtb	r4, r4
 198:	f7ff fffe 	bl	0 <_ZN6OV564015setAutoWhitebalEifff>
 19c:	4320      	orrs	r0, r4
 19e:	b2c0      	uxtb	r0, r0
 1a0:	e779      	b.n	96 <_ZN6OV564015setAutoWhitebalEifff+0x96>
 1a2:	f640 74ff 	movw	r4, #4095	; 0xfff
 1a6:	f3c4 2b07 	ubfx	fp, r4, #8, #8
 1aa:	b2e4      	uxtb	r4, r4
 1ac:	e792      	b.n	d4 <_ZN6OV564015setAutoWhitebalEifff+0xd4>
 1ae:	f640 77ff 	movw	r7, #4095	; 0xfff
 1b2:	f3c7 2907 	ubfx	r9, r7, #8, #8
 1b6:	b2ff      	uxtb	r7, r7
 1b8:	e7c2      	b.n	140 <_ZN6OV564015setAutoWhitebalEifff+0x140>
 1ba:	f640 78ff 	movw	r8, #4095	; 0xfff
 1be:	f3c8 2a07 	ubfx	sl, r8, #8, #8
 1c2:	fa5f f888 	uxtb.w	r8, r8
 1c6:	e7a1      	b.n	10c <_ZN6OV564015setAutoWhitebalEifff+0x10c>
 1c8:	bbb55516 	.word	0xbbb55516
 1cc:	40026bb1 	.word	0x40026bb1
 1d0:	7f7fffff 	.word	0x7f7fffff

Disassembly of section .text._ZN6OV564019cameraWriteFirmwareEv:

00000000 <_ZN6OV564019cameraWriteFirmwareEv>:
   0:	e92d 4ff8 	stmdb	sp!, {r3, r4, r5, r6, r7, r8, r9, sl, fp, lr}
   4:	4e1c      	ldr	r6, [pc, #112]	; (78 <_ZN6OV564019cameraWriteFirmwareEv+0x78>)
   6:	f44f 4400 	mov.w	r4, #32768	; 0x8000
   a:	f640 7bed 	movw	fp, #4077	; 0xfed
   e:	4605      	mov	r5, r0
  10:	f506 5980 	add.w	r9, r6, #4096	; 0x1000
  14:	f04f 0878 	mov.w	r8, #120	; 0x78
  18:	f04f 0a01 	mov.w	sl, #1
  1c:	6eab      	ldr	r3, [r5, #104]	; 0x68
  1e:	465f      	mov	r7, fp
  20:	0a21      	lsrs	r1, r4, #8
  22:	f883 80a5 	strb.w	r8, [r3, #165]	; 0xa5
  26:	2f80      	cmp	r7, #128	; 0x80
  28:	f883 a130 	strb.w	sl, [r3, #304]	; 0x130
  2c:	f883 a12f 	strb.w	sl, [r3, #303]	; 0x12f
  30:	bf38      	it	cc
  32:	2780      	movcc	r7, #128	; 0x80
  34:	6ea8      	ldr	r0, [r5, #104]	; 0x68
  36:	3f80      	subs	r7, #128	; 0x80
  38:	6803      	ldr	r3, [r0, #0]
  3a:	681b      	ldr	r3, [r3, #0]
  3c:	4798      	blx	r3
  3e:	6ea8      	ldr	r0, [r5, #104]	; 0x68
  40:	b2e1      	uxtb	r1, r4
  42:	3480      	adds	r4, #128	; 0x80
  44:	6803      	ldr	r3, [r0, #0]
  46:	b2a4      	uxth	r4, r4
  48:	681b      	ldr	r3, [r3, #0]
  4a:	4798      	blx	r3
  4c:	6ea8      	ldr	r0, [r5, #104]	; 0x68
  4e:	2280      	movs	r2, #128	; 0x80
  50:	4631      	mov	r1, r6
  52:	6803      	ldr	r3, [r0, #0]
  54:	4416      	add	r6, r2
  56:	685b      	ldr	r3, [r3, #4]
  58:	4798      	blx	r3
  5a:	f1bb 0f80 	cmp.w	fp, #128	; 0x80
  5e:	6ea8      	ldr	r0, [r5, #104]	; 0x68
  60:	fa1f fb87 	uxth.w	fp, r7
  64:	bf8c      	ite	hi
  66:	2100      	movhi	r1, #0
  68:	2101      	movls	r1, #1
  6a:	f7ff fffe 	bl	0 <_ZN7TwoWire15endTransmissionEh>
  6e:	454e      	cmp	r6, r9
  70:	d1d4      	bne.n	1c <_ZN6OV564019cameraWriteFirmwareEv+0x1c>
  72:	2000      	movs	r0, #0
  74:	e8bd 8ff8 	ldmia.w	sp!, {r3, r4, r5, r6, r7, r8, r9, sl, fp, pc}
  78:	00000000 	.word	0x00000000

Disassembly of section .text._ZN6OV564013calculate_htsEt:

00000000 <_ZN6OV564013calculate_htsEt>:
   0:	6e43      	ldr	r3, [r0, #100]	; 0x64
   2:	4a12      	ldr	r2, [pc, #72]	; (4c <_ZN6OV564013calculate_htsEt+0x4c>)
   4:	3b06      	subs	r3, #6
   6:	8810      	ldrh	r0, [r2, #0]
   8:	2b02      	cmp	r3, #2
   a:	d815      	bhi.n	38 <_ZN6OV564013calculate_htsEt+0x38>
   c:	f5b1 6fa0 	cmp.w	r1, #1280	; 0x500
  10:	d80b      	bhi.n	2a <_ZN6OV564013calculate_htsEt+0x2a>
  12:	1d0b      	adds	r3, r1, #4
  14:	b29b      	uxth	r3, r3
  16:	005b      	lsls	r3, r3, #1
  18:	4298      	cmp	r0, r3
  1a:	bfb8      	it	lt
  1c:	4618      	movlt	r0, r3
  1e:	f5b1 7f20 	cmp.w	r1, #640	; 0x280
  22:	b280      	uxth	r0, r0
  24:	d801      	bhi.n	2a <_ZN6OV564013calculate_htsEt+0x2a>
  26:	30a0      	adds	r0, #160	; 0xa0
  28:	b280      	uxth	r0, r0
  2a:	30fc      	adds	r0, #252	; 0xfc
  2c:	f240 539e 	movw	r3, #1438	; 0x59e
  30:	4298      	cmp	r0, r3
  32:	bfb8      	it	lt
  34:	4618      	movlt	r0, r3
  36:	4770      	bx	lr
  38:	f5b1 7f20 	cmp.w	r1, #640	; 0x280
  3c:	d9f3      	bls.n	26 <_ZN6OV564013calculate_htsEt+0x26>
  3e:	3104      	adds	r1, #4
  40:	0049      	lsls	r1, r1, #1
  42:	4288      	cmp	r0, r1
  44:	bfb8      	it	lt
  46:	4608      	movlt	r0, r1
  48:	b280      	uxth	r0, r0
  4a:	e7ee      	b.n	2a <_ZN6OV564013calculate_htsEt+0x2a>
  4c:	00000000 	.word	0x00000000

Disassembly of section .text._ZN6OV564012setPixformatE11pixformat_t:

00000000 <_ZN6OV564012setPixformatE11pixformat_t>:
   0:	e92d 47f0 	stmdb	sp!, {r4, r5, r6, r7, r8, r9, sl, lr}
   4:	2300      	movs	r3, #0
   6:	b082      	sub	sp, #8
   8:	4604      	mov	r4, r0
   a:	460e      	mov	r6, r1
   c:	f88d 3007 	strb.w	r3, [sp, #7]
  10:	6e43      	ldr	r3, [r0, #100]	; 0x64
  12:	2b08      	cmp	r3, #8
  14:	f000 8097 	beq.w	146 <_ZN6OV564012setPixformatE11pixformat_t+0x146>
  18:	1e73      	subs	r3, r6, #1
  1a:	2b07      	cmp	r3, #7
  1c:	f200 80a4 	bhi.w	168 <_ZN6OV564012setPixformatE11pixformat_t+0x168>
  20:	e8df f013 	tbh	[pc, r3, lsl #1]
  24:	00c20112 	.word	0x00c20112
  28:	00a2011c 	.word	0x00a2011c
  2c:	00c2011a 	.word	0x00c2011a
  30:	00080112 	.word	0x00080112
  34:	2230      	movs	r2, #48	; 0x30
  36:	f44f 4186 	mov.w	r1, #17152	; 0x4300
  3a:	4620      	mov	r0, r4
  3c:	f7ff fffe 	bl	0 <_ZN6OV564012setPixformatE11pixformat_t>
  40:	4605      	mov	r5, r0
  42:	2200      	movs	r2, #0
  44:	f245 011f 	movw	r1, #20511	; 0x501f
  48:	4620      	mov	r0, r4
  4a:	f7ff fffe 	bl	0 <_ZN6OV564012setPixformatE11pixformat_t>
  4e:	4305      	orrs	r5, r0
  50:	f10d 0207 	add.w	r2, sp, #7
  54:	f244 7113 	movw	r1, #18195	; 0x4713
  58:	b2ed      	uxtb	r5, r5
  5a:	4620      	mov	r0, r4
  5c:	f7ff fffe 	bl	0 <_ZN6OV564012setPixformatE11pixformat_t>
  60:	f89d 2007 	ldrb.w	r2, [sp, #7]
  64:	4305      	orrs	r5, r0
  66:	f244 7113 	movw	r1, #18195	; 0x4713
  6a:	f002 02f8 	and.w	r2, r2, #248	; 0xf8
  6e:	4620      	mov	r0, r4
  70:	b2ed      	uxtb	r5, r5
  72:	f88d 2007 	strb.w	r2, [sp, #7]
  76:	f042 0203 	orr.w	r2, r2, #3
  7a:	f7ff fffe 	bl	0 <_ZN6OV564012setPixformatE11pixformat_t>
  7e:	2240      	movs	r2, #64	; 0x40
  80:	4305      	orrs	r5, r0
  82:	f643 0120 	movw	r1, #14368	; 0x3820
  86:	4620      	mov	r0, r4
  88:	f7ff fffe 	bl	0 <_ZN6OV564012setPixformatE11pixformat_t>
  8c:	2269      	movs	r2, #105	; 0x69
  8e:	f243 0136 	movw	r1, #12342	; 0x3036
  92:	4620      	mov	r0, r4
  94:	f7ff fffe 	bl	0 <_ZN6OV564012setPixformatE11pixformat_t>
  98:	2231      	movs	r2, #49	; 0x31
  9a:	f243 0135 	movw	r1, #12341	; 0x3035
  9e:	4620      	mov	r0, r4
  a0:	f7ff fffe 	bl	0 <_ZN6OV564012setPixformatE11pixformat_t>
  a4:	f8d4 30c8 	ldr.w	r3, [r4, #200]	; 0xc8
  a8:	4975      	ldr	r1, [pc, #468]	; (280 <_ZN6OV564012setPixformatE11pixformat_t+0x280>)
  aa:	2208      	movs	r2, #8
  ac:	4875      	ldr	r0, [pc, #468]	; (284 <_ZN6OV564012setPixformatE11pixformat_t+0x284>)
  ae:	b2ed      	uxtb	r5, r5
  b0:	f7ff fffe 	bl	0 <_ZN5Print6printfEPKcz>
  b4:	f10d 0207 	add.w	r2, sp, #7
  b8:	f643 0121 	movw	r1, #14369	; 0x3821
  bc:	4620      	mov	r0, r4
  be:	f7ff fffe 	bl	0 <_ZN6OV564012setPixformatE11pixformat_t>
  c2:	f89d 2007 	ldrb.w	r2, [sp, #7]
  c6:	4682      	mov	sl, r0
  c8:	f643 0121 	movw	r1, #14369	; 0x3821
  cc:	f022 0220 	bic.w	r2, r2, #32
  d0:	4620      	mov	r0, r4
  d2:	ea45 050a 	orr.w	r5, r5, sl
  d6:	f042 0226 	orr.w	r2, r2, #38	; 0x26
  da:	f7ff fffe 	bl	0 <_ZN6OV564012setPixformatE11pixformat_t>
  de:	f10d 0207 	add.w	r2, sp, #7
  e2:	4607      	mov	r7, r0
  e4:	f243 0102 	movw	r1, #12290	; 0x3002
  e8:	4620      	mov	r0, r4
  ea:	f7ff fffe 	bl	0 <_ZN6OV564012setPixformatE11pixformat_t>
  ee:	f89d 2007 	ldrb.w	r2, [sp, #7]
  f2:	4681      	mov	r9, r0
  f4:	f243 0102 	movw	r1, #12290	; 0x3002
  f8:	f002 02e3 	and.w	r2, r2, #227	; 0xe3
  fc:	432f      	orrs	r7, r5
  fe:	4620      	mov	r0, r4
 100:	f7ff fffe 	bl	0 <_ZN6OV564012setPixformatE11pixformat_t>
 104:	f10d 0207 	add.w	r2, sp, #7
 108:	4680      	mov	r8, r0
 10a:	f243 0106 	movw	r1, #12294	; 0x3006
 10e:	4620      	mov	r0, r4
 110:	f7ff fffe 	bl	0 <_ZN6OV564012setPixformatE11pixformat_t>
 114:	ea49 0207 	orr.w	r2, r9, r7
 118:	ea48 0302 	orr.w	r3, r8, r2
 11c:	f99d 2007 	ldrsb.w	r2, [sp, #7]
 120:	4318      	orrs	r0, r3
 122:	f042 0228 	orr.w	r2, r2, #40	; 0x28
 126:	b2c5      	uxtb	r5, r0
 128:	b2d2      	uxtb	r2, r2
 12a:	f243 0106 	movw	r1, #12294	; 0x3006
 12e:	4620      	mov	r0, r4
 130:	f7ff fffe 	bl	0 <_ZN6OV564012setPixformatE11pixformat_t>
 134:	4b54      	ldr	r3, [pc, #336]	; (288 <_ZN6OV564012setPixformatE11pixformat_t+0x288>)
 136:	4305      	orrs	r5, r0
 138:	881b      	ldrh	r3, [r3, #0]
 13a:	b9d3      	cbnz	r3, 172 <_ZN6OV564012setPixformatE11pixformat_t+0x172>
 13c:	6666      	str	r6, [r4, #100]	; 0x64
 13e:	4628      	mov	r0, r5
 140:	b002      	add	sp, #8
 142:	e8bd 87f0 	ldmia.w	sp!, {r4, r5, r6, r7, r8, r9, sl, pc}
 146:	f8d0 20c8 	ldr.w	r2, [r0, #200]	; 0xc8
 14a:	4b50      	ldr	r3, [pc, #320]	; (28c <_ZN6OV564012setPixformatE11pixformat_t+0x28c>)
 14c:	f853 1032 	ldr.w	r1, [r3, r2, lsl #3]
 150:	0749      	lsls	r1, r1, #29
 152:	d105      	bne.n	160 <_ZN6OV564012setPixformatE11pixformat_t+0x160>
 154:	eb03 03c2 	add.w	r3, r3, r2, lsl #3
 158:	685b      	ldr	r3, [r3, #4]
 15a:	075b      	lsls	r3, r3, #29
 15c:	f43f af5c 	beq.w	18 <_ZN6OV564012setPixformatE11pixformat_t+0x18>
 160:	7a23      	ldrb	r3, [r4, #8]
 162:	2b00      	cmp	r3, #0
 164:	f040 8082 	bne.w	26c <_ZN6OV564012setPixformatE11pixformat_t+0x26c>
 168:	2501      	movs	r5, #1
 16a:	4628      	mov	r0, r5
 16c:	b002      	add	sp, #8
 16e:	e8bd 87f0 	ldmia.w	sp!, {r4, r5, r6, r7, r8, r9, sl, pc}
 172:	f8d4 20c8 	ldr.w	r2, [r4, #200]	; 0xc8
 176:	4620      	mov	r0, r4
 178:	4b44      	ldr	r3, [pc, #272]	; (28c <_ZN6OV564012setPixformatE11pixformat_t+0x28c>)
 17a:	f833 1032 	ldrh.w	r1, [r3, r2, lsl #3]
 17e:	f7ff fffe 	bl	0 <_ZN6OV564012setPixformatE11pixformat_t>
 182:	4607      	mov	r7, r0
 184:	f3c0 2207 	ubfx	r2, r0, #8, #8
 188:	f643 010c 	movw	r1, #14348	; 0x380c
 18c:	4620      	mov	r0, r4
 18e:	f7ff fffe 	bl	0 <_ZN6OV564012setPixformatE11pixformat_t>
 192:	f643 010d 	movw	r1, #14349	; 0x380d
 196:	b2fa      	uxtb	r2, r7
 198:	4607      	mov	r7, r0
 19a:	4620      	mov	r0, r4
 19c:	f7ff fffe 	bl	0 <_ZN6OV564012setPixformatE11pixformat_t>
 1a0:	4307      	orrs	r7, r0
 1a2:	b2ff      	uxtb	r7, r7
 1a4:	433d      	orrs	r5, r7
 1a6:	e7c9      	b.n	13c <_ZN6OV564012setPixformatE11pixformat_t+0x13c>
 1a8:	2200      	movs	r2, #0
 1aa:	f44f 4186 	mov.w	r1, #17152	; 0x4300
 1ae:	4620      	mov	r0, r4
 1b0:	f7ff fffe 	bl	0 <_ZN6OV564012setPixformatE11pixformat_t>
 1b4:	2201      	movs	r2, #1
 1b6:	4607      	mov	r7, r0
 1b8:	f245 011f 	movw	r1, #20511	; 0x501f
 1bc:	4620      	mov	r0, r4
 1be:	f7ff fffe 	bl	0 <_ZN6OV564012setPixformatE11pixformat_t>
 1c2:	f8d4 30c8 	ldr.w	r3, [r4, #200]	; 0xc8
 1c6:	4307      	orrs	r7, r0
 1c8:	4632      	mov	r2, r6
 1ca:	492d      	ldr	r1, [pc, #180]	; (280 <_ZN6OV564012setPixformatE11pixformat_t+0x280>)
 1cc:	482d      	ldr	r0, [pc, #180]	; (284 <_ZN6OV564012setPixformatE11pixformat_t+0x284>)
 1ce:	b2ff      	uxtb	r7, r7
 1d0:	f7ff fffe 	bl	0 <_ZN5Print6printfEPKcz>
 1d4:	f10d 0207 	add.w	r2, sp, #7
 1d8:	f643 0121 	movw	r1, #14369	; 0x3821
 1dc:	4620      	mov	r0, r4
 1de:	f7ff fffe 	bl	0 <_ZN6OV564012setPixformatE11pixformat_t>
 1e2:	f89d 2007 	ldrb.w	r2, [sp, #7]
 1e6:	4680      	mov	r8, r0
 1e8:	f643 0121 	movw	r1, #14369	; 0x3821
 1ec:	f002 02df 	and.w	r2, r2, #223	; 0xdf
 1f0:	4620      	mov	r0, r4
 1f2:	f7ff fffe 	bl	0 <_ZN6OV564012setPixformatE11pixformat_t>
 1f6:	f10d 0207 	add.w	r2, sp, #7
 1fa:	4605      	mov	r5, r0
 1fc:	f243 0102 	movw	r1, #12290	; 0x3002
 200:	4620      	mov	r0, r4
 202:	f7ff fffe 	bl	0 <_ZN6OV564012setPixformatE11pixformat_t>
 206:	f89d 2007 	ldrb.w	r2, [sp, #7]
 20a:	4681      	mov	r9, r0
 20c:	f243 0102 	movw	r1, #12290	; 0x3002
 210:	f022 021c 	bic.w	r2, r2, #28
 214:	4620      	mov	r0, r4
 216:	ea45 0508 	orr.w	r5, r5, r8
 21a:	f042 021c 	orr.w	r2, r2, #28
 21e:	f7ff fffe 	bl	0 <_ZN6OV564012setPixformatE11pixformat_t>
 222:	ea40 0309 	orr.w	r3, r0, r9
 226:	f10d 0207 	add.w	r2, sp, #7
 22a:	f243 0106 	movw	r1, #12294	; 0x3006
 22e:	b2db      	uxtb	r3, r3
 230:	4620      	mov	r0, r4
 232:	b2ed      	uxtb	r5, r5
 234:	431f      	orrs	r7, r3
 236:	f7ff fffe 	bl	0 <_ZN6OV564012setPixformatE11pixformat_t>
 23a:	f99d 2007 	ldrsb.w	r2, [sp, #7]
 23e:	4338      	orrs	r0, r7
 240:	f022 0228 	bic.w	r2, r2, #40	; 0x28
 244:	4305      	orrs	r5, r0
 246:	e76f      	b.n	128 <_ZN6OV564012setPixformatE11pixformat_t+0x128>
 248:	2210      	movs	r2, #16
 24a:	f44f 4186 	mov.w	r1, #17152	; 0x4300
 24e:	4620      	mov	r0, r4
 250:	f7ff fffe 	bl	0 <_ZN6OV564012setPixformatE11pixformat_t>
 254:	2200      	movs	r2, #0
 256:	e7ae      	b.n	1b6 <_ZN6OV564012setPixformatE11pixformat_t+0x1b6>
 258:	226f      	movs	r2, #111	; 0x6f
 25a:	e7a6      	b.n	1aa <_ZN6OV564012setPixformatE11pixformat_t+0x1aa>
 25c:	2230      	movs	r2, #48	; 0x30
 25e:	f44f 4186 	mov.w	r1, #17152	; 0x4300
 262:	4620      	mov	r0, r4
 264:	f7ff fffe 	bl	0 <_ZN6OV564012setPixformatE11pixformat_t>
 268:	2200      	movs	r2, #0
 26a:	e7a4      	b.n	1b6 <_ZN6OV564012setPixformatE11pixformat_t+0x1b6>
 26c:	2129      	movs	r1, #41	; 0x29
 26e:	4808      	ldr	r0, [pc, #32]	; (290 <_ZN6OV564012setPixformatE11pixformat_t+0x290>)
 270:	f7ff fffe 	bl	0 <usb_serial_write>
 274:	4803      	ldr	r0, [pc, #12]	; (284 <_ZN6OV564012setPixformatE11pixformat_t+0x284>)
 276:	2501      	movs	r5, #1
 278:	f7ff fffe 	bl	0 <_ZN5Print7printlnEv>
 27c:	e75f      	b.n	13e <_ZN6OV564012setPixformatE11pixformat_t+0x13e>
 27e:	bf00      	nop
 280:	0000002c 	.word	0x0000002c
 284:	00000000 	.word	0x00000000
 288:	00000000 	.word	0x00000000
 28c:	00000000 	.word	0x00000000
 290:	00000000 	.word	0x00000000

Disassembly of section .text._ZN6OV564012setFramesizeEii.part.0:

00000000 <_ZN6OV564012setFramesizeEii.part.0>:
   0:	7a03      	ldrb	r3, [r0, #8]
   2:	e92d 4ff0 	stmdb	sp!, {r4, r5, r6, r7, r8, r9, sl, fp, lr}
   6:	4604      	mov	r4, r0
   8:	460d      	mov	r5, r1
   a:	4616      	mov	r6, r2
   c:	ed2d 8b04 	vpush	{d8-d9}
  10:	f8a0 1054 	strh.w	r1, [r0, #84]	; 0x54
  14:	b097      	sub	sp, #92	; 0x5c
  16:	f8a0 2056 	strh.w	r2, [r0, #86]	; 0x56
  1a:	2b00      	cmp	r3, #0
  1c:	f040 823a 	bne.w	494 <_ZN6OV564012setFramesizeEii.part.0+0x494>
  20:	6e63      	ldr	r3, [r4, #100]	; 0x64
  22:	2200      	movs	r2, #0
  24:	2b08      	cmp	r3, #8
  26:	f88d 2057 	strb.w	r2, [sp, #87]	; 0x57
  2a:	f000 8225 	beq.w	478 <_ZN6OV564012setFramesizeEii.part.0+0x478>
  2e:	f5b6 6ff3 	cmp.w	r6, #1944	; 0x798
  32:	f300 821b 	bgt.w	46c <_ZN6OV564012setFramesizeEii.part.0+0x46c>
  36:	f5b5 6f23 	cmp.w	r5, #2608	; 0xa30
  3a:	f300 8217 	bgt.w	46c <_ZN6OV564012setFramesizeEii.part.0+0x46c>
  3e:	4b7c      	ldr	r3, [pc, #496]	; (230 <_ZN6OV564012setFramesizeEii.part.0+0x230>)
  40:	4f7c      	ldr	r7, [pc, #496]	; (234 <_ZN6OV564012setFramesizeEii.part.0+0x234>)
  42:	8819      	ldrh	r1, [r3, #0]
  44:	883a      	ldrh	r2, [r7, #0]
  46:	42a9      	cmp	r1, r5
  48:	bfb8      	it	lt
  4a:	4629      	movlt	r1, r5
  4c:	42b2      	cmp	r2, r6
  4e:	fa1f fe81 	uxth.w	lr, r1
  52:	bfb8      	it	lt
  54:	4632      	movlt	r2, r6
  56:	f8a3 e000 	strh.w	lr, [r3]
  5a:	f5d1 6323 	rsbs	r3, r1, #2608	; 0xa30
  5e:	b290      	uxth	r0, r2
  60:	4693      	mov	fp, r2
  62:	bf48      	it	mi
  64:	3301      	addmi	r3, #1
  66:	8038      	strh	r0, [r7, #0]
  68:	105b      	asrs	r3, r3, #1
  6a:	9302      	str	r3, [sp, #8]
  6c:	f5d2 63f3 	rsbs	r3, r2, #1944	; 0x798
  70:	4a71      	ldr	r2, [pc, #452]	; (238 <_ZN6OV564012setFramesizeEii.part.0+0x238>)
  72:	bf48      	it	mi
  74:	3301      	addmi	r3, #1
  76:	f9b2 9000 	ldrsh.w	r9, [r2]
  7a:	9a02      	ldr	r2, [sp, #8]
  7c:	105f      	asrs	r7, r3, #1
  7e:	9b02      	ldr	r3, [sp, #8]
  80:	4591      	cmp	r9, r2
  82:	9711      	str	r7, [sp, #68]	; 0x44
  84:	f1c3 0300 	rsb	r3, r3, #0
  88:	bfa8      	it	ge
  8a:	4691      	movge	r9, r2
  8c:	4a6a      	ldr	r2, [pc, #424]	; (238 <_ZN6OV564012setFramesizeEii.part.0+0x238>)
  8e:	4599      	cmp	r9, r3
  90:	bfb8      	it	lt
  92:	4699      	movlt	r9, r3
  94:	427b      	negs	r3, r7
  96:	fa0f f989 	sxth.w	r9, r9
  9a:	f8a2 9000 	strh.w	r9, [r2]
  9e:	4a67      	ldr	r2, [pc, #412]	; (23c <_ZN6OV564012setFramesizeEii.part.0+0x23c>)
  a0:	f9b2 c000 	ldrsh.w	ip, [r2]
  a4:	45bc      	cmp	ip, r7
  a6:	bfa8      	it	ge
  a8:	46bc      	movge	ip, r7
  aa:	459c      	cmp	ip, r3
  ac:	bfb8      	it	lt
  ae:	469c      	movlt	ip, r3
  b0:	ebb5 0f5e 	cmp.w	r5, lr, lsr #1
  b4:	ea4f 035e 	mov.w	r3, lr, lsr #1
  b8:	fa0f fc8c 	sxth.w	ip, ip
  bc:	f8a2 c000 	strh.w	ip, [r2]
  c0:	f340 81f9 	ble.w	4b6 <_ZN6OV564012setFramesizeEii.part.0+0x4b6>
  c4:	f04f 0811 	mov.w	r8, #17
  c8:	2701      	movs	r7, #1
  ca:	2300      	movs	r3, #0
  cc:	9713      	str	r7, [sp, #76]	; 0x4c
  ce:	9305      	str	r3, [sp, #20]
  d0:	f8cd 800c 	str.w	r8, [sp, #12]
  d4:	f10e 0310 	add.w	r3, lr, #16
  d8:	b29a      	uxth	r2, r3
  da:	f100 0308 	add.w	r3, r0, #8
  de:	f5c2 6a23 	rsb	sl, r2, #2608	; 0xa30
  e2:	b29b      	uxth	r3, r3
  e4:	9206      	str	r2, [sp, #24]
  e6:	f1ba 0f00 	cmp.w	sl, #0
  ea:	9303      	str	r3, [sp, #12]
  ec:	4653      	mov	r3, sl
  ee:	bfb8      	it	lt
  f0:	f10a 0303 	addlt.w	r3, sl, #3
  f4:	f1b9 0f00 	cmp.w	r9, #0
  f8:	ea4f 03a3 	mov.w	r3, r3, asr #2
  fc:	bfb8      	it	lt
  fe:	f109 0901 	addlt.w	r9, r9, #1
 102:	eb03 0369 	add.w	r3, r3, r9, asr #1
 106:	005b      	lsls	r3, r3, #1
 108:	4553      	cmp	r3, sl
 10a:	bfa8      	it	ge
 10c:	4653      	movge	r3, sl
 10e:	f113 0f08 	cmn.w	r3, #8
 112:	f280 81c6 	bge.w	4a2 <_ZN6OV564012setFramesizeEii.part.0+0x4a2>
 116:	f04f 0a00 	mov.w	sl, #0
 11a:	ee08 aa90 	vmov	s17, sl
 11e:	f8cd a028 	str.w	sl, [sp, #40]	; 0x28
 122:	9b0a      	ldr	r3, [sp, #40]	; 0x28
 124:	f10e 0e0f 	add.w	lr, lr, #15
 128:	449e      	add	lr, r3
 12a:	fa1f f38e 	uxth.w	r3, lr
 12e:	9304      	str	r3, [sp, #16]
 130:	9b03      	ldr	r3, [sp, #12]
 132:	f5c3 6ef3 	rsb	lr, r3, #1944	; 0x798
 136:	f1be 0f00 	cmp.w	lr, #0
 13a:	4673      	mov	r3, lr
 13c:	bfb8      	it	lt
 13e:	f10e 0303 	addlt.w	r3, lr, #3
 142:	f1bc 0f00 	cmp.w	ip, #0
 146:	ea4f 03a3 	mov.w	r3, r3, asr #2
 14a:	bfb8      	it	lt
 14c:	f10c 0c01 	addlt.w	ip, ip, #1
 150:	eba3 036c 	sub.w	r3, r3, ip, asr #1
 154:	005b      	lsls	r3, r3, #1
 156:	4573      	cmp	r3, lr
 158:	bfa8      	it	ge
 15a:	4673      	movge	r3, lr
 15c:	1d1a      	adds	r2, r3, #4
 15e:	f2c0 81bb 	blt.w	4d8 <_ZN6OV564012setFramesizeEii.part.0+0x4d8>
 162:	3306      	adds	r3, #6
 164:	b29a      	uxth	r2, r3
 166:	920b      	str	r2, [sp, #44]	; 0x2c
 168:	f3c3 2207 	ubfx	r2, r3, #8, #8
 16c:	b2db      	uxtb	r3, r3
 16e:	ee09 2a10 	vmov	s18, r2
 172:	9310      	str	r3, [sp, #64]	; 0x40
 174:	ee07 1a90 	vmov	s15, r1
 178:	9b0b      	ldr	r3, [sp, #44]	; 0x2c
 17a:	3007      	adds	r0, #7
 17c:	eef8 6ae7 	vcvt.f32.s32	s13, s15
 180:	ee07 ba90 	vmov	s15, fp
 184:	4418      	add	r0, r3
 186:	9b06      	ldr	r3, [sp, #24]
 188:	eeb8 7ae7 	vcvt.f32.s32	s14, s15
 18c:	ee07 6a90 	vmov	s15, r6
 190:	fa1f f980 	uxth.w	r9, r0
 194:	eeb8 6ae7 	vcvt.f32.s32	s12, s15
 198:	ee07 5a90 	vmov	s15, r5
 19c:	eef8 7ae7 	vcvt.f32.s32	s15, s15
 1a0:	ee87 8a06 	vdiv.f32	s16, s14, s12
 1a4:	eec6 5aa7 	vdiv.f32	s11, s13, s15
 1a8:	fbb3 f1f7 	udiv	r1, r3, r7
 1ac:	eef4 5a48 	vcmp.f32	s11, s16
 1b0:	eef1 fa10 	vmrs	APSR_nzcv, fpscr
 1b4:	bf48      	it	mi
 1b6:	eeb0 8a65 	vmovmi.f32	s16, s11
 1ba:	ee67 7a88 	vmul.f32	s15, s15, s16
 1be:	ee26 6a08 	vmul.f32	s12, s12, s16
 1c2:	eefc 7ae7 	vcvt.u32.f32	s15, s15
 1c6:	eebc 6ac6 	vcvt.u32.f32	s12, s12
 1ca:	ee17 3a90 	vmov	r3, s15
 1ce:	b29b      	uxth	r3, r3
 1d0:	1aca      	subs	r2, r1, r3
 1d2:	9312      	str	r3, [sp, #72]	; 0x48
 1d4:	9b03      	ldr	r3, [sp, #12]
 1d6:	bf48      	it	mi
 1d8:	3201      	addmi	r2, #1
 1da:	1050      	asrs	r0, r2, #1
 1dc:	f3c2 024f 	ubfx	r2, r2, #1, #16
 1e0:	fbb3 f3f7 	udiv	r3, r3, r7
 1e4:	920c      	str	r2, [sp, #48]	; 0x30
 1e6:	ee16 2a10 	vmov	r2, s12
 1ea:	f103 0b18 	add.w	fp, r3, #24
 1ee:	9007      	str	r0, [sp, #28]
 1f0:	b297      	uxth	r7, r2
 1f2:	4620      	mov	r0, r4
 1f4:	1bda      	subs	r2, r3, r7
 1f6:	4b12      	ldr	r3, [pc, #72]	; (240 <_ZN6OV564012setFramesizeEii.part.0+0x240>)
 1f8:	bf48      	it	mi
 1fa:	3201      	addmi	r2, #1
 1fc:	8019      	strh	r1, [r3, #0]
 1fe:	f1bb 0ff8 	cmp.w	fp, #248	; 0xf8
 202:	b2a9      	uxth	r1, r5
 204:	ea4f 0362 	mov.w	r3, r2, asr #1
 208:	bfb8      	it	lt
 20a:	f04f 0bf8 	movlt.w	fp, #248	; 0xf8
 20e:	9308      	str	r3, [sp, #32]
 210:	f3c2 034f 	ubfx	r3, r2, #1, #16
 214:	930d      	str	r3, [sp, #52]	; 0x34
 216:	f7ff fffe 	bl	0 <_ZN6OV564012setFramesizeEii.part.0>
 21a:	fa1f f28b 	uxth.w	r2, fp
 21e:	7a23      	ldrb	r3, [r4, #8]
 220:	9009      	str	r0, [sp, #36]	; 0x24
 222:	920f      	str	r2, [sp, #60]	; 0x3c
 224:	b282      	uxth	r2, r0
 226:	920e      	str	r2, [sp, #56]	; 0x38
 228:	2b00      	cmp	r3, #0
 22a:	f040 815c 	bne.w	4e6 <_ZN6OV564012setFramesizeEii.part.0+0x4e6>
 22e:	e009      	b.n	244 <_ZN6OV564012setFramesizeEii.part.0+0x244>
 230:	00000000 	.word	0x00000000
 234:	00000000 	.word	0x00000000
 238:	00000000 	.word	0x00000000
 23c:	00000000 	.word	0x00000000
 240:	00000000 	.word	0x00000000
 244:	ee18 2a90 	vmov	r2, s17
 248:	f44f 5160 	mov.w	r1, #14336	; 0x3800
 24c:	4620      	mov	r0, r4
 24e:	f7ff fffe 	bl	0 <_ZN6OV564012setFramesizeEii.part.0>
 252:	4607      	mov	r7, r0
 254:	4652      	mov	r2, sl
 256:	f643 0101 	movw	r1, #14337	; 0x3801
 25a:	4620      	mov	r0, r4
 25c:	f3c5 2a07 	ubfx	sl, r5, #8, #8
 260:	f7ff fffe 	bl	0 <_ZN6OV564012setFramesizeEii.part.0>
 264:	4307      	orrs	r7, r0
 266:	ee19 2a10 	vmov	r2, s18
 26a:	f643 0102 	movw	r1, #14338	; 0x3802
 26e:	b2ff      	uxtb	r7, r7
 270:	4620      	mov	r0, r4
 272:	f7ff fffe 	bl	0 <_ZN6OV564012setFramesizeEii.part.0>
 276:	9a10      	ldr	r2, [sp, #64]	; 0x40
 278:	4307      	orrs	r7, r0
 27a:	f643 0103 	movw	r1, #14339	; 0x3803
 27e:	4620      	mov	r0, r4
 280:	b2ed      	uxtb	r5, r5
 282:	b2ff      	uxtb	r7, r7
 284:	f7ff fffe 	bl	0 <_ZN6OV564012setFramesizeEii.part.0>
 288:	9b04      	ldr	r3, [sp, #16]
 28a:	4307      	orrs	r7, r0
 28c:	f643 0104 	movw	r1, #14340	; 0x3804
 290:	0a1a      	lsrs	r2, r3, #8
 292:	4620      	mov	r0, r4
 294:	b2ff      	uxtb	r7, r7
 296:	f7ff fffe 	bl	0 <_ZN6OV564012setFramesizeEii.part.0>
 29a:	f89d 2010 	ldrb.w	r2, [sp, #16]
 29e:	4307      	orrs	r7, r0
 2a0:	f643 0105 	movw	r1, #14341	; 0x3805
 2a4:	4620      	mov	r0, r4
 2a6:	b2ff      	uxtb	r7, r7
 2a8:	f7ff fffe 	bl	0 <_ZN6OV564012setFramesizeEii.part.0>
 2ac:	f643 0106 	movw	r1, #14342	; 0x3806
 2b0:	4307      	orrs	r7, r0
 2b2:	ea4f 2219 	mov.w	r2, r9, lsr #8
 2b6:	4620      	mov	r0, r4
 2b8:	b2ff      	uxtb	r7, r7
 2ba:	f7ff fffe 	bl	0 <_ZN6OV564012setFramesizeEii.part.0>
 2be:	f643 0107 	movw	r1, #14343	; 0x3807
 2c2:	4307      	orrs	r7, r0
 2c4:	fa5f f289 	uxtb.w	r2, r9
 2c8:	4620      	mov	r0, r4
 2ca:	f3c6 2907 	ubfx	r9, r6, #8, #8
 2ce:	b2ff      	uxtb	r7, r7
 2d0:	f7ff fffe 	bl	0 <_ZN6OV564012setFramesizeEii.part.0>
 2d4:	4652      	mov	r2, sl
 2d6:	4307      	orrs	r7, r0
 2d8:	f643 0108 	movw	r1, #14344	; 0x3808
 2dc:	4620      	mov	r0, r4
 2de:	b2f6      	uxtb	r6, r6
 2e0:	b2ff      	uxtb	r7, r7
 2e2:	f7ff fffe 	bl	0 <_ZN6OV564012setFramesizeEii.part.0>
 2e6:	462a      	mov	r2, r5
 2e8:	4307      	orrs	r7, r0
 2ea:	f643 0109 	movw	r1, #14345	; 0x3809
 2ee:	4620      	mov	r0, r4
 2f0:	b2ff      	uxtb	r7, r7
 2f2:	f7ff fffe 	bl	0 <_ZN6OV564012setFramesizeEii.part.0>
 2f6:	464a      	mov	r2, r9
 2f8:	4307      	orrs	r7, r0
 2fa:	f643 010a 	movw	r1, #14346	; 0x380a
 2fe:	4620      	mov	r0, r4
 300:	b2ff      	uxtb	r7, r7
 302:	f7ff fffe 	bl	0 <_ZN6OV564012setFramesizeEii.part.0>
 306:	4632      	mov	r2, r6
 308:	4307      	orrs	r7, r0
 30a:	f643 010b 	movw	r1, #14347	; 0x380b
 30e:	4620      	mov	r0, r4
 310:	b2ff      	uxtb	r7, r7
 312:	f7ff fffe 	bl	0 <_ZN6OV564012setFramesizeEii.part.0>
 316:	9b0e      	ldr	r3, [sp, #56]	; 0x38
 318:	4307      	orrs	r7, r0
 31a:	f643 010c 	movw	r1, #14348	; 0x380c
 31e:	0a1a      	lsrs	r2, r3, #8
 320:	4620      	mov	r0, r4
 322:	b2ff      	uxtb	r7, r7
 324:	f7ff fffe 	bl	0 <_ZN6OV564012setFramesizeEii.part.0>
 328:	f89d 2024 	ldrb.w	r2, [sp, #36]	; 0x24
 32c:	4307      	orrs	r7, r0
 32e:	f643 010d 	movw	r1, #14349	; 0x380d
 332:	4620      	mov	r0, r4
 334:	b2ff      	uxtb	r7, r7
 336:	f7ff fffe 	bl	0 <_ZN6OV564012setFramesizeEii.part.0>
 33a:	9b0f      	ldr	r3, [sp, #60]	; 0x3c
 33c:	4307      	orrs	r7, r0
 33e:	f643 010e 	movw	r1, #14350	; 0x380e
 342:	0a1a      	lsrs	r2, r3, #8
 344:	4620      	mov	r0, r4
 346:	b2ff      	uxtb	r7, r7
 348:	f7ff fffe 	bl	0 <_ZN6OV564012setFramesizeEii.part.0>
 34c:	f643 010f 	movw	r1, #14351	; 0x380f
 350:	4307      	orrs	r7, r0
 352:	fa5f f28b 	uxtb.w	r2, fp
 356:	4620      	mov	r0, r4
 358:	b2ff      	uxtb	r7, r7
 35a:	f7ff fffe 	bl	0 <_ZN6OV564012setFramesizeEii.part.0>
 35e:	9b0c      	ldr	r3, [sp, #48]	; 0x30
 360:	4307      	orrs	r7, r0
 362:	f643 0110 	movw	r1, #14352	; 0x3810
 366:	0a1a      	lsrs	r2, r3, #8
 368:	4620      	mov	r0, r4
 36a:	b2ff      	uxtb	r7, r7
 36c:	f7ff fffe 	bl	0 <_ZN6OV564012setFramesizeEii.part.0>
 370:	f89d 201c 	ldrb.w	r2, [sp, #28]
 374:	4307      	orrs	r7, r0
 376:	f643 0111 	movw	r1, #14353	; 0x3811
 37a:	4620      	mov	r0, r4
 37c:	b2ff      	uxtb	r7, r7
 37e:	f7ff fffe 	bl	0 <_ZN6OV564012setFramesizeEii.part.0>
 382:	9b0d      	ldr	r3, [sp, #52]	; 0x34
 384:	4338      	orrs	r0, r7
 386:	f643 0112 	movw	r1, #14354	; 0x3812
 38a:	0a1a      	lsrs	r2, r3, #8
 38c:	b2c7      	uxtb	r7, r0
 38e:	4620      	mov	r0, r4
 390:	f7ff fffe 	bl	0 <_ZN6OV564012setFramesizeEii.part.0>
 394:	f89d 2020 	ldrb.w	r2, [sp, #32]
 398:	4338      	orrs	r0, r7
 39a:	f643 0113 	movw	r1, #14355	; 0x3813
 39e:	b2c7      	uxtb	r7, r0
 3a0:	4620      	mov	r0, r4
 3a2:	f7ff fffe 	bl	0 <_ZN6OV564012setFramesizeEii.part.0>
 3a6:	4642      	mov	r2, r8
 3a8:	4307      	orrs	r7, r0
 3aa:	f643 0114 	movw	r1, #14356	; 0x3814
 3ae:	4620      	mov	r0, r4
 3b0:	b2ff      	uxtb	r7, r7
 3b2:	f7ff fffe 	bl	0 <_ZN6OV564012setFramesizeEii.part.0>
 3b6:	4642      	mov	r2, r8
 3b8:	4307      	orrs	r7, r0
 3ba:	f643 0115 	movw	r1, #14357	; 0x3815
 3be:	4620      	mov	r0, r4
 3c0:	b2ff      	uxtb	r7, r7
 3c2:	f7ff fffe 	bl	0 <_ZN6OV564012setFramesizeEii.part.0>
 3c6:	f10d 0257 	add.w	r2, sp, #87	; 0x57
 3ca:	4307      	orrs	r7, r0
 3cc:	f643 0120 	movw	r1, #14368	; 0x3820
 3d0:	4620      	mov	r0, r4
 3d2:	b2ff      	uxtb	r7, r7
 3d4:	f7ff fffe 	bl	0 <_ZN6OV564012setFramesizeEii.part.0>
 3d8:	f89d 2057 	ldrb.w	r2, [sp, #87]	; 0x57
 3dc:	4338      	orrs	r0, r7
 3de:	9b05      	ldr	r3, [sp, #20]
 3e0:	f022 0201 	bic.w	r2, r2, #1
 3e4:	f643 0120 	movw	r1, #14368	; 0x3820
 3e8:	b2c7      	uxtb	r7, r0
 3ea:	4620      	mov	r0, r4
 3ec:	431a      	orrs	r2, r3
 3ee:	f7ff fffe 	bl	0 <_ZN6OV564012setFramesizeEii.part.0>
 3f2:	4338      	orrs	r0, r7
 3f4:	f10d 0257 	add.w	r2, sp, #87	; 0x57
 3f8:	f643 0121 	movw	r1, #14369	; 0x3821
 3fc:	b2c7      	uxtb	r7, r0
 3fe:	4620      	mov	r0, r4
 400:	f7ff fffe 	bl	0 <_ZN6OV564012setFramesizeEii.part.0>
 404:	f89d 2057 	ldrb.w	r2, [sp, #87]	; 0x57
 408:	4307      	orrs	r7, r0
 40a:	9b05      	ldr	r3, [sp, #20]
 40c:	f022 0201 	bic.w	r2, r2, #1
 410:	f643 0121 	movw	r1, #14369	; 0x3821
 414:	b2ff      	uxtb	r7, r7
 416:	4620      	mov	r0, r4
 418:	431a      	orrs	r2, r3
 41a:	f7ff fffe 	bl	0 <_ZN6OV564012setFramesizeEii.part.0>
 41e:	4307      	orrs	r7, r0
 420:	4652      	mov	r2, sl
 422:	f244 6102 	movw	r1, #17922	; 0x4602
 426:	b2ff      	uxtb	r7, r7
 428:	4620      	mov	r0, r4
 42a:	f7ff fffe 	bl	0 <_ZN6OV564012setFramesizeEii.part.0>
 42e:	462a      	mov	r2, r5
 430:	4338      	orrs	r0, r7
 432:	f244 6103 	movw	r1, #17923	; 0x4603
 436:	b2c5      	uxtb	r5, r0
 438:	4620      	mov	r0, r4
 43a:	f7ff fffe 	bl	0 <_ZN6OV564012setFramesizeEii.part.0>
 43e:	464a      	mov	r2, r9
 440:	4305      	orrs	r5, r0
 442:	f244 6104 	movw	r1, #17924	; 0x4604
 446:	4620      	mov	r0, r4
 448:	b2ed      	uxtb	r5, r5
 44a:	f7ff fffe 	bl	0 <_ZN6OV564012setFramesizeEii.part.0>
 44e:	4632      	mov	r2, r6
 450:	4305      	orrs	r5, r0
 452:	f244 6105 	movw	r1, #17925	; 0x4605
 456:	4620      	mov	r0, r4
 458:	b2ed      	uxtb	r5, r5
 45a:	f7ff fffe 	bl	0 <_ZN6OV564012setFramesizeEii.part.0>
 45e:	4328      	orrs	r0, r5
 460:	b2c0      	uxtb	r0, r0
 462:	b017      	add	sp, #92	; 0x5c
 464:	ecbd 8b04 	vpop	{d8-d9}
 468:	e8bd 8ff0 	ldmia.w	sp!, {r4, r5, r6, r7, r8, r9, sl, fp, pc}
 46c:	2001      	movs	r0, #1
 46e:	b017      	add	sp, #92	; 0x5c
 470:	ecbd 8b04 	vpop	{d8-d9}
 474:	e8bd 8ff0 	ldmia.w	sp!, {r4, r5, r6, r7, r8, r9, sl, fp, pc}
 478:	ea45 0306 	orr.w	r3, r5, r6
 47c:	0759      	lsls	r1, r3, #29
 47e:	f43f add6 	beq.w	2e <_ZN6OV564012setFramesizeEii.part.0+0x2e>
 482:	7a23      	ldrb	r3, [r4, #8]
 484:	2b00      	cmp	r3, #0
 486:	d0f1      	beq.n	46c <_ZN6OV564012setFramesizeEii.part.0+0x46c>
 488:	212c      	movs	r1, #44	; 0x2c
 48a:	4851      	ldr	r0, [pc, #324]	; (5d0 <_ZN6OV564012setFramesizeEii.part.0+0x5d0>)
 48c:	f7ff fffe 	bl	0 <usb_serial_write>
 490:	2001      	movs	r0, #1
 492:	e7ec      	b.n	46e <_ZN6OV564012setFramesizeEii.part.0+0x46e>
 494:	4613      	mov	r3, r2
 496:	484f      	ldr	r0, [pc, #316]	; (5d4 <_ZN6OV564012setFramesizeEii.part.0+0x5d4>)
 498:	460a      	mov	r2, r1
 49a:	494f      	ldr	r1, [pc, #316]	; (5d8 <_ZN6OV564012setFramesizeEii.part.0+0x5d8>)
 49c:	f7ff fffe 	bl	0 <_ZN5Print6printfEPKcz>
 4a0:	e5be      	b.n	20 <_ZN6OV564012setFramesizeEii.part.0+0x20>
 4a2:	3308      	adds	r3, #8
 4a4:	b29a      	uxth	r2, r3
 4a6:	fa5f fa83 	uxtb.w	sl, r3
 4aa:	920a      	str	r2, [sp, #40]	; 0x28
 4ac:	f3c3 2207 	ubfx	r2, r3, #8, #8
 4b0:	ee08 2a90 	vmov	s17, r2
 4b4:	e635      	b.n	122 <_ZN6OV564012setFramesizeEii.part.0+0x122>
 4b6:	ebb6 0f50 	cmp.w	r6, r0, lsr #1
 4ba:	ea4f 0750 	mov.w	r7, r0, lsr #1
 4be:	f73f ae01 	bgt.w	c4 <_ZN6OV564012setFramesizeEii.part.0+0xc4>
 4c2:	4619      	mov	r1, r3
 4c4:	46bb      	mov	fp, r7
 4c6:	f04f 0831 	mov.w	r8, #49	; 0x31
 4ca:	2702      	movs	r7, #2
 4cc:	2301      	movs	r3, #1
 4ce:	9713      	str	r7, [sp, #76]	; 0x4c
 4d0:	9305      	str	r3, [sp, #20]
 4d2:	f8cd 800c 	str.w	r8, [sp, #12]
 4d6:	e5fd      	b.n	d4 <_ZN6OV564012setFramesizeEii.part.0+0xd4>
 4d8:	2302      	movs	r3, #2
 4da:	2200      	movs	r2, #0
 4dc:	9310      	str	r3, [sp, #64]	; 0x40
 4de:	ee09 2a10 	vmov	s18, r2
 4e2:	930b      	str	r3, [sp, #44]	; 0x2c
 4e4:	e646      	b.n	174 <_ZN6OV564012setFramesizeEii.part.0+0x174>
 4e6:	2112      	movs	r1, #18
 4e8:	483c      	ldr	r0, [pc, #240]	; (5dc <_ZN6OV564012setFramesizeEii.part.0+0x5dc>)
 4ea:	f7ff fffe 	bl	0 <usb_serial_write>
 4ee:	4839      	ldr	r0, [pc, #228]	; (5d4 <_ZN6OV564012setFramesizeEii.part.0+0x5d4>)
 4f0:	f7ff fffe 	bl	0 <_ZN5Print7printlnEv>
 4f4:	2109      	movs	r1, #9
 4f6:	483a      	ldr	r0, [pc, #232]	; (5e0 <_ZN6OV564012setFramesizeEii.part.0+0x5e0>)
 4f8:	f7ff fffe 	bl	0 <usb_serial_write>
 4fc:	4835      	ldr	r0, [pc, #212]	; (5d4 <_ZN6OV564012setFramesizeEii.part.0+0x5d4>)
 4fe:	f7ff fffe 	bl	0 <_ZN5Print7printlnEv>
 502:	9b11      	ldr	r3, [sp, #68]	; 0x44
 504:	4a37      	ldr	r2, [pc, #220]	; (5e4 <_ZN6OV564012setFramesizeEii.part.0+0x5e4>)
 506:	9301      	str	r3, [sp, #4]
 508:	9b02      	ldr	r3, [sp, #8]
 50a:	4937      	ldr	r1, [pc, #220]	; (5e8 <_ZN6OV564012setFramesizeEii.part.0+0x5e8>)
 50c:	9300      	str	r3, [sp, #0]
 50e:	4b37      	ldr	r3, [pc, #220]	; (5ec <_ZN6OV564012setFramesizeEii.part.0+0x5ec>)
 510:	8812      	ldrh	r2, [r2, #0]
 512:	881b      	ldrh	r3, [r3, #0]
 514:	482f      	ldr	r0, [pc, #188]	; (5d4 <_ZN6OV564012setFramesizeEii.part.0+0x5d4>)
 516:	f7ff fffe 	bl	0 <_ZN5Print6printfEPKcz>
 51a:	4b35      	ldr	r3, [pc, #212]	; (5f0 <_ZN6OV564012setFramesizeEii.part.0+0x5f0>)
 51c:	4a35      	ldr	r2, [pc, #212]	; (5f4 <_ZN6OV564012setFramesizeEii.part.0+0x5f4>)
 51e:	f9b3 3000 	ldrsh.w	r3, [r3]
 522:	f9b2 2000 	ldrsh.w	r2, [r2]
 526:	4934      	ldr	r1, [pc, #208]	; (5f8 <_ZN6OV564012setFramesizeEii.part.0+0x5f8>)
 528:	482a      	ldr	r0, [pc, #168]	; (5d4 <_ZN6OV564012setFramesizeEii.part.0+0x5d4>)
 52a:	f7ff fffe 	bl	0 <_ZN5Print6printfEPKcz>
 52e:	2109      	movs	r1, #9
 530:	4832      	ldr	r0, [pc, #200]	; (5fc <_ZN6OV564012setFramesizeEii.part.0+0x5fc>)
 532:	f7ff fffe 	bl	0 <usb_serial_write>
 536:	4827      	ldr	r0, [pc, #156]	; (5d4 <_ZN6OV564012setFramesizeEii.part.0+0x5d4>)
 538:	f7ff fffe 	bl	0 <_ZN5Print7printlnEv>
 53c:	9a13      	ldr	r2, [sp, #76]	; 0x4c
 53e:	4930      	ldr	r1, [pc, #192]	; (600 <_ZN6OV564012setFramesizeEii.part.0+0x600>)
 540:	4824      	ldr	r0, [pc, #144]	; (5d4 <_ZN6OV564012setFramesizeEii.part.0+0x5d4>)
 542:	f7ff fffe 	bl	0 <_ZN5Print6printfEPKcz>
 546:	2109      	movs	r1, #9
 548:	482e      	ldr	r0, [pc, #184]	; (604 <_ZN6OV564012setFramesizeEii.part.0+0x604>)
 54a:	f7ff fffe 	bl	0 <usb_serial_write>
 54e:	4821      	ldr	r0, [pc, #132]	; (5d4 <_ZN6OV564012setFramesizeEii.part.0+0x5d4>)
 550:	f7ff fffe 	bl	0 <_ZN5Print7printlnEv>
 554:	9b0a      	ldr	r3, [sp, #40]	; 0x28
 556:	9904      	ldr	r1, [sp, #16]
 558:	9a06      	ldr	r2, [sp, #24]
 55a:	9300      	str	r3, [sp, #0]
 55c:	9101      	str	r1, [sp, #4]
 55e:	9b03      	ldr	r3, [sp, #12]
 560:	4929      	ldr	r1, [pc, #164]	; (608 <_ZN6OV564012setFramesizeEii.part.0+0x608>)
 562:	481c      	ldr	r0, [pc, #112]	; (5d4 <_ZN6OV564012setFramesizeEii.part.0+0x5d4>)
 564:	f7ff fffe 	bl	0 <_ZN5Print6printfEPKcz>
 568:	464b      	mov	r3, r9
 56a:	9a0b      	ldr	r2, [sp, #44]	; 0x2c
 56c:	4927      	ldr	r1, [pc, #156]	; (60c <_ZN6OV564012setFramesizeEii.part.0+0x60c>)
 56e:	4819      	ldr	r0, [pc, #100]	; (5d4 <_ZN6OV564012setFramesizeEii.part.0+0x5d4>)
 570:	f7ff fffe 	bl	0 <_ZN5Print6printfEPKcz>
 574:	4926      	ldr	r1, [pc, #152]	; (610 <_ZN6OV564012setFramesizeEii.part.0+0x610>)
 576:	4817      	ldr	r0, [pc, #92]	; (5d4 <_ZN6OV564012setFramesizeEii.part.0+0x5d4>)
 578:	f7ff fffe 	bl	0 <_ZN5Print6printfEPKcz>
 57c:	eeb7 7ac8 	vcvt.f64.f32	d7, s16
 580:	9b12      	ldr	r3, [sp, #72]	; 0x48
 582:	4924      	ldr	r1, [pc, #144]	; (614 <_ZN6OV564012setFramesizeEii.part.0+0x614>)
 584:	9300      	str	r3, [sp, #0]
 586:	9701      	str	r7, [sp, #4]
 588:	4812      	ldr	r0, [pc, #72]	; (5d4 <_ZN6OV564012setFramesizeEii.part.0+0x5d4>)
 58a:	ec53 2b17 	vmov	r2, r3, d7
 58e:	f7ff fffe 	bl	0 <_ZN5Print6printfEPKcz>
 592:	f8bd 3020 	ldrh.w	r3, [sp, #32]
 596:	f8bd 201c 	ldrh.w	r2, [sp, #28]
 59a:	491f      	ldr	r1, [pc, #124]	; (618 <_ZN6OV564012setFramesizeEii.part.0+0x618>)
 59c:	480d      	ldr	r0, [pc, #52]	; (5d4 <_ZN6OV564012setFramesizeEii.part.0+0x5d4>)
 59e:	f7ff fffe 	bl	0 <_ZN5Print6printfEPKcz>
 5a2:	491e      	ldr	r1, [pc, #120]	; (61c <_ZN6OV564012setFramesizeEii.part.0+0x61c>)
 5a4:	480b      	ldr	r0, [pc, #44]	; (5d4 <_ZN6OV564012setFramesizeEii.part.0+0x5d4>)
 5a6:	f7ff fffe 	bl	0 <_ZN5Print6printfEPKcz>
 5aa:	4b1d      	ldr	r3, [pc, #116]	; (620 <_ZN6OV564012setFramesizeEii.part.0+0x620>)
 5ac:	491d      	ldr	r1, [pc, #116]	; (624 <_ZN6OV564012setFramesizeEii.part.0+0x624>)
 5ae:	881a      	ldrh	r2, [r3, #0]
 5b0:	fa1f f38b 	uxth.w	r3, fp
 5b4:	4807      	ldr	r0, [pc, #28]	; (5d4 <_ZN6OV564012setFramesizeEii.part.0+0x5d4>)
 5b6:	9300      	str	r3, [sp, #0]
 5b8:	f8bd 3024 	ldrh.w	r3, [sp, #36]	; 0x24
 5bc:	f7ff fffe 	bl	0 <_ZN5Print6printfEPKcz>
 5c0:	4643      	mov	r3, r8
 5c2:	4642      	mov	r2, r8
 5c4:	4918      	ldr	r1, [pc, #96]	; (628 <_ZN6OV564012setFramesizeEii.part.0+0x628>)
 5c6:	4803      	ldr	r0, [pc, #12]	; (5d4 <_ZN6OV564012setFramesizeEii.part.0+0x5d4>)
 5c8:	f7ff fffe 	bl	0 <_ZN5Print6printfEPKcz>
 5cc:	e63a      	b.n	244 <_ZN6OV564012setFramesizeEii.part.0+0x244>
 5ce:	bf00      	nop
 5d0:	0000000c 	.word	0x0000000c
 5d4:	00000000 	.word	0x00000000
 5d8:	00000000 	.word	0x00000000
 5dc:	0000003c 	.word	0x0000003c
 5e0:	00000050 	.word	0x00000050
 5e4:	00000000 	.word	0x00000000
 5e8:	0000005c 	.word	0x0000005c
 5ec:	00000000 	.word	0x00000000
 5f0:	00000000 	.word	0x00000000
 5f4:	00000000 	.word	0x00000000
 5f8:	000000a4 	.word	0x000000a4
 5fc:	000000c8 	.word	0x000000c8
 600:	000000d4 	.word	0x000000d4
 604:	000000e8 	.word	0x000000e8
 608:	000000f4 	.word	0x000000f4
 60c:	00000130 	.word	0x00000130
 610:	00000150 	.word	0x00000150
 614:	0000015c 	.word	0x0000015c
 618:	00000180 	.word	0x00000180
 61c:	00000198 	.word	0x00000198
 620:	00000000 	.word	0x00000000
 624:	000001a4 	.word	0x000001a4
 628:	000001dc 	.word	0x000001dc

Disassembly of section .text._ZN6OV564012setFramesizeEii:

00000000 <_ZN6OV564012setFramesizeEii>:
   0:	b111      	cbz	r1, 8 <_ZN6OV564012setFramesizeEii+0x8>
   2:	b10a      	cbz	r2, 8 <_ZN6OV564012setFramesizeEii+0x8>
   4:	f7ff bffe 	b.w	0 <_ZN6OV564012setFramesizeEii>
   8:	2001      	movs	r0, #1
   a:	4770      	bx	lr

Disassembly of section .text._ZN6OV564012setFramesizeE11framesize_t:

00000000 <_ZN6OV564012setFramesizeE11framesize_t>:
   0:	291a      	cmp	r1, #26
   2:	d818      	bhi.n	36 <_ZN6OV564012setFramesizeE11framesize_t+0x36>
   4:	4a0f      	ldr	r2, [pc, #60]	; (44 <_ZN6OV564012setFramesizeE11framesize_t+0x44>)
   6:	b410      	push	{r4}
   8:	6804      	ldr	r4, [r0, #0]
   a:	f8c0 10c8 	str.w	r1, [r0, #200]	; 0xc8
   e:	6be3      	ldr	r3, [r4, #60]	; 0x3c
  10:	f852 4031 	ldr.w	r4, [r2, r1, lsl #3]
  14:	eb02 02c1 	add.w	r2, r2, r1, lsl #3
  18:	490b      	ldr	r1, [pc, #44]	; (48 <_ZN6OV564012setFramesizeE11framesize_t+0x48>)
  1a:	6852      	ldr	r2, [r2, #4]
  1c:	428b      	cmp	r3, r1
  1e:	d10c      	bne.n	3a <_ZN6OV564012setFramesizeE11framesize_t+0x3a>
  20:	b12a      	cbz	r2, 2e <_ZN6OV564012setFramesizeE11framesize_t+0x2e>
  22:	b124      	cbz	r4, 2e <_ZN6OV564012setFramesizeE11framesize_t+0x2e>
  24:	4621      	mov	r1, r4
  26:	f85d 4b04 	ldr.w	r4, [sp], #4
  2a:	f7ff bffe 	b.w	0 <_ZN6OV564012setFramesizeE11framesize_t>
  2e:	2001      	movs	r0, #1
  30:	f85d 4b04 	ldr.w	r4, [sp], #4
  34:	4770      	bx	lr
  36:	2001      	movs	r0, #1
  38:	4770      	bx	lr
  3a:	4621      	mov	r1, r4
  3c:	f85d 4b04 	ldr.w	r4, [sp], #4
  40:	4718      	bx	r3
  42:	bf00      	nop
  44:	00000000 	.word	0x00000000
  48:	00000000 	.word	0x00000000

Disassembly of section .text._ZN6OV564013calculate_vtsEt:

00000000 <_ZN6OV564013calculate_vtsEt>:
   0:	f101 0018 	add.w	r0, r1, #24
   4:	28f8      	cmp	r0, #248	; 0xf8
   6:	bfb8      	it	lt
   8:	20f8      	movlt	r0, #248	; 0xf8
   a:	4770      	bx	lr

Disassembly of section .text._Z14print_pin_infoPKch:

00000000 <_Z14print_pin_infoPKch>:
   0:	b510      	push	{r4, lr}
   2:	460c      	mov	r4, r1
   4:	4602      	mov	r2, r0
   6:	490e      	ldr	r1, [pc, #56]	; (40 <_Z14print_pin_infoPKch+0x40>)
   8:	480e      	ldr	r0, [pc, #56]	; (44 <_Z14print_pin_infoPKch+0x44>)
   a:	4623      	mov	r3, r4
   c:	f7ff fffe 	bl	0 <_ZN5Print6printfEPKcz>
  10:	2c36      	cmp	r4, #54	; 0x36
  12:	d908      	bls.n	26 <_Z14print_pin_infoPKch+0x26>
  14:	210d      	movs	r1, #13
  16:	480c      	ldr	r0, [pc, #48]	; (48 <_Z14print_pin_infoPKch+0x48>)
  18:	f7ff fffe 	bl	0 <usb_serial_write>
  1c:	4809      	ldr	r0, [pc, #36]	; (44 <_Z14print_pin_infoPKch+0x44>)
  1e:	e8bd 4010 	ldmia.w	sp!, {r4, lr}
  22:	f7ff bffe 	b.w	0 <_ZN5Print7printlnEv>
  26:	4b09      	ldr	r3, [pc, #36]	; (4c <_Z14print_pin_infoPKch+0x4c>)
  28:	4909      	ldr	r1, [pc, #36]	; (50 <_Z14print_pin_infoPKch+0x50>)
  2a:	eb03 1304 	add.w	r3, r3, r4, lsl #4
  2e:	4805      	ldr	r0, [pc, #20]	; (44 <_Z14print_pin_infoPKch+0x44>)
  30:	e9d3 3201 	ldrd	r3, r2, [r3, #4]
  34:	e8bd 4010 	ldmia.w	sp!, {r4, lr}
  38:	6812      	ldr	r2, [r2, #0]
  3a:	681b      	ldr	r3, [r3, #0]
  3c:	f7ff bffe 	b.w	0 <_ZN5Print6printfEPKcz>
  40:	00000000 	.word	0x00000000
  44:	00000000 	.word	0x00000000
  48:	00000008 	.word	0x00000008
  4c:	00000000 	.word	0x00000000
  50:	00000018 	.word	0x00000018

Disassembly of section .text._ZN6OV564016checkAFCmdStatusEth:

00000000 <_ZN6OV564016checkAFCmdStatusEth>:
   0:	e92d 43f0 	stmdb	sp!, {r4, r5, r6, r7, r8, r9, lr}
   4:	23ff      	movs	r3, #255	; 0xff
   6:	b083      	sub	sp, #12
   8:	4e18      	ldr	r6, [pc, #96]	; (6c <_ZN6OV564016checkAFCmdStatusEth+0x6c>)
   a:	4604      	mov	r4, r0
   c:	4689      	mov	r9, r1
   e:	4615      	mov	r5, r2
  10:	f8d6 8000 	ldr.w	r8, [r6]
  14:	f241 3788 	movw	r7, #5000	; 0x1388
  18:	f88d 3007 	strb.w	r3, [sp, #7]
  1c:	e00b      	b.n	36 <_ZN6OV564016checkAFCmdStatusEth+0x36>
  1e:	f7ff fffe 	bl	0 <_ZN6OV564016checkAFCmdStatusEth>
  22:	2001      	movs	r0, #1
  24:	f7ff fffe 	bl	0 <delay>
  28:	6833      	ldr	r3, [r6, #0]
  2a:	eba3 0308 	sub.w	r3, r3, r8
  2e:	42bb      	cmp	r3, r7
  30:	d80b      	bhi.n	4a <_ZN6OV564016checkAFCmdStatusEth+0x4a>
  32:	f89d 3007 	ldrb.w	r3, [sp, #7]
  36:	429d      	cmp	r5, r3
  38:	f10d 0207 	add.w	r2, sp, #7
  3c:	4649      	mov	r1, r9
  3e:	4620      	mov	r0, r4
  40:	d1ed      	bne.n	1e <_ZN6OV564016checkAFCmdStatusEth+0x1e>
  42:	2000      	movs	r0, #0
  44:	b003      	add	sp, #12
  46:	e8bd 83f0 	ldmia.w	sp!, {r4, r5, r6, r7, r8, r9, pc}
  4a:	7a23      	ldrb	r3, [r4, #8]
  4c:	b923      	cbnz	r3, 58 <_ZN6OV564016checkAFCmdStatusEth+0x58>
  4e:	f04f 30ff 	mov.w	r0, #4294967295	; 0xffffffff
  52:	b003      	add	sp, #12
  54:	e8bd 83f0 	ldmia.w	sp!, {r4, r5, r6, r7, r8, r9, pc}
  58:	462a      	mov	r2, r5
  5a:	4905      	ldr	r1, [pc, #20]	; (70 <_ZN6OV564016checkAFCmdStatusEth+0x70>)
  5c:	4805      	ldr	r0, [pc, #20]	; (74 <_ZN6OV564016checkAFCmdStatusEth+0x74>)
  5e:	f7ff fffe 	bl	0 <_ZN5Print6printfEPKcz>
  62:	f04f 30ff 	mov.w	r0, #4294967295	; 0xffffffff
  66:	b003      	add	sp, #12
  68:	e8bd 83f0 	ldmia.w	sp!, {r4, r5, r6, r7, r8, r9, pc}
  6c:	00000000 	.word	0x00000000
  70:	00000000 	.word	0x00000000
  74:	00000000 	.word	0x00000000

Disassembly of section .text._ZN6OV56405resetEv:

00000000 <_ZN6OV56405resetEv>:
   0:	2300      	movs	r3, #0
   2:	4958      	ldr	r1, [pc, #352]	; (164 <_ZN6OV56405resetEv+0x164>)
   4:	4a58      	ldr	r2, [pc, #352]	; (168 <_ZN6OV56405resetEv+0x168>)
   6:	e92d 41f0 	stmdb	sp!, {r4, r5, r6, r7, r8, lr}
   a:	8013      	strh	r3, [r2, #0]
   c:	4606      	mov	r6, r0
   e:	800b      	strh	r3, [r1, #0]
  10:	f44f 6123 	mov.w	r1, #2608	; 0xa30
  14:	4a55      	ldr	r2, [pc, #340]	; (16c <_ZN6OV56405resetEv+0x16c>)
  16:	4c56      	ldr	r4, [pc, #344]	; (170 <_ZN6OV56405resetEv+0x170>)
  18:	8011      	strh	r1, [r2, #0]
  1a:	f44f 61f3 	mov.w	r1, #1944	; 0x798
  1e:	4a55      	ldr	r2, [pc, #340]	; (174 <_ZN6OV56405resetEv+0x174>)
  20:	8011      	strh	r1, [r2, #0]
  22:	2211      	movs	r2, #17
  24:	4954      	ldr	r1, [pc, #336]	; (178 <_ZN6OV56405resetEv+0x178>)
  26:	800b      	strh	r3, [r1, #0]
  28:	f243 1103 	movw	r1, #12547	; 0x3103
  2c:	f7ff fffe 	bl	0 <_ZN6OV56405resetEv>
  30:	2282      	movs	r2, #130	; 0x82
  32:	f243 0108 	movw	r1, #12296	; 0x3008
  36:	4605      	mov	r5, r0
  38:	4630      	mov	r0, r6
  3a:	f7ff fffe 	bl	0 <_ZN6OV56405resetEv>
  3e:	4603      	mov	r3, r0
  40:	2005      	movs	r0, #5
  42:	431d      	orrs	r5, r3
  44:	f7ff fffe 	bl	0 <delay>
  48:	2220      	movs	r2, #32
  4a:	2140      	movs	r1, #64	; 0x40
  4c:	b2ed      	uxtb	r5, r5
  4e:	2347      	movs	r3, #71	; 0x47
  50:	e001      	b.n	56 <_ZN6OV56405resetEv+0x56>
  52:	7861      	ldrb	r1, [r4, #1]
  54:	78a2      	ldrb	r2, [r4, #2]
  56:	ea41 2103 	orr.w	r1, r1, r3, lsl #8
  5a:	4630      	mov	r0, r6
  5c:	f7ff fffe 	bl	0 <_ZN6OV56405resetEv>
  60:	f814 3f03 	ldrb.w	r3, [r4, #3]!
  64:	4305      	orrs	r5, r0
  66:	2b00      	cmp	r3, #0
  68:	d1f3      	bne.n	52 <_ZN6OV56405resetEv+0x52>
  6a:	f896 30d4 	ldrb.w	r3, [r6, #212]	; 0xd4
  6e:	b933      	cbnz	r3, 7e <_ZN6OV56405resetEv+0x7e>
  70:	f44f 7096 	mov.w	r0, #300	; 0x12c
  74:	f7ff fffe 	bl	0 <delay>
  78:	4628      	mov	r0, r5
  7a:	e8bd 81f0 	ldmia.w	sp!, {r4, r5, r6, r7, r8, pc}
  7e:	4f3f      	ldr	r7, [pc, #252]	; (17c <_ZN6OV56405resetEv+0x17c>)
  80:	2220      	movs	r2, #32
  82:	f44f 5140 	mov.w	r1, #12288	; 0x3000
  86:	4630      	mov	r0, r6
  88:	463c      	mov	r4, r7
  8a:	f7ff fffe 	bl	0 <_ZN6OV56405resetEv>
  8e:	f607 77ed 	addw	r7, r7, #4077	; 0xfed
  92:	2119      	movs	r1, #25
  94:	483a      	ldr	r0, [pc, #232]	; (180 <_ZN6OV56405resetEv+0x180>)
  96:	f5c4 4800 	rsb	r8, r4, #32768	; 0x8000
  9a:	f7ff fffe 	bl	0 <usb_serial_write>
  9e:	4839      	ldr	r0, [pc, #228]	; (184 <_ZN6OV56405resetEv+0x184>)
  a0:	f7ff fffe 	bl	0 <_ZN5Print7printlnEv>
  a4:	eb08 0104 	add.w	r1, r8, r4
  a8:	f814 2f01 	ldrb.w	r2, [r4, #1]!
  ac:	4630      	mov	r0, r6
  ae:	b289      	uxth	r1, r1
  b0:	f7ff fffe 	bl	0 <_ZN6OV56405resetEv>
  b4:	42bc      	cmp	r4, r7
  b6:	ea45 0500 	orr.w	r5, r5, r0
  ba:	d1f3      	bne.n	a4 <_ZN6OV56405resetEv+0xa4>
  bc:	2203      	movs	r2, #3
  be:	f243 0122 	movw	r1, #12322	; 0x3022
  c2:	4630      	mov	r0, r6
  c4:	f7ff fffe 	bl	0 <_ZN6OV56405resetEv>
  c8:	2200      	movs	r2, #0
  ca:	f243 0123 	movw	r1, #12323	; 0x3023
  ce:	4630      	mov	r0, r6
  d0:	f7ff fffe 	bl	0 <_ZN6OV56405resetEv>
  d4:	2200      	movs	r2, #0
  d6:	f243 0124 	movw	r1, #12324	; 0x3024
  da:	4630      	mov	r0, r6
  dc:	f7ff fffe 	bl	0 <_ZN6OV56405resetEv>
  e0:	2200      	movs	r2, #0
  e2:	f243 0125 	movw	r1, #12325	; 0x3025
  e6:	4630      	mov	r0, r6
  e8:	f7ff fffe 	bl	0 <_ZN6OV56405resetEv>
  ec:	2200      	movs	r2, #0
  ee:	f243 0126 	movw	r1, #12326	; 0x3026
  f2:	4630      	mov	r0, r6
  f4:	f7ff fffe 	bl	0 <_ZN6OV56405resetEv>
  f8:	2200      	movs	r2, #0
  fa:	f243 0127 	movw	r1, #12327	; 0x3027
  fe:	4630      	mov	r0, r6
 100:	f7ff fffe 	bl	0 <_ZN6OV56405resetEv>
 104:	2200      	movs	r2, #0
 106:	f243 0128 	movw	r1, #12328	; 0x3028
 10a:	4630      	mov	r0, r6
 10c:	f7ff fffe 	bl	0 <_ZN6OV56405resetEv>
 110:	227f      	movs	r2, #127	; 0x7f
 112:	f243 0129 	movw	r1, #12329	; 0x3029
 116:	4630      	mov	r0, r6
 118:	f7ff fffe 	bl	0 <_ZN6OV56405resetEv>
 11c:	2200      	movs	r2, #0
 11e:	f44f 5140 	mov.w	r1, #12288	; 0x3000
 122:	4630      	mov	r0, r6
 124:	f7ff fffe 	bl	0 <_ZN6OV56405resetEv>
 128:	2270      	movs	r2, #112	; 0x70
 12a:	f243 0129 	movw	r1, #12329	; 0x3029
 12e:	4604      	mov	r4, r0
 130:	4630      	mov	r0, r6
 132:	f7ff fffe 	bl	0 <_ZN6OV56405resetEv>
 136:	2800      	cmp	r0, #0
 138:	ea45 0500 	orr.w	r5, r5, r0
 13c:	db07      	blt.n	14e <_ZN6OV56405resetEv+0x14e>
 13e:	4325      	orrs	r5, r4
 140:	f44f 7096 	mov.w	r0, #300	; 0x12c
 144:	f7ff fffe 	bl	0 <delay>
 148:	4628      	mov	r0, r5
 14a:	e8bd 81f0 	ldmia.w	sp!, {r4, r5, r6, r7, r8, pc}
 14e:	7a33      	ldrb	r3, [r6, #8]
 150:	2b00      	cmp	r3, #0
 152:	d0f4      	beq.n	13e <_ZN6OV56405resetEv+0x13e>
 154:	211b      	movs	r1, #27
 156:	480c      	ldr	r0, [pc, #48]	; (188 <_ZN6OV56405resetEv+0x188>)
 158:	f7ff fffe 	bl	0 <usb_serial_write>
 15c:	4809      	ldr	r0, [pc, #36]	; (184 <_ZN6OV56405resetEv+0x184>)
 15e:	f7ff fffe 	bl	0 <_ZN5Print7printlnEv>
 162:	e7ec      	b.n	13e <_ZN6OV56405resetEv+0x13e>
 164:	00000000 	.word	0x00000000
 168:	00000000 	.word	0x00000000
 16c:	00000000 	.word	0x00000000
 170:	00000000 	.word	0x00000000
 174:	00000000 	.word	0x00000000
 178:	00000000 	.word	0x00000000
 17c:	ffffffff 	.word	0xffffffff
 180:	00000000 	.word	0x00000000
 184:	00000000 	.word	0x00000000
 188:	0000001c 	.word	0x0000001c

Disassembly of section .text._ZN6OV564015enableAutoFocusEb:

00000000 <_ZN6OV564015enableAutoFocusEb>:
   0:	f880 10d4 	strb.w	r1, [r0, #212]	; 0xd4
   4:	4770      	bx	lr
   6:	bf00      	nop

Disassembly of section .text._ZN6OV564010setQualityEi:

00000000 <_ZN6OV564010setQualityEi>:
   0:	b570      	push	{r4, r5, r6, lr}
   2:	b082      	sub	sp, #8
   4:	2300      	movs	r3, #0
   6:	460d      	mov	r5, r1
   8:	f244 4107 	movw	r1, #17415	; 0x4407
   c:	f10d 0207 	add.w	r2, sp, #7
  10:	4606      	mov	r6, r0
  12:	f88d 3007 	strb.w	r3, [sp, #7]
  16:	f7ff fffe 	bl	0 <_ZN6OV564010setQualityEi>
  1a:	f89d 2007 	ldrb.w	r2, [sp, #7]
  1e:	4604      	mov	r4, r0
  20:	f244 4107 	movw	r1, #17415	; 0x4407
  24:	4630      	mov	r0, r6
  26:	f022 023f 	bic.w	r2, r2, #63	; 0x3f
  2a:	ea42 02a5 	orr.w	r2, r2, r5, asr #2
  2e:	b2d2      	uxtb	r2, r2
  30:	f7ff fffe 	bl	0 <_ZN6OV564010setQualityEi>
  34:	4320      	orrs	r0, r4
  36:	b2c0      	uxtb	r0, r0
  38:	b002      	add	sp, #8
  3a:	bd70      	pop	{r4, r5, r6, pc}

Disassembly of section .text._ZN6OV564010getQualityEv:

00000000 <_ZN6OV564010getQualityEv>:
   0:	b500      	push	{lr}
   2:	b083      	sub	sp, #12
   4:	2300      	movs	r3, #0
   6:	f244 4107 	movw	r1, #17415	; 0x4407
   a:	f10d 0207 	add.w	r2, sp, #7
   e:	f88d 3007 	strb.w	r3, [sp, #7]
  12:	f7ff fffe 	bl	0 <_ZN6OV564010getQualityEv>
  16:	f89d 0007 	ldrb.w	r0, [sp, #7]
  1a:	b003      	add	sp, #12
  1c:	f85d fb04 	ldr.w	pc, [sp], #4

Disassembly of section .text._ZN6OV564014calc_pclk_freqEhhhhh:

00000000 <_ZN6OV564014calc_pclk_freqEhhhhh>:
   0:	b530      	push	{r4, r5, lr}
   2:	f8d0 40c0 	ldr.w	r4, [r0, #192]	; 0xc0
   6:	f001 010f 	and.w	r1, r1, #15
   a:	f89d e00c 	ldrb.w	lr, [sp, #12]
   e:	4d1c      	ldr	r5, [pc, #112]	; (80 <_ZN6OV564014calc_pclk_freqEhhhhh+0x80>)
  10:	f01e 0f10 	tst.w	lr, #16
  14:	f00e 0e0f 	and.w	lr, lr, #15
  18:	fb05 fc04 	mul.w	ip, r5, r4
  1c:	f89d 4010 	ldrb.w	r4, [sp, #16]
  20:	bf18      	it	ne
  22:	ea4f 0c5c 	movne.w	ip, ip, lsr #1
  26:	290a      	cmp	r1, #10
  28:	bf0c      	ite	eq
  2a:	210a      	moveq	r1, #10
  2c:	2108      	movne	r1, #8
  2e:	fbbc f1f1 	udiv	r1, ip, r1
  32:	f1be 0f05 	cmp.w	lr, #5
  36:	d804      	bhi.n	42 <_ZN6OV564014calc_pclk_freqEhhhhh+0x42>
  38:	e8df f00e 	tbb	[pc, lr]
  3c:	1a030607 	.word	0x1a030607
  40:	2017      	.short	0x2017
  42:	4810      	ldr	r0, [pc, #64]	; (84 <_ZN6OV564014calc_pclk_freqEhhhhh+0x84>)
  44:	fba0 0101 	umull	r0, r1, r0, r1
  48:	0849      	lsrs	r1, r1, #1
  4a:	fb01 f303 	mul.w	r3, r1, r3
  4e:	f004 0130 	and.w	r1, r4, #48	; 0x30
  52:	0912      	lsrs	r2, r2, #4
  54:	2920      	cmp	r1, #32
  56:	fbb3 f0f2 	udiv	r0, r3, r2
  5a:	d00b      	beq.n	74 <_ZN6OV564014calc_pclk_freqEhhhhh+0x74>
  5c:	2930      	cmp	r1, #48	; 0x30
  5e:	d00b      	beq.n	78 <_ZN6OV564014calc_pclk_freqEhhhhh+0x78>
  60:	2910      	cmp	r1, #16
  62:	d000      	beq.n	66 <_ZN6OV564014calc_pclk_freqEhhhhh+0x66>
  64:	bd30      	pop	{r4, r5, pc}
  66:	0840      	lsrs	r0, r0, #1
  68:	bd30      	pop	{r4, r5, pc}
  6a:	4806      	ldr	r0, [pc, #24]	; (84 <_ZN6OV564014calc_pclk_freqEhhhhh+0x84>)
  6c:	fba0 0101 	umull	r0, r1, r0, r1
  70:	0889      	lsrs	r1, r1, #2
  72:	e7ea      	b.n	4a <_ZN6OV564014calc_pclk_freqEhhhhh+0x4a>
  74:	0880      	lsrs	r0, r0, #2
  76:	bd30      	pop	{r4, r5, pc}
  78:	08c0      	lsrs	r0, r0, #3
  7a:	bd30      	pop	{r4, r5, pc}
  7c:	08c9      	lsrs	r1, r1, #3
  7e:	e7e4      	b.n	4a <_ZN6OV564014calc_pclk_freqEhhhhh+0x4a>
  80:	000f4240 	.word	0x000f4240
  84:	aaaaaaab 	.word	0xaaaaaaab

Disassembly of section .text._ZN6OV564014getExposure_usEPi:

00000000 <_ZN6OV564014getExposure_usEPi>:
   0:	b5f0      	push	{r4, r5, r6, r7, lr}
   2:	b087      	sub	sp, #28
   4:	2300      	movs	r3, #0
   6:	4604      	mov	r4, r0
   8:	460e      	mov	r6, r1
   a:	aa03      	add	r2, sp, #12
   c:	f243 0134 	movw	r1, #12340	; 0x3034
  10:	f88d 300c 	strb.w	r3, [sp, #12]
  14:	f88d 300d 	strb.w	r3, [sp, #13]
  18:	f88d 300e 	strb.w	r3, [sp, #14]
  1c:	f88d 300f 	strb.w	r3, [sp, #15]
  20:	f88d 3010 	strb.w	r3, [sp, #16]
  24:	f88d 3011 	strb.w	r3, [sp, #17]
  28:	f88d 3012 	strb.w	r3, [sp, #18]
  2c:	f88d 3013 	strb.w	r3, [sp, #19]
  30:	f88d 3015 	strb.w	r3, [sp, #21]
  34:	f88d 3016 	strb.w	r3, [sp, #22]
  38:	f88d 3017 	strb.w	r3, [sp, #23]
  3c:	f7ff fffe 	bl	0 <_ZN6OV564014getExposure_usEPi>
  40:	4605      	mov	r5, r0
  42:	f10d 020d 	add.w	r2, sp, #13
  46:	f243 0135 	movw	r1, #12341	; 0x3035
  4a:	4620      	mov	r0, r4
  4c:	f7ff fffe 	bl	0 <_ZN6OV564014getExposure_usEPi>
  50:	4305      	orrs	r5, r0
  52:	f10d 020e 	add.w	r2, sp, #14
  56:	f243 0136 	movw	r1, #12342	; 0x3036
  5a:	b2ed      	uxtb	r5, r5
  5c:	4620      	mov	r0, r4
  5e:	f7ff fffe 	bl	0 <_ZN6OV564014getExposure_usEPi>
  62:	f10d 020f 	add.w	r2, sp, #15
  66:	4305      	orrs	r5, r0
  68:	f243 0137 	movw	r1, #12343	; 0x3037
  6c:	4620      	mov	r0, r4
  6e:	b2ed      	uxtb	r5, r5
  70:	f7ff fffe 	bl	0 <_ZN6OV564014getExposure_usEPi>
  74:	aa04      	add	r2, sp, #16
  76:	4328      	orrs	r0, r5
  78:	f243 1108 	movw	r1, #12552	; 0x3108
  7c:	b2c5      	uxtb	r5, r0
  7e:	4620      	mov	r0, r4
  80:	f7ff fffe 	bl	0 <_ZN6OV564014getExposure_usEPi>
  84:	f10d 0215 	add.w	r2, sp, #21
  88:	4328      	orrs	r0, r5
  8a:	f44f 5154 	mov.w	r1, #13568	; 0x3500
  8e:	b2c5      	uxtb	r5, r0
  90:	4620      	mov	r0, r4
  92:	f7ff fffe 	bl	0 <_ZN6OV564014getExposure_usEPi>
  96:	f10d 0216 	add.w	r2, sp, #22
  9a:	4328      	orrs	r0, r5
  9c:	f243 5101 	movw	r1, #13569	; 0x3501
  a0:	b2c5      	uxtb	r5, r0
  a2:	4620      	mov	r0, r4
  a4:	f7ff fffe 	bl	0 <_ZN6OV564014getExposure_usEPi>
  a8:	f10d 0217 	add.w	r2, sp, #23
  ac:	4305      	orrs	r5, r0
  ae:	f243 5102 	movw	r1, #13570	; 0x3502
  b2:	4620      	mov	r0, r4
  b4:	b2ed      	uxtb	r5, r5
  b6:	f7ff fffe 	bl	0 <_ZN6OV564014getExposure_usEPi>
  ba:	f10d 0211 	add.w	r2, sp, #17
  be:	4328      	orrs	r0, r5
  c0:	f643 010c 	movw	r1, #14348	; 0x380c
  c4:	b2c5      	uxtb	r5, r0
  c6:	4620      	mov	r0, r4
  c8:	f7ff fffe 	bl	0 <_ZN6OV564014getExposure_usEPi>
  cc:	f10d 0212 	add.w	r2, sp, #18
  d0:	4305      	orrs	r5, r0
  d2:	f643 010d 	movw	r1, #14349	; 0x380d
  d6:	4620      	mov	r0, r4
  d8:	b2ed      	uxtb	r5, r5
  da:	f7ff fffe 	bl	0 <_ZN6OV564014getExposure_usEPi>
  de:	f10d 0213 	add.w	r2, sp, #19
  e2:	4328      	orrs	r0, r5
  e4:	f643 010e 	movw	r1, #14350	; 0x380e
  e8:	b2c7      	uxtb	r7, r0
  ea:	4620      	mov	r0, r4
  ec:	f7ff fffe 	bl	0 <_ZN6OV564014getExposure_usEPi>
  f0:	aa05      	add	r2, sp, #20
  f2:	4338      	orrs	r0, r7
  f4:	f643 010f 	movw	r1, #14351	; 0x380f
  f8:	b2c5      	uxtb	r5, r0
  fa:	4620      	mov	r0, r4
  fc:	f7ff fffe 	bl	0 <_ZN6OV564014getExposure_usEPi>
 100:	4607      	mov	r7, r0
 102:	4620      	mov	r0, r4
 104:	f89d 4016 	ldrb.w	r4, [sp, #22]
 108:	f89d 3015 	ldrb.w	r3, [sp, #21]
 10c:	432f      	orrs	r7, r5
 10e:	0224      	lsls	r4, r4, #8
 110:	f89d 2013 	ldrb.w	r2, [sp, #19]
 114:	f89d 100c 	ldrb.w	r1, [sp, #12]
 118:	ea44 4403 	orr.w	r4, r4, r3, lsl #16
 11c:	f89d 3017 	ldrb.w	r3, [sp, #23]
 120:	431c      	orrs	r4, r3
 122:	f89d 3014 	ldrb.w	r3, [sp, #20]
 126:	1124      	asrs	r4, r4, #4
 128:	ea43 2302 	orr.w	r3, r3, r2, lsl #8
 12c:	f89d 200d 	ldrb.w	r2, [sp, #13]
 130:	429c      	cmp	r4, r3
 132:	bf28      	it	cs
 134:	461c      	movcs	r4, r3
 136:	f89d 3010 	ldrb.w	r3, [sp, #16]
 13a:	9301      	str	r3, [sp, #4]
 13c:	f89d 300f 	ldrb.w	r3, [sp, #15]
 140:	9300      	str	r3, [sp, #0]
 142:	f89d 300e 	ldrb.w	r3, [sp, #14]
 146:	f7ff fffe 	bl	0 <_ZN6OV564014getExposure_usEPi>
 14a:	f89d 1011 	ldrb.w	r1, [sp, #17]
 14e:	f89d 2012 	ldrb.w	r2, [sp, #18]
 152:	4603      	mov	r3, r0
 154:	b2f8      	uxtb	r0, r7
 156:	ea42 2201 	orr.w	r2, r2, r1, lsl #8
 15a:	4906      	ldr	r1, [pc, #24]	; (174 <_ZN6OV564014getExposure_usEPi+0x174>)
 15c:	fb04 f202 	mul.w	r2, r4, r2
 160:	fb81 4103 	smull	r4, r1, r1, r3
 164:	17db      	asrs	r3, r3, #31
 166:	ebc3 43a1 	rsb	r3, r3, r1, asr #18
 16a:	fbb2 f3f3 	udiv	r3, r2, r3
 16e:	6033      	str	r3, [r6, #0]
 170:	b007      	add	sp, #28
 172:	bdf0      	pop	{r4, r5, r6, r7, pc}
 174:	431bde83 	.word	0x431bde83

Disassembly of section .text._ZN6OV564015setAutoExposureEii:

00000000 <_ZN6OV564015setAutoExposureEii>:
   0:	e92d 41f0 	stmdb	sp!, {r4, r5, r6, r7, r8, lr}
   4:	b086      	sub	sp, #24
   6:	2500      	movs	r5, #0
   8:	4617      	mov	r7, r2
   a:	fab1 f881 	clz	r8, r1
   e:	f10d 020e 	add.w	r2, sp, #14
  12:	f243 5103 	movw	r1, #13571	; 0x3503
  16:	4606      	mov	r6, r0
  18:	f88d 500e 	strb.w	r5, [sp, #14]
  1c:	f88d 500f 	strb.w	r5, [sp, #15]
  20:	ea4f 1858 	mov.w	r8, r8, lsr #5
  24:	f88d 5010 	strb.w	r5, [sp, #16]
  28:	f88d 5011 	strb.w	r5, [sp, #17]
  2c:	f88d 5012 	strb.w	r5, [sp, #18]
  30:	f88d 5013 	strb.w	r5, [sp, #19]
  34:	f88d 5014 	strb.w	r5, [sp, #20]
  38:	f88d 5015 	strb.w	r5, [sp, #21]
  3c:	f88d 5016 	strb.w	r5, [sp, #22]
  40:	f7ff fffe 	bl	0 <_ZN6OV564015setAutoExposureEii>
  44:	f89d 200e 	ldrb.w	r2, [sp, #14]
  48:	4604      	mov	r4, r0
  4a:	f243 5103 	movw	r1, #13571	; 0x3503
  4e:	4630      	mov	r0, r6
  50:	f022 0201 	bic.w	r2, r2, #1
  54:	ea42 0208 	orr.w	r2, r2, r8
  58:	f7ff fffe 	bl	0 <_ZN6OV564015setAutoExposureEii>
  5c:	42af      	cmp	r7, r5
  5e:	ea44 0400 	orr.w	r4, r4, r0
  62:	b2e4      	uxtb	r4, r4
  64:	db02      	blt.n	6c <_ZN6OV564015setAutoExposureEii+0x6c>
  66:	f1b8 0f00 	cmp.w	r8, #0
  6a:	d103      	bne.n	74 <_ZN6OV564015setAutoExposureEii+0x74>
  6c:	4620      	mov	r0, r4
  6e:	b006      	add	sp, #24
  70:	e8bd 81f0 	ldmia.w	sp!, {r4, r5, r6, r7, r8, pc}
  74:	f10d 020f 	add.w	r2, sp, #15
  78:	f243 0134 	movw	r1, #12340	; 0x3034
  7c:	4630      	mov	r0, r6
  7e:	f7ff fffe 	bl	0 <_ZN6OV564015setAutoExposureEii>
  82:	4680      	mov	r8, r0
  84:	aa04      	add	r2, sp, #16
  86:	f243 0135 	movw	r1, #12341	; 0x3035
  8a:	4630      	mov	r0, r6
  8c:	f7ff fffe 	bl	0 <_ZN6OV564015setAutoExposureEii>
  90:	ea48 0000 	orr.w	r0, r8, r0
  94:	f10d 0211 	add.w	r2, sp, #17
  98:	f243 0136 	movw	r1, #12342	; 0x3036
  9c:	4304      	orrs	r4, r0
  9e:	4630      	mov	r0, r6
  a0:	f7ff fffe 	bl	0 <_ZN6OV564015setAutoExposureEii>
  a4:	f10d 0212 	add.w	r2, sp, #18
  a8:	b2e4      	uxtb	r4, r4
  aa:	f243 0137 	movw	r1, #12343	; 0x3037
  ae:	4320      	orrs	r0, r4
  b0:	b2c4      	uxtb	r4, r0
  b2:	4630      	mov	r0, r6
  b4:	f7ff fffe 	bl	0 <_ZN6OV564015setAutoExposureEii>
  b8:	f10d 0213 	add.w	r2, sp, #19
  bc:	4320      	orrs	r0, r4
  be:	f243 1108 	movw	r1, #12552	; 0x3108
  c2:	b2c4      	uxtb	r4, r0
  c4:	4630      	mov	r0, r6
  c6:	f7ff fffe 	bl	0 <_ZN6OV564015setAutoExposureEii>
  ca:	aa05      	add	r2, sp, #20
  cc:	4320      	orrs	r0, r4
  ce:	f643 010c 	movw	r1, #14348	; 0x380c
  d2:	b2c4      	uxtb	r4, r0
  d4:	4630      	mov	r0, r6
  d6:	f7ff fffe 	bl	0 <_ZN6OV564015setAutoExposureEii>
  da:	f10d 0215 	add.w	r2, sp, #21
  de:	4320      	orrs	r0, r4
  e0:	f643 010d 	movw	r1, #14349	; 0x380d
  e4:	fa5f f880 	uxtb.w	r8, r0
  e8:	4630      	mov	r0, r6
  ea:	f7ff fffe 	bl	0 <_ZN6OV564015setAutoExposureEii>
  ee:	f10d 0216 	add.w	r2, sp, #22
  f2:	ea48 0800 	orr.w	r8, r8, r0
  f6:	f643 010e 	movw	r1, #14350	; 0x380e
  fa:	4630      	mov	r0, r6
  fc:	fa5f f888 	uxtb.w	r8, r8
 100:	f7ff fffe 	bl	0 <_ZN6OV564015setAutoExposureEii>
 104:	f10d 0217 	add.w	r2, sp, #23
 108:	ea48 0800 	orr.w	r8, r8, r0
 10c:	f643 010f 	movw	r1, #14351	; 0x380f
 110:	4630      	mov	r0, r6
 112:	f7ff fffe 	bl	0 <_ZN6OV564015setAutoExposureEii>
 116:	f89d 2013 	ldrb.w	r2, [sp, #19]
 11a:	f89d 3016 	ldrb.w	r3, [sp, #22]
 11e:	fa5f f888 	uxtb.w	r8, r8
 122:	9201      	str	r2, [sp, #4]
 124:	f89d 4017 	ldrb.w	r4, [sp, #23]
 128:	ea48 0800 	orr.w	r8, r8, r0
 12c:	f89d 2012 	ldrb.w	r2, [sp, #18]
 130:	4630      	mov	r0, r6
 132:	f89d 100f 	ldrb.w	r1, [sp, #15]
 136:	ea44 2403 	orr.w	r4, r4, r3, lsl #8
 13a:	9200      	str	r2, [sp, #0]
 13c:	fa5f f888 	uxtb.w	r8, r8
 140:	f89d 3011 	ldrb.w	r3, [sp, #17]
 144:	f89d 2010 	ldrb.w	r2, [sp, #16]
 148:	f7ff fffe 	bl	0 <_ZN6OV564015setAutoExposureEii>
 14c:	4a28      	ldr	r2, [pc, #160]	; (1f0 <_ZN6OV564015setAutoExposureEii+0x1f0>)
 14e:	f89d 1014 	ldrb.w	r1, [sp, #20]
 152:	fb82 3200 	smull	r3, r2, r2, r0
 156:	17c3      	asrs	r3, r0, #31
 158:	ebc3 43a2 	rsb	r3, r3, r2, asr #18
 15c:	f89d 2015 	ldrb.w	r2, [sp, #21]
 160:	fb07 f303 	mul.w	r3, r7, r3
 164:	ea42 2201 	orr.w	r2, r2, r1, lsl #8
 168:	fb93 f3f2 	sdiv	r3, r3, r2
 16c:	f64f 72fe 	movw	r2, #65534	; 0xfffe
 170:	4293      	cmp	r3, r2
 172:	dd37      	ble.n	1e4 <_ZN6OV564015setAutoExposureEii+0x1e4>
 174:	f64f 73ff 	movw	r3, #65535	; 0xffff
 178:	011d      	lsls	r5, r3, #4
 17a:	f3c3 3207 	ubfx	r2, r3, #12, #8
 17e:	f3c3 1707 	ubfx	r7, r3, #4, #8
 182:	b2ed      	uxtb	r5, r5
 184:	429c      	cmp	r4, r3
 186:	f44f 5154 	mov.w	r1, #13568	; 0x3500
 18a:	4630      	mov	r0, r6
 18c:	bfb8      	it	lt
 18e:	461c      	movlt	r4, r3
 190:	f7ff fffe 	bl	0 <_ZN6OV564015setAutoExposureEii>
 194:	ea40 0008 	orr.w	r0, r0, r8
 198:	463a      	mov	r2, r7
 19a:	f243 5101 	movw	r1, #13569	; 0x3501
 19e:	b2c7      	uxtb	r7, r0
 1a0:	4630      	mov	r0, r6
 1a2:	f7ff fffe 	bl	0 <_ZN6OV564015setAutoExposureEii>
 1a6:	462a      	mov	r2, r5
 1a8:	4338      	orrs	r0, r7
 1aa:	f243 5102 	movw	r1, #13570	; 0x3502
 1ae:	b2c5      	uxtb	r5, r0
 1b0:	4630      	mov	r0, r6
 1b2:	f7ff fffe 	bl	0 <_ZN6OV564015setAutoExposureEii>
 1b6:	f3c4 2207 	ubfx	r2, r4, #8, #8
 1ba:	4305      	orrs	r5, r0
 1bc:	f643 010e 	movw	r1, #14350	; 0x380e
 1c0:	4630      	mov	r0, r6
 1c2:	b2ed      	uxtb	r5, r5
 1c4:	f7ff fffe 	bl	0 <_ZN6OV564015setAutoExposureEii>
 1c8:	f643 010f 	movw	r1, #14351	; 0x380f
 1cc:	b2e2      	uxtb	r2, r4
 1ce:	ea45 0400 	orr.w	r4, r5, r0
 1d2:	4630      	mov	r0, r6
 1d4:	b2e4      	uxtb	r4, r4
 1d6:	f7ff fffe 	bl	0 <_ZN6OV564015setAutoExposureEii>
 1da:	4320      	orrs	r0, r4
 1dc:	b2c0      	uxtb	r0, r0
 1de:	b006      	add	sp, #24
 1e0:	e8bd 81f0 	ldmia.w	sp!, {r4, r5, r6, r7, r8, pc}
 1e4:	2b00      	cmp	r3, #0
 1e6:	dac7      	bge.n	178 <_ZN6OV564015setAutoExposureEii+0x178>
 1e8:	462f      	mov	r7, r5
 1ea:	462a      	mov	r2, r5
 1ec:	462b      	mov	r3, r5
 1ee:	e7c9      	b.n	184 <_ZN6OV564015setAutoExposureEii+0x184>
 1f0:	431bde83 	.word	0x431bde83

Disassembly of section .text._ZN6OV564014getRGB_Gain_dbEPfS0_S0_:

00000000 <_ZN6OV564014getRGB_Gain_dbEPfS0_S0_>:
   0:	e92d 41f0 	stmdb	sp!, {r4, r5, r6, r7, r8, lr}
   4:	ed2d 8b02 	vpush	{d8}
   8:	b082      	sub	sp, #8
   a:	461d      	mov	r5, r3
   c:	2300      	movs	r3, #0
   e:	4607      	mov	r7, r0
  10:	4688      	mov	r8, r1
  12:	4616      	mov	r6, r2
  14:	f44f 5150 	mov.w	r1, #13312	; 0x3400
  18:	f10d 0202 	add.w	r2, sp, #2
  1c:	f88d 3002 	strb.w	r3, [sp, #2]
  20:	eeb3 8a04 	vmov.f32	s16, #52	; 0x41a00000  20.0
  24:	f88d 3003 	strb.w	r3, [sp, #3]
  28:	f88d 3004 	strb.w	r3, [sp, #4]
  2c:	f88d 3005 	strb.w	r3, [sp, #5]
  30:	f88d 3006 	strb.w	r3, [sp, #6]
  34:	f88d 3007 	strb.w	r3, [sp, #7]
  38:	f7ff fffe 	bl	0 <_ZN6OV564014getRGB_Gain_dbEPfS0_S0_>
  3c:	4604      	mov	r4, r0
  3e:	f10d 0203 	add.w	r2, sp, #3
  42:	f243 4101 	movw	r1, #13313	; 0x3401
  46:	4638      	mov	r0, r7
  48:	f7ff fffe 	bl	0 <_ZN6OV564014getRGB_Gain_dbEPfS0_S0_>
  4c:	4304      	orrs	r4, r0
  4e:	aa01      	add	r2, sp, #4
  50:	f243 4102 	movw	r1, #13314	; 0x3402
  54:	b2e4      	uxtb	r4, r4
  56:	4638      	mov	r0, r7
  58:	f7ff fffe 	bl	0 <_ZN6OV564014getRGB_Gain_dbEPfS0_S0_>
  5c:	f10d 0205 	add.w	r2, sp, #5
  60:	4320      	orrs	r0, r4
  62:	f243 4103 	movw	r1, #13315	; 0x3403
  66:	b2c4      	uxtb	r4, r0
  68:	4638      	mov	r0, r7
  6a:	f7ff fffe 	bl	0 <_ZN6OV564014getRGB_Gain_dbEPfS0_S0_>
  6e:	f10d 0206 	add.w	r2, sp, #6
  72:	4320      	orrs	r0, r4
  74:	f243 4104 	movw	r1, #13316	; 0x3404
  78:	b2c4      	uxtb	r4, r0
  7a:	4638      	mov	r0, r7
  7c:	f7ff fffe 	bl	0 <_ZN6OV564014getRGB_Gain_dbEPfS0_S0_>
  80:	f10d 0207 	add.w	r2, sp, #7
  84:	f243 4105 	movw	r1, #13317	; 0x3405
  88:	4304      	orrs	r4, r0
  8a:	4638      	mov	r0, r7
  8c:	f7ff fffe 	bl	0 <_ZN6OV564014getRGB_Gain_dbEPfS0_S0_>
  90:	f89d 3002 	ldrb.w	r3, [sp, #2]
  94:	f89d 2003 	ldrb.w	r2, [sp, #3]
  98:	4607      	mov	r7, r0
  9a:	021b      	lsls	r3, r3, #8
  9c:	b2e4      	uxtb	r4, r4
  9e:	f403 6370 	and.w	r3, r3, #3840	; 0xf00
  a2:	4313      	orrs	r3, r2
  a4:	ee00 3a10 	vmov	s0, r3
  a8:	eeb8 0ac0 	vcvt.f32.s32	s0, s0
  ac:	f7ff fffe 	bl	0 <log10f>
  b0:	f89d 1004 	ldrb.w	r1, [sp, #4]
  b4:	f89d 3005 	ldrb.w	r3, [sp, #5]
  b8:	ee20 0a08 	vmul.f32	s0, s0, s16
  bc:	0209      	lsls	r1, r1, #8
  be:	f401 6170 	and.w	r1, r1, #3840	; 0xf00
  c2:	ed88 0a00 	vstr	s0, [r8]
  c6:	430b      	orrs	r3, r1
  c8:	ee00 3a10 	vmov	s0, r3
  cc:	eeb8 0ac0 	vcvt.f32.s32	s0, s0
  d0:	f7ff fffe 	bl	0 <log10f>
  d4:	f89d 1006 	ldrb.w	r1, [sp, #6]
  d8:	f89d 3007 	ldrb.w	r3, [sp, #7]
  dc:	ee20 0a08 	vmul.f32	s0, s0, s16
  e0:	0209      	lsls	r1, r1, #8
  e2:	f401 6270 	and.w	r2, r1, #3840	; 0xf00
  e6:	ed86 0a00 	vstr	s0, [r6]
  ea:	4313      	orrs	r3, r2
  ec:	ee00 3a10 	vmov	s0, r3
  f0:	eeb8 0ac0 	vcvt.f32.s32	s0, s0
  f4:	f7ff fffe 	bl	0 <log10f>
  f8:	ea47 0004 	orr.w	r0, r7, r4
  fc:	ee20 0a08 	vmul.f32	s0, s0, s16
 100:	b2c0      	uxtb	r0, r0
 102:	ed85 0a00 	vstr	s0, [r5]
 106:	b002      	add	sp, #8
 108:	ecbd 8b02 	vpop	{d8}
 10c:	e8bd 81f0 	ldmia.w	sp!, {r4, r5, r6, r7, r8, pc}

Disassembly of section .text._ZN6OV56409setWBmodeEi:

00000000 <_ZN6OV56409setWBmodeEi>:
   0:	2905      	cmp	r1, #5
   2:	b570      	push	{r4, r5, r6, lr}
   4:	4605      	mov	r5, r0
   6:	d853      	bhi.n	b0 <_ZN6OV56409setWBmodeEi+0xb0>
   8:	460c      	mov	r4, r1
   a:	2203      	movs	r2, #3
   c:	f243 2112 	movw	r1, #12818	; 0x3212
  10:	f7ff fffe 	bl	0 <_ZN6OV56409setWBmodeEi>
  14:	4b45      	ldr	r3, [pc, #276]	; (12c <_ZN6OV56409setWBmodeEi+0x12c>)
  16:	ebc4 01c4 	rsb	r1, r4, r4, lsl #3
  1a:	4604      	mov	r4, r0
  1c:	4628      	mov	r0, r5
  1e:	185e      	adds	r6, r3, r1
  20:	5c5a      	ldrb	r2, [r3, r1]
  22:	f243 4106 	movw	r1, #13318	; 0x3406
  26:	f7ff fffe 	bl	0 <_ZN6OV56409setWBmodeEi>
  2a:	4304      	orrs	r4, r0
  2c:	7872      	ldrb	r2, [r6, #1]
  2e:	f44f 5150 	mov.w	r1, #13312	; 0x3400
  32:	b2e4      	uxtb	r4, r4
  34:	4628      	mov	r0, r5
  36:	f7ff fffe 	bl	0 <_ZN6OV56409setWBmodeEi>
  3a:	78b2      	ldrb	r2, [r6, #2]
  3c:	4304      	orrs	r4, r0
  3e:	f243 4101 	movw	r1, #13313	; 0x3401
  42:	4628      	mov	r0, r5
  44:	b2e4      	uxtb	r4, r4
  46:	f7ff fffe 	bl	0 <_ZN6OV56409setWBmodeEi>
  4a:	78f2      	ldrb	r2, [r6, #3]
  4c:	4304      	orrs	r4, r0
  4e:	f243 4102 	movw	r1, #13314	; 0x3402
  52:	4628      	mov	r0, r5
  54:	b2e4      	uxtb	r4, r4
  56:	f7ff fffe 	bl	0 <_ZN6OV56409setWBmodeEi>
  5a:	7932      	ldrb	r2, [r6, #4]
  5c:	4304      	orrs	r4, r0
  5e:	f243 4103 	movw	r1, #13315	; 0x3403
  62:	4628      	mov	r0, r5
  64:	b2e4      	uxtb	r4, r4
  66:	f7ff fffe 	bl	0 <_ZN6OV56409setWBmodeEi>
  6a:	7972      	ldrb	r2, [r6, #5]
  6c:	4304      	orrs	r4, r0
  6e:	f243 4104 	movw	r1, #13316	; 0x3404
  72:	4628      	mov	r0, r5
  74:	b2e4      	uxtb	r4, r4
  76:	f7ff fffe 	bl	0 <_ZN6OV56409setWBmodeEi>
  7a:	79b2      	ldrb	r2, [r6, #6]
  7c:	4304      	orrs	r4, r0
  7e:	f243 4105 	movw	r1, #13317	; 0x3405
  82:	4628      	mov	r0, r5
  84:	b2e4      	uxtb	r4, r4
  86:	f7ff fffe 	bl	0 <_ZN6OV56409setWBmodeEi>
  8a:	2213      	movs	r2, #19
  8c:	4304      	orrs	r4, r0
  8e:	f243 2112 	movw	r1, #12818	; 0x3212
  92:	4628      	mov	r0, r5
  94:	b2e4      	uxtb	r4, r4
  96:	f7ff fffe 	bl	0 <_ZN6OV56409setWBmodeEi>
  9a:	22a3      	movs	r2, #163	; 0xa3
  9c:	4304      	orrs	r4, r0
  9e:	f243 2112 	movw	r1, #12818	; 0x3212
  a2:	4628      	mov	r0, r5
  a4:	b2e4      	uxtb	r4, r4
  a6:	f7ff fffe 	bl	0 <_ZN6OV56409setWBmodeEi>
  aa:	4320      	orrs	r0, r4
  ac:	b2c0      	uxtb	r0, r0
  ae:	bd70      	pop	{r4, r5, r6, pc}
  b0:	2203      	movs	r2, #3
  b2:	f243 2112 	movw	r1, #12818	; 0x3212
  b6:	f7ff fffe 	bl	0 <_ZN6OV56409setWBmodeEi>
  ba:	2200      	movs	r2, #0
  bc:	f243 4106 	movw	r1, #13318	; 0x3406
  c0:	4628      	mov	r0, r5
  c2:	f7ff fffe 	bl	0 <_ZN6OV56409setWBmodeEi>
  c6:	2204      	movs	r2, #4
  c8:	f44f 5150 	mov.w	r1, #13312	; 0x3400
  cc:	4628      	mov	r0, r5
  ce:	f7ff fffe 	bl	0 <_ZN6OV56409setWBmodeEi>
  d2:	2200      	movs	r2, #0
  d4:	f243 4101 	movw	r1, #13313	; 0x3401
  d8:	4628      	mov	r0, r5
  da:	f7ff fffe 	bl	0 <_ZN6OV56409setWBmodeEi>
  de:	2204      	movs	r2, #4
  e0:	f243 4102 	movw	r1, #13314	; 0x3402
  e4:	4628      	mov	r0, r5
  e6:	f7ff fffe 	bl	0 <_ZN6OV56409setWBmodeEi>
  ea:	2200      	movs	r2, #0
  ec:	f243 4103 	movw	r1, #13315	; 0x3403
  f0:	4628      	mov	r0, r5
  f2:	f7ff fffe 	bl	0 <_ZN6OV56409setWBmodeEi>
  f6:	2204      	movs	r2, #4
  f8:	f243 4104 	movw	r1, #13316	; 0x3404
  fc:	4628      	mov	r0, r5
  fe:	f7ff fffe 	bl	0 <_ZN6OV56409setWBmodeEi>
 102:	2200      	movs	r2, #0
 104:	f243 4105 	movw	r1, #13317	; 0x3405
 108:	4628      	mov	r0, r5
 10a:	f7ff fffe 	bl	0 <_ZN6OV56409setWBmodeEi>
 10e:	2213      	movs	r2, #19
 110:	f243 2112 	movw	r1, #12818	; 0x3212
 114:	4628      	mov	r0, r5
 116:	f7ff fffe 	bl	0 <_ZN6OV56409setWBmodeEi>
 11a:	22a3      	movs	r2, #163	; 0xa3
 11c:	f243 2112 	movw	r1, #12818	; 0x3212
 120:	4628      	mov	r0, r5
 122:	f7ff fffe 	bl	0 <_ZN6OV56409setWBmodeEi>
 126:	2001      	movs	r0, #1
 128:	bd70      	pop	{r4, r5, r6, pc}
 12a:	bf00      	nop
 12c:	00000000 	.word	0x00000000

Disassembly of section .text._ZN6OV564016setSpecialEffectE5sde_t:

00000000 <_ZN6OV564016setSpecialEffectE5sde_t>:
   0:	2909      	cmp	r1, #9
   2:	d901      	bls.n	8 <_ZN6OV564016setSpecialEffectE5sde_t+0x8>
   4:	2001      	movs	r0, #1
   6:	4770      	bx	lr
   8:	b570      	push	{r4, r5, r6, lr}
   a:	2203      	movs	r2, #3
   c:	460e      	mov	r6, r1
   e:	f243 2112 	movw	r1, #12818	; 0x3212
  12:	4605      	mov	r5, r0
  14:	f7ff fffe 	bl	0 <_ZN6OV564016setSpecialEffectE5sde_t>
  18:	4b1a      	ldr	r3, [pc, #104]	; (84 <_ZN6OV564016setSpecialEffectE5sde_t+0x84>)
  1a:	4604      	mov	r4, r0
  1c:	f44f 41ab 	mov.w	r1, #21888	; 0x5580
  20:	f813 2026 	ldrb.w	r2, [r3, r6, lsl #2]
  24:	4628      	mov	r0, r5
  26:	eb03 0686 	add.w	r6, r3, r6, lsl #2
  2a:	f7ff fffe 	bl	0 <_ZN6OV564016setSpecialEffectE5sde_t>
  2e:	4304      	orrs	r4, r0
  30:	7872      	ldrb	r2, [r6, #1]
  32:	f245 5183 	movw	r1, #21891	; 0x5583
  36:	b2e4      	uxtb	r4, r4
  38:	4628      	mov	r0, r5
  3a:	f7ff fffe 	bl	0 <_ZN6OV564016setSpecialEffectE5sde_t>
  3e:	78b2      	ldrb	r2, [r6, #2]
  40:	4304      	orrs	r4, r0
  42:	f245 5184 	movw	r1, #21892	; 0x5584
  46:	4628      	mov	r0, r5
  48:	b2e4      	uxtb	r4, r4
  4a:	f7ff fffe 	bl	0 <_ZN6OV564016setSpecialEffectE5sde_t>
  4e:	78f2      	ldrb	r2, [r6, #3]
  50:	4304      	orrs	r4, r0
  52:	f245 0103 	movw	r1, #20483	; 0x5003
  56:	4628      	mov	r0, r5
  58:	b2e4      	uxtb	r4, r4
  5a:	f7ff fffe 	bl	0 <_ZN6OV564016setSpecialEffectE5sde_t>
  5e:	2213      	movs	r2, #19
  60:	4320      	orrs	r0, r4
  62:	f243 2112 	movw	r1, #12818	; 0x3212
  66:	b2c4      	uxtb	r4, r0
  68:	4628      	mov	r0, r5
  6a:	f7ff fffe 	bl	0 <_ZN6OV564016setSpecialEffectE5sde_t>
  6e:	22a3      	movs	r2, #163	; 0xa3
  70:	4304      	orrs	r4, r0
  72:	f243 2112 	movw	r1, #12818	; 0x3212
  76:	4628      	mov	r0, r5
  78:	b2e4      	uxtb	r4, r4
  7a:	f7ff fffe 	bl	0 <_ZN6OV564016setSpecialEffectE5sde_t>
  7e:	4320      	orrs	r0, r4
  80:	b2c0      	uxtb	r0, r0
  82:	bd70      	pop	{r4, r5, r6, pc}
  84:	00000000 	.word	0x00000000

Disassembly of section .text._ZN6OV564010setAutoBlcEiPi:

00000000 <_ZN6OV564010setAutoBlcEiPi>:
   0:	e92d 41f0 	stmdb	sp!, {r4, r5, r6, r7, r8, lr}
   4:	b082      	sub	sp, #8
   6:	2300      	movs	r3, #0
   8:	460c      	mov	r4, r1
   a:	4616      	mov	r6, r2
   c:	f44f 4180 	mov.w	r1, #16384	; 0x4000
  10:	f10d 0207 	add.w	r2, sp, #7
  14:	4607      	mov	r7, r0
  16:	f88d 3007 	strb.w	r3, [sp, #7]
  1a:	f7ff fffe 	bl	0 <_ZN6OV564010setAutoBlcEiPi>
  1e:	f89d 2007 	ldrb.w	r2, [sp, #7]
  22:	4605      	mov	r5, r0
  24:	f44f 4180 	mov.w	r1, #16384	; 0x4000
  28:	f022 0201 	bic.w	r2, r2, #1
  2c:	4638      	mov	r0, r7
  2e:	2c00      	cmp	r4, #0
  30:	bf18      	it	ne
  32:	f042 0201 	orrne.w	r2, r2, #1
  36:	f7ff fffe 	bl	0 <_ZN6OV564010setAutoBlcEiPi>
  3a:	4305      	orrs	r5, r0
  3c:	b2ed      	uxtb	r5, r5
  3e:	b994      	cbnz	r4, 66 <_ZN6OV564010setAutoBlcEiPi+0x66>
  40:	b18e      	cbz	r6, 66 <_ZN6OV564010setAutoBlcEiPi+0x66>
  42:	3e04      	subs	r6, #4
  44:	f244 042c 	movw	r4, #16428	; 0x402c
  48:	f244 0834 	movw	r8, #16436	; 0x4034
  4c:	4621      	mov	r1, r4
  4e:	3401      	adds	r4, #1
  50:	f856 2f04 	ldr.w	r2, [r6, #4]!
  54:	4638      	mov	r0, r7
  56:	b2a4      	uxth	r4, r4
  58:	b2d2      	uxtb	r2, r2
  5a:	f7ff fffe 	bl	0 <_ZN6OV564010setAutoBlcEiPi>
  5e:	4544      	cmp	r4, r8
  60:	ea45 0500 	orr.w	r5, r5, r0
  64:	d1f2      	bne.n	4c <_ZN6OV564010setAutoBlcEiPi+0x4c>
  66:	4628      	mov	r0, r5
  68:	b002      	add	sp, #8
  6a:	e8bd 81f0 	ldmia.w	sp!, {r4, r5, r6, r7, r8, pc}
  6e:	bf00      	nop

Disassembly of section .text._ZN6OV564010getBlcRegsEPi:

00000000 <_ZN6OV564010getBlcRegsEPi>:
   0:	e92d 43f0 	stmdb	sp!, {r4, r5, r6, r7, r8, r9, lr}
   4:	2500      	movs	r5, #0
   6:	b083      	sub	sp, #12
   8:	f244 042c 	movw	r4, #16428	; 0x402c
   c:	4607      	mov	r7, r0
   e:	1f0e      	subs	r6, r1, #4
  10:	46a9      	mov	r9, r5
  12:	f244 0834 	movw	r8, #16436	; 0x4034
  16:	4621      	mov	r1, r4
  18:	3401      	adds	r4, #1
  1a:	f10d 0207 	add.w	r2, sp, #7
  1e:	4638      	mov	r0, r7
  20:	b2a4      	uxth	r4, r4
  22:	f88d 9007 	strb.w	r9, [sp, #7]
  26:	f7ff fffe 	bl	0 <_ZN6OV564010getBlcRegsEPi>
  2a:	f89d 3007 	ldrb.w	r3, [sp, #7]
  2e:	4544      	cmp	r4, r8
  30:	ea45 0500 	orr.w	r5, r5, r0
  34:	f846 3f04 	str.w	r3, [r6, #4]!
  38:	d1ed      	bne.n	16 <_ZN6OV564010getBlcRegsEPi+0x16>
  3a:	4628      	mov	r0, r5
  3c:	b003      	add	sp, #12
  3e:	e8bd 83f0 	ldmia.w	sp!, {r4, r5, r6, r7, r8, r9, pc}
  42:	bf00      	nop

Disassembly of section .text._ZN6OV564017setLensCorrectionEi:

00000000 <_ZN6OV564017setLensCorrectionEi>:
   0:	b570      	push	{r4, r5, r6, lr}
   2:	b082      	sub	sp, #8
   4:	460d      	mov	r5, r1
   6:	f44f 41a6 	mov.w	r1, #21248	; 0x5300
   a:	4606      	mov	r6, r0
   c:	f10d 0207 	add.w	r2, sp, #7
  10:	f7ff fffe 	bl	0 <_ZN6OV564017setLensCorrectionEi>
  14:	3d00      	subs	r5, #0
  16:	f89d 2007 	ldrb.w	r2, [sp, #7]
  1a:	4604      	mov	r4, r0
  1c:	bf18      	it	ne
  1e:	2501      	movne	r5, #1
  20:	f44f 41a6 	mov.w	r1, #21248	; 0x5300
  24:	f002 027f 	and.w	r2, r2, #127	; 0x7f
  28:	4630      	mov	r0, r6
  2a:	ea42 12c5 	orr.w	r2, r2, r5, lsl #7
  2e:	f7ff fffe 	bl	0 <_ZN6OV564017setLensCorrectionEi>
  32:	4320      	orrs	r0, r4
  34:	b2c0      	uxtb	r0, r0
  36:	b002      	add	sp, #8
  38:	bd70      	pop	{r4, r5, r6, pc}
  3a:	bf00      	nop

Disassembly of section .text._ZN6OV564012setNightModeEi:

00000000 <_ZN6OV564012setNightModeEi>:
   0:	b510      	push	{r4, lr}
   2:	2300      	movs	r3, #0
   4:	b082      	sub	sp, #8
   6:	4604      	mov	r4, r0
   8:	f88d 3007 	strb.w	r3, [sp, #7]
   c:	b141      	cbz	r1, 20 <_ZN6OV564012setNightModeEi+0x20>
   e:	f10d 0207 	add.w	r2, sp, #7
  12:	f44f 5168 	mov.w	r1, #14848	; 0x3a00
  16:	f7ff fffe 	bl	0 <_ZN6OV564012setNightModeEi>
  1a:	b148      	cbz	r0, 30 <_ZN6OV564012setNightModeEi+0x30>
  1c:	b002      	add	sp, #8
  1e:	bd10      	pop	{r4, pc}
  20:	f890 20cc 	ldrb.w	r2, [r0, #204]	; 0xcc
  24:	f44f 5168 	mov.w	r1, #14848	; 0x3a00
  28:	f7ff fffe 	bl	0 <_ZN6OV564012setNightModeEi>
  2c:	b002      	add	sp, #8
  2e:	bd10      	pop	{r4, pc}
  30:	f89d 2007 	ldrb.w	r2, [sp, #7]
  34:	f44f 5168 	mov.w	r1, #14848	; 0x3a00
  38:	4620      	mov	r0, r4
  3a:	f002 02fb 	and.w	r2, r2, #251	; 0xfb
  3e:	f7ff fffe 	bl	0 <_ZN6OV564012setNightModeEi>
  42:	b002      	add	sp, #8
  44:	bd10      	pop	{r4, pc}
  46:	bf00      	nop

Disassembly of section .text._ZN6OV564012setSharpnessEi:

00000000 <_ZN6OV564012setSharpnessEi>:
   0:	2909      	cmp	r1, #9
   2:	d901      	bls.n	8 <_ZN6OV564012setSharpnessEi+0x8>
   4:	2001      	movs	r0, #1
   6:	4770      	bx	lr
   8:	b570      	push	{r4, r5, r6, lr}
   a:	2265      	movs	r2, #101	; 0x65
   c:	460d      	mov	r5, r1
   e:	f245 3108 	movw	r1, #21256	; 0x5308
  12:	4606      	mov	r6, r0
  14:	f7ff fffe 	bl	0 <_ZN6OV564012setSharpnessEi>
  18:	4b05      	ldr	r3, [pc, #20]	; (30 <_ZN6OV564012setSharpnessEi+0x30>)
  1a:	4604      	mov	r4, r0
  1c:	f245 3102 	movw	r1, #21250	; 0x5302
  20:	4630      	mov	r0, r6
  22:	5d5a      	ldrb	r2, [r3, r5]
  24:	f7ff fffe 	bl	0 <_ZN6OV564012setSharpnessEi>
  28:	4320      	orrs	r0, r4
  2a:	b2c0      	uxtb	r0, r0
  2c:	bd70      	pop	{r4, r5, r6, pc}
  2e:	bf00      	nop
  30:	00000000 	.word	0x00000000

Disassembly of section .text._ZN6OV564016setAutoSharpnessEi:

00000000 <_ZN6OV564016setAutoSharpnessEi>:
   0:	b538      	push	{r3, r4, r5, lr}
   2:	2225      	movs	r2, #37	; 0x25
   4:	4604      	mov	r4, r0
   6:	2900      	cmp	r1, #0
   8:	d046      	beq.n	98 <_ZN6OV564016setAutoSharpnessEi+0x98>
   a:	f245 3108 	movw	r1, #21256	; 0x5308
   e:	f7ff fffe 	bl	0 <_ZN6OV564016setAutoSharpnessEi>
  12:	4605      	mov	r5, r0
  14:	2208      	movs	r2, #8
  16:	f44f 41a6 	mov.w	r1, #21248	; 0x5300
  1a:	4620      	mov	r0, r4
  1c:	f7ff fffe 	bl	0 <_ZN6OV564016setAutoSharpnessEi>
  20:	4305      	orrs	r5, r0
  22:	2230      	movs	r2, #48	; 0x30
  24:	f245 3101 	movw	r1, #21249	; 0x5301
  28:	b2ed      	uxtb	r5, r5
  2a:	4620      	mov	r0, r4
  2c:	f7ff fffe 	bl	0 <_ZN6OV564016setAutoSharpnessEi>
  30:	2210      	movs	r2, #16
  32:	4328      	orrs	r0, r5
  34:	f245 3102 	movw	r1, #21250	; 0x5302
  38:	b2c5      	uxtb	r5, r0
  3a:	4620      	mov	r0, r4
  3c:	f7ff fffe 	bl	0 <_ZN6OV564016setAutoSharpnessEi>
  40:	2200      	movs	r2, #0
  42:	4328      	orrs	r0, r5
  44:	f245 3102 	movw	r1, #21250	; 0x5302
  48:	b2c5      	uxtb	r5, r0
  4a:	4620      	mov	r0, r4
  4c:	f7ff fffe 	bl	0 <_ZN6OV564016setAutoSharpnessEi>
  50:	2208      	movs	r2, #8
  52:	4328      	orrs	r0, r5
  54:	f245 3109 	movw	r1, #21257	; 0x5309
  58:	b2c5      	uxtb	r5, r0
  5a:	4620      	mov	r0, r4
  5c:	f7ff fffe 	bl	0 <_ZN6OV564016setAutoSharpnessEi>
  60:	2230      	movs	r2, #48	; 0x30
  62:	4328      	orrs	r0, r5
  64:	f245 310a 	movw	r1, #21258	; 0x530a
  68:	b2c5      	uxtb	r5, r0
  6a:	4620      	mov	r0, r4
  6c:	f7ff fffe 	bl	0 <_ZN6OV564016setAutoSharpnessEi>
  70:	2204      	movs	r2, #4
  72:	4328      	orrs	r0, r5
  74:	f245 310b 	movw	r1, #21259	; 0x530b
  78:	b2c5      	uxtb	r5, r0
  7a:	4620      	mov	r0, r4
  7c:	f7ff fffe 	bl	0 <_ZN6OV564016setAutoSharpnessEi>
  80:	2206      	movs	r2, #6
  82:	ea40 0305 	orr.w	r3, r0, r5
  86:	4620      	mov	r0, r4
  88:	f245 310c 	movw	r1, #21260	; 0x530c
  8c:	b2dc      	uxtb	r4, r3
  8e:	f7ff fffe 	bl	0 <_ZN6OV564016setAutoSharpnessEi>
  92:	4320      	orrs	r0, r4
  94:	b2c0      	uxtb	r0, r0
  96:	bd38      	pop	{r3, r4, r5, pc}
  98:	f245 3108 	movw	r1, #21256	; 0x5308
  9c:	f7ff fffe 	bl	0 <_ZN6OV564016setAutoSharpnessEi>
  a0:	4605      	mov	r5, r0
  a2:	2208      	movs	r2, #8
  a4:	f44f 41a6 	mov.w	r1, #21248	; 0x5300
  a8:	4620      	mov	r0, r4
  aa:	f7ff fffe 	bl	0 <_ZN6OV564016setAutoSharpnessEi>
  ae:	4305      	orrs	r5, r0
  b0:	2248      	movs	r2, #72	; 0x48
  b2:	f245 3101 	movw	r1, #21249	; 0x5301
  b6:	b2ed      	uxtb	r5, r5
  b8:	4620      	mov	r0, r4
  ba:	f7ff fffe 	bl	0 <_ZN6OV564016setAutoSharpnessEi>
  be:	2218      	movs	r2, #24
  c0:	4305      	orrs	r5, r0
  c2:	f245 3102 	movw	r1, #21250	; 0x5302
  c6:	4620      	mov	r0, r4
  c8:	b2ed      	uxtb	r5, r5
  ca:	f7ff fffe 	bl	0 <_ZN6OV564016setAutoSharpnessEi>
  ce:	220e      	movs	r2, #14
  d0:	4328      	orrs	r0, r5
  d2:	f245 3102 	movw	r1, #21250	; 0x5302
  d6:	b2c5      	uxtb	r5, r0
  d8:	4620      	mov	r0, r4
  da:	f7ff fffe 	bl	0 <_ZN6OV564016setAutoSharpnessEi>
  de:	2208      	movs	r2, #8
  e0:	4328      	orrs	r0, r5
  e2:	f245 3109 	movw	r1, #21257	; 0x5309
  e6:	b2c5      	uxtb	r5, r0
  e8:	4620      	mov	r0, r4
  ea:	f7ff fffe 	bl	0 <_ZN6OV564016setAutoSharpnessEi>
  ee:	2248      	movs	r2, #72	; 0x48
  f0:	e7b7      	b.n	62 <_ZN6OV564016setAutoSharpnessEi+0x62>
  f2:	bf00      	nop

Disassembly of section .text._ZN6OV564016setAutoFocusModeEv:

00000000 <_ZN6OV564016setAutoFocusModeEv>:
   0:	b538      	push	{r3, r4, r5, lr}
   2:	2201      	movs	r2, #1
   4:	4605      	mov	r5, r0
   6:	f243 0122 	movw	r1, #12322	; 0x3022
   a:	f7ff fffe 	bl	0 <_ZN6OV564016setAutoFocusModeEv>
   e:	4604      	mov	r4, r0
  10:	2208      	movs	r2, #8
  12:	f243 0122 	movw	r1, #12322	; 0x3022
  16:	4628      	mov	r0, r5
  18:	f7ff fffe 	bl	0 <_ZN6OV564016setAutoFocusModeEv>
  1c:	4304      	orrs	r4, r0
  1e:	2200      	movs	r2, #0
  20:	f243 0123 	movw	r1, #12323	; 0x3023
  24:	4628      	mov	r0, r5
  26:	b2e4      	uxtb	r4, r4
  28:	f7ff fffe 	bl	0 <_ZN6OV564016setAutoFocusModeEv>
  2c:	2201      	movs	r2, #1
  2e:	f243 0123 	movw	r1, #12323	; 0x3023
  32:	4628      	mov	r0, r5
  34:	f7ff fffe 	bl	0 <_ZN6OV564016setAutoFocusModeEv>
  38:	4304      	orrs	r4, r0
  3a:	2204      	movs	r2, #4
  3c:	f243 0122 	movw	r1, #12322	; 0x3022
  40:	b2e4      	uxtb	r4, r4
  42:	4628      	mov	r0, r5
  44:	f7ff fffe 	bl	0 <_ZN6OV564016setAutoFocusModeEv>
  48:	2200      	movs	r2, #0
  4a:	4304      	orrs	r4, r0
  4c:	f243 0123 	movw	r1, #12323	; 0x3023
  50:	4628      	mov	r0, r5
  52:	b2e4      	uxtb	r4, r4
  54:	f7ff fffe 	bl	0 <_ZN6OV564016setAutoFocusModeEv>
  58:	4620      	mov	r0, r4
  5a:	bd38      	pop	{r3, r4, r5, pc}

Disassembly of section .text._ZN6OV564016begin_omnivisionE11framesize_t11pixformat_tiib:

00000000 <_ZN6OV564016begin_omnivisionE11framesize_t11pixformat_tiib>:
   0:	e92d 4ff0 	stmdb	sp!, {r4, r5, r6, r7, r8, r9, sl, fp, lr}
   4:	b085      	sub	sp, #20
   6:	4604      	mov	r4, r0
   8:	460f      	mov	r7, r1
   a:	4692      	mov	sl, r2
   c:	f89d 003c 	ldrb.w	r0, [sp, #60]	; 0x3c
  10:	469b      	mov	fp, r3
  12:	72e0      	strb	r0, [r4, #11]
  14:	6a60      	ldr	r0, [r4, #36]	; 0x24
  16:	28ff      	cmp	r0, #255	; 0xff
  18:	d01c      	beq.n	54 <_ZN6OV564016begin_omnivisionE11framesize_t11pixformat_tiib+0x54>
  1a:	6aa3      	ldr	r3, [r4, #40]	; 0x28
  1c:	2b00      	cmp	r3, #0
  1e:	da0c      	bge.n	3a <_ZN6OV564016begin_omnivisionE11framesize_t11pixformat_tiib+0x3a>
  20:	1c5e      	adds	r6, r3, #1
  22:	f000 81bf 	beq.w	3a4 <_ZN6OV564016begin_omnivisionE11framesize_t11pixformat_tiib+0x3a4>
  26:	1c9d      	adds	r5, r3, #2
  28:	f000 81c3 	beq.w	3b2 <_ZN6OV564016begin_omnivisionE11framesize_t11pixformat_tiib+0x3b2>
  2c:	3303      	adds	r3, #3
  2e:	d10e      	bne.n	4e <_ZN6OV564016begin_omnivisionE11framesize_t11pixformat_tiib+0x4e>
  30:	b2c0      	uxtb	r0, r0
  32:	2103      	movs	r1, #3
  34:	f7ff fffe 	bl	0 <pinMode>
  38:	e009      	b.n	4e <_ZN6OV564016begin_omnivisionE11framesize_t11pixformat_tiib+0x4e>
  3a:	b2c0      	uxtb	r0, r0
  3c:	2101      	movs	r1, #1
  3e:	f7ff fffe 	bl	0 <pinMode>
  42:	f894 1028 	ldrb.w	r1, [r4, #40]	; 0x28
  46:	f894 0024 	ldrb.w	r0, [r4, #36]	; 0x24
  4a:	f7ff fffe 	bl	0 <digitalWrite>
  4e:	2005      	movs	r0, #5
  50:	f7ff fffe 	bl	0 <delay>
  54:	6ae0      	ldr	r0, [r4, #44]	; 0x2c
  56:	28ff      	cmp	r0, #255	; 0xff
  58:	d01c      	beq.n	94 <_ZN6OV564016begin_omnivisionE11framesize_t11pixformat_tiib+0x94>
  5a:	6b23      	ldr	r3, [r4, #48]	; 0x30
  5c:	2b00      	cmp	r3, #0
  5e:	da0c      	bge.n	7a <_ZN6OV564016begin_omnivisionE11framesize_t11pixformat_tiib+0x7a>
  60:	1c59      	adds	r1, r3, #1
  62:	f000 819a 	beq.w	39a <_ZN6OV564016begin_omnivisionE11framesize_t11pixformat_tiib+0x39a>
  66:	1c9a      	adds	r2, r3, #2
  68:	f000 81a8 	beq.w	3bc <_ZN6OV564016begin_omnivisionE11framesize_t11pixformat_tiib+0x3bc>
  6c:	3303      	adds	r3, #3
  6e:	d10e      	bne.n	8e <_ZN6OV564016begin_omnivisionE11framesize_t11pixformat_tiib+0x8e>
  70:	b2c0      	uxtb	r0, r0
  72:	2103      	movs	r1, #3
  74:	f7ff fffe 	bl	0 <pinMode>
  78:	e009      	b.n	8e <_ZN6OV564016begin_omnivisionE11framesize_t11pixformat_tiib+0x8e>
  7a:	b2c0      	uxtb	r0, r0
  7c:	2101      	movs	r1, #1
  7e:	f7ff fffe 	bl	0 <pinMode>
  82:	f894 1030 	ldrb.w	r1, [r4, #48]	; 0x30
  86:	f894 002c 	ldrb.w	r0, [r4, #44]	; 0x2c
  8a:	f7ff fffe 	bl	0 <digitalWrite>
  8e:	2005      	movs	r0, #5
  90:	f7ff fffe 	bl	0 <delay>
  94:	6ea0      	ldr	r0, [r4, #104]	; 0x68
  96:	f7ff fffe 	bl	0 <_ZN7TwoWire5beginEv>
  9a:	4b8b      	ldr	r3, [pc, #556]	; (2c8 <_ZN6OV564016begin_omnivisionE11framesize_t11pixformat_tiib+0x2c8>)
  9c:	f933 5037 	ldrsh.w	r5, [r3, r7, lsl #3]
  a0:	f8a4 5054 	strh.w	r5, [r4, #84]	; 0x54
  a4:	b1bd      	cbz	r5, d6 <_ZN6OV564016begin_omnivisionE11framesize_t11pixformat_tiib+0xd6>
  a6:	eb03 03c7 	add.w	r3, r3, r7, lsl #3
  aa:	f8c4 70c8 	str.w	r7, [r4, #200]	; 0xc8
  ae:	685b      	ldr	r3, [r3, #4]
  b0:	f8a4 3056 	strh.w	r3, [r4, #86]	; 0x56
  b4:	2300      	movs	r3, #0
  b6:	f884 30c4 	strb.w	r3, [r4, #196]	; 0xc4
  ba:	f10a 33ff 	add.w	r3, sl, #4294967295	; 0xffffffff
  be:	2b07      	cmp	r3, #7
  c0:	d80d      	bhi.n	de <_ZN6OV564016begin_omnivisionE11framesize_t11pixformat_tiib+0xde>
  c2:	e8df f013 	tbh	[pc, r3, lsl #1]
  c6:	00e1      	.short	0x00e1
  c8:	00f50011 	.word	0x00f50011
  cc:	00f9000c 	.word	0x00f9000c
  d0:	00e10011 	.word	0x00e10011
  d4:	00fc      	.short	0x00fc
  d6:	7a23      	ldrb	r3, [r4, #8]
  d8:	2b00      	cmp	r3, #0
  da:	f040 80de 	bne.w	29a <_ZN6OV564016begin_omnivisionE11framesize_t11pixformat_tiib+0x29a>
  de:	2500      	movs	r5, #0
  e0:	4628      	mov	r0, r5
  e2:	b005      	add	sp, #20
  e4:	e8bd 8ff0 	ldmia.w	sp!, {r4, r5, r6, r7, r8, r9, sl, fp, pc}
  e8:	2302      	movs	r3, #2
  ea:	65e3      	str	r3, [r4, #92]	; 0x5c
  ec:	2301      	movs	r3, #1
  ee:	6663      	str	r3, [r4, #100]	; 0x64
  f0:	2100      	movs	r1, #0
  f2:	7d20      	ldrb	r0, [r4, #20]
  f4:	f104 0630 	add.w	r6, r4, #48	; 0x30
  f8:	f7ff fffe 	bl	0 <pinMode>
  fc:	2100      	movs	r1, #0
  fe:	7e20      	ldrb	r0, [r4, #24]
 100:	2500      	movs	r5, #0
 102:	f7ff fffe 	bl	0 <pinMode>
 106:	2103      	movs	r1, #3
 108:	7f20      	ldrb	r0, [r4, #28]
 10a:	f7ff fffe 	bl	0 <pinMode>
 10e:	2101      	movs	r1, #1
 110:	f894 0020 	ldrb.w	r0, [r4, #32]
 114:	f7ff fffe 	bl	0 <pinMode>
 118:	6a23      	ldr	r3, [r4, #32]
 11a:	496c      	ldr	r1, [pc, #432]	; (2cc <_ZN6OV564016begin_omnivisionE11framesize_t11pixformat_tiib+0x2cc>)
 11c:	9301      	str	r3, [sp, #4]
 11e:	69e3      	ldr	r3, [r4, #28]
 120:	486b      	ldr	r0, [pc, #428]	; (2d0 <_ZN6OV564016begin_omnivisionE11framesize_t11pixformat_tiib+0x2d0>)
 122:	9300      	str	r3, [sp, #0]
 124:	f8df 81a8 	ldr.w	r8, [pc, #424]	; 2d0 <_ZN6OV564016begin_omnivisionE11framesize_t11pixformat_tiib+0x2d0>
 128:	f8df 91c0 	ldr.w	r9, [pc, #448]	; 2ec <_ZN6OV564016begin_omnivisionE11framesize_t11pixformat_tiib+0x2ec>
 12c:	e9d4 2305 	ldrd	r2, r3, [r4, #20]
 130:	f7ff fffe 	bl	0 <_ZN5Print6printfEPKcz>
 134:	6b23      	ldr	r3, [r4, #48]	; 0x30
 136:	4967      	ldr	r1, [pc, #412]	; (2d4 <_ZN6OV564016begin_omnivisionE11framesize_t11pixformat_tiib+0x2d4>)
 138:	4640      	mov	r0, r8
 13a:	9301      	str	r3, [sp, #4]
 13c:	6ae3      	ldr	r3, [r4, #44]	; 0x2c
 13e:	9300      	str	r3, [sp, #0]
 140:	6aa3      	ldr	r3, [r4, #40]	; 0x28
 142:	6a62      	ldr	r2, [r4, #36]	; 0x24
 144:	f7ff fffe 	bl	0 <_ZN5Print6printfEPKcz>
 148:	f856 0f04 	ldr.w	r0, [r6, #4]!
 14c:	2103      	movs	r1, #3
 14e:	b2c0      	uxtb	r0, r0
 150:	f7ff fffe 	bl	0 <pinMode>
 154:	462a      	mov	r2, r5
 156:	3501      	adds	r5, #1
 158:	6833      	ldr	r3, [r6, #0]
 15a:	4649      	mov	r1, r9
 15c:	4640      	mov	r0, r8
 15e:	f7ff fffe 	bl	0 <_ZN5Print6printfEPKcz>
 162:	2d08      	cmp	r5, #8
 164:	d1f0      	bne.n	148 <_ZN6OV564016begin_omnivisionE11framesize_t11pixformat_tiib+0x148>
 166:	6961      	ldr	r1, [r4, #20]
 168:	4d5b      	ldr	r5, [pc, #364]	; (2d8 <_ZN6OV564016begin_omnivisionE11framesize_t11pixformat_tiib+0x2d8>)
 16a:	0108      	lsls	r0, r1, #4
 16c:	eb05 1101 	add.w	r1, r5, r1, lsl #4
 170:	582e      	ldr	r6, [r5, r0]
 172:	68c8      	ldr	r0, [r1, #12]
 174:	3608      	adds	r6, #8
 176:	f8c4 0098 	str.w	r0, [r4, #152]	; 0x98
 17a:	4620      	mov	r0, r4
 17c:	f8c4 6094 	str.w	r6, [r4, #148]	; 0x94
 180:	e9d4 2306 	ldrd	r2, r3, [r4, #24]
 184:	0111      	lsls	r1, r2, #4
 186:	eb05 1202 	add.w	r2, r5, r2, lsl #4
 18a:	5869      	ldr	r1, [r5, r1]
 18c:	68d2      	ldr	r2, [r2, #12]
 18e:	3108      	adds	r1, #8
 190:	f8c4 20a0 	str.w	r2, [r4, #160]	; 0xa0
 194:	011a      	lsls	r2, r3, #4
 196:	eb05 1303 	add.w	r3, r5, r3, lsl #4
 19a:	f8c4 109c 	str.w	r1, [r4, #156]	; 0x9c
 19e:	58aa      	ldr	r2, [r5, r2]
 1a0:	68db      	ldr	r3, [r3, #12]
 1a2:	3208      	adds	r2, #8
 1a4:	f8c4 30a8 	str.w	r3, [r4, #168]	; 0xa8
 1a8:	6823      	ldr	r3, [r4, #0]
 1aa:	f8c4 20a4 	str.w	r2, [r4, #164]	; 0xa4
 1ae:	f8d3 3144 	ldr.w	r3, [r3, #324]	; 0x144
 1b2:	4798      	blx	r3
 1b4:	6a60      	ldr	r0, [r4, #36]	; 0x24
 1b6:	28ff      	cmp	r0, #255	; 0xff
 1b8:	d026      	beq.n	208 <_ZN6OV564016begin_omnivisionE11framesize_t11pixformat_tiib+0x208>
 1ba:	b2c0      	uxtb	r0, r0
 1bc:	2101      	movs	r1, #1
 1be:	f7ff fffe 	bl	0 <pinMode>
 1c2:	f894 3024 	ldrb.w	r3, [r4, #36]	; 0x24
 1c6:	2600      	movs	r6, #0
 1c8:	4a44      	ldr	r2, [pc, #272]	; (2dc <_ZN6OV564016begin_omnivisionE11framesize_t11pixformat_tiib+0x2dc>)
 1ca:	0119      	lsls	r1, r3, #4
 1cc:	eb05 1303 	add.w	r3, r5, r3, lsl #4
 1d0:	5869      	ldr	r1, [r5, r1]
 1d2:	68d8      	ldr	r0, [r3, #12]
 1d4:	f8c1 0088 	str.w	r0, [r1, #136]	; 0x88
 1d8:	9602      	str	r6, [sp, #8]
 1da:	9b02      	ldr	r3, [sp, #8]
 1dc:	4293      	cmp	r3, r2
 1de:	d805      	bhi.n	1ec <_ZN6OV564016begin_omnivisionE11framesize_t11pixformat_tiib+0x1ec>
 1e0:	9b02      	ldr	r3, [sp, #8]
 1e2:	3301      	adds	r3, #1
 1e4:	9302      	str	r3, [sp, #8]
 1e6:	9b02      	ldr	r3, [sp, #8]
 1e8:	4293      	cmp	r3, r2
 1ea:	d9f9      	bls.n	1e0 <_ZN6OV564016begin_omnivisionE11framesize_t11pixformat_tiib+0x1e0>
 1ec:	2300      	movs	r3, #0
 1ee:	f8c1 0084 	str.w	r0, [r1, #132]	; 0x84
 1f2:	4a3a      	ldr	r2, [pc, #232]	; (2dc <_ZN6OV564016begin_omnivisionE11framesize_t11pixformat_tiib+0x2dc>)
 1f4:	9303      	str	r3, [sp, #12]
 1f6:	9b03      	ldr	r3, [sp, #12]
 1f8:	4293      	cmp	r3, r2
 1fa:	d805      	bhi.n	208 <_ZN6OV564016begin_omnivisionE11framesize_t11pixformat_tiib+0x208>
 1fc:	9b03      	ldr	r3, [sp, #12]
 1fe:	3301      	adds	r3, #1
 200:	9303      	str	r3, [sp, #12]
 202:	9b03      	ldr	r3, [sp, #12]
 204:	4293      	cmp	r3, r2
 206:	d9f9      	bls.n	1fc <_ZN6OV564016begin_omnivisionE11framesize_t11pixformat_tiib+0x1fc>
 208:	6ea0      	ldr	r0, [r4, #104]	; 0x68
 20a:	f7ff fffe 	bl	0 <_ZN7TwoWire5beginEv>
 20e:	f44f 70fa 	mov.w	r0, #500	; 0x1f4
 212:	f7ff fffe 	bl	0 <delay>
 216:	6823      	ldr	r3, [r4, #0]
 218:	4620      	mov	r0, r4
 21a:	f8d3 3088 	ldr.w	r3, [r3, #136]	; 0x88
 21e:	4798      	blx	r3
 220:	2300      	movs	r3, #0
 222:	4601      	mov	r1, r0
 224:	2210      	movs	r2, #16
 226:	482a      	ldr	r0, [pc, #168]	; (2d0 <_ZN6OV564016begin_omnivisionE11framesize_t11pixformat_tiib+0x2d0>)
 228:	f7ff fffe 	bl	0 <_ZN5Print11printNumberEmhh>
 22c:	4828      	ldr	r0, [pc, #160]	; (2d0 <_ZN6OV564016begin_omnivisionE11framesize_t11pixformat_tiib+0x2d0>)
 22e:	f7ff fffe 	bl	0 <_ZN5Print7printlnEv>
 232:	6823      	ldr	r3, [r4, #0]
 234:	4620      	mov	r0, r4
 236:	f8d3 3088 	ldr.w	r3, [r3, #136]	; 0x88
 23a:	4798      	blx	r3
 23c:	f245 6340 	movw	r3, #22080	; 0x5640
 240:	4298      	cmp	r0, r3
 242:	d055      	beq.n	2f0 <_ZN6OV564016begin_omnivisionE11framesize_t11pixformat_tiib+0x2f0>
 244:	6823      	ldr	r3, [r4, #0]
 246:	4620      	mov	r0, r4
 248:	4925      	ldr	r1, [pc, #148]	; (2e0 <_ZN6OV564016begin_omnivisionE11framesize_t11pixformat_tiib+0x2e0>)
 24a:	695a      	ldr	r2, [r3, #20]
 24c:	428a      	cmp	r2, r1
 24e:	f040 80ae 	bne.w	3ae <_ZN6OV564016begin_omnivisionE11framesize_t11pixformat_tiib+0x3ae>
 252:	f8d3 3148 	ldr.w	r3, [r3, #328]	; 0x148
 256:	4798      	blx	r3
 258:	f894 0020 	ldrb.w	r0, [r4, #32]
 25c:	2100      	movs	r1, #0
 25e:	f7ff fffe 	bl	0 <pinMode>
 262:	6ea0      	ldr	r0, [r4, #104]	; 0x68
 264:	f7ff fffe 	bl	0 <_ZN7TwoWire3endEv>
 268:	7a23      	ldrb	r3, [r4, #8]
 26a:	2b00      	cmp	r3, #0
 26c:	f43f af37 	beq.w	de <_ZN6OV564016begin_omnivisionE11framesize_t11pixformat_tiib+0xde>
 270:	2114      	movs	r1, #20
 272:	2500      	movs	r5, #0
 274:	481b      	ldr	r0, [pc, #108]	; (2e4 <_ZN6OV564016begin_omnivisionE11framesize_t11pixformat_tiib+0x2e4>)
 276:	f7ff fffe 	bl	0 <usb_serial_write>
 27a:	4815      	ldr	r0, [pc, #84]	; (2d0 <_ZN6OV564016begin_omnivisionE11framesize_t11pixformat_tiib+0x2d0>)
 27c:	f7ff fffe 	bl	0 <_ZN5Print7printlnEv>
 280:	4628      	mov	r0, r5
 282:	b005      	add	sp, #20
 284:	e8bd 8ff0 	ldmia.w	sp!, {r4, r5, r6, r7, r8, r9, sl, fp, pc}
 288:	2301      	movs	r3, #1
 28a:	2202      	movs	r2, #2
 28c:	f04f 0a03 	mov.w	sl, #3
 290:	f884 30c4 	strb.w	r3, [r4, #196]	; 0xc4
 294:	2304      	movs	r3, #4
 296:	65e2      	str	r2, [r4, #92]	; 0x5c
 298:	e729      	b.n	ee <_ZN6OV564016begin_omnivisionE11framesize_t11pixformat_tiib+0xee>
 29a:	2115      	movs	r1, #21
 29c:	4812      	ldr	r0, [pc, #72]	; (2e8 <_ZN6OV564016begin_omnivisionE11framesize_t11pixformat_tiib+0x2e8>)
 29e:	f7ff fffe 	bl	0 <usb_serial_write>
 2a2:	480b      	ldr	r0, [pc, #44]	; (2d0 <_ZN6OV564016begin_omnivisionE11framesize_t11pixformat_tiib+0x2d0>)
 2a4:	f7ff fffe 	bl	0 <_ZN5Print7printlnEv>
 2a8:	4628      	mov	r0, r5
 2aa:	b005      	add	sp, #20
 2ac:	e8bd 8ff0 	ldmia.w	sp!, {r4, r5, r6, r7, r8, r9, sl, fp, pc}
 2b0:	2302      	movs	r3, #2
 2b2:	65e3      	str	r3, [r4, #92]	; 0x5c
 2b4:	2300      	movs	r3, #0
 2b6:	e71a      	b.n	ee <_ZN6OV564016begin_omnivisionE11framesize_t11pixformat_tiib+0xee>
 2b8:	2302      	movs	r3, #2
 2ba:	65e3      	str	r3, [r4, #92]	; 0x5c
 2bc:	e717      	b.n	ee <_ZN6OV564016begin_omnivisionE11framesize_t11pixformat_tiib+0xee>
 2be:	2302      	movs	r3, #2
 2c0:	65e3      	str	r3, [r4, #92]	; 0x5c
 2c2:	2308      	movs	r3, #8
 2c4:	e713      	b.n	ee <_ZN6OV564016begin_omnivisionE11framesize_t11pixformat_tiib+0xee>
 2c6:	bf00      	nop
 2c8:	00000000 	.word	0x00000000
 2cc:	00000018 	.word	0x00000018
 2d0:	00000000 	.word	0x00000000
 2d4:	00000038 	.word	0x00000038
 2d8:	00000000 	.word	0x00000000
 2dc:	0001869f 	.word	0x0001869f
 2e0:	00000000 	.word	0x00000000
 2e4:	00000068 	.word	0x00000068
 2e8:	00000000 	.word	0x00000000
 2ec:	00000054 	.word	0x00000054
 2f0:	497a      	ldr	r1, [pc, #488]	; (4dc <_ZN6OV564016begin_omnivisionE11framesize_t11pixformat_tiib+0x4dc>)
 2f2:	487b      	ldr	r0, [pc, #492]	; (4e0 <_ZN6OV564016begin_omnivisionE11framesize_t11pixformat_tiib+0x4e0>)
 2f4:	f7ff fffe 	bl	0 <_ZN5Print6printfEPKcz>
 2f8:	f8d4 30c0 	ldr.w	r3, [r4, #192]	; 0xc0
 2fc:	4979      	ldr	r1, [pc, #484]	; (4e4 <_ZN6OV564016begin_omnivisionE11framesize_t11pixformat_tiib+0x4e4>)
 2fe:	9301      	str	r3, [sp, #4]
 300:	f8d4 30c8 	ldr.w	r3, [r4, #200]	; 0xc8
 304:	9a0e      	ldr	r2, [sp, #56]	; 0x38
 306:	9300      	str	r3, [sp, #0]
 308:	4875      	ldr	r0, [pc, #468]	; (4e0 <_ZN6OV564016begin_omnivisionE11framesize_t11pixformat_tiib+0x4e0>)
 30a:	6e63      	ldr	r3, [r4, #100]	; 0x64
 30c:	f7ff fffe 	bl	0 <_ZN5Print6printfEPKcz>
 310:	465a      	mov	r2, fp
 312:	4975      	ldr	r1, [pc, #468]	; (4e8 <_ZN6OV564016begin_omnivisionE11framesize_t11pixformat_tiib+0x4e8>)
 314:	4872      	ldr	r0, [pc, #456]	; (4e0 <_ZN6OV564016begin_omnivisionE11framesize_t11pixformat_tiib+0x4e0>)
 316:	f7ff fffe 	bl	0 <_ZN5Print6printfEPKcz>
 31a:	7ae3      	ldrb	r3, [r4, #11]
 31c:	b923      	cbnz	r3, 328 <_ZN6OV564016begin_omnivisionE11framesize_t11pixformat_tiib+0x328>
 31e:	6823      	ldr	r3, [r4, #0]
 320:	4620      	mov	r0, r4
 322:	f8d3 3138 	ldr.w	r3, [r3, #312]	; 0x138
 326:	4798      	blx	r3
 328:	6823      	ldr	r3, [r4, #0]
 32a:	4a70      	ldr	r2, [pc, #448]	; (4ec <_ZN6OV564016begin_omnivisionE11framesize_t11pixformat_tiib+0x4ec>)
 32c:	f8d3 310c 	ldr.w	r3, [r3, #268]	; 0x10c
 330:	4293      	cmp	r3, r2
 332:	f040 80bf 	bne.w	4b4 <_ZN6OV564016begin_omnivisionE11framesize_t11pixformat_tiib+0x4b4>
 336:	4b6e      	ldr	r3, [pc, #440]	; (4f0 <_ZN6OV564016begin_omnivisionE11framesize_t11pixformat_tiib+0x4f0>)
 338:	2266      	movs	r2, #102	; 0x66
 33a:	f883 209d 	strb.w	r2, [r3, #157]	; 0x9d
 33e:	6823      	ldr	r3, [r4, #0]
 340:	4a6c      	ldr	r2, [pc, #432]	; (4f4 <_ZN6OV564016begin_omnivisionE11framesize_t11pixformat_tiib+0x4f4>)
 342:	f8d3 3110 	ldr.w	r3, [r3, #272]	; 0x110
 346:	4293      	cmp	r3, r2
 348:	f040 80b8 	bne.w	4bc <_ZN6OV564016begin_omnivisionE11framesize_t11pixformat_tiib+0x4bc>
 34c:	4b6a      	ldr	r3, [pc, #424]	; (4f8 <_ZN6OV564016begin_omnivisionE11framesize_t11pixformat_tiib+0x4f8>)
 34e:	21c0      	movs	r1, #192	; 0xc0
 350:	4a67      	ldr	r2, [pc, #412]	; (4f0 <_ZN6OV564016begin_omnivisionE11framesize_t11pixformat_tiib+0x4f0>)
 352:	791b      	ldrb	r3, [r3, #4]
 354:	f003 030f 	and.w	r3, r3, #15
 358:	5499      	strb	r1, [r3, r2]
 35a:	6823      	ldr	r3, [r4, #0]
 35c:	4620      	mov	r0, r4
 35e:	699b      	ldr	r3, [r3, #24]
 360:	4798      	blx	r3
 362:	2800      	cmp	r0, #0
 364:	f2c0 808c 	blt.w	480 <_ZN6OV564016begin_omnivisionE11framesize_t11pixformat_tiib+0x480>
 368:	6823      	ldr	r3, [r4, #0]
 36a:	4651      	mov	r1, sl
 36c:	4620      	mov	r0, r4
 36e:	6b1b      	ldr	r3, [r3, #48]	; 0x30
 370:	4798      	blx	r3
 372:	4605      	mov	r5, r0
 374:	2800      	cmp	r0, #0
 376:	f040 8090 	bne.w	49a <_ZN6OV564016begin_omnivisionE11framesize_t11pixformat_tiib+0x49a>
 37a:	6823      	ldr	r3, [r4, #0]
 37c:	4639      	mov	r1, r7
 37e:	4620      	mov	r0, r4
 380:	6b9b      	ldr	r3, [r3, #56]	; 0x38
 382:	4798      	blx	r3
 384:	4606      	mov	r6, r0
 386:	2800      	cmp	r0, #0
 388:	f040 809c 	bne.w	4c4 <_ZN6OV564016begin_omnivisionE11framesize_t11pixformat_tiib+0x4c4>
 38c:	f894 30d4 	ldrb.w	r3, [r4, #212]	; 0xd4
 390:	b9cb      	cbnz	r3, 3c6 <_ZN6OV564016begin_omnivisionE11framesize_t11pixformat_tiib+0x3c6>
 392:	7a25      	ldrb	r5, [r4, #8]
 394:	bb4d      	cbnz	r5, 3ea <_ZN6OV564016begin_omnivisionE11framesize_t11pixformat_tiib+0x3ea>
 396:	2501      	movs	r5, #1
 398:	e6a2      	b.n	e0 <_ZN6OV564016begin_omnivisionE11framesize_t11pixformat_tiib+0xe0>
 39a:	b2c0      	uxtb	r0, r0
 39c:	2100      	movs	r1, #0
 39e:	f7ff fffe 	bl	0 <pinMode>
 3a2:	e674      	b.n	8e <_ZN6OV564016begin_omnivisionE11framesize_t11pixformat_tiib+0x8e>
 3a4:	b2c0      	uxtb	r0, r0
 3a6:	2100      	movs	r1, #0
 3a8:	f7ff fffe 	bl	0 <pinMode>
 3ac:	e64f      	b.n	4e <_ZN6OV564016begin_omnivisionE11framesize_t11pixformat_tiib+0x4e>
 3ae:	4790      	blx	r2
 3b0:	e75a      	b.n	268 <_ZN6OV564016begin_omnivisionE11framesize_t11pixformat_tiib+0x268>
 3b2:	b2c0      	uxtb	r0, r0
 3b4:	2102      	movs	r1, #2
 3b6:	f7ff fffe 	bl	0 <pinMode>
 3ba:	e648      	b.n	4e <_ZN6OV564016begin_omnivisionE11framesize_t11pixformat_tiib+0x4e>
 3bc:	b2c0      	uxtb	r0, r0
 3be:	2102      	movs	r1, #2
 3c0:	f7ff fffe 	bl	0 <pinMode>
 3c4:	e663      	b.n	8e <_ZN6OV564016begin_omnivisionE11framesize_t11pixformat_tiib+0x8e>
 3c6:	4620      	mov	r0, r4
 3c8:	f7ff fffe 	bl	0 <_ZN6OV564016begin_omnivisionE11framesize_t11pixformat_tiib>
 3cc:	2800      	cmp	r0, #0
 3ce:	d0e0      	beq.n	392 <_ZN6OV564016begin_omnivisionE11framesize_t11pixformat_tiib+0x392>
 3d0:	7a23      	ldrb	r3, [r4, #8]
 3d2:	2b00      	cmp	r3, #0
 3d4:	f43f ae83 	beq.w	de <_ZN6OV564016begin_omnivisionE11framesize_t11pixformat_tiib+0xde>
 3d8:	2121      	movs	r1, #33	; 0x21
 3da:	4848      	ldr	r0, [pc, #288]	; (4fc <_ZN6OV564016begin_omnivisionE11framesize_t11pixformat_tiib+0x4fc>)
 3dc:	f7ff fffe 	bl	0 <usb_serial_write>
 3e0:	483f      	ldr	r0, [pc, #252]	; (4e0 <_ZN6OV564016begin_omnivisionE11framesize_t11pixformat_tiib+0x4e0>)
 3e2:	4635      	mov	r5, r6
 3e4:	f7ff fffe 	bl	0 <_ZN5Print7printlnEv>
 3e8:	e67a      	b.n	e0 <_ZN6OV564016begin_omnivisionE11framesize_t11pixformat_tiib+0xe0>
 3ea:	211c      	movs	r1, #28
 3ec:	4844      	ldr	r0, [pc, #272]	; (500 <_ZN6OV564016begin_omnivisionE11framesize_t11pixformat_tiib+0x500>)
 3ee:	f7ff fffe 	bl	0 <usb_serial_write>
 3f2:	483b      	ldr	r0, [pc, #236]	; (4e0 <_ZN6OV564016begin_omnivisionE11framesize_t11pixformat_tiib+0x4e0>)
 3f4:	f7ff fffe 	bl	0 <_ZN5Print7printlnEv>
 3f8:	7d21      	ldrb	r1, [r4, #20]
 3fa:	4842      	ldr	r0, [pc, #264]	; (504 <_ZN6OV564016begin_omnivisionE11framesize_t11pixformat_tiib+0x504>)
 3fc:	f7ff fffe 	bl	0 <_ZN6OV564016begin_omnivisionE11framesize_t11pixformat_tiib>
 400:	7e21      	ldrb	r1, [r4, #24]
 402:	4841      	ldr	r0, [pc, #260]	; (508 <_ZN6OV564016begin_omnivisionE11framesize_t11pixformat_tiib+0x508>)
 404:	f7ff fffe 	bl	0 <_ZN6OV564016begin_omnivisionE11framesize_t11pixformat_tiib>
 408:	7f21      	ldrb	r1, [r4, #28]
 40a:	4840      	ldr	r0, [pc, #256]	; (50c <_ZN6OV564016begin_omnivisionE11framesize_t11pixformat_tiib+0x50c>)
 40c:	f7ff fffe 	bl	0 <_ZN6OV564016begin_omnivisionE11framesize_t11pixformat_tiib>
 410:	f894 1020 	ldrb.w	r1, [r4, #32]
 414:	483e      	ldr	r0, [pc, #248]	; (510 <_ZN6OV564016begin_omnivisionE11framesize_t11pixformat_tiib+0x510>)
 416:	f7ff fffe 	bl	0 <_ZN6OV564016begin_omnivisionE11framesize_t11pixformat_tiib>
 41a:	f894 1024 	ldrb.w	r1, [r4, #36]	; 0x24
 41e:	483d      	ldr	r0, [pc, #244]	; (514 <_ZN6OV564016begin_omnivisionE11framesize_t11pixformat_tiib+0x514>)
 420:	f7ff fffe 	bl	0 <_ZN6OV564016begin_omnivisionE11framesize_t11pixformat_tiib>
 424:	f894 102c 	ldrb.w	r1, [r4, #44]	; 0x2c
 428:	483b      	ldr	r0, [pc, #236]	; (518 <_ZN6OV564016begin_omnivisionE11framesize_t11pixformat_tiib+0x518>)
 42a:	f7ff fffe 	bl	0 <_ZN6OV564016begin_omnivisionE11framesize_t11pixformat_tiib>
 42e:	f894 1034 	ldrb.w	r1, [r4, #52]	; 0x34
 432:	483a      	ldr	r0, [pc, #232]	; (51c <_ZN6OV564016begin_omnivisionE11framesize_t11pixformat_tiib+0x51c>)
 434:	f7ff fffe 	bl	0 <_ZN6OV564016begin_omnivisionE11framesize_t11pixformat_tiib>
 438:	f894 1038 	ldrb.w	r1, [r4, #56]	; 0x38
 43c:	4838      	ldr	r0, [pc, #224]	; (520 <_ZN6OV564016begin_omnivisionE11framesize_t11pixformat_tiib+0x520>)
 43e:	f7ff fffe 	bl	0 <_ZN6OV564016begin_omnivisionE11framesize_t11pixformat_tiib>
 442:	f894 103c 	ldrb.w	r1, [r4, #60]	; 0x3c
 446:	4837      	ldr	r0, [pc, #220]	; (524 <_ZN6OV564016begin_omnivisionE11framesize_t11pixformat_tiib+0x524>)
 448:	f7ff fffe 	bl	0 <_ZN6OV564016begin_omnivisionE11framesize_t11pixformat_tiib>
 44c:	f894 1040 	ldrb.w	r1, [r4, #64]	; 0x40
 450:	4835      	ldr	r0, [pc, #212]	; (528 <_ZN6OV564016begin_omnivisionE11framesize_t11pixformat_tiib+0x528>)
 452:	f7ff fffe 	bl	0 <_ZN6OV564016begin_omnivisionE11framesize_t11pixformat_tiib>
 456:	f894 1044 	ldrb.w	r1, [r4, #68]	; 0x44
 45a:	4834      	ldr	r0, [pc, #208]	; (52c <_ZN6OV564016begin_omnivisionE11framesize_t11pixformat_tiib+0x52c>)
 45c:	f7ff fffe 	bl	0 <_ZN6OV564016begin_omnivisionE11framesize_t11pixformat_tiib>
 460:	f894 1048 	ldrb.w	r1, [r4, #72]	; 0x48
 464:	4832      	ldr	r0, [pc, #200]	; (530 <_ZN6OV564016begin_omnivisionE11framesize_t11pixformat_tiib+0x530>)
 466:	f7ff fffe 	bl	0 <_ZN6OV564016begin_omnivisionE11framesize_t11pixformat_tiib>
 46a:	f894 104c 	ldrb.w	r1, [r4, #76]	; 0x4c
 46e:	4831      	ldr	r0, [pc, #196]	; (534 <_ZN6OV564016begin_omnivisionE11framesize_t11pixformat_tiib+0x534>)
 470:	f7ff fffe 	bl	0 <_ZN6OV564016begin_omnivisionE11framesize_t11pixformat_tiib>
 474:	f894 1050 	ldrb.w	r1, [r4, #80]	; 0x50
 478:	482f      	ldr	r0, [pc, #188]	; (538 <_ZN6OV564016begin_omnivisionE11framesize_t11pixformat_tiib+0x538>)
 47a:	f7ff fffe 	bl	0 <_ZN6OV564016begin_omnivisionE11framesize_t11pixformat_tiib>
 47e:	e62f      	b.n	e0 <_ZN6OV564016begin_omnivisionE11framesize_t11pixformat_tiib+0xe0>
 480:	7a23      	ldrb	r3, [r4, #8]
 482:	2b00      	cmp	r3, #0
 484:	f43f ae2b 	beq.w	de <_ZN6OV564016begin_omnivisionE11framesize_t11pixformat_tiib+0xde>
 488:	2113      	movs	r1, #19
 48a:	482c      	ldr	r0, [pc, #176]	; (53c <_ZN6OV564016begin_omnivisionE11framesize_t11pixformat_tiib+0x53c>)
 48c:	f7ff fffe 	bl	0 <usb_serial_write>
 490:	4813      	ldr	r0, [pc, #76]	; (4e0 <_ZN6OV564016begin_omnivisionE11framesize_t11pixformat_tiib+0x4e0>)
 492:	2500      	movs	r5, #0
 494:	f7ff fffe 	bl	0 <_ZN5Print7printlnEv>
 498:	e622      	b.n	e0 <_ZN6OV564016begin_omnivisionE11framesize_t11pixformat_tiib+0xe0>
 49a:	7a23      	ldrb	r3, [r4, #8]
 49c:	2b00      	cmp	r3, #0
 49e:	f43f ae1e 	beq.w	de <_ZN6OV564016begin_omnivisionE11framesize_t11pixformat_tiib+0xde>
 4a2:	211a      	movs	r1, #26
 4a4:	4826      	ldr	r0, [pc, #152]	; (540 <_ZN6OV564016begin_omnivisionE11framesize_t11pixformat_tiib+0x540>)
 4a6:	f7ff fffe 	bl	0 <usb_serial_write>
 4aa:	480d      	ldr	r0, [pc, #52]	; (4e0 <_ZN6OV564016begin_omnivisionE11framesize_t11pixformat_tiib+0x4e0>)
 4ac:	2500      	movs	r5, #0
 4ae:	f7ff fffe 	bl	0 <_ZN5Print7printlnEv>
 4b2:	e615      	b.n	e0 <_ZN6OV564016begin_omnivisionE11framesize_t11pixformat_tiib+0xe0>
 4b4:	2166      	movs	r1, #102	; 0x66
 4b6:	4620      	mov	r0, r4
 4b8:	4798      	blx	r3
 4ba:	e740      	b.n	33e <_ZN6OV564016begin_omnivisionE11framesize_t11pixformat_tiib+0x33e>
 4bc:	21c0      	movs	r1, #192	; 0xc0
 4be:	4620      	mov	r0, r4
 4c0:	4798      	blx	r3
 4c2:	e74a      	b.n	35a <_ZN6OV564016begin_omnivisionE11framesize_t11pixformat_tiib+0x35a>
 4c4:	7a23      	ldrb	r3, [r4, #8]
 4c6:	2b00      	cmp	r3, #0
 4c8:	f43f ae09 	beq.w	de <_ZN6OV564016begin_omnivisionE11framesize_t11pixformat_tiib+0xde>
 4cc:	211a      	movs	r1, #26
 4ce:	481d      	ldr	r0, [pc, #116]	; (544 <_ZN6OV564016begin_omnivisionE11framesize_t11pixformat_tiib+0x544>)
 4d0:	f7ff fffe 	bl	0 <usb_serial_write>
 4d4:	4802      	ldr	r0, [pc, #8]	; (4e0 <_ZN6OV564016begin_omnivisionE11framesize_t11pixformat_tiib+0x4e0>)
 4d6:	f7ff fffe 	bl	0 <_ZN5Print7printlnEv>
 4da:	e601      	b.n	e0 <_ZN6OV564016begin_omnivisionE11framesize_t11pixformat_tiib+0xe0>
 4dc:	00000080 	.word	0x00000080
 4e0:	00000000 	.word	0x00000000
 4e4:	0000009c 	.word	0x0000009c
 4e8:	000000d4 	.word	0x000000d4
 4ec:	00000000 	.word	0x00000000
 4f0:	e000e400 	.word	0xe000e400
 4f4:	00000000 	.word	0x00000000
 4f8:	00000000 	.word	0x00000000
 4fc:	00000130 	.word	0x00000130
 500:	00000154 	.word	0x00000154
 504:	00000174 	.word	0x00000174
 508:	00000180 	.word	0x00000180
 50c:	00000188 	.word	0x00000188
 510:	00000190 	.word	0x00000190
 514:	00000198 	.word	0x00000198
 518:	0000019c 	.word	0x0000019c
 51c:	000001a4 	.word	0x000001a4
 520:	000001a8 	.word	0x000001a8
 524:	000001ac 	.word	0x000001ac
 528:	000001b0 	.word	0x000001b0
 52c:	000001b4 	.word	0x000001b4
 530:	000001b8 	.word	0x000001b8
 534:	000001bc 	.word	0x000001bc
 538:	000001c0 	.word	0x000001c0
 53c:	000000e4 	.word	0x000000e4
 540:	000000f8 	.word	0x000000f8
 544:	00000114 	.word	0x00000114

Disassembly of section .text._ZN6OV564018readFrameGPIO_JPEGEPvjS0_j:

00000000 <_ZN6OV564018readFrameGPIO_JPEGEPvjS0_j>:
   0:	e92d 4ff0 	stmdb	sp!, {r4, r5, r6, r7, r8, r9, sl, fp, lr}
   4:	b087      	sub	sp, #28
   6:	469a      	mov	sl, r3
   8:	4604      	mov	r4, r0
   a:	4617      	mov	r7, r2
   c:	9b10      	ldr	r3, [sp, #64]	; 0x40
   e:	4689      	mov	r9, r1
  10:	e9cd a300 	strd	sl, r3, [sp]
  14:	f8b0 3056 	ldrh.w	r3, [r0, #86]	; 0x56
  18:	f8b0 5054 	ldrh.w	r5, [r0, #84]	; 0x54
  1c:	461e      	mov	r6, r3
  1e:	9303      	str	r3, [sp, #12]
  20:	485a      	ldr	r0, [pc, #360]	; (18c <_ZN6OV564018readFrameGPIO_JPEGEPvjS0_j+0x18c>)
  22:	4613      	mov	r3, r2
  24:	460a      	mov	r2, r1
  26:	495a      	ldr	r1, [pc, #360]	; (190 <_ZN6OV564018readFrameGPIO_JPEGEPvjS0_j+0x190>)
  28:	f7ff fffe 	bl	0 <_ZN5Print6printfEPKcz>
  2c:	fb06 f305 	mul.w	r3, r6, r5
  30:	6de1      	ldr	r1, [r4, #92]	; 0x5c
  32:	4a58      	ldr	r2, [pc, #352]	; (194 <_ZN6OV564018readFrameGPIO_JPEGEPvjS0_j+0x194>)
  34:	fb01 f303 	mul.w	r3, r1, r3
  38:	fb82 0203 	smull	r0, r2, r2, r3
  3c:	17db      	asrs	r3, r3, #31
  3e:	ebc3 0362 	rsb	r3, r3, r2, asr #1
  42:	9a10      	ldr	r2, [sp, #64]	; 0x40
  44:	18ba      	adds	r2, r7, r2
  46:	9305      	str	r3, [sp, #20]
  48:	429a      	cmp	r2, r3
  4a:	d203      	bcs.n	54 <_ZN6OV564018readFrameGPIO_JPEGEPvjS0_j+0x54>
  4c:	7a23      	ldrb	r3, [r4, #8]
  4e:	2b00      	cmp	r3, #0
  50:	f040 808f 	bne.w	172 <_ZN6OV564018readFrameGPIO_JPEGEPvjS0_j+0x172>
  54:	f9b4 3054 	ldrsh.w	r3, [r4, #84]	; 0x54
  58:	fb01 f303 	mul.w	r3, r1, r3
  5c:	9304      	str	r3, [sp, #16]
  5e:	f7ff fffe 	bl	0 <micros>
  62:	e9d4 1225 	ldrd	r1, r2, [r4, #148]	; 0x94
  66:	680b      	ldr	r3, [r1, #0]
  68:	4213      	tst	r3, r2
  6a:	d0fc      	beq.n	66 <_ZN6OV564018readFrameGPIO_JPEGEPvjS0_j+0x66>
  6c:	f7ff fffe 	bl	0 <micros>
  70:	4606      	mov	r6, r0
  72:	e9d4 1225 	ldrd	r1, r2, [r4, #148]	; 0x94
  76:	680d      	ldr	r5, [r1, #0]
  78:	4015      	ands	r5, r2
  7a:	d1fc      	bne.n	76 <_ZN6OV564018readFrameGPIO_JPEGEPvjS0_j+0x76>
  7c:	f7ff fffe 	bl	0 <micros>
  80:	42b0      	cmp	r0, r6
  82:	d0ee      	beq.n	62 <_ZN6OV564018readFrameGPIO_JPEGEPvjS0_j+0x62>
  84:	9b03      	ldr	r3, [sp, #12]
  86:	2b00      	cmp	r3, #0
  88:	d052      	beq.n	130 <_ZN6OV564018readFrameGPIO_JPEGEPvjS0_j+0x130>
  8a:	46bc      	mov	ip, r7
  8c:	462e      	mov	r6, r5
  8e:	46d6      	mov	lr, sl
  90:	9f10      	ldr	r7, [sp, #64]	; 0x40
  92:	9502      	str	r5, [sp, #8]
  94:	e9d4 1227 	ldrd	r1, r2, [r4, #156]	; 0x9c
  98:	680b      	ldr	r3, [r1, #0]
  9a:	4213      	tst	r3, r2
  9c:	d0fc      	beq.n	98 <_ZN6OV564018readFrameGPIO_JPEGEPvjS0_j+0x98>
  9e:	e9d4 1229 	ldrd	r1, r2, [r4, #164]	; 0xa4
  a2:	680b      	ldr	r3, [r1, #0]
  a4:	ea13 0a02 	ands.w	sl, r3, r2
  a8:	d1fb      	bne.n	a2 <_ZN6OV564018readFrameGPIO_JPEGEPvjS0_j+0xa2>
  aa:	b672      	cpsid	i
  ac:	9b04      	ldr	r3, [sp, #16]
  ae:	2b00      	cmp	r3, #0
  b0:	dd4c      	ble.n	14c <_ZN6OV564018readFrameGPIO_JPEGEPvjS0_j+0x14c>
  b2:	46b0      	mov	r8, r6
  b4:	eb03 0b05 	add.w	fp, r3, r5
  b8:	e9d4 0229 	ldrd	r0, r2, [r4, #164]	; 0xa4
  bc:	6803      	ldr	r3, [r0, #0]
  be:	4213      	tst	r3, r2
  c0:	d0fc      	beq.n	bc <_ZN6OV564018readFrameGPIO_JPEGEPvjS0_j+0xbc>
  c2:	4b35      	ldr	r3, [pc, #212]	; (198 <_ZN6OV564018readFrameGPIO_JPEGEPvjS0_j+0x198>)
  c4:	f01a 0f01 	tst.w	sl, #1
  c8:	689e      	ldr	r6, [r3, #8]
  ca:	ea4f 1616 	mov.w	r6, r6, lsr #4
  ce:	b2f6      	uxtb	r6, r6
  d0:	d002      	beq.n	d8 <_ZN6OV564018readFrameGPIO_JPEGEPvjS0_j+0xd8>
  d2:	f894 30c4 	ldrb.w	r3, [r4, #196]	; 0xc4
  d6:	b933      	cbnz	r3, e6 <_ZN6OV564018readFrameGPIO_JPEGEPvjS0_j+0xe6>
  d8:	f1bc 0c01 	subs.w	ip, ip, #1
  dc:	f889 6000 	strb.w	r6, [r9]
  e0:	d016      	beq.n	110 <_ZN6OV564018readFrameGPIO_JPEGEPvjS0_j+0x110>
  e2:	f109 0901 	add.w	r9, r9, #1
  e6:	f1b8 0fff 	cmp.w	r8, #255	; 0xff
  ea:	d01c      	beq.n	126 <_ZN6OV564018readFrameGPIO_JPEGEPvjS0_j+0x126>
  ec:	3501      	adds	r5, #1
  ee:	e9d4 0229 	ldrd	r0, r2, [r4, #164]	; 0xa4
  f2:	e004      	b.n	fe <_ZN6OV564018readFrameGPIO_JPEGEPvjS0_j+0xfe>
  f4:	e9d4 1327 	ldrd	r1, r3, [r4, #156]	; 0x9c
  f8:	6809      	ldr	r1, [r1, #0]
  fa:	4219      	tst	r1, r3
  fc:	d002      	beq.n	104 <_ZN6OV564018readFrameGPIO_JPEGEPvjS0_j+0x104>
  fe:	6803      	ldr	r3, [r0, #0]
 100:	4213      	tst	r3, r2
 102:	d1f7      	bne.n	f4 <_ZN6OV564018readFrameGPIO_JPEGEPvjS0_j+0xf4>
 104:	45ab      	cmp	fp, r5
 106:	f10a 0a01 	add.w	sl, sl, #1
 10a:	d01f      	beq.n	14c <_ZN6OV564018readFrameGPIO_JPEGEPvjS0_j+0x14c>
 10c:	46b0      	mov	r8, r6
 10e:	e7d5      	b.n	bc <_ZN6OV564018readFrameGPIO_JPEGEPvjS0_j+0xbc>
 110:	7a23      	ldrb	r3, [r4, #8]
 112:	f1be 0f00 	cmp.w	lr, #0
 116:	d026      	beq.n	166 <_ZN6OV564018readFrameGPIO_JPEGEPvjS0_j+0x166>
 118:	46f1      	mov	r9, lr
 11a:	b96b      	cbnz	r3, 138 <_ZN6OV564018readFrameGPIO_JPEGEPvjS0_j+0x138>
 11c:	f1b8 0fff 	cmp.w	r8, #255	; 0xff
 120:	469e      	mov	lr, r3
 122:	46bc      	mov	ip, r7
 124:	d1e2      	bne.n	ec <_ZN6OV564018readFrameGPIO_JPEGEPvjS0_j+0xec>
 126:	2ed9      	cmp	r6, #217	; 0xd9
 128:	d1e0      	bne.n	ec <_ZN6OV564018readFrameGPIO_JPEGEPvjS0_j+0xec>
 12a:	b662      	cpsie	i
 12c:	1c6b      	adds	r3, r5, #1
 12e:	9305      	str	r3, [sp, #20]
 130:	9805      	ldr	r0, [sp, #20]
 132:	b007      	add	sp, #28
 134:	e8bd 8ff0 	ldmia.w	sp!, {r4, r5, r6, r7, r8, r9, sl, fp, pc}
 138:	4653      	mov	r3, sl
 13a:	9a02      	ldr	r2, [sp, #8]
 13c:	4917      	ldr	r1, [pc, #92]	; (19c <_ZN6OV564018readFrameGPIO_JPEGEPvjS0_j+0x19c>)
 13e:	4813      	ldr	r0, [pc, #76]	; (18c <_ZN6OV564018readFrameGPIO_JPEGEPvjS0_j+0x18c>)
 140:	f7ff fffe 	bl	0 <_ZN5Print6printfEPKcz>
 144:	46bc      	mov	ip, r7
 146:	f04f 0e00 	mov.w	lr, #0
 14a:	e7cc      	b.n	e6 <_ZN6OV564018readFrameGPIO_JPEGEPvjS0_j+0xe6>
 14c:	e9d4 1227 	ldrd	r1, r2, [r4, #156]	; 0x9c
 150:	680b      	ldr	r3, [r1, #0]
 152:	4213      	tst	r3, r2
 154:	d1fc      	bne.n	150 <_ZN6OV564018readFrameGPIO_JPEGEPvjS0_j+0x150>
 156:	b662      	cpsie	i
 158:	9b02      	ldr	r3, [sp, #8]
 15a:	9a03      	ldr	r2, [sp, #12]
 15c:	3301      	adds	r3, #1
 15e:	429a      	cmp	r2, r3
 160:	9302      	str	r3, [sp, #8]
 162:	d197      	bne.n	94 <_ZN6OV564018readFrameGPIO_JPEGEPvjS0_j+0x94>
 164:	e7e4      	b.n	130 <_ZN6OV564018readFrameGPIO_JPEGEPvjS0_j+0x130>
 166:	b95b      	cbnz	r3, 180 <_ZN6OV564018readFrameGPIO_JPEGEPvjS0_j+0x180>
 168:	b662      	cpsie	i
 16a:	9805      	ldr	r0, [sp, #20]
 16c:	b007      	add	sp, #28
 16e:	e8bd 8ff0 	ldmia.w	sp!, {r4, r5, r6, r7, r8, r9, sl, fp, pc}
 172:	490b      	ldr	r1, [pc, #44]	; (1a0 <_ZN6OV564018readFrameGPIO_JPEGEPvjS0_j+0x1a0>)
 174:	9b05      	ldr	r3, [sp, #20]
 176:	4805      	ldr	r0, [pc, #20]	; (18c <_ZN6OV564018readFrameGPIO_JPEGEPvjS0_j+0x18c>)
 178:	f7ff fffe 	bl	0 <_ZN5Print6printfEPKcz>
 17c:	6de1      	ldr	r1, [r4, #92]	; 0x5c
 17e:	e769      	b.n	54 <_ZN6OV564018readFrameGPIO_JPEGEPvjS0_j+0x54>
 180:	4908      	ldr	r1, [pc, #32]	; (1a4 <_ZN6OV564018readFrameGPIO_JPEGEPvjS0_j+0x1a4>)
 182:	4802      	ldr	r0, [pc, #8]	; (18c <_ZN6OV564018readFrameGPIO_JPEGEPvjS0_j+0x18c>)
 184:	f7ff fffe 	bl	0 <_ZN5Print6printfEPKcz>
 188:	e7ee      	b.n	168 <_ZN6OV564018readFrameGPIO_JPEGEPvjS0_j+0x168>
 18a:	bf00      	nop
 18c:	00000000 	.word	0x00000000
 190:	00000000 	.word	0x00000000
 194:	66666667 	.word	0x66666667
 198:	42004000 	.word	0x42004000
 19c:	0000005c 	.word	0x0000005c
 1a0:	00000028 	.word	0x00000028
 1a4:	00000074 	.word	0x00000074

Disassembly of section .text.startup._GLOBAL__sub_I__ZN6OV5640C2Ev:

00000000 <_GLOBAL__sub_I__ZN6OV5640C2Ev>:
   0:	b508      	push	{r3, lr}
   2:	2100      	movs	r1, #0
   4:	4808      	ldr	r0, [pc, #32]	; (28 <_GLOBAL__sub_I__ZN6OV5640C2Ev+0x28>)
   6:	f7ff fffe 	bl	0 <_ZN10DMAChannel5beginEb>
   a:	4a08      	ldr	r2, [pc, #32]	; (2c <_GLOBAL__sub_I__ZN6OV5640C2Ev+0x2c>)
   c:	4908      	ldr	r1, [pc, #32]	; (30 <_GLOBAL__sub_I__ZN6OV5640C2Ev+0x30>)
   e:	4806      	ldr	r0, [pc, #24]	; (28 <_GLOBAL__sub_I__ZN6OV5640C2Ev+0x28>)
  10:	f7ff fffe 	bl	0 <__aeabi_atexit>
  14:	4b07      	ldr	r3, [pc, #28]	; (34 <_GLOBAL__sub_I__ZN6OV5640C2Ev+0x34>)
  16:	f503 7220 	add.w	r2, r3, #640	; 0x280
  1a:	f843 3c20 	str.w	r3, [r3, #-32]
  1e:	3340      	adds	r3, #64	; 0x40
  20:	4293      	cmp	r3, r2
  22:	d1fa      	bne.n	1a <_GLOBAL__sub_I__ZN6OV5640C2Ev+0x1a>
  24:	bd08      	pop	{r3, pc}
  26:	bf00      	nop
  28:	00000000 	.word	0x00000000
  2c:	00000000 	.word	0x00000000
  30:	00000000 	.word	0x00000000
  34:	00000020 	.word	0x00000020
