
build/./libraries/Teensy_Camera/Teensy_Camera.cpp.o:     file format elf32-littlearm

SYMBOL TABLE:
00000000 l    df *ABS*	00000000 Teensy_Camera.cpp
00000000 l    d  .text	00000000 .text
00000000 l    d  .data	00000000 .data
00000000 l    d  .bss	00000000 .bss
00000000 l    d  .text._ZN11ImageSensor5debugEb	00000000 .text._ZN11ImageSensor5debugEb
00000000 l    d  .text._ZN11ImageSensor5debugEv	00000000 .text._ZN11ImageSensor5debugEv
00000000 l    d  .text._ZN11ImageSensor12readRegisterEh	00000000 .text._ZN11ImageSensor12readRegisterEh
00000000 l    d  .text._ZN11ImageSensor13writeRegisterEhh	00000000 .text._ZN11ImageSensor13writeRegisterEhh
00000000 l    d  .text._ZN11ImageSensor12getPixformatEv	00000000 .text._ZN11ImageSensor12getPixformatEv
00000000 l    d  .text._ZN11ImageSensor12setFramesizeEii	00000000 .text._ZN11ImageSensor12setFramesizeEii
00000000 l    d  .text._ZN11ImageSensor13setZoomWindowEtttt	00000000 .text._ZN11ImageSensor13setZoomWindowEtttt
00000000 l    d  .text._ZN11ImageSensor21readFrameReturnBufferEv	00000000 .text._ZN11ImageSensor21readFrameReturnBufferEv
00000000 l    d  .text._ZN11ImageSensor18readImageSizeBytesEv	00000000 .text._ZN11ImageSensor18readImageSizeBytesEv
00000000 l    d  .text._ZN11ImageSensor6useDMAEb	00000000 .text._ZN11ImageSensor6useDMAEb
00000000 l    d  .text._ZN11ImageSensor6useDMAEv	00000000 .text._ZN11ImageSensor6useDMAEv
00000000 l    d  .text._ZN11ImageSensor12data4BitModeEb	00000000 .text._ZN11ImageSensor12data4BitModeEb
00000000 l    d  .text._ZN11ImageSensor12data4BitModeEv	00000000 .text._ZN11ImageSensor12data4BitModeEv
00000000 l    d  .text._ZN11ImageSensor16dataPinsReversedEv	00000000 .text._ZN11ImageSensor16dataPinsReversedEv
00000000 l    d  .text._ZN11ImageSensor5widthEv	00000000 .text._ZN11ImageSensor5widthEv
00000000 l    d  .text._ZN11ImageSensor6heightEv	00000000 .text._ZN11ImageSensor6heightEv
00000000 l    d  .text._ZN11ImageSensor10frameWidthEv	00000000 .text._ZN11ImageSensor10frameWidthEv
00000000 l    d  .text._ZN11ImageSensor11frameHeightEv	00000000 .text._ZN11ImageSensor11frameHeightEv
00000000 l    d  .text._ZN6CameraC2ER11ImageSensor	00000000 .text._ZN6CameraC2ER11ImageSensor
00000000 l    d  .text._ZN6Camera7setPinsEhhhhhhhhhhhhhhR7TwoWire	00000000 .text._ZN6Camera7setPinsEhhhhhhhhhhhhhhR7TwoWire
00000000 l    d  .text._ZN6Camera5beginE11framesize_tib	00000000 .text._ZN6Camera5beginE11framesize_tib
00000000 l    d  .text._ZN6Camera3endEv	00000000 .text._ZN6Camera3endEv
00000000 l    d  .text._ZN6Camera13showRegistersEv	00000000 .text._ZN6Camera13showRegistersEv
00000000 l    d  .text._ZN6Camera12setPixformatE11pixformat_t	00000000 .text._ZN6Camera12setPixformatE11pixformat_t
00000000 l    d  .text._ZN6Camera12getPixformatEv	00000000 .text._ZN6Camera12getPixformatEv
00000000 l    d  .text._ZN6Camera5debugEb	00000000 .text._ZN6Camera5debugEb
00000000 l    d  .text._ZN6Camera5debugEv	00000000 .text._ZN6Camera5debugEv
00000000 l    d  .text._ZN6Camera9usingGPIOEv	00000000 .text._ZN6Camera9usingGPIOEv
00000000 l    d  .text._ZN6Camera11cameraInputEv	00000000 .text._ZN6Camera11cameraInputEv
00000000 l    d  .text._ZN6Camera12readRegisterEh	00000000 .text._ZN6Camera12readRegisterEh
00000000 l    d  .text._ZN6Camera13writeRegisterEhh	00000000 .text._ZN6Camera13writeRegisterEhh
00000000 l    d  .text._ZN6Camera12setFramesizeE11framesize_t	00000000 .text._ZN6Camera12setFramesizeE11framesize_t
00000000 l    d  .text._ZN6Camera12setFramesizeEii	00000000 .text._ZN6Camera12setFramesizeEii
00000000 l    d  .text._ZN6Camera13setZoomWindowEtttt	00000000 .text._ZN6Camera13setZoomWindowEtttt
00000000 l    d  .text._ZN6Camera12setFramerateEi	00000000 .text._ZN6Camera12setFramerateEi
00000000 l    d  .text._ZN6Camera13setBrightnessEi	00000000 .text._ZN6Camera13setBrightnessEi
00000000 l    d  .text._ZN6Camera14setGainceilingE13gainceiling_t	00000000 .text._ZN6Camera14setGainceilingE13gainceiling_t
00000000 l    d  .text._ZN6Camera11setColorbarEi	00000000 .text._ZN6Camera11setColorbarEi
00000000 l    d  .text._ZN6Camera11setAutoGainEiff	00000000 .text._ZN6Camera11setAutoGainEiff
00000000 l    d  .text._ZN6Camera14get_vt_pix_clkEPm	00000000 .text._ZN6Camera14get_vt_pix_clkEPm
00000000 l    d  .text._ZN6Camera10getGain_dbEPf	00000000 .text._ZN6Camera10getGain_dbEPf
00000000 l    d  .text._ZN6Camera14getCameraClockEPm	00000000 .text._ZN6Camera14getCameraClockEPm
00000000 l    d  .text._ZN6Camera15setAutoExposureEii	00000000 .text._ZN6Camera15setAutoExposureEii
00000000 l    d  .text._ZN6Camera14getExposure_usEPi	00000000 .text._ZN6Camera14getExposure_usEPi
00000000 l    d  .text._ZN6Camera10setHmirrorEi	00000000 .text._ZN6Camera10setHmirrorEi
00000000 l    d  .text._ZN6Camera8setVflipEi	00000000 .text._ZN6Camera8setVflipEi
00000000 l    d  .text._ZN6Camera7setModeEhh	00000000 .text._ZN6Camera7setModeEhh
00000000 l    d  .text._ZN6Camera9cmdUpdateEv	00000000 .text._ZN6Camera9cmdUpdateEv
00000000 l    d  .text._ZN6Camera12loadSettingsE21camera_reg_settings_t	00000000 .text._ZN6Camera12loadSettingsE21camera_reg_settings_t
00000000 l    d  .text._ZN6Camera10getModelidEv	00000000 .text._ZN6Camera10getModelidEv
00000000 l    d  .text._ZN6Camera5getAEEP8ae_cfg_t	00000000 .text._ZN6Camera5getAEEP8ae_cfg_t
00000000 l    d  .text._ZN6Camera5calAEEhPhmP8ae_cfg_t	00000000 .text._ZN6Camera5calAEEhPhmP8ae_cfg_t
00000000 l    d  .text._ZN6Camera9readFrameEPvjS0_j	00000000 .text._ZN6Camera9readFrameEPvjS0_j
00000000 l    d  .text._ZN6Camera21readFrameReturnBufferEv	00000000 .text._ZN6Camera21readFrameReturnBufferEv
00000000 l    d  .text._ZN6Camera18readImageSizeBytesEv	00000000 .text._ZN6Camera18readImageSizeBytesEv
00000000 l    d  .text._ZN6Camera6useDMAEb	00000000 .text._ZN6Camera6useDMAEb
00000000 l    d  .text._ZN6Camera6useDMAEv	00000000 .text._ZN6Camera6useDMAEv
00000000 l    d  .text._ZN6Camera12data4BitModeEb	00000000 .text._ZN6Camera12data4BitModeEb
00000000 l    d  .text._ZN6Camera12data4BitModeEv	00000000 .text._ZN6Camera12data4BitModeEv
00000000 l    d  .text._ZN6Camera16dataPinsReversedEv	00000000 .text._ZN6Camera16dataPinsReversedEv
00000000 l    d  .text._ZN6Camera13readFrameGPIOEPvjS0_j	00000000 .text._ZN6Camera13readFrameGPIOEPvjS0_j
00000000 l    d  .text._ZN6Camera17readFrame4BitGPIOEPv	00000000 .text._ZN6Camera17readFrame4BitGPIOEPv
00000000 l    d  .text._ZN6Camera14readContinuousEPFbPvES0_jS0_j	00000000 .text._ZN6Camera14readContinuousEPFbPvES0_jS0_j
00000000 l    d  .text._ZN6Camera18stopReadContinuousEv	00000000 .text._ZN6Camera18stopReadContinuousEv
00000000 l    d  .text._ZN6Camera15readFrameFlexIOEPvjS0_j	00000000 .text._ZN6Camera15readFrameFlexIOEPvjS0_j
00000000 l    d  .text._ZN6Camera15startReadFlexIOEPFbPvES0_jS0_j	00000000 .text._ZN6Camera15startReadFlexIOEPFbPvES0_jS0_j
00000000 l    d  .text._ZN6Camera14stopReadFlexIOEv	00000000 .text._ZN6Camera14stopReadFlexIOEv
00000000 l    d  .text._ZN6Camera12readFrameCSIEPvjS0_j	00000000 .text._ZN6Camera12readFrameCSIEPvjS0_j
00000000 l    d  .text._ZN6Camera12startReadCSIEPFbPvES0_jS0_j	00000000 .text._ZN6Camera12startReadCSIEPFbPvES0_jS0_j
00000000 l    d  .text._ZN6Camera11stopReadCSIEv	00000000 .text._ZN6Camera11stopReadCSIEv
00000000 l    d  .text._ZN6Camera17startReadFrameDMAEPFbPvEPhS3_	00000000 .text._ZN6Camera17startReadFrameDMAEPFbPvEPhS3_
00000000 l    d  .text._ZN6Camera16stopReadFrameDMAEv	00000000 .text._ZN6Camera16stopReadFrameDMAEv
00000000 l    d  .text._ZN6Camera22captureFrameStatisticsEv	00000000 .text._ZN6Camera22captureFrameStatisticsEv
00000000 l    d  .text._ZN6Camera19setVSyncISRPriorityEh	00000000 .text._ZN6Camera19setVSyncISRPriorityEh
00000000 l    d  .text._ZN6Camera25setDMACompleteISRPriorityEh	00000000 .text._ZN6Camera25setDMACompleteISRPriorityEh
00000000 l    d  .text._ZN6Camera5widthEv	00000000 .text._ZN6Camera5widthEv
00000000 l    d  .text._ZN6Camera6heightEv	00000000 .text._ZN6Camera6heightEv
00000000 l    d  .text._ZN6Camera10frameWidthEv	00000000 .text._ZN6Camera10frameWidthEv
00000000 l    d  .text._ZN6Camera11frameHeightEv	00000000 .text._ZN6Camera11frameHeightEv
00000000 l    d  .text._ZN6Camera4modeEv	00000000 .text._ZN6Camera4modeEv
00000000 l    d  .text._ZN6Camera10frameCountEv	00000000 .text._ZN6Camera10frameCountEv
00000000 l    d  .text._ZN6Camera13setSaturationEi	00000000 .text._ZN6Camera13setSaturationEi
00000000 l    d  .text._ZN6Camera6setHueEi	00000000 .text._ZN6Camera6setHueEi
00000000 l    d  .text._ZN6Camera11setContrastEi	00000000 .text._ZN6Camera11setContrastEi
00000000 l    d  .text._ZN6Camera7setGainEi	00000000 .text._ZN6Camera7setGainEi
00000000 l    d  .text._ZN6Camera8autoGainEiff	00000000 .text._ZN6Camera8autoGainEiff
00000000 l    d  .text._ZN6Camera11setExposureEi	00000000 .text._ZN6Camera11setExposureEi
00000000 l    d  .text._ZN6Camera12autoExposureEi	00000000 .text._ZN6Camera12autoExposureEi
00000000 l    d  .text._ZN6Camera5beginE11framesize_t11pixformat_tiib	00000000 .text._ZN6Camera5beginE11framesize_t11pixformat_tiib
00000000 l    d  .text._ZN6Camera15setAutoWhitebalEifff	00000000 .text._ZN6Camera15setAutoWhitebalEifff
00000000 l    d  .text._ZN6Camera17changeFrameBufferEPhS0_	00000000 .text._ZN6Camera17changeFrameBufferEPhS0_
00000000 l    d  .text._ZN6Camera7timeoutEv	00000000 .text._ZN6Camera7timeoutEv
00000000 l    d  .text._ZN6Camera7timeoutEm	00000000 .text._ZN6Camera7timeoutEm
00000000 l    d  .comment	00000000 .comment
00000000 l    d  .ARM.attributes	00000000 .ARM.attributes
00000000 l    d  .group	00000000 .group
00000000 l    d  .group	00000000 .group
00000000 l    d  .group	00000000 .group
00000000 l    d  .group	00000000 .group
00000000 l    d  .group	00000000 .group
00000000 l    d  .group	00000000 .group
00000000 l    d  .group	00000000 .group
00000000 l    d  .group	00000000 .group
00000000 l    d  .group	00000000 .group
00000000 l    d  .group	00000000 .group
00000000 l    d  .group	00000000 .group
00000000 l    d  .group	00000000 .group
00000000 l    d  .group	00000000 .group
00000000 l    d  .group	00000000 .group
00000000 l    d  .group	00000000 .group
00000000 l    d  .group	00000000 .group
00000000 l    d  .group	00000000 .group
00000000 l    d  .group	00000000 .group
00000000  w    F .text._ZN11ImageSensor5debugEb	00000004 _ZN11ImageSensor5debugEb
00000000  w    F .text._ZN11ImageSensor5debugEv	00000004 _ZN11ImageSensor5debugEv
00000000  w    F .text._ZN11ImageSensor12readRegisterEh	00000004 _ZN11ImageSensor12readRegisterEh
00000000  w    F .text._ZN11ImageSensor13writeRegisterEhh	00000004 _ZN11ImageSensor13writeRegisterEhh
00000000  w    F .text._ZN11ImageSensor12getPixformatEv	00000006 _ZN11ImageSensor12getPixformatEv
00000000  w    F .text._ZN11ImageSensor12setFramesizeEii	00000004 _ZN11ImageSensor12setFramesizeEii
00000000  w    F .text._ZN11ImageSensor13setZoomWindowEtttt	00000004 _ZN11ImageSensor13setZoomWindowEtttt
00000000  w    F .text._ZN11ImageSensor21readFrameReturnBufferEv	00000006 _ZN11ImageSensor21readFrameReturnBufferEv
00000000  w    F .text._ZN11ImageSensor18readImageSizeBytesEv	00000006 _ZN11ImageSensor18readImageSizeBytesEv
00000000  w    F .text._ZN11ImageSensor6useDMAEb	00000004 _ZN11ImageSensor6useDMAEb
00000000  w    F .text._ZN11ImageSensor6useDMAEv	00000004 _ZN11ImageSensor6useDMAEv
00000000  w    F .text._ZN11ImageSensor12data4BitModeEb	00000004 _ZN11ImageSensor12data4BitModeEb
00000000  w    F .text._ZN11ImageSensor12data4BitModeEv	00000004 _ZN11ImageSensor12data4BitModeEv
00000000  w    F .text._ZN11ImageSensor16dataPinsReversedEv	00000006 _ZN11ImageSensor16dataPinsReversedEv
00000000  w    F .text._ZN11ImageSensor5widthEv	00000006 _ZN11ImageSensor5widthEv
00000000  w    F .text._ZN11ImageSensor6heightEv	00000006 _ZN11ImageSensor6heightEv
00000000  w    F .text._ZN11ImageSensor10frameWidthEv	00000006 _ZN11ImageSensor10frameWidthEv
00000000  w    F .text._ZN11ImageSensor11frameHeightEv	00000006 _ZN11ImageSensor11frameHeightEv
00000000 g     F .text._ZN6CameraC2ER11ImageSensor	00000004 _ZN6CameraC2ER11ImageSensor
00000000 g     F .text._ZN6CameraC2ER11ImageSensor	00000004 _ZN6CameraC1ER11ImageSensor
00000000 g     F .text._ZN6Camera7setPinsEhhhhhhhhhhhhhhR7TwoWire	00000052 _ZN6Camera7setPinsEhhhhhhhhhhhhhhR7TwoWire
00000000 g     F .text._ZN6Camera5beginE11framesize_tib	00000010 _ZN6Camera5beginE11framesize_tib
00000000 g     F .text._ZN6Camera3endEv	00000008 _ZN6Camera3endEv
00000000 g     F .text._ZN6Camera13showRegistersEv	00000008 _ZN6Camera13showRegistersEv
00000000 g     F .text._ZN6Camera12setPixformatE11pixformat_t	00000008 _ZN6Camera12setPixformatE11pixformat_t
00000000 g     F .text._ZN6Camera12getPixformatEv	00000018 _ZN6Camera12getPixformatEv
00000000 g     F .text._ZN6Camera5debugEb	00000020 _ZN6Camera5debugEb
00000000 g     F .text._ZN6Camera5debugEv	00000018 _ZN6Camera5debugEv
00000000 g     F .text._ZN6Camera9usingGPIOEv	00000006 _ZN6Camera9usingGPIOEv
00000000 g     F .text._ZN6Camera11cameraInputEv	00000006 _ZN6Camera11cameraInputEv
00000000 g     F .text._ZN6Camera12readRegisterEh	00000018 _ZN6Camera12readRegisterEh
00000000 g     F .text._ZN6Camera13writeRegisterEhh	00000020 _ZN6Camera13writeRegisterEhh
00000000 g     F .text._ZN6Camera12setFramesizeE11framesize_t	00000008 _ZN6Camera12setFramesizeE11framesize_t
00000000 g     F .text._ZN6Camera12setFramesizeEii	00000020 _ZN6Camera12setFramesizeEii
00000000 g     F .text._ZN6Camera13setZoomWindowEtttt	00000024 _ZN6Camera13setZoomWindowEtttt
00000000 g     F .text._ZN6Camera12setFramerateEi	00000008 _ZN6Camera12setFramerateEi
00000000 g     F .text._ZN6Camera13setBrightnessEi	00000008 _ZN6Camera13setBrightnessEi
00000000 g     F .text._ZN6Camera14setGainceilingE13gainceiling_t	00000008 _ZN6Camera14setGainceilingE13gainceiling_t
00000000 g     F .text._ZN6Camera11setColorbarEi	00000008 _ZN6Camera11setColorbarEi
00000000 g     F .text._ZN6Camera11setAutoGainEiff	00000008 _ZN6Camera11setAutoGainEiff
00000000 g     F .text._ZN6Camera14get_vt_pix_clkEPm	00000008 _ZN6Camera14get_vt_pix_clkEPm
00000000 g     F .text._ZN6Camera10getGain_dbEPf	00000008 _ZN6Camera10getGain_dbEPf
00000000 g     F .text._ZN6Camera14getCameraClockEPm	00000008 _ZN6Camera14getCameraClockEPm
00000000 g     F .text._ZN6Camera15setAutoExposureEii	00000008 _ZN6Camera15setAutoExposureEii
00000000 g     F .text._ZN6Camera14getExposure_usEPi	00000008 _ZN6Camera14getExposure_usEPi
00000000 g     F .text._ZN6Camera10setHmirrorEi	00000008 _ZN6Camera10setHmirrorEi
00000000 g     F .text._ZN6Camera8setVflipEi	00000008 _ZN6Camera8setVflipEi
00000000 g     F .text._ZN6Camera7setModeEhh	00000008 _ZN6Camera7setModeEhh
00000000 g     F .text._ZN6Camera9cmdUpdateEv	00000008 _ZN6Camera9cmdUpdateEv
00000000 g     F .text._ZN6Camera12loadSettingsE21camera_reg_settings_t	00000008 _ZN6Camera12loadSettingsE21camera_reg_settings_t
00000000 g     F .text._ZN6Camera10getModelidEv	0000000a _ZN6Camera10getModelidEv
00000000 g     F .text._ZN6Camera5getAEEP8ae_cfg_t	0000000a _ZN6Camera5getAEEP8ae_cfg_t
00000000 g     F .text._ZN6Camera5calAEEhPhmP8ae_cfg_t	00000012 _ZN6Camera5calAEEhPhmP8ae_cfg_t
00000000 g     F .text._ZN6Camera9readFrameEPvjS0_j	00000012 _ZN6Camera9readFrameEPvjS0_j
00000000 g     F .text._ZN6Camera21readFrameReturnBufferEv	0000001c _ZN6Camera21readFrameReturnBufferEv
00000000 g     F .text._ZN6Camera18readImageSizeBytesEv	0000001c _ZN6Camera18readImageSizeBytesEv
00000000 g     F .text._ZN6Camera6useDMAEb	00000024 _ZN6Camera6useDMAEb
00000000 g     F .text._ZN6Camera6useDMAEv	00000018 _ZN6Camera6useDMAEv
00000000 g     F .text._ZN6Camera12data4BitModeEb	00000024 _ZN6Camera12data4BitModeEb
00000000 g     F .text._ZN6Camera12data4BitModeEv	00000018 _ZN6Camera12data4BitModeEv
00000000 g     F .text._ZN6Camera16dataPinsReversedEv	0000001c _ZN6Camera16dataPinsReversedEv
00000000 g     F .text._ZN6Camera13readFrameGPIOEPvjS0_j	00000012 _ZN6Camera13readFrameGPIOEPvjS0_j
00000000 g     F .text._ZN6Camera17readFrame4BitGPIOEPv	0000000a _ZN6Camera17readFrame4BitGPIOEPv
00000000 g     F .text._ZN6Camera14readContinuousEPFbPvES0_jS0_j	00000012 _ZN6Camera14readContinuousEPFbPvES0_jS0_j
00000000 g     F .text._ZN6Camera18stopReadContinuousEv	0000000a _ZN6Camera18stopReadContinuousEv
00000000 g     F .text._ZN6Camera15readFrameFlexIOEPvjS0_j	00000012 _ZN6Camera15readFrameFlexIOEPvjS0_j
00000000 g     F .text._ZN6Camera15startReadFlexIOEPFbPvES0_jS0_j	00000014 _ZN6Camera15startReadFlexIOEPFbPvES0_jS0_j
00000000 g     F .text._ZN6Camera14stopReadFlexIOEv	0000000a _ZN6Camera14stopReadFlexIOEv
00000000 g     F .text._ZN6Camera12readFrameCSIEPvjS0_j	00000012 _ZN6Camera12readFrameCSIEPvjS0_j
00000000 g     F .text._ZN6Camera12startReadCSIEPFbPvES0_jS0_j	00000014 _ZN6Camera12startReadCSIEPFbPvES0_jS0_j
00000000 g     F .text._ZN6Camera11stopReadCSIEv	0000000a _ZN6Camera11stopReadCSIEv
00000000 g     F .text._ZN6Camera17startReadFrameDMAEPFbPvEPhS3_	00000012 _ZN6Camera17startReadFrameDMAEPFbPvEPhS3_
00000000 g     F .text._ZN6Camera16stopReadFrameDMAEv	0000000a _ZN6Camera16stopReadFrameDMAEv
00000000 g     F .text._ZN6Camera22captureFrameStatisticsEv	0000000a _ZN6Camera22captureFrameStatisticsEv
00000000 g     F .text._ZN6Camera19setVSyncISRPriorityEh	0000000a _ZN6Camera19setVSyncISRPriorityEh
00000000 g     F .text._ZN6Camera25setDMACompleteISRPriorityEh	0000000a _ZN6Camera25setDMACompleteISRPriorityEh
00000000 g     F .text._ZN6Camera5widthEv	0000001c _ZN6Camera5widthEv
00000000 g     F .text._ZN6Camera6heightEv	0000001c _ZN6Camera6heightEv
00000000 g     F .text._ZN6Camera10frameWidthEv	0000001c _ZN6Camera10frameWidthEv
00000000 g     F .text._ZN6Camera11frameHeightEv	0000001c _ZN6Camera11frameHeightEv
00000000 g     F .text._ZN6Camera4modeEv	00000006 _ZN6Camera4modeEv
00000000 g     F .text._ZN6Camera10frameCountEv	0000000a _ZN6Camera10frameCountEv
00000000 g     F .text._ZN6Camera13setSaturationEi	0000000a _ZN6Camera13setSaturationEi
00000000 g     F .text._ZN6Camera6setHueEi	0000000a _ZN6Camera6setHueEi
00000000 g     F .text._ZN6Camera11setContrastEi	0000000a _ZN6Camera11setContrastEi
00000000 g     F .text._ZN6Camera7setGainEi	0000000a _ZN6Camera7setGainEi
00000000 g     F .text._ZN6Camera8autoGainEiff	0000000a _ZN6Camera8autoGainEiff
00000000 g     F .text._ZN6Camera11setExposureEi	0000000a _ZN6Camera11setExposureEi
00000000 g     F .text._ZN6Camera12autoExposureEi	0000000a _ZN6Camera12autoExposureEi
00000000 g     F .text._ZN6Camera5beginE11framesize_t11pixformat_tiib	00000016 _ZN6Camera5beginE11framesize_t11pixformat_tiib
00000000 g     F .text._ZN6Camera15setAutoWhitebalEifff	0000000a _ZN6Camera15setAutoWhitebalEifff
00000000 g     F .text._ZN6Camera17changeFrameBufferEPhS0_	0000000a _ZN6Camera17changeFrameBufferEPhS0_
00000000 g     F .text._ZN6Camera7timeoutEv	00000006 _ZN6Camera7timeoutEv
00000000 g     F .text._ZN6Camera7timeoutEm	00000006 _ZN6Camera7timeoutEm


Contents of section .group:
 0000 01000000 16000000                    ........        
Contents of section .group:
 0000 01000000 17000000                    ........        
Contents of section .group:
 0000 01000000 18000000                    ........        
Contents of section .group:
 0000 01000000 19000000                    ........        
Contents of section .group:
 0000 01000000 1a000000                    ........        
Contents of section .group:
 0000 01000000 1b000000                    ........        
Contents of section .group:
 0000 01000000 1c000000                    ........        
Contents of section .group:
 0000 01000000 1d000000                    ........        
Contents of section .group:
 0000 01000000 1e000000                    ........        
Contents of section .group:
 0000 01000000 1f000000                    ........        
Contents of section .group:
 0000 01000000 20000000                    .... ...        
Contents of section .group:
 0000 01000000 21000000                    ....!...        
Contents of section .group:
 0000 01000000 22000000                    ...."...        
Contents of section .group:
 0000 01000000 23000000                    ....#...        
Contents of section .group:
 0000 01000000 24000000                    ....$...        
Contents of section .group:
 0000 01000000 25000000                    ....%...        
Contents of section .group:
 0000 01000000 26000000                    ....&...        
Contents of section .group:
 0000 01000000 27000000                    ....'...        
Contents of section .text._ZN11ImageSensor5debugEb:
 0000 01727047                             .rpG            
Contents of section .text._ZN11ImageSensor5debugEv:
 0000 007a7047                             .zpG            
Contents of section .text._ZN11ImageSensor12readRegisterEh:
 0000 ff207047                             . pG            
Contents of section .text._ZN11ImageSensor13writeRegisterEhh:
 0000 00207047                             . pG            
Contents of section .text._ZN11ImageSensor12getPixformatEv:
 0000 90f86400 704700bf                    ..d.pG..        
Contents of section .text._ZN11ImageSensor12setFramesizeEii:
 0000 00207047                             . pG            
Contents of section .text._ZN11ImageSensor13setZoomWindowEtttt:
 0000 00207047                             . pG            
Contents of section .text._ZN11ImageSensor21readFrameReturnBufferEv:
 0000 d0f8b400 704700bf                    ....pG..        
Contents of section .text._ZN11ImageSensor18readImageSizeBytesEv:
 0000 d0f8b800 704700bf                    ....pG..        
Contents of section .text._ZN11ImageSensor6useDMAEb:
 0000 41727047                             ArpG            
Contents of section .text._ZN11ImageSensor6useDMAEv:
 0000 407a7047                             @zpG            
Contents of section .text._ZN11ImageSensor12data4BitModeEb:
 0000 81727047                             .rpG            
Contents of section .text._ZN11ImageSensor12data4BitModeEv:
 0000 807a7047                             .zpG            
Contents of section .text._ZN11ImageSensor16dataPinsReversedEv:
 0000 90f88e00 704700bf                    ....pG..        
Contents of section .text._ZN11ImageSensor5widthEv:
 0000 b0f95400 704700bf                    ..T.pG..        
Contents of section .text._ZN11ImageSensor6heightEv:
 0000 b0f95600 704700bf                    ..V.pG..        
Contents of section .text._ZN11ImageSensor10frameWidthEv:
 0000 b0f95800 704700bf                    ..X.pG..        
Contents of section .text._ZN11ImageSensor11frameHeightEv:
 0000 b0f95a00 704700bf                    ..Z.pG..        
Contents of section .text._ZN6CameraC2ER11ImageSensor:
 0000 01607047                             .`pG            
Contents of section .text._ZN6Camera7setPinsEhhhhhhhhhhhhhhR7TwoWire:
 0000 f0b40068 9df81050 04680495 9df82050  ...h...P.h.... P
 0010 9df814c0 08959df8 24509df8 18600995  ........$P...`..
 0020 9df82850 9df81c70 0a959df8 2c50cdf8  ..(P...p....,P..
 0030 14c00b95 9df83050 0c959df8 34500d95  ......0P....4P..
 0040 9df83850 cde90667 0e95e468 a446f0bc  ..8P...g...h.F..
 0050 604700bf                             `G..            
Contents of section .text._ZN6Camera5beginE11framesize_tib:
 0000 006810b4 04682469 a4465df8 044b6047  .h...h$i.F]..K`G
Contents of section .text._ZN6Camera3endEv:
 0000 00680368 5b691847                    .h.h[i.G        
Contents of section .text._ZN6Camera13showRegistersEv:
 0000 00680368 db691847                    .h.h.i.G        
Contents of section .text._ZN6Camera12setPixformatE11pixformat_t:
 0000 00680368 1b6b1847                    .h.h.k.G        
Contents of section .text._ZN6Camera12getPixformatEv:
 0000 0068044a 03685b6b 934202d1 90f86400  .h.J.h[k.B....d.
 0010 70471847 00000000                    pG.G....        
Contents of section .text._ZN6Camera5debugEb:
 0000 00680268 10b4126a 044ca242 03d15df8  .h.h...j.L.B..].
 0010 044b0172 70475df8 044b1047 00000000  .K.rpG]..K.G....
Contents of section .text._ZN6Camera5debugEv:
 0000 0068044a 03685b6a 934201d1 007a7047  .h.J.h[j.B...zpG
 0010 184700bf 00000000                    .G......        
Contents of section .text._ZN6Camera9usingGPIOEv:
 0000 0368d87a 704700bf                    .h.zpG..        
Contents of section .text._ZN6Camera11cameraInputEv:
 0000 0368587b 704700bf                    .hX{pG..        
Contents of section .text._ZN6Camera12readRegisterEh:
 0000 0068044a 03689b6a 934201d1 ff207047  .h.J.h.j.B... pG
 0010 184700bf 00000000                    .G......        
Contents of section .text._ZN6Camera13writeRegisterEhh:
 0000 00680368 10b4db6a 044ca342 03d10020  .h.h...j.L.B... 
 0010 5df8044b 70475df8 044b1847 00000000  ]..KpG]..K.G....
Contents of section .text._ZN6Camera12setFramesizeE11framesize_t:
 0000 00680368 9b6b1847                    .h.h.k.G        
Contents of section .text._ZN6Camera12setFramesizeEii:
 0000 00680368 10b4db6b 044ca342 03d10020  .h.h...k.L.B... 
 0010 5df8044b 70475df8 044b1847 00000000  ]..KpG]..K.G....
Contents of section .text._ZN6Camera13setZoomWindowEtttt:
 0000 006870b4 0468064d 246cbdf8 0c60ac42  .hp..h.M$l...`.B
 0010 02d10020 70bc7047 a4460396 70bc6047  ... p.pG.F..p.`G
 0020 00000000                             ....            
Contents of section .text._ZN6Camera12setFramerateEi:
 0000 00680368 5b6c1847                    .h.h[l.G        
Contents of section .text._ZN6Camera13setBrightnessEi:
 0000 00680368 9b6c1847                    .h.h.l.G        
Contents of section .text._ZN6Camera14setGainceilingE13gainceiling_t:
 0000 00680368 db6c1847                    .h.h.l.G        
Contents of section .text._ZN6Camera11setColorbarEi:
 0000 00680368 1b6d1847                    .h.h.m.G        
Contents of section .text._ZN6Camera11setAutoGainEiff:
 0000 00680368 5b6d1847                    .h.h[m.G        
Contents of section .text._ZN6Camera14get_vt_pix_clkEPm:
 0000 00680368 9b6d1847                    .h.h.m.G        
Contents of section .text._ZN6Camera10getGain_dbEPf:
 0000 00680368 db6d1847                    .h.h.m.G        
Contents of section .text._ZN6Camera14getCameraClockEPm:
 0000 00680368 1b6e1847                    .h.h.n.G        
Contents of section .text._ZN6Camera15setAutoExposureEii:
 0000 00680368 5b6e1847                    .h.h[n.G        
Contents of section .text._ZN6Camera14getExposure_usEPi:
 0000 00680368 9b6e1847                    .h.h.n.G        
Contents of section .text._ZN6Camera10setHmirrorEi:
 0000 00680368 db6e1847                    .h.h.n.G        
Contents of section .text._ZN6Camera8setVflipEi:
 0000 00680368 1b6f1847                    .h.h.o.G        
Contents of section .text._ZN6Camera7setModeEhh:
 0000 00680368 5b6f1847                    .h.h[o.G        
Contents of section .text._ZN6Camera9cmdUpdateEv:
 0000 00680368 9b6f1847                    .h.h.o.G        
Contents of section .text._ZN6Camera12loadSettingsE21camera_reg_settings_t:
 0000 00680368 db6f1847                    .h.h.o.G        
Contents of section .text._ZN6Camera10getModelidEv:
 0000 00680368 d3f88830 184700bf           .h.h...0.G..    
Contents of section .text._ZN6Camera5getAEEP8ae_cfg_t:
 0000 00680368 d3f88030 184700bf           .h.h...0.G..    
Contents of section .text._ZN6Camera5calAEEhPhmP8ae_cfg_t:
 0000 006810b4 0468d4f8 8440a446 5df8044b  .h...h...@.F]..K
 0010 604700bf                             `G..            
Contents of section .text._ZN6Camera9readFrameEPvjS0_j:
 0000 006810b4 0468d4f8 b440a446 5df8044b  .h...h...@.F]..K
 0010 604700bf                             `G..            
Contents of section .text._ZN6Camera21readFrameReturnBufferEv:
 0000 0068054a 0368d3f8 b8309342 02d1d0f8  .h.J.h...0.B....
 0010 b4007047 184700bf 00000000           ..pG.G......    
Contents of section .text._ZN6Camera18readImageSizeBytesEv:
 0000 0068054a 0368d3f8 bc309342 02d1d0f8  .h.J.h...0.B....
 0010 b8007047 184700bf 00000000           ..pG.G......    
Contents of section .text._ZN6Camera6useDMAEb:
 0000 00680268 10b4d2f8 c020054c a24203d1  .h.h..... .L.B..
 0010 5df8044b 41727047 5df8044b 104700bf  ]..KArpG]..K.G..
 0020 00000000                             ....            
Contents of section .text._ZN6Camera6useDMAEv:
 0000 0068044a 0368d3f8 c4309342 01d1407a  .h.J.h...0.B..@z
 0010 70471847 00000000                    pG.G....        
Contents of section .text._ZN6Camera12data4BitModeEb:
 0000 00680268 10b4d2f8 c820054c a24203d1  .h.h..... .L.B..
 0010 5df8044b 81727047 5df8044b 104700bf  ]..K.rpG]..K.G..
 0020 00000000                             ....            
Contents of section .text._ZN6Camera12data4BitModeEv:
 0000 0068044a 0368d3f8 cc309342 01d1807a  .h.J.h...0.B...z
 0010 70471847 00000000                    pG.G....        
Contents of section .text._ZN6Camera16dataPinsReversedEv:
 0000 0068054a 0368d3f8 d0309342 02d190f8  .h.J.h...0.B....
 0010 8e007047 184700bf 00000000           ..pG.G......    
Contents of section .text._ZN6Camera13readFrameGPIOEPvjS0_j:
 0000 006810b4 0468d4f8 d440a446 5df8044b  .h...h...@.F]..K
 0010 604700bf                             `G..            
Contents of section .text._ZN6Camera17readFrame4BitGPIOEPv:
 0000 00680368 d3f8d830 184700bf           .h.h...0.G..    
Contents of section .text._ZN6Camera14readContinuousEPFbPvES0_jS0_j:
 0000 006810b4 0468d4f8 dc40a446 5df8044b  .h...h...@.F]..K
 0010 604700bf                             `G..            
Contents of section .text._ZN6Camera18stopReadContinuousEv:
 0000 00680368 d3f8e030 184700bf           .h.h...0.G..    
Contents of section .text._ZN6Camera15readFrameFlexIOEPvjS0_j:
 0000 006810b4 0468d4f8 e440a446 5df8044b  .h...h...@.F]..K
 0010 604700bf                             `G..            
Contents of section .text._ZN6Camera15startReadFlexIOEPFbPvES0_jS0_j:
 0000 006810b4 04680192 d4f8e840 a4465df8  .h...h.....@.F].
 0010 044b6047                             .K`G            
Contents of section .text._ZN6Camera14stopReadFlexIOEv:
 0000 00680368 d3f8ec30 184700bf           .h.h...0.G..    
Contents of section .text._ZN6Camera12readFrameCSIEPvjS0_j:
 0000 006810b4 0468d4f8 f040a446 5df8044b  .h...h...@.F]..K
 0010 604700bf                             `G..            
Contents of section .text._ZN6Camera12startReadCSIEPFbPvES0_jS0_j:
 0000 006810b4 04680192 d4f8f440 a4465df8  .h...h.....@.F].
 0010 044b6047                             .K`G            
Contents of section .text._ZN6Camera11stopReadCSIEv:
 0000 00680368 d3f8f830 184700bf           .h.h...0.G..    
Contents of section .text._ZN6Camera17startReadFrameDMAEPFbPvEPhS3_:
 0000 006810b4 0468d4f8 0041a446 5df8044b  .h...h...A.F]..K
 0010 604700bf                             `G..            
Contents of section .text._ZN6Camera16stopReadFrameDMAEv:
 0000 00680368 d3f80831 184700bf           .h.h...1.G..    
Contents of section .text._ZN6Camera22captureFrameStatisticsEv:
 0000 00680368 d3f88c30 184700bf           .h.h...0.G..    
Contents of section .text._ZN6Camera19setVSyncISRPriorityEh:
 0000 00680368 d3f80c31 184700bf           .h.h...1.G..    
Contents of section .text._ZN6Camera25setDMACompleteISRPriorityEh:
 0000 00680368 d3f81031 184700bf           .h.h...1.G..    
Contents of section .text._ZN6Camera5widthEv:
 0000 0068054a 0368d3f8 18319342 02d1b0f9  .h.J.h...1.B....
 0010 54007047 184700bf 00000000           T.pG.G......    
Contents of section .text._ZN6Camera6heightEv:
 0000 0068054a 0368d3f8 1c319342 02d1b0f9  .h.J.h...1.B....
 0010 56007047 184700bf 00000000           V.pG.G......    
Contents of section .text._ZN6Camera10frameWidthEv:
 0000 0068054a 0368d3f8 20319342 02d1b0f9  .h.J.h.. 1.B....
 0010 58007047 184700bf 00000000           X.pG.G......    
Contents of section .text._ZN6Camera11frameHeightEv:
 0000 0068054a 0368d3f8 24319342 02d1b0f9  .h.J.h..$1.B....
 0010 5a007047 184700bf 00000000           Z.pG.G......    
Contents of section .text._ZN6Camera4modeEv:
 0000 03689879 704700bf                    .h.ypG..        
Contents of section .text._ZN6Camera10frameCountEv:
 0000 00680368 d3f81431 184700bf           .h.h...1.G..    
Contents of section .text._ZN6Camera13setSaturationEi:
 0000 00680368 d3f89430 184700bf           .h.h...0.G..    
Contents of section .text._ZN6Camera6setHueEi:
 0000 00680368 d3f89830 184700bf           .h.h...0.G..    
Contents of section .text._ZN6Camera11setContrastEi:
 0000 00680368 d3f89c30 184700bf           .h.h...0.G..    
Contents of section .text._ZN6Camera7setGainEi:
 0000 00680368 d3f8a030 184700bf           .h.h...0.G..    
Contents of section .text._ZN6Camera8autoGainEiff:
 0000 00680368 d3f8a430 184700bf           .h.h...0.G..    
Contents of section .text._ZN6Camera11setExposureEi:
 0000 00680368 d3f8a830 184700bf           .h.h...0.G..    
Contents of section .text._ZN6Camera12autoExposureEi:
 0000 00680368 d3f8ac30 184700bf           .h.h...0.G..    
Contents of section .text._ZN6Camera5beginE11framesize_t11pixformat_tiib:
 0000 006830b4 04689df8 0c500395 d4f89040  .h0..h...P.....@
 0010 a44630bc 604700bf                    .F0.`G..        
Contents of section .text._ZN6Camera15setAutoWhitebalEifff:
 0000 00680368 d3f8b030 184700bf           .h.h...0.G..    
Contents of section .text._ZN6Camera17changeFrameBufferEPhS0_:
 0000 00680368 d3f80431 184700bf           .h.h...1.G..    
Contents of section .text._ZN6Camera7timeoutEv:
 0000 03681869 704700bf                    .h.ipG..        
Contents of section .text._ZN6Camera7timeoutEm:
 0000 03681961 704700bf                    .h.apG..        
Contents of section .comment:
 0000 00474343 3a202841 726d2047 4e552054  .GCC: (Arm GNU T
 0010 6f6f6c63 6861696e 2031312e 332e5265  oolchain 11.3.Re
 0020 6c312920 31312e33 2e312032 30323230  l1) 11.3.1 20220
 0030 37313200                             712.            
Contents of section .ARM.attributes:
 0000 41310000 00616561 62690001 27000000  A1...aeabi..'...
 0010 0537452d 4d00060d 074d0902 0a081204  .7E-M....M......
 0020 14011501 17031801 19011a01 1c011e02  ................
 0030 2201                                 ".              

Disassembly of section .text._ZN11ImageSensor5debugEb:

00000000 <_ZN11ImageSensor5debugEb>:
   0:	7201      	strb	r1, [r0, #8]
   2:	4770      	bx	lr

Disassembly of section .text._ZN11ImageSensor5debugEv:

00000000 <_ZN11ImageSensor5debugEv>:
   0:	7a00      	ldrb	r0, [r0, #8]
   2:	4770      	bx	lr

Disassembly of section .text._ZN11ImageSensor12readRegisterEh:

00000000 <_ZN11ImageSensor12readRegisterEh>:
   0:	20ff      	movs	r0, #255	; 0xff
   2:	4770      	bx	lr

Disassembly of section .text._ZN11ImageSensor13writeRegisterEhh:

00000000 <_ZN11ImageSensor13writeRegisterEhh>:
   0:	2000      	movs	r0, #0
   2:	4770      	bx	lr

Disassembly of section .text._ZN11ImageSensor12getPixformatEv:

00000000 <_ZN11ImageSensor12getPixformatEv>:
   0:	f890 0064 	ldrb.w	r0, [r0, #100]	; 0x64
   4:	4770      	bx	lr
   6:	bf00      	nop

Disassembly of section .text._ZN11ImageSensor12setFramesizeEii:

00000000 <_ZN11ImageSensor12setFramesizeEii>:
   0:	2000      	movs	r0, #0
   2:	4770      	bx	lr

Disassembly of section .text._ZN11ImageSensor13setZoomWindowEtttt:

00000000 <_ZN11ImageSensor13setZoomWindowEtttt>:
   0:	2000      	movs	r0, #0
   2:	4770      	bx	lr

Disassembly of section .text._ZN11ImageSensor21readFrameReturnBufferEv:

00000000 <_ZN11ImageSensor21readFrameReturnBufferEv>:
   0:	f8d0 00b4 	ldr.w	r0, [r0, #180]	; 0xb4
   4:	4770      	bx	lr
   6:	bf00      	nop

Disassembly of section .text._ZN11ImageSensor18readImageSizeBytesEv:

00000000 <_ZN11ImageSensor18readImageSizeBytesEv>:
   0:	f8d0 00b8 	ldr.w	r0, [r0, #184]	; 0xb8
   4:	4770      	bx	lr
   6:	bf00      	nop

Disassembly of section .text._ZN11ImageSensor6useDMAEb:

00000000 <_ZN11ImageSensor6useDMAEb>:
   0:	7241      	strb	r1, [r0, #9]
   2:	4770      	bx	lr

Disassembly of section .text._ZN11ImageSensor6useDMAEv:

00000000 <_ZN11ImageSensor6useDMAEv>:
   0:	7a40      	ldrb	r0, [r0, #9]
   2:	4770      	bx	lr

Disassembly of section .text._ZN11ImageSensor12data4BitModeEb:

00000000 <_ZN11ImageSensor12data4BitModeEb>:
   0:	7281      	strb	r1, [r0, #10]
   2:	4770      	bx	lr

Disassembly of section .text._ZN11ImageSensor12data4BitModeEv:

00000000 <_ZN11ImageSensor12data4BitModeEv>:
   0:	7a80      	ldrb	r0, [r0, #10]
   2:	4770      	bx	lr

Disassembly of section .text._ZN11ImageSensor16dataPinsReversedEv:

00000000 <_ZN11ImageSensor16dataPinsReversedEv>:
   0:	f890 008e 	ldrb.w	r0, [r0, #142]	; 0x8e
   4:	4770      	bx	lr
   6:	bf00      	nop

Disassembly of section .text._ZN11ImageSensor5widthEv:

00000000 <_ZN11ImageSensor5widthEv>:
   0:	f9b0 0054 	ldrsh.w	r0, [r0, #84]	; 0x54
   4:	4770      	bx	lr
   6:	bf00      	nop

Disassembly of section .text._ZN11ImageSensor6heightEv:

00000000 <_ZN11ImageSensor6heightEv>:
   0:	f9b0 0056 	ldrsh.w	r0, [r0, #86]	; 0x56
   4:	4770      	bx	lr
   6:	bf00      	nop

Disassembly of section .text._ZN11ImageSensor10frameWidthEv:

00000000 <_ZN11ImageSensor10frameWidthEv>:
   0:	f9b0 0058 	ldrsh.w	r0, [r0, #88]	; 0x58
   4:	4770      	bx	lr
   6:	bf00      	nop

Disassembly of section .text._ZN11ImageSensor11frameHeightEv:

00000000 <_ZN11ImageSensor11frameHeightEv>:
   0:	f9b0 005a 	ldrsh.w	r0, [r0, #90]	; 0x5a
   4:	4770      	bx	lr
   6:	bf00      	nop

Disassembly of section .text._ZN6CameraC2ER11ImageSensor:

00000000 <_ZN6CameraC1ER11ImageSensor>:
   0:	6001      	str	r1, [r0, #0]
   2:	4770      	bx	lr

Disassembly of section .text._ZN6Camera7setPinsEhhhhhhhhhhhhhhR7TwoWire:

00000000 <_ZN6Camera7setPinsEhhhhhhhhhhhhhhR7TwoWire>:
   0:	b4f0      	push	{r4, r5, r6, r7}
   2:	6800      	ldr	r0, [r0, #0]
   4:	f89d 5010 	ldrb.w	r5, [sp, #16]
   8:	6804      	ldr	r4, [r0, #0]
   a:	9504      	str	r5, [sp, #16]
   c:	f89d 5020 	ldrb.w	r5, [sp, #32]
  10:	f89d c014 	ldrb.w	ip, [sp, #20]
  14:	9508      	str	r5, [sp, #32]
  16:	f89d 5024 	ldrb.w	r5, [sp, #36]	; 0x24
  1a:	f89d 6018 	ldrb.w	r6, [sp, #24]
  1e:	9509      	str	r5, [sp, #36]	; 0x24
  20:	f89d 5028 	ldrb.w	r5, [sp, #40]	; 0x28
  24:	f89d 701c 	ldrb.w	r7, [sp, #28]
  28:	950a      	str	r5, [sp, #40]	; 0x28
  2a:	f89d 502c 	ldrb.w	r5, [sp, #44]	; 0x2c
  2e:	f8cd c014 	str.w	ip, [sp, #20]
  32:	950b      	str	r5, [sp, #44]	; 0x2c
  34:	f89d 5030 	ldrb.w	r5, [sp, #48]	; 0x30
  38:	950c      	str	r5, [sp, #48]	; 0x30
  3a:	f89d 5034 	ldrb.w	r5, [sp, #52]	; 0x34
  3e:	950d      	str	r5, [sp, #52]	; 0x34
  40:	f89d 5038 	ldrb.w	r5, [sp, #56]	; 0x38
  44:	e9cd 6706 	strd	r6, r7, [sp, #24]
  48:	950e      	str	r5, [sp, #56]	; 0x38
  4a:	68e4      	ldr	r4, [r4, #12]
  4c:	46a4      	mov	ip, r4
  4e:	bcf0      	pop	{r4, r5, r6, r7}
  50:	4760      	bx	ip
  52:	bf00      	nop

Disassembly of section .text._ZN6Camera5beginE11framesize_tib:

00000000 <_ZN6Camera5beginE11framesize_tib>:
   0:	6800      	ldr	r0, [r0, #0]
   2:	b410      	push	{r4}
   4:	6804      	ldr	r4, [r0, #0]
   6:	6924      	ldr	r4, [r4, #16]
   8:	46a4      	mov	ip, r4
   a:	f85d 4b04 	ldr.w	r4, [sp], #4
   e:	4760      	bx	ip

Disassembly of section .text._ZN6Camera3endEv:

00000000 <_ZN6Camera3endEv>:
   0:	6800      	ldr	r0, [r0, #0]
   2:	6803      	ldr	r3, [r0, #0]
   4:	695b      	ldr	r3, [r3, #20]
   6:	4718      	bx	r3

Disassembly of section .text._ZN6Camera13showRegistersEv:

00000000 <_ZN6Camera13showRegistersEv>:
   0:	6800      	ldr	r0, [r0, #0]
   2:	6803      	ldr	r3, [r0, #0]
   4:	69db      	ldr	r3, [r3, #28]
   6:	4718      	bx	r3

Disassembly of section .text._ZN6Camera12setPixformatE11pixformat_t:

00000000 <_ZN6Camera12setPixformatE11pixformat_t>:
   0:	6800      	ldr	r0, [r0, #0]
   2:	6803      	ldr	r3, [r0, #0]
   4:	6b1b      	ldr	r3, [r3, #48]	; 0x30
   6:	4718      	bx	r3

Disassembly of section .text._ZN6Camera12getPixformatEv:

00000000 <_ZN6Camera12getPixformatEv>:
   0:	6800      	ldr	r0, [r0, #0]
   2:	4a04      	ldr	r2, [pc, #16]	; (14 <_ZN6Camera12getPixformatEv+0x14>)
   4:	6803      	ldr	r3, [r0, #0]
   6:	6b5b      	ldr	r3, [r3, #52]	; 0x34
   8:	4293      	cmp	r3, r2
   a:	d102      	bne.n	12 <_ZN6Camera12getPixformatEv+0x12>
   c:	f890 0064 	ldrb.w	r0, [r0, #100]	; 0x64
  10:	4770      	bx	lr
  12:	4718      	bx	r3
  14:	00000000 	.word	0x00000000

Disassembly of section .text._ZN6Camera5debugEb:

00000000 <_ZN6Camera5debugEb>:
   0:	6800      	ldr	r0, [r0, #0]
   2:	6802      	ldr	r2, [r0, #0]
   4:	b410      	push	{r4}
   6:	6a12      	ldr	r2, [r2, #32]
   8:	4c04      	ldr	r4, [pc, #16]	; (1c <_ZN6Camera5debugEb+0x1c>)
   a:	42a2      	cmp	r2, r4
   c:	d103      	bne.n	16 <_ZN6Camera5debugEb+0x16>
   e:	f85d 4b04 	ldr.w	r4, [sp], #4
  12:	7201      	strb	r1, [r0, #8]
  14:	4770      	bx	lr
  16:	f85d 4b04 	ldr.w	r4, [sp], #4
  1a:	4710      	bx	r2
  1c:	00000000 	.word	0x00000000

Disassembly of section .text._ZN6Camera5debugEv:

00000000 <_ZN6Camera5debugEv>:
   0:	6800      	ldr	r0, [r0, #0]
   2:	4a04      	ldr	r2, [pc, #16]	; (14 <_ZN6Camera5debugEv+0x14>)
   4:	6803      	ldr	r3, [r0, #0]
   6:	6a5b      	ldr	r3, [r3, #36]	; 0x24
   8:	4293      	cmp	r3, r2
   a:	d101      	bne.n	10 <_ZN6Camera5debugEv+0x10>
   c:	7a00      	ldrb	r0, [r0, #8]
   e:	4770      	bx	lr
  10:	4718      	bx	r3
  12:	bf00      	nop
  14:	00000000 	.word	0x00000000

Disassembly of section .text._ZN6Camera9usingGPIOEv:

00000000 <_ZN6Camera9usingGPIOEv>:
   0:	6803      	ldr	r3, [r0, #0]
   2:	7ad8      	ldrb	r0, [r3, #11]
   4:	4770      	bx	lr
   6:	bf00      	nop

Disassembly of section .text._ZN6Camera11cameraInputEv:

00000000 <_ZN6Camera11cameraInputEv>:
   0:	6803      	ldr	r3, [r0, #0]
   2:	7b58      	ldrb	r0, [r3, #13]
   4:	4770      	bx	lr
   6:	bf00      	nop

Disassembly of section .text._ZN6Camera12readRegisterEh:

00000000 <_ZN6Camera12readRegisterEh>:
   0:	6800      	ldr	r0, [r0, #0]
   2:	4a04      	ldr	r2, [pc, #16]	; (14 <_ZN6Camera12readRegisterEh+0x14>)
   4:	6803      	ldr	r3, [r0, #0]
   6:	6a9b      	ldr	r3, [r3, #40]	; 0x28
   8:	4293      	cmp	r3, r2
   a:	d101      	bne.n	10 <_ZN6Camera12readRegisterEh+0x10>
   c:	20ff      	movs	r0, #255	; 0xff
   e:	4770      	bx	lr
  10:	4718      	bx	r3
  12:	bf00      	nop
  14:	00000000 	.word	0x00000000

Disassembly of section .text._ZN6Camera13writeRegisterEhh:

00000000 <_ZN6Camera13writeRegisterEhh>:
   0:	6800      	ldr	r0, [r0, #0]
   2:	6803      	ldr	r3, [r0, #0]
   4:	b410      	push	{r4}
   6:	6adb      	ldr	r3, [r3, #44]	; 0x2c
   8:	4c04      	ldr	r4, [pc, #16]	; (1c <_ZN6Camera13writeRegisterEhh+0x1c>)
   a:	42a3      	cmp	r3, r4
   c:	d103      	bne.n	16 <_ZN6Camera13writeRegisterEhh+0x16>
   e:	2000      	movs	r0, #0
  10:	f85d 4b04 	ldr.w	r4, [sp], #4
  14:	4770      	bx	lr
  16:	f85d 4b04 	ldr.w	r4, [sp], #4
  1a:	4718      	bx	r3
  1c:	00000000 	.word	0x00000000

Disassembly of section .text._ZN6Camera12setFramesizeE11framesize_t:

00000000 <_ZN6Camera12setFramesizeE11framesize_t>:
   0:	6800      	ldr	r0, [r0, #0]
   2:	6803      	ldr	r3, [r0, #0]
   4:	6b9b      	ldr	r3, [r3, #56]	; 0x38
   6:	4718      	bx	r3

Disassembly of section .text._ZN6Camera12setFramesizeEii:

00000000 <_ZN6Camera12setFramesizeEii>:
   0:	6800      	ldr	r0, [r0, #0]
   2:	6803      	ldr	r3, [r0, #0]
   4:	b410      	push	{r4}
   6:	6bdb      	ldr	r3, [r3, #60]	; 0x3c
   8:	4c04      	ldr	r4, [pc, #16]	; (1c <_ZN6Camera12setFramesizeEii+0x1c>)
   a:	42a3      	cmp	r3, r4
   c:	d103      	bne.n	16 <_ZN6Camera12setFramesizeEii+0x16>
   e:	2000      	movs	r0, #0
  10:	f85d 4b04 	ldr.w	r4, [sp], #4
  14:	4770      	bx	lr
  16:	f85d 4b04 	ldr.w	r4, [sp], #4
  1a:	4718      	bx	r3
  1c:	00000000 	.word	0x00000000

Disassembly of section .text._ZN6Camera13setZoomWindowEtttt:

00000000 <_ZN6Camera13setZoomWindowEtttt>:
   0:	6800      	ldr	r0, [r0, #0]
   2:	b470      	push	{r4, r5, r6}
   4:	6804      	ldr	r4, [r0, #0]
   6:	4d06      	ldr	r5, [pc, #24]	; (20 <_ZN6Camera13setZoomWindowEtttt+0x20>)
   8:	6c24      	ldr	r4, [r4, #64]	; 0x40
   a:	f8bd 600c 	ldrh.w	r6, [sp, #12]
   e:	42ac      	cmp	r4, r5
  10:	d102      	bne.n	18 <_ZN6Camera13setZoomWindowEtttt+0x18>
  12:	2000      	movs	r0, #0
  14:	bc70      	pop	{r4, r5, r6}
  16:	4770      	bx	lr
  18:	46a4      	mov	ip, r4
  1a:	9603      	str	r6, [sp, #12]
  1c:	bc70      	pop	{r4, r5, r6}
  1e:	4760      	bx	ip
  20:	00000000 	.word	0x00000000

Disassembly of section .text._ZN6Camera12setFramerateEi:

00000000 <_ZN6Camera12setFramerateEi>:
   0:	6800      	ldr	r0, [r0, #0]
   2:	6803      	ldr	r3, [r0, #0]
   4:	6c5b      	ldr	r3, [r3, #68]	; 0x44
   6:	4718      	bx	r3

Disassembly of section .text._ZN6Camera13setBrightnessEi:

00000000 <_ZN6Camera13setBrightnessEi>:
   0:	6800      	ldr	r0, [r0, #0]
   2:	6803      	ldr	r3, [r0, #0]
   4:	6c9b      	ldr	r3, [r3, #72]	; 0x48
   6:	4718      	bx	r3

Disassembly of section .text._ZN6Camera14setGainceilingE13gainceiling_t:

00000000 <_ZN6Camera14setGainceilingE13gainceiling_t>:
   0:	6800      	ldr	r0, [r0, #0]
   2:	6803      	ldr	r3, [r0, #0]
   4:	6cdb      	ldr	r3, [r3, #76]	; 0x4c
   6:	4718      	bx	r3

Disassembly of section .text._ZN6Camera11setColorbarEi:

00000000 <_ZN6Camera11setColorbarEi>:
   0:	6800      	ldr	r0, [r0, #0]
   2:	6803      	ldr	r3, [r0, #0]
   4:	6d1b      	ldr	r3, [r3, #80]	; 0x50
   6:	4718      	bx	r3

Disassembly of section .text._ZN6Camera11setAutoGainEiff:

00000000 <_ZN6Camera11setAutoGainEiff>:
   0:	6800      	ldr	r0, [r0, #0]
   2:	6803      	ldr	r3, [r0, #0]
   4:	6d5b      	ldr	r3, [r3, #84]	; 0x54
   6:	4718      	bx	r3

Disassembly of section .text._ZN6Camera14get_vt_pix_clkEPm:

00000000 <_ZN6Camera14get_vt_pix_clkEPm>:
   0:	6800      	ldr	r0, [r0, #0]
   2:	6803      	ldr	r3, [r0, #0]
   4:	6d9b      	ldr	r3, [r3, #88]	; 0x58
   6:	4718      	bx	r3

Disassembly of section .text._ZN6Camera10getGain_dbEPf:

00000000 <_ZN6Camera10getGain_dbEPf>:
   0:	6800      	ldr	r0, [r0, #0]
   2:	6803      	ldr	r3, [r0, #0]
   4:	6ddb      	ldr	r3, [r3, #92]	; 0x5c
   6:	4718      	bx	r3

Disassembly of section .text._ZN6Camera14getCameraClockEPm:

00000000 <_ZN6Camera14getCameraClockEPm>:
   0:	6800      	ldr	r0, [r0, #0]
   2:	6803      	ldr	r3, [r0, #0]
   4:	6e1b      	ldr	r3, [r3, #96]	; 0x60
   6:	4718      	bx	r3

Disassembly of section .text._ZN6Camera15setAutoExposureEii:

00000000 <_ZN6Camera15setAutoExposureEii>:
   0:	6800      	ldr	r0, [r0, #0]
   2:	6803      	ldr	r3, [r0, #0]
   4:	6e5b      	ldr	r3, [r3, #100]	; 0x64
   6:	4718      	bx	r3

Disassembly of section .text._ZN6Camera14getExposure_usEPi:

00000000 <_ZN6Camera14getExposure_usEPi>:
   0:	6800      	ldr	r0, [r0, #0]
   2:	6803      	ldr	r3, [r0, #0]
   4:	6e9b      	ldr	r3, [r3, #104]	; 0x68
   6:	4718      	bx	r3

Disassembly of section .text._ZN6Camera10setHmirrorEi:

00000000 <_ZN6Camera10setHmirrorEi>:
   0:	6800      	ldr	r0, [r0, #0]
   2:	6803      	ldr	r3, [r0, #0]
   4:	6edb      	ldr	r3, [r3, #108]	; 0x6c
   6:	4718      	bx	r3

Disassembly of section .text._ZN6Camera8setVflipEi:

00000000 <_ZN6Camera8setVflipEi>:
   0:	6800      	ldr	r0, [r0, #0]
   2:	6803      	ldr	r3, [r0, #0]
   4:	6f1b      	ldr	r3, [r3, #112]	; 0x70
   6:	4718      	bx	r3

Disassembly of section .text._ZN6Camera7setModeEhh:

00000000 <_ZN6Camera7setModeEhh>:
   0:	6800      	ldr	r0, [r0, #0]
   2:	6803      	ldr	r3, [r0, #0]
   4:	6f5b      	ldr	r3, [r3, #116]	; 0x74
   6:	4718      	bx	r3

Disassembly of section .text._ZN6Camera9cmdUpdateEv:

00000000 <_ZN6Camera9cmdUpdateEv>:
   0:	6800      	ldr	r0, [r0, #0]
   2:	6803      	ldr	r3, [r0, #0]
   4:	6f9b      	ldr	r3, [r3, #120]	; 0x78
   6:	4718      	bx	r3

Disassembly of section .text._ZN6Camera12loadSettingsE21camera_reg_settings_t:

00000000 <_ZN6Camera12loadSettingsE21camera_reg_settings_t>:
   0:	6800      	ldr	r0, [r0, #0]
   2:	6803      	ldr	r3, [r0, #0]
   4:	6fdb      	ldr	r3, [r3, #124]	; 0x7c
   6:	4718      	bx	r3

Disassembly of section .text._ZN6Camera10getModelidEv:

00000000 <_ZN6Camera10getModelidEv>:
   0:	6800      	ldr	r0, [r0, #0]
   2:	6803      	ldr	r3, [r0, #0]
   4:	f8d3 3088 	ldr.w	r3, [r3, #136]	; 0x88
   8:	4718      	bx	r3
   a:	bf00      	nop

Disassembly of section .text._ZN6Camera5getAEEP8ae_cfg_t:

00000000 <_ZN6Camera5getAEEP8ae_cfg_t>:
   0:	6800      	ldr	r0, [r0, #0]
   2:	6803      	ldr	r3, [r0, #0]
   4:	f8d3 3080 	ldr.w	r3, [r3, #128]	; 0x80
   8:	4718      	bx	r3
   a:	bf00      	nop

Disassembly of section .text._ZN6Camera5calAEEhPhmP8ae_cfg_t:

00000000 <_ZN6Camera5calAEEhPhmP8ae_cfg_t>:
   0:	6800      	ldr	r0, [r0, #0]
   2:	b410      	push	{r4}
   4:	6804      	ldr	r4, [r0, #0]
   6:	f8d4 4084 	ldr.w	r4, [r4, #132]	; 0x84
   a:	46a4      	mov	ip, r4
   c:	f85d 4b04 	ldr.w	r4, [sp], #4
  10:	4760      	bx	ip
  12:	bf00      	nop

Disassembly of section .text._ZN6Camera9readFrameEPvjS0_j:

00000000 <_ZN6Camera9readFrameEPvjS0_j>:
   0:	6800      	ldr	r0, [r0, #0]
   2:	b410      	push	{r4}
   4:	6804      	ldr	r4, [r0, #0]
   6:	f8d4 40b4 	ldr.w	r4, [r4, #180]	; 0xb4
   a:	46a4      	mov	ip, r4
   c:	f85d 4b04 	ldr.w	r4, [sp], #4
  10:	4760      	bx	ip
  12:	bf00      	nop

Disassembly of section .text._ZN6Camera21readFrameReturnBufferEv:

00000000 <_ZN6Camera21readFrameReturnBufferEv>:
   0:	6800      	ldr	r0, [r0, #0]
   2:	4a05      	ldr	r2, [pc, #20]	; (18 <_ZN6Camera21readFrameReturnBufferEv+0x18>)
   4:	6803      	ldr	r3, [r0, #0]
   6:	f8d3 30b8 	ldr.w	r3, [r3, #184]	; 0xb8
   a:	4293      	cmp	r3, r2
   c:	d102      	bne.n	14 <_ZN6Camera21readFrameReturnBufferEv+0x14>
   e:	f8d0 00b4 	ldr.w	r0, [r0, #180]	; 0xb4
  12:	4770      	bx	lr
  14:	4718      	bx	r3
  16:	bf00      	nop
  18:	00000000 	.word	0x00000000

Disassembly of section .text._ZN6Camera18readImageSizeBytesEv:

00000000 <_ZN6Camera18readImageSizeBytesEv>:
   0:	6800      	ldr	r0, [r0, #0]
   2:	4a05      	ldr	r2, [pc, #20]	; (18 <_ZN6Camera18readImageSizeBytesEv+0x18>)
   4:	6803      	ldr	r3, [r0, #0]
   6:	f8d3 30bc 	ldr.w	r3, [r3, #188]	; 0xbc
   a:	4293      	cmp	r3, r2
   c:	d102      	bne.n	14 <_ZN6Camera18readImageSizeBytesEv+0x14>
   e:	f8d0 00b8 	ldr.w	r0, [r0, #184]	; 0xb8
  12:	4770      	bx	lr
  14:	4718      	bx	r3
  16:	bf00      	nop
  18:	00000000 	.word	0x00000000

Disassembly of section .text._ZN6Camera6useDMAEb:

00000000 <_ZN6Camera6useDMAEb>:
   0:	6800      	ldr	r0, [r0, #0]
   2:	6802      	ldr	r2, [r0, #0]
   4:	b410      	push	{r4}
   6:	f8d2 20c0 	ldr.w	r2, [r2, #192]	; 0xc0
   a:	4c05      	ldr	r4, [pc, #20]	; (20 <_ZN6Camera6useDMAEb+0x20>)
   c:	42a2      	cmp	r2, r4
   e:	d103      	bne.n	18 <_ZN6Camera6useDMAEb+0x18>
  10:	f85d 4b04 	ldr.w	r4, [sp], #4
  14:	7241      	strb	r1, [r0, #9]
  16:	4770      	bx	lr
  18:	f85d 4b04 	ldr.w	r4, [sp], #4
  1c:	4710      	bx	r2
  1e:	bf00      	nop
  20:	00000000 	.word	0x00000000

Disassembly of section .text._ZN6Camera6useDMAEv:

00000000 <_ZN6Camera6useDMAEv>:
   0:	6800      	ldr	r0, [r0, #0]
   2:	4a04      	ldr	r2, [pc, #16]	; (14 <_ZN6Camera6useDMAEv+0x14>)
   4:	6803      	ldr	r3, [r0, #0]
   6:	f8d3 30c4 	ldr.w	r3, [r3, #196]	; 0xc4
   a:	4293      	cmp	r3, r2
   c:	d101      	bne.n	12 <_ZN6Camera6useDMAEv+0x12>
   e:	7a40      	ldrb	r0, [r0, #9]
  10:	4770      	bx	lr
  12:	4718      	bx	r3
  14:	00000000 	.word	0x00000000

Disassembly of section .text._ZN6Camera12data4BitModeEb:

00000000 <_ZN6Camera12data4BitModeEb>:
   0:	6800      	ldr	r0, [r0, #0]
   2:	6802      	ldr	r2, [r0, #0]
   4:	b410      	push	{r4}
   6:	f8d2 20c8 	ldr.w	r2, [r2, #200]	; 0xc8
   a:	4c05      	ldr	r4, [pc, #20]	; (20 <_ZN6Camera12data4BitModeEb+0x20>)
   c:	42a2      	cmp	r2, r4
   e:	d103      	bne.n	18 <_ZN6Camera12data4BitModeEb+0x18>
  10:	f85d 4b04 	ldr.w	r4, [sp], #4
  14:	7281      	strb	r1, [r0, #10]
  16:	4770      	bx	lr
  18:	f85d 4b04 	ldr.w	r4, [sp], #4
  1c:	4710      	bx	r2
  1e:	bf00      	nop
  20:	00000000 	.word	0x00000000

Disassembly of section .text._ZN6Camera12data4BitModeEv:

00000000 <_ZN6Camera12data4BitModeEv>:
   0:	6800      	ldr	r0, [r0, #0]
   2:	4a04      	ldr	r2, [pc, #16]	; (14 <_ZN6Camera12data4BitModeEv+0x14>)
   4:	6803      	ldr	r3, [r0, #0]
   6:	f8d3 30cc 	ldr.w	r3, [r3, #204]	; 0xcc
   a:	4293      	cmp	r3, r2
   c:	d101      	bne.n	12 <_ZN6Camera12data4BitModeEv+0x12>
   e:	7a80      	ldrb	r0, [r0, #10]
  10:	4770      	bx	lr
  12:	4718      	bx	r3
  14:	00000000 	.word	0x00000000

Disassembly of section .text._ZN6Camera16dataPinsReversedEv:

00000000 <_ZN6Camera16dataPinsReversedEv>:
   0:	6800      	ldr	r0, [r0, #0]
   2:	4a05      	ldr	r2, [pc, #20]	; (18 <_ZN6Camera16dataPinsReversedEv+0x18>)
   4:	6803      	ldr	r3, [r0, #0]
   6:	f8d3 30d0 	ldr.w	r3, [r3, #208]	; 0xd0
   a:	4293      	cmp	r3, r2
   c:	d102      	bne.n	14 <_ZN6Camera16dataPinsReversedEv+0x14>
   e:	f890 008e 	ldrb.w	r0, [r0, #142]	; 0x8e
  12:	4770      	bx	lr
  14:	4718      	bx	r3
  16:	bf00      	nop
  18:	00000000 	.word	0x00000000

Disassembly of section .text._ZN6Camera13readFrameGPIOEPvjS0_j:

00000000 <_ZN6Camera13readFrameGPIOEPvjS0_j>:
   0:	6800      	ldr	r0, [r0, #0]
   2:	b410      	push	{r4}
   4:	6804      	ldr	r4, [r0, #0]
   6:	f8d4 40d4 	ldr.w	r4, [r4, #212]	; 0xd4
   a:	46a4      	mov	ip, r4
   c:	f85d 4b04 	ldr.w	r4, [sp], #4
  10:	4760      	bx	ip
  12:	bf00      	nop

Disassembly of section .text._ZN6Camera17readFrame4BitGPIOEPv:

00000000 <_ZN6Camera17readFrame4BitGPIOEPv>:
   0:	6800      	ldr	r0, [r0, #0]
   2:	6803      	ldr	r3, [r0, #0]
   4:	f8d3 30d8 	ldr.w	r3, [r3, #216]	; 0xd8
   8:	4718      	bx	r3
   a:	bf00      	nop

Disassembly of section .text._ZN6Camera14readContinuousEPFbPvES0_jS0_j:

00000000 <_ZN6Camera14readContinuousEPFbPvES0_jS0_j>:
   0:	6800      	ldr	r0, [r0, #0]
   2:	b410      	push	{r4}
   4:	6804      	ldr	r4, [r0, #0]
   6:	f8d4 40dc 	ldr.w	r4, [r4, #220]	; 0xdc
   a:	46a4      	mov	ip, r4
   c:	f85d 4b04 	ldr.w	r4, [sp], #4
  10:	4760      	bx	ip
  12:	bf00      	nop

Disassembly of section .text._ZN6Camera18stopReadContinuousEv:

00000000 <_ZN6Camera18stopReadContinuousEv>:
   0:	6800      	ldr	r0, [r0, #0]
   2:	6803      	ldr	r3, [r0, #0]
   4:	f8d3 30e0 	ldr.w	r3, [r3, #224]	; 0xe0
   8:	4718      	bx	r3
   a:	bf00      	nop

Disassembly of section .text._ZN6Camera15readFrameFlexIOEPvjS0_j:

00000000 <_ZN6Camera15readFrameFlexIOEPvjS0_j>:
   0:	6800      	ldr	r0, [r0, #0]
   2:	b410      	push	{r4}
   4:	6804      	ldr	r4, [r0, #0]
   6:	f8d4 40e4 	ldr.w	r4, [r4, #228]	; 0xe4
   a:	46a4      	mov	ip, r4
   c:	f85d 4b04 	ldr.w	r4, [sp], #4
  10:	4760      	bx	ip
  12:	bf00      	nop

Disassembly of section .text._ZN6Camera15startReadFlexIOEPFbPvES0_jS0_j:

00000000 <_ZN6Camera15startReadFlexIOEPFbPvES0_jS0_j>:
   0:	6800      	ldr	r0, [r0, #0]
   2:	b410      	push	{r4}
   4:	6804      	ldr	r4, [r0, #0]
   6:	9201      	str	r2, [sp, #4]
   8:	f8d4 40e8 	ldr.w	r4, [r4, #232]	; 0xe8
   c:	46a4      	mov	ip, r4
   e:	f85d 4b04 	ldr.w	r4, [sp], #4
  12:	4760      	bx	ip

Disassembly of section .text._ZN6Camera14stopReadFlexIOEv:

00000000 <_ZN6Camera14stopReadFlexIOEv>:
   0:	6800      	ldr	r0, [r0, #0]
   2:	6803      	ldr	r3, [r0, #0]
   4:	f8d3 30ec 	ldr.w	r3, [r3, #236]	; 0xec
   8:	4718      	bx	r3
   a:	bf00      	nop

Disassembly of section .text._ZN6Camera12readFrameCSIEPvjS0_j:

00000000 <_ZN6Camera12readFrameCSIEPvjS0_j>:
   0:	6800      	ldr	r0, [r0, #0]
   2:	b410      	push	{r4}
   4:	6804      	ldr	r4, [r0, #0]
   6:	f8d4 40f0 	ldr.w	r4, [r4, #240]	; 0xf0
   a:	46a4      	mov	ip, r4
   c:	f85d 4b04 	ldr.w	r4, [sp], #4
  10:	4760      	bx	ip
  12:	bf00      	nop

Disassembly of section .text._ZN6Camera12startReadCSIEPFbPvES0_jS0_j:

00000000 <_ZN6Camera12startReadCSIEPFbPvES0_jS0_j>:
   0:	6800      	ldr	r0, [r0, #0]
   2:	b410      	push	{r4}
   4:	6804      	ldr	r4, [r0, #0]
   6:	9201      	str	r2, [sp, #4]
   8:	f8d4 40f4 	ldr.w	r4, [r4, #244]	; 0xf4
   c:	46a4      	mov	ip, r4
   e:	f85d 4b04 	ldr.w	r4, [sp], #4
  12:	4760      	bx	ip

Disassembly of section .text._ZN6Camera11stopReadCSIEv:

00000000 <_ZN6Camera11stopReadCSIEv>:
   0:	6800      	ldr	r0, [r0, #0]
   2:	6803      	ldr	r3, [r0, #0]
   4:	f8d3 30f8 	ldr.w	r3, [r3, #248]	; 0xf8
   8:	4718      	bx	r3
   a:	bf00      	nop

Disassembly of section .text._ZN6Camera17startReadFrameDMAEPFbPvEPhS3_:

00000000 <_ZN6Camera17startReadFrameDMAEPFbPvEPhS3_>:
   0:	6800      	ldr	r0, [r0, #0]
   2:	b410      	push	{r4}
   4:	6804      	ldr	r4, [r0, #0]
   6:	f8d4 4100 	ldr.w	r4, [r4, #256]	; 0x100
   a:	46a4      	mov	ip, r4
   c:	f85d 4b04 	ldr.w	r4, [sp], #4
  10:	4760      	bx	ip
  12:	bf00      	nop

Disassembly of section .text._ZN6Camera16stopReadFrameDMAEv:

00000000 <_ZN6Camera16stopReadFrameDMAEv>:
   0:	6800      	ldr	r0, [r0, #0]
   2:	6803      	ldr	r3, [r0, #0]
   4:	f8d3 3108 	ldr.w	r3, [r3, #264]	; 0x108
   8:	4718      	bx	r3
   a:	bf00      	nop

Disassembly of section .text._ZN6Camera22captureFrameStatisticsEv:

00000000 <_ZN6Camera22captureFrameStatisticsEv>:
   0:	6800      	ldr	r0, [r0, #0]
   2:	6803      	ldr	r3, [r0, #0]
   4:	f8d3 308c 	ldr.w	r3, [r3, #140]	; 0x8c
   8:	4718      	bx	r3
   a:	bf00      	nop

Disassembly of section .text._ZN6Camera19setVSyncISRPriorityEh:

00000000 <_ZN6Camera19setVSyncISRPriorityEh>:
   0:	6800      	ldr	r0, [r0, #0]
   2:	6803      	ldr	r3, [r0, #0]
   4:	f8d3 310c 	ldr.w	r3, [r3, #268]	; 0x10c
   8:	4718      	bx	r3
   a:	bf00      	nop

Disassembly of section .text._ZN6Camera25setDMACompleteISRPriorityEh:

00000000 <_ZN6Camera25setDMACompleteISRPriorityEh>:
   0:	6800      	ldr	r0, [r0, #0]
   2:	6803      	ldr	r3, [r0, #0]
   4:	f8d3 3110 	ldr.w	r3, [r3, #272]	; 0x110
   8:	4718      	bx	r3
   a:	bf00      	nop

Disassembly of section .text._ZN6Camera5widthEv:

00000000 <_ZN6Camera5widthEv>:
   0:	6800      	ldr	r0, [r0, #0]
   2:	4a05      	ldr	r2, [pc, #20]	; (18 <_ZN6Camera5widthEv+0x18>)
   4:	6803      	ldr	r3, [r0, #0]
   6:	f8d3 3118 	ldr.w	r3, [r3, #280]	; 0x118
   a:	4293      	cmp	r3, r2
   c:	d102      	bne.n	14 <_ZN6Camera5widthEv+0x14>
   e:	f9b0 0054 	ldrsh.w	r0, [r0, #84]	; 0x54
  12:	4770      	bx	lr
  14:	4718      	bx	r3
  16:	bf00      	nop
  18:	00000000 	.word	0x00000000

Disassembly of section .text._ZN6Camera6heightEv:

00000000 <_ZN6Camera6heightEv>:
   0:	6800      	ldr	r0, [r0, #0]
   2:	4a05      	ldr	r2, [pc, #20]	; (18 <_ZN6Camera6heightEv+0x18>)
   4:	6803      	ldr	r3, [r0, #0]
   6:	f8d3 311c 	ldr.w	r3, [r3, #284]	; 0x11c
   a:	4293      	cmp	r3, r2
   c:	d102      	bne.n	14 <_ZN6Camera6heightEv+0x14>
   e:	f9b0 0056 	ldrsh.w	r0, [r0, #86]	; 0x56
  12:	4770      	bx	lr
  14:	4718      	bx	r3
  16:	bf00      	nop
  18:	00000000 	.word	0x00000000

Disassembly of section .text._ZN6Camera10frameWidthEv:

00000000 <_ZN6Camera10frameWidthEv>:
   0:	6800      	ldr	r0, [r0, #0]
   2:	4a05      	ldr	r2, [pc, #20]	; (18 <_ZN6Camera10frameWidthEv+0x18>)
   4:	6803      	ldr	r3, [r0, #0]
   6:	f8d3 3120 	ldr.w	r3, [r3, #288]	; 0x120
   a:	4293      	cmp	r3, r2
   c:	d102      	bne.n	14 <_ZN6Camera10frameWidthEv+0x14>
   e:	f9b0 0058 	ldrsh.w	r0, [r0, #88]	; 0x58
  12:	4770      	bx	lr
  14:	4718      	bx	r3
  16:	bf00      	nop
  18:	00000000 	.word	0x00000000

Disassembly of section .text._ZN6Camera11frameHeightEv:

00000000 <_ZN6Camera11frameHeightEv>:
   0:	6800      	ldr	r0, [r0, #0]
   2:	4a05      	ldr	r2, [pc, #20]	; (18 <_ZN6Camera11frameHeightEv+0x18>)
   4:	6803      	ldr	r3, [r0, #0]
   6:	f8d3 3124 	ldr.w	r3, [r3, #292]	; 0x124
   a:	4293      	cmp	r3, r2
   c:	d102      	bne.n	14 <_ZN6Camera11frameHeightEv+0x14>
   e:	f9b0 005a 	ldrsh.w	r0, [r0, #90]	; 0x5a
  12:	4770      	bx	lr
  14:	4718      	bx	r3
  16:	bf00      	nop
  18:	00000000 	.word	0x00000000

Disassembly of section .text._ZN6Camera4modeEv:

00000000 <_ZN6Camera4modeEv>:
   0:	6803      	ldr	r3, [r0, #0]
   2:	7998      	ldrb	r0, [r3, #6]
   4:	4770      	bx	lr
   6:	bf00      	nop

Disassembly of section .text._ZN6Camera10frameCountEv:

00000000 <_ZN6Camera10frameCountEv>:
   0:	6800      	ldr	r0, [r0, #0]
   2:	6803      	ldr	r3, [r0, #0]
   4:	f8d3 3114 	ldr.w	r3, [r3, #276]	; 0x114
   8:	4718      	bx	r3
   a:	bf00      	nop

Disassembly of section .text._ZN6Camera13setSaturationEi:

00000000 <_ZN6Camera13setSaturationEi>:
   0:	6800      	ldr	r0, [r0, #0]
   2:	6803      	ldr	r3, [r0, #0]
   4:	f8d3 3094 	ldr.w	r3, [r3, #148]	; 0x94
   8:	4718      	bx	r3
   a:	bf00      	nop

Disassembly of section .text._ZN6Camera6setHueEi:

00000000 <_ZN6Camera6setHueEi>:
   0:	6800      	ldr	r0, [r0, #0]
   2:	6803      	ldr	r3, [r0, #0]
   4:	f8d3 3098 	ldr.w	r3, [r3, #152]	; 0x98
   8:	4718      	bx	r3
   a:	bf00      	nop

Disassembly of section .text._ZN6Camera11setContrastEi:

00000000 <_ZN6Camera11setContrastEi>:
   0:	6800      	ldr	r0, [r0, #0]
   2:	6803      	ldr	r3, [r0, #0]
   4:	f8d3 309c 	ldr.w	r3, [r3, #156]	; 0x9c
   8:	4718      	bx	r3
   a:	bf00      	nop

Disassembly of section .text._ZN6Camera7setGainEi:

00000000 <_ZN6Camera7setGainEi>:
   0:	6800      	ldr	r0, [r0, #0]
   2:	6803      	ldr	r3, [r0, #0]
   4:	f8d3 30a0 	ldr.w	r3, [r3, #160]	; 0xa0
   8:	4718      	bx	r3
   a:	bf00      	nop

Disassembly of section .text._ZN6Camera8autoGainEiff:

00000000 <_ZN6Camera8autoGainEiff>:
   0:	6800      	ldr	r0, [r0, #0]
   2:	6803      	ldr	r3, [r0, #0]
   4:	f8d3 30a4 	ldr.w	r3, [r3, #164]	; 0xa4
   8:	4718      	bx	r3
   a:	bf00      	nop

Disassembly of section .text._ZN6Camera11setExposureEi:

00000000 <_ZN6Camera11setExposureEi>:
   0:	6800      	ldr	r0, [r0, #0]
   2:	6803      	ldr	r3, [r0, #0]
   4:	f8d3 30a8 	ldr.w	r3, [r3, #168]	; 0xa8
   8:	4718      	bx	r3
   a:	bf00      	nop

Disassembly of section .text._ZN6Camera12autoExposureEi:

00000000 <_ZN6Camera12autoExposureEi>:
   0:	6800      	ldr	r0, [r0, #0]
   2:	6803      	ldr	r3, [r0, #0]
   4:	f8d3 30ac 	ldr.w	r3, [r3, #172]	; 0xac
   8:	4718      	bx	r3
   a:	bf00      	nop

Disassembly of section .text._ZN6Camera5beginE11framesize_t11pixformat_tiib:

00000000 <_ZN6Camera5beginE11framesize_t11pixformat_tiib>:
   0:	6800      	ldr	r0, [r0, #0]
   2:	b430      	push	{r4, r5}
   4:	6804      	ldr	r4, [r0, #0]
   6:	f89d 500c 	ldrb.w	r5, [sp, #12]
   a:	9503      	str	r5, [sp, #12]
   c:	f8d4 4090 	ldr.w	r4, [r4, #144]	; 0x90
  10:	46a4      	mov	ip, r4
  12:	bc30      	pop	{r4, r5}
  14:	4760      	bx	ip
  16:	bf00      	nop

Disassembly of section .text._ZN6Camera15setAutoWhitebalEifff:

00000000 <_ZN6Camera15setAutoWhitebalEifff>:
   0:	6800      	ldr	r0, [r0, #0]
   2:	6803      	ldr	r3, [r0, #0]
   4:	f8d3 30b0 	ldr.w	r3, [r3, #176]	; 0xb0
   8:	4718      	bx	r3
   a:	bf00      	nop

Disassembly of section .text._ZN6Camera17changeFrameBufferEPhS0_:

00000000 <_ZN6Camera17changeFrameBufferEPhS0_>:
   0:	6800      	ldr	r0, [r0, #0]
   2:	6803      	ldr	r3, [r0, #0]
   4:	f8d3 3104 	ldr.w	r3, [r3, #260]	; 0x104
   8:	4718      	bx	r3
   a:	bf00      	nop

Disassembly of section .text._ZN6Camera7timeoutEv:

00000000 <_ZN6Camera7timeoutEv>:
   0:	6803      	ldr	r3, [r0, #0]
   2:	6918      	ldr	r0, [r3, #16]
   4:	4770      	bx	lr
   6:	bf00      	nop

Disassembly of section .text._ZN6Camera7timeoutEm:

00000000 <_ZN6Camera7timeoutEm>:
   0:	6803      	ldr	r3, [r0, #0]
   2:	6119      	str	r1, [r3, #16]
   4:	4770      	bx	lr
   6:	bf00      	nop
