
build/./src/sensors/ICM20649.cpp.o:     file format elf32-littlearm

SYMBOL TABLE:
00000000 l    df *ABS*	00000000 ICM20649.cpp
00000000 l    d  .text	00000000 .text
00000000 l    d  .data	00000000 .data
00000000 l    d  .bss	00000000 .bss
00000000 l    d  .text._ZN8ICM206494readEv	00000000 .text._ZN8ICM206494readEv
00000000 l    d  .text._ZN8ICM20649C2Ev	00000000 .text._ZN8ICM20649C2Ev
00000000 l    d  .text._ZN8ICM2064919get_accel_data_rateEv	00000000 .text._ZN8ICM2064919get_accel_data_rateEv
00000000 l    d  .text._ZN8ICM2064918get_gyro_data_rateEv	00000000 .text._ZN8ICM2064918get_gyro_data_rateEv
00000000 l    d  .text._ZN8ICM2064914set_gyro_rangeEi	00000000 .text._ZN8ICM2064914set_gyro_rangeEi
00000000 l    d  .rodata._ZN8ICM206494initENS_21CommunicationProtocolE.str1.4	00000000 .rodata._ZN8ICM206494initENS_21CommunicationProtocolE.str1.4
00000000 l    d  .text._ZN8ICM206494initENS_21CommunicationProtocolE	00000000 .text._ZN8ICM206494initENS_21CommunicationProtocolE
00000000 l    d  .rodata._ZTV8ICM20649	00000000 .rodata._ZTV8ICM20649
00000000 l    d  .comment	00000000 .comment
00000000 l    d  .ARM.attributes	00000000 .ARM.attributes
00000000 g     F .text._ZN8ICM206494readEv	00000040 _ZN8ICM206494readEv
00000000         *UND*	00000000 _ZN15Adafruit_ICM20X8getEventEP15sensors_event_tS1_S1_S1_
00000000 g     F .text._ZN8ICM20649C2Ev	00000064 _ZN8ICM20649C2Ev
00000000         *UND*	00000000 _ZN17Adafruit_ICM20649C1Ev
00000000 g     F .text._ZN8ICM20649C2Ev	00000064 _ZN8ICM20649C1Ev
00000000 g     F .text._ZN8ICM2064919get_accel_data_rateEv	00000030 _ZN8ICM2064919get_accel_data_rateEv
00000000         *UND*	00000000 _ZN15Adafruit_ICM20X19getAccelRateDivisorEv
00000000 g     F .text._ZN8ICM2064918get_gyro_data_rateEv	00000038 _ZN8ICM2064918get_gyro_data_rateEv
00000000         *UND*	00000000 _ZN15Adafruit_ICM20X18getGyroRateDivisorEv
00000000 g     F .text._ZN8ICM2064914set_gyro_rangeEi	0000005c _ZN8ICM2064914set_gyro_rangeEi
00000000         *UND*	00000000 _ZN17Adafruit_ICM2064912setGyroRangeE21icm20649_gyro_range_t
00000000         *UND*	00000000 _ZN17Adafruit_ICM2064912getGyroRangeEv
00000000         *UND*	00000000 _ZN5Print5printEl
00000000         *UND*	00000000 _ZN5Print7printlnEv
00000000         *UND*	00000000 Serial
00000000 g     F .text._ZN8ICM206494initENS_21CommunicationProtocolE	0000008c _ZN8ICM206494initENS_21CommunicationProtocolE
00000000         *UND*	00000000 _ZN15Adafruit_ICM20X9begin_SPIEaaaal
00000000         *UND*	00000000 _ZN17Adafruit_ICM206499begin_I2CEhP7TwoWirel
00000000         *UND*	00000000 usb_serial_write
00000000         *UND*	00000000 __assert_func
00000000         *UND*	00000000 Wire
00000000 g     O .rodata._ZTV8ICM20649	0000000c _ZTV8ICM20649


Contents of section .text._ZN8ICM206494readEv:
 0000 10b50023 82b00446 00f12802 011d0093  ...#...F..(.....
 0010 00f14c03 c030fff7 feffa169 e269e36b  ..L..0.....i.i.k
 0020 206a2167 6267216c 626ce367 236ea067   j!gbg!lbl.g#n.g
 0030 c4f88010 c4f88420 c4f88830 02b010bd  ....... ...0....
Contents of section .text._ZN8ICM20649C2Ev:
 0000 00234ff0 7e51164a 10b50446 03674367  .#O.~Q.J...F.gCg
 0010 8367c367 c0f88030 c0f88430 c0f88830  .g.g...0...0...0
 0020 c0f88c30 c0f89030 c0f89430 c0f89830  ...0...0...0...0
 0030 c0f89c30 c0f8a030 c0f8a430 c0f8a830  ...0...0...0...0
 0040 c0f8ac30 c0f8b030 c0f8b430 c0f8b830  ...0...0...0...0
 0050 c0f8bc10 40f8c02b fff7feff 204610bd  ....@..+.... F..
 0060 08000000                             ....            
Contents of section .text._ZN8ICM2064919get_accel_data_rateEv:
 0000 08b5c030 fff7feff 07ee900a b7ee005b  ...0...........[
 0010 b8eee77b 9fed046b 37ee057b 86ee070b  ...{...k7..{....
 0020 b7eec00b 08bd00bf 00000000 00949140  ...............@
Contents of section .text._ZN8ICM2064918get_gyro_data_rateEv:
 0000 10b50446 c030fff7 feff07ee 900ab7ee  ...F.0..........
 0010 005bb8ee e77b9fed 066b37ee 057b86ee  .[...{...k7..{..
 0020 070bb7ee c00b84ed 4a0a10bd aff30080  ........J.......
 0030 00000000 00309140                    .....0.@        
Contents of section .text._ZN8ICM2064914set_gyro_rangeEi:
 0000 b1f5fa6f 00f1c000 00b583b0 17d0b1f5  ...o............
 0010 7a6f1ad0 b1f57a7f 019014bf 00210121  zo....z......!.!
 0020 fff7feff 0198fff7 feff0146 0a48fff7  ...........F.H..
 0030 feff0948 03b05df8 04ebfff7 febf0221  ...H..]........!
 0040 0190fff7 feff0198 ede70321 0190fff7  ...........!....
 0050 feff0198 e7e700bf 00000000           ............    
Contents of section .rodata._ZN8ICM206494initENS_21CommunicationProtocolE.str1.4:
 0000 4661696c 65642074 6f206265 67696e20  Failed to begin 
 0010 49324300 4661696c 65642074 6f206265  I2C.Failed to be
 0020 67696e20 53504900 66616c73 65202626  gin SPI.false &&
 0030 2022496e 76616c69 64204943 4d323036   "Invalid ICM206
 0040 34392070 726f746f 636f6c20 73656c65  49 protocol sele
 0050 63746564 21204578 70656374 73206f6e  cted! Expects on
 0060 6c792049 3243206f 72205350 492e2200  ly I2C or SPI.".
 0070 766f6964 2049434d 32303634 393a3a69  void ICM20649::i
 0080 6e697428 49434d32 30363439 3a3a436f  nit(ICM20649::Co
 0090 6d6d756e 69636174 696f6e50 726f746f  mmunicationProto
 00a0 636f6c29 00000000 7372632f 73656e73  col)....src/sens
 00b0 6f72732f 49434d32 30363439 2e637070  ors/ICM20649.cpp
 00c0 00                                   .               
Contents of section .text._ZN8ICM206494initENS_21CommunicationProtocolE:
 0000 10b580f8 2c1182b0 b1b10129 29d10024  ....,......))..$
 0010 0b210c23 0d22c030 cde90014 0a21fff7  .!.#.".0.....!..
 0020 feff0446 12482146 fff7feff 1048fff7  ...F.H!F.....H..
 0030 feff9cb1 02b010bd 0b460e4a 6821c030  .........F.Jh!.0
 0040 fff7feff 0028f5d1 13210b48 fff7feff  .....(...!.H....
 0050 074802b0 bde81040 fff7febf 13210748  .H.....@.....!.H
 0060 f4e7074b 2221074a 0748fff7 feff00bf  ...K"!.J.H......
 0070 00000000 00000000 00000000 14000000  ................
 0080 28000000 70000000 a8000000           (...p.......    
Contents of section .rodata._ZTV8ICM20649:
 0000 00000000 00000000 00000000           ............    
Contents of section .comment:
 0000 00474343 3a202841 726d2047 4e552054  .GCC: (Arm GNU T
 0010 6f6f6c63 6861696e 2031312e 332e5265  oolchain 11.3.Re
 0020 6c312920 31312e33 2e312032 30323230  l1) 11.3.1 20220
 0030 37313200                             712.            
Contents of section .ARM.attributes:
 0000 41310000 00616561 62690001 27000000  A1...aeabi..'...
 0010 0537452d 4d00060d 074d0902 0a081204  .7E-M....M......
 0020 14011501 17031801 19011a01 1c011e02  ................
 0030 2201                                 ".              

Disassembly of section .text._ZN8ICM206494readEv:

00000000 <_ZN8ICM206494readEv>:
   0:	b510      	push	{r4, lr}
   2:	2300      	movs	r3, #0
   4:	b082      	sub	sp, #8
   6:	4604      	mov	r4, r0
   8:	f100 0228 	add.w	r2, r0, #40	; 0x28
   c:	1d01      	adds	r1, r0, #4
   e:	9300      	str	r3, [sp, #0]
  10:	f100 034c 	add.w	r3, r0, #76	; 0x4c
  14:	30c0      	adds	r0, #192	; 0xc0
  16:	f7ff fffe 	bl	0 <_ZN15Adafruit_ICM20X8getEventEP15sensors_event_tS1_S1_S1_>
  1a:	69a1      	ldr	r1, [r4, #24]
  1c:	69e2      	ldr	r2, [r4, #28]
  1e:	6be3      	ldr	r3, [r4, #60]	; 0x3c
  20:	6a20      	ldr	r0, [r4, #32]
  22:	6721      	str	r1, [r4, #112]	; 0x70
  24:	6762      	str	r2, [r4, #116]	; 0x74
  26:	6c21      	ldr	r1, [r4, #64]	; 0x40
  28:	6c62      	ldr	r2, [r4, #68]	; 0x44
  2a:	67e3      	str	r3, [r4, #124]	; 0x7c
  2c:	6e23      	ldr	r3, [r4, #96]	; 0x60
  2e:	67a0      	str	r0, [r4, #120]	; 0x78
  30:	f8c4 1080 	str.w	r1, [r4, #128]	; 0x80
  34:	f8c4 2084 	str.w	r2, [r4, #132]	; 0x84
  38:	f8c4 3088 	str.w	r3, [r4, #136]	; 0x88
  3c:	b002      	add	sp, #8
  3e:	bd10      	pop	{r4, pc}

Disassembly of section .text._ZN8ICM20649C2Ev:

00000000 <_ZN8ICM20649C1Ev>:
   0:	2300      	movs	r3, #0
   2:	f04f 517e 	mov.w	r1, #1065353216	; 0x3f800000
   6:	4a16      	ldr	r2, [pc, #88]	; (60 <_ZN8ICM20649C1Ev+0x60>)
   8:	b510      	push	{r4, lr}
   a:	4604      	mov	r4, r0
   c:	6703      	str	r3, [r0, #112]	; 0x70
   e:	6743      	str	r3, [r0, #116]	; 0x74
  10:	6783      	str	r3, [r0, #120]	; 0x78
  12:	67c3      	str	r3, [r0, #124]	; 0x7c
  14:	f8c0 3080 	str.w	r3, [r0, #128]	; 0x80
  18:	f8c0 3084 	str.w	r3, [r0, #132]	; 0x84
  1c:	f8c0 3088 	str.w	r3, [r0, #136]	; 0x88
  20:	f8c0 308c 	str.w	r3, [r0, #140]	; 0x8c
  24:	f8c0 3090 	str.w	r3, [r0, #144]	; 0x90
  28:	f8c0 3094 	str.w	r3, [r0, #148]	; 0x94
  2c:	f8c0 3098 	str.w	r3, [r0, #152]	; 0x98
  30:	f8c0 309c 	str.w	r3, [r0, #156]	; 0x9c
  34:	f8c0 30a0 	str.w	r3, [r0, #160]	; 0xa0
  38:	f8c0 30a4 	str.w	r3, [r0, #164]	; 0xa4
  3c:	f8c0 30a8 	str.w	r3, [r0, #168]	; 0xa8
  40:	f8c0 30ac 	str.w	r3, [r0, #172]	; 0xac
  44:	f8c0 30b0 	str.w	r3, [r0, #176]	; 0xb0
  48:	f8c0 30b4 	str.w	r3, [r0, #180]	; 0xb4
  4c:	f8c0 30b8 	str.w	r3, [r0, #184]	; 0xb8
  50:	f8c0 10bc 	str.w	r1, [r0, #188]	; 0xbc
  54:	f840 2bc0 	str.w	r2, [r0], #192
  58:	f7ff fffe 	bl	0 <_ZN17Adafruit_ICM20649C1Ev>
  5c:	4620      	mov	r0, r4
  5e:	bd10      	pop	{r4, pc}
  60:	00000008 	.word	0x00000008

Disassembly of section .text._ZN8ICM2064919get_accel_data_rateEv:

00000000 <_ZN8ICM2064919get_accel_data_rateEv>:
   0:	b508      	push	{r3, lr}
   2:	30c0      	adds	r0, #192	; 0xc0
   4:	f7ff fffe 	bl	0 <_ZN15Adafruit_ICM20X19getAccelRateDivisorEv>
   8:	ee07 0a90 	vmov	s15, r0
   c:	eeb7 5b00 	vmov.f64	d5, #112	; 0x3f800000  1.0
  10:	eeb8 7be7 	vcvt.f64.s32	d7, s15
  14:	ed9f 6b04 	vldr	d6, [pc, #16]	; 28 <_ZN8ICM2064919get_accel_data_rateEv+0x28>
  18:	ee37 7b05 	vadd.f64	d7, d7, d5
  1c:	ee86 0b07 	vdiv.f64	d0, d6, d7
  20:	eeb7 0bc0 	vcvt.f32.f64	s0, d0
  24:	bd08      	pop	{r3, pc}
  26:	bf00      	nop
  28:	00000000 	.word	0x00000000
  2c:	40919400 	.word	0x40919400

Disassembly of section .text._ZN8ICM2064918get_gyro_data_rateEv:

00000000 <_ZN8ICM2064918get_gyro_data_rateEv>:
   0:	b510      	push	{r4, lr}
   2:	4604      	mov	r4, r0
   4:	30c0      	adds	r0, #192	; 0xc0
   6:	f7ff fffe 	bl	0 <_ZN15Adafruit_ICM20X18getGyroRateDivisorEv>
   a:	ee07 0a90 	vmov	s15, r0
   e:	eeb7 5b00 	vmov.f64	d5, #112	; 0x3f800000  1.0
  12:	eeb8 7be7 	vcvt.f64.s32	d7, s15
  16:	ed9f 6b06 	vldr	d6, [pc, #24]	; 30 <_ZN8ICM2064918get_gyro_data_rateEv+0x30>
  1a:	ee37 7b05 	vadd.f64	d7, d7, d5
  1e:	ee86 0b07 	vdiv.f64	d0, d6, d7
  22:	eeb7 0bc0 	vcvt.f32.f64	s0, d0
  26:	ed84 0a4a 	vstr	s0, [r4, #296]	; 0x128
  2a:	bd10      	pop	{r4, pc}
  2c:	f3af 8000 	nop.w
  30:	00000000 	.word	0x00000000
  34:	40913000 	.word	0x40913000

Disassembly of section .text._ZN8ICM2064914set_gyro_rangeEi:

00000000 <_ZN8ICM2064914set_gyro_rangeEi>:
   0:	f5b1 6ffa 	cmp.w	r1, #2000	; 0x7d0
   4:	f100 00c0 	add.w	r0, r0, #192	; 0xc0
   8:	b500      	push	{lr}
   a:	b083      	sub	sp, #12
   c:	d017      	beq.n	3e <_ZN8ICM2064914set_gyro_rangeEi+0x3e>
   e:	f5b1 6f7a 	cmp.w	r1, #4000	; 0xfa0
  12:	d01a      	beq.n	4a <_ZN8ICM2064914set_gyro_rangeEi+0x4a>
  14:	f5b1 7f7a 	cmp.w	r1, #1000	; 0x3e8
  18:	9001      	str	r0, [sp, #4]
  1a:	bf14      	ite	ne
  1c:	2100      	movne	r1, #0
  1e:	2101      	moveq	r1, #1
  20:	f7ff fffe 	bl	0 <_ZN17Adafruit_ICM2064912setGyroRangeE21icm20649_gyro_range_t>
  24:	9801      	ldr	r0, [sp, #4]
  26:	f7ff fffe 	bl	0 <_ZN17Adafruit_ICM2064912getGyroRangeEv>
  2a:	4601      	mov	r1, r0
  2c:	480a      	ldr	r0, [pc, #40]	; (58 <_ZN8ICM2064914set_gyro_rangeEi+0x58>)
  2e:	f7ff fffe 	bl	0 <_ZN5Print5printEl>
  32:	4809      	ldr	r0, [pc, #36]	; (58 <_ZN8ICM2064914set_gyro_rangeEi+0x58>)
  34:	b003      	add	sp, #12
  36:	f85d eb04 	ldr.w	lr, [sp], #4
  3a:	f7ff bffe 	b.w	0 <_ZN5Print7printlnEv>
  3e:	2102      	movs	r1, #2
  40:	9001      	str	r0, [sp, #4]
  42:	f7ff fffe 	bl	0 <_ZN17Adafruit_ICM2064912setGyroRangeE21icm20649_gyro_range_t>
  46:	9801      	ldr	r0, [sp, #4]
  48:	e7ed      	b.n	26 <_ZN8ICM2064914set_gyro_rangeEi+0x26>
  4a:	2103      	movs	r1, #3
  4c:	9001      	str	r0, [sp, #4]
  4e:	f7ff fffe 	bl	0 <_ZN17Adafruit_ICM2064912setGyroRangeE21icm20649_gyro_range_t>
  52:	9801      	ldr	r0, [sp, #4]
  54:	e7e7      	b.n	26 <_ZN8ICM2064914set_gyro_rangeEi+0x26>
  56:	bf00      	nop
  58:	00000000 	.word	0x00000000

Disassembly of section .text._ZN8ICM206494initENS_21CommunicationProtocolE:

00000000 <_ZN8ICM206494initENS_21CommunicationProtocolE>:
   0:	b510      	push	{r4, lr}
   2:	f880 112c 	strb.w	r1, [r0, #300]	; 0x12c
   6:	b082      	sub	sp, #8
   8:	b1b1      	cbz	r1, 38 <_ZN8ICM206494initENS_21CommunicationProtocolE+0x38>
   a:	2901      	cmp	r1, #1
   c:	d129      	bne.n	62 <_ZN8ICM206494initENS_21CommunicationProtocolE+0x62>
   e:	2400      	movs	r4, #0
  10:	210b      	movs	r1, #11
  12:	230c      	movs	r3, #12
  14:	220d      	movs	r2, #13
  16:	30c0      	adds	r0, #192	; 0xc0
  18:	e9cd 1400 	strd	r1, r4, [sp]
  1c:	210a      	movs	r1, #10
  1e:	f7ff fffe 	bl	0 <_ZN15Adafruit_ICM20X9begin_SPIEaaaal>
  22:	4604      	mov	r4, r0
  24:	4812      	ldr	r0, [pc, #72]	; (70 <_ZN8ICM206494initENS_21CommunicationProtocolE+0x70>)
  26:	4621      	mov	r1, r4
  28:	f7ff fffe 	bl	0 <_ZN5Print5printEl>
  2c:	4810      	ldr	r0, [pc, #64]	; (70 <_ZN8ICM206494initENS_21CommunicationProtocolE+0x70>)
  2e:	f7ff fffe 	bl	0 <_ZN5Print7printlnEv>
  32:	b19c      	cbz	r4, 5c <_ZN8ICM206494initENS_21CommunicationProtocolE+0x5c>
  34:	b002      	add	sp, #8
  36:	bd10      	pop	{r4, pc}
  38:	460b      	mov	r3, r1
  3a:	4a0e      	ldr	r2, [pc, #56]	; (74 <_ZN8ICM206494initENS_21CommunicationProtocolE+0x74>)
  3c:	2168      	movs	r1, #104	; 0x68
  3e:	30c0      	adds	r0, #192	; 0xc0
  40:	f7ff fffe 	bl	0 <_ZN17Adafruit_ICM206499begin_I2CEhP7TwoWirel>
  44:	2800      	cmp	r0, #0
  46:	d1f5      	bne.n	34 <_ZN8ICM206494initENS_21CommunicationProtocolE+0x34>
  48:	2113      	movs	r1, #19
  4a:	480b      	ldr	r0, [pc, #44]	; (78 <_ZN8ICM206494initENS_21CommunicationProtocolE+0x78>)
  4c:	f7ff fffe 	bl	0 <usb_serial_write>
  50:	4807      	ldr	r0, [pc, #28]	; (70 <_ZN8ICM206494initENS_21CommunicationProtocolE+0x70>)
  52:	b002      	add	sp, #8
  54:	e8bd 4010 	ldmia.w	sp!, {r4, lr}
  58:	f7ff bffe 	b.w	0 <_ZN5Print7printlnEv>
  5c:	2113      	movs	r1, #19
  5e:	4807      	ldr	r0, [pc, #28]	; (7c <_ZN8ICM206494initENS_21CommunicationProtocolE+0x7c>)
  60:	e7f4      	b.n	4c <_ZN8ICM206494initENS_21CommunicationProtocolE+0x4c>
  62:	4b07      	ldr	r3, [pc, #28]	; (80 <_ZN8ICM206494initENS_21CommunicationProtocolE+0x80>)
  64:	2122      	movs	r1, #34	; 0x22
  66:	4a07      	ldr	r2, [pc, #28]	; (84 <_ZN8ICM206494initENS_21CommunicationProtocolE+0x84>)
  68:	4807      	ldr	r0, [pc, #28]	; (88 <_ZN8ICM206494initENS_21CommunicationProtocolE+0x88>)
  6a:	f7ff fffe 	bl	0 <__assert_func>
  6e:	bf00      	nop
  70:	00000000 	.word	0x00000000
  74:	00000000 	.word	0x00000000
  78:	00000000 	.word	0x00000000
  7c:	00000014 	.word	0x00000014
  80:	00000028 	.word	0x00000028
  84:	00000070 	.word	0x00000070
  88:	000000a8 	.word	0x000000a8
