
build/./src/sensors/LSM6DSOX.cpp.o:     file format elf32-littlearm

SYMBOL TABLE:
00000000 l    df *ABS*	00000000 LSM6DSOX.cpp
00000000 l    d  .text	00000000 .text
00000000 l    d  .data	00000000 .data
00000000 l    d  .bss	00000000 .bss
00000000 l    d  .text._ZN8LSM6DSOX4readEv	00000000 .text._ZN8LSM6DSOX4readEv
00000000 l    d  .text._ZN8LSM6DSOXC2Ev	00000000 .text._ZN8LSM6DSOXC2Ev
00000000 l    d  .text._ZN8LSM6DSOX4initEv	00000000 .text._ZN8LSM6DSOX4initEv
00000000 l    d  .rodata._ZTV8LSM6DSOX	00000000 .rodata._ZTV8LSM6DSOX
00000000 l    d  .comment	00000000 .comment
00000000 l    d  .ARM.attributes	00000000 .ARM.attributes
00000000 g     F .text._ZN8LSM6DSOX4readEv	00000038 _ZN8LSM6DSOX4readEv
00000000         *UND*	00000000 _ZN15Adafruit_LSM6DS8getEventEP15sensors_event_tS1_S1_
00000000 g     F .text._ZN8LSM6DSOXC2Ev	00000064 _ZN8LSM6DSOXC2Ev
00000000         *UND*	00000000 _ZN17Adafruit_LSM6DSOXC1Ev
00000000 g     F .text._ZN8LSM6DSOXC2Ev	00000064 _ZN8LSM6DSOXC1Ev
00000000 g     F .text._ZN8LSM6DSOX4initEv	0000003c _ZN8LSM6DSOX4initEv
00000000         *UND*	00000000 _ZN15Adafruit_LSM6DS9begin_I2CEhP7TwoWirel
00000000         *UND*	00000000 _ZN15Adafruit_LSM6DS13setAccelRangeE11accel_range
00000000         *UND*	00000000 _ZN15Adafruit_LSM6DS12setGyroRangeE10gyro_range
00000000         *UND*	00000000 _ZN15Adafruit_LSM6DS16setAccelDataRateE9data_rate
00000000         *UND*	00000000 _ZN15Adafruit_LSM6DS15setGyroDataRateE9data_rate
00000000         *UND*	00000000 Wire
00000000 g     O .rodata._ZTV8LSM6DSOX	0000000c _ZTV8LSM6DSOX


Contents of section .text._ZN8LSM6DSOX4readEv:
 0000 10b50446 00f14c03 00f12802 011dc030  ...F..L...(....0
 0010 fff7feff a169e269 e36b206a 21676267  .....i.i.k j!gbg
 0020 216c626c e367236e a067c4f8 8010c4f8  !lbl.g#n.g......
 0030 8420c4f8 883010bd                    . ...0..        
Contents of section .text._ZN8LSM6DSOXC2Ev:
 0000 00234ff0 7e51164a 10b50446 03674367  .#O.~Q.J...F.gCg
 0010 8367c367 c0f88030 c0f88430 c0f88830  .g.g...0...0...0
 0020 c0f88c30 c0f89030 c0f89430 c0f89830  ...0...0...0...0
 0030 c0f89c30 c0f8a030 c0f8a430 c0f8a830  ...0...0...0...0
 0040 c0f8ac30 c0f8b030 c0f8b430 c0f8b830  ...0...0...0...0
 0050 c0f8bc10 40f8c02b fff7feff 204610bd  ....@..+.... F..
 0060 08000000                             ....            
Contents of section .text._ZN8LSM6DSOX4initEv:
 0000 10b500f1 c0040023 0b4a6a21 2046fff7  .......#.Jj! F..
 0010 feff2046 0121fff7 feff2046 0c21fff7  .. F.!.... F.!..
 0020 feff2046 0a21fff7 feff2046 0a21bde8  .. F.!.... F.!..
 0030 1040fff7 febf00bf 00000000           .@..........    
Contents of section .rodata._ZTV8LSM6DSOX:
 0000 00000000 00000000 00000000           ............    
Contents of section .comment:
 0000 00474343 3a202841 726d2047 4e552054  .GCC: (Arm GNU T
 0010 6f6f6c63 6861696e 2031312e 332e5265  oolchain 11.3.Re
 0020 6c312920 31312e33 2e312032 30323230  l1) 11.3.1 20220
 0030 37313200                             712.            
Contents of section .ARM.attributes:
 0000 41310000 00616561 62690001 27000000  A1...aeabi..'...
 0010 0537452d 4d00060d 074d0902 0a081204  .7E-M....M......
 0020 14011501 17031801 19011a01 1c011e02  ................
 0030 2201                                 ".              

Disassembly of section .text._ZN8LSM6DSOX4readEv:

00000000 <_ZN8LSM6DSOX4readEv>:
   0:	b510      	push	{r4, lr}
   2:	4604      	mov	r4, r0
   4:	f100 034c 	add.w	r3, r0, #76	; 0x4c
   8:	f100 0228 	add.w	r2, r0, #40	; 0x28
   c:	1d01      	adds	r1, r0, #4
   e:	30c0      	adds	r0, #192	; 0xc0
  10:	f7ff fffe 	bl	0 <_ZN15Adafruit_LSM6DS8getEventEP15sensors_event_tS1_S1_>
  14:	69a1      	ldr	r1, [r4, #24]
  16:	69e2      	ldr	r2, [r4, #28]
  18:	6be3      	ldr	r3, [r4, #60]	; 0x3c
  1a:	6a20      	ldr	r0, [r4, #32]
  1c:	6721      	str	r1, [r4, #112]	; 0x70
  1e:	6762      	str	r2, [r4, #116]	; 0x74
  20:	6c21      	ldr	r1, [r4, #64]	; 0x40
  22:	6c62      	ldr	r2, [r4, #68]	; 0x44
  24:	67e3      	str	r3, [r4, #124]	; 0x7c
  26:	6e23      	ldr	r3, [r4, #96]	; 0x60
  28:	67a0      	str	r0, [r4, #120]	; 0x78
  2a:	f8c4 1080 	str.w	r1, [r4, #128]	; 0x80
  2e:	f8c4 2084 	str.w	r2, [r4, #132]	; 0x84
  32:	f8c4 3088 	str.w	r3, [r4, #136]	; 0x88
  36:	bd10      	pop	{r4, pc}

Disassembly of section .text._ZN8LSM6DSOXC2Ev:

00000000 <_ZN8LSM6DSOXC1Ev>:
   0:	2300      	movs	r3, #0
   2:	f04f 517e 	mov.w	r1, #1065353216	; 0x3f800000
   6:	4a16      	ldr	r2, [pc, #88]	; (60 <_ZN8LSM6DSOXC1Ev+0x60>)
   8:	b510      	push	{r4, lr}
   a:	4604      	mov	r4, r0
   c:	6703      	str	r3, [r0, #112]	; 0x70
   e:	6743      	str	r3, [r0, #116]	; 0x74
  10:	6783      	str	r3, [r0, #120]	; 0x78
  12:	67c3      	str	r3, [r0, #124]	; 0x7c
  14:	f8c0 3080 	str.w	r3, [r0, #128]	; 0x80
  18:	f8c0 3084 	str.w	r3, [r0, #132]	; 0x84
  1c:	f8c0 3088 	str.w	r3, [r0, #136]	; 0x88
  20:	f8c0 308c 	str.w	r3, [r0, #140]	; 0x8c
  24:	f8c0 3090 	str.w	r3, [r0, #144]	; 0x90
  28:	f8c0 3094 	str.w	r3, [r0, #148]	; 0x94
  2c:	f8c0 3098 	str.w	r3, [r0, #152]	; 0x98
  30:	f8c0 309c 	str.w	r3, [r0, #156]	; 0x9c
  34:	f8c0 30a0 	str.w	r3, [r0, #160]	; 0xa0
  38:	f8c0 30a4 	str.w	r3, [r0, #164]	; 0xa4
  3c:	f8c0 30a8 	str.w	r3, [r0, #168]	; 0xa8
  40:	f8c0 30ac 	str.w	r3, [r0, #172]	; 0xac
  44:	f8c0 30b0 	str.w	r3, [r0, #176]	; 0xb0
  48:	f8c0 30b4 	str.w	r3, [r0, #180]	; 0xb4
  4c:	f8c0 30b8 	str.w	r3, [r0, #184]	; 0xb8
  50:	f8c0 10bc 	str.w	r1, [r0, #188]	; 0xbc
  54:	f840 2bc0 	str.w	r2, [r0], #192
  58:	f7ff fffe 	bl	0 <_ZN17Adafruit_LSM6DSOXC1Ev>
  5c:	4620      	mov	r0, r4
  5e:	bd10      	pop	{r4, pc}
  60:	00000008 	.word	0x00000008

Disassembly of section .text._ZN8LSM6DSOX4initEv:

00000000 <_ZN8LSM6DSOX4initEv>:
   0:	b510      	push	{r4, lr}
   2:	f100 04c0 	add.w	r4, r0, #192	; 0xc0
   6:	2300      	movs	r3, #0
   8:	4a0b      	ldr	r2, [pc, #44]	; (38 <_ZN8LSM6DSOX4initEv+0x38>)
   a:	216a      	movs	r1, #106	; 0x6a
   c:	4620      	mov	r0, r4
   e:	f7ff fffe 	bl	0 <_ZN15Adafruit_LSM6DS9begin_I2CEhP7TwoWirel>
  12:	4620      	mov	r0, r4
  14:	2101      	movs	r1, #1
  16:	f7ff fffe 	bl	0 <_ZN15Adafruit_LSM6DS13setAccelRangeE11accel_range>
  1a:	4620      	mov	r0, r4
  1c:	210c      	movs	r1, #12
  1e:	f7ff fffe 	bl	0 <_ZN15Adafruit_LSM6DS12setGyroRangeE10gyro_range>
  22:	4620      	mov	r0, r4
  24:	210a      	movs	r1, #10
  26:	f7ff fffe 	bl	0 <_ZN15Adafruit_LSM6DS16setAccelDataRateE9data_rate>
  2a:	4620      	mov	r0, r4
  2c:	210a      	movs	r1, #10
  2e:	e8bd 4010 	ldmia.w	sp!, {r4, lr}
  32:	f7ff bffe 	b.w	0 <_ZN15Adafruit_LSM6DS15setGyroDataRateE9data_rate>
  36:	bf00      	nop
  38:	00000000 	.word	0x00000000
