
build/./src/sensors/rev_encoder.cpp.o:     file format elf32-littlearm

SYMBOL TABLE:
00000000 l    df *ABS*	00000000 rev_encoder.cpp
00000000 l    d  .text	00000000 .text
00000000 l    d  .data	00000000 .data
00000000 l    d  .bss	00000000 .bss
00000000 l    d  .text._ZN10RevEncoderC2Eh	00000000 .text._ZN10RevEncoderC2Eh
00000000 l    d  .text._ZN10RevEncoder4readEv	00000000 .text._ZN10RevEncoder4readEv
00000000 l    d  .text._ZN10RevEncoder4initEhb	00000000 .text._ZN10RevEncoder4initEhb
00000000 l    d  .text._ZN10RevEncoder15get_angle_ticksEv	00000000 .text._ZN10RevEncoder15get_angle_ticksEv
00000000 l    d  .text._ZN10RevEncoder17get_angle_radiansEv	00000000 .text._ZN10RevEncoder17get_angle_radiansEv
00000000 l    d  .comment	00000000 .comment
00000000 l    d  .ARM.attributes	00000000 .ARM.attributes
00000000 g     F .text._ZN10RevEncoderC2Eh	0000002e _ZN10RevEncoderC2Eh
00000000         *UND*	00000000 pinMode
00000000         *UND*	00000000 _ZN16FreqMeasureMulti5beginEmh
00000000 g     F .text._ZN10RevEncoderC2Eh	0000002e _ZN10RevEncoderC1Eh
00000000 g     F .text._ZN10RevEncoder4readEv	0000007c _ZN10RevEncoder4readEv
00000000         *UND*	00000000 _ZN16FreqMeasureMulti4readEv
00000000         *UND*	00000000 _ZN16FreqMeasureMulti9availableEv
00000000         *UND*	00000000 _ZN16FreqMeasureMulti18countToNanosecondsEm
00000000 g     F .text._ZN10RevEncoder4initEhb	00000068 _ZN10RevEncoder4initEhb
00000000         *UND*	00000000 F_CPU_ACTUAL
00000000 g     F .text._ZN10RevEncoder15get_angle_ticksEv	0000000a _ZN10RevEncoder15get_angle_ticksEv
00000000 g     F .text._ZN10RevEncoder17get_angle_radiansEv	0000000e _ZN10RevEncoder17get_angle_radiansEv


Contents of section .text._ZN10RevEncoderC2Eh:
 0000 10b50023 04460022 0846c4f8 d0301946  ...#.F.".F...0.F
 0010 a4f8dc30 c4f8e820 2070fff7 feff2046  ...0...  p.... F
 0020 062210f8 041bfff7 feff2046 10bd00bf  ."........ F....
Contents of section .text._ZN10RevEncoder4readEv:
 0000 38b50546 041d01e0 fff7feff 2046fff7  8..F........ F..
 0010 feff0346 2046012b f6d8fff7 feff00b9  ...F F.+........
 0020 38bd2046 fff7feff fff7feff 9fed127a  8. F...........z
 0030 c0ee077a 9fed0e6b f8fe677a fdeee77a  ...z...k..gz...z
 0040 17ee903a 5a42c3f3 0903c2f3 090258bf  ...:ZB........X.
 0050 534207ee 103abaee cb7bc5f8 e03027ee  SB...:...{...0'.
 0060 067b37ee 077bb7ee c77b85ed 397a38bd  .{7..{...{..9z8.
 0070 182d4454 fb210940 00007a44           .-DT.!.@..zD    
Contents of section .text._ZN10RevEncoder4initEhb:
 0000 2de9f041 0b460446 00211546 18462370  -..A.F.F.!.F.F#p
 0010 fff7feff 20460622 10f8041b fff7feff  .... F."........
 0020 cdb14ff4 fa780d4e 0d4f0e4d 2046fff7  ..O..x.N.O.M F..
 0030 feff7968 3268a5fb 0232920c 02eb8202  ..yh2h...2......
 0040 7b685b1a 9a42fbd8 b8f10108 eed1d4f8  {h[..B..........
 0050 e430c4f8 e830bde8 f08100bf 00000000  .0...0..........
 0060 001000e0 83de1b43                    .......C        
Contents of section .text._ZN10RevEncoder15get_angle_ticksEv:
 0000 90ed380a b8eec00a 704700bf           ..8.....pG..    
Contents of section .text._ZN10RevEncoder17get_angle_radiansEv:
 0000 90ed390a d0ed3a7a 30ee670a 704700bf  ..9...:z0.g.pG..
Contents of section .comment:
 0000 00474343 3a202841 726d2047 4e552054  .GCC: (Arm GNU T
 0010 6f6f6c63 6861696e 2031312e 332e5265  oolchain 11.3.Re
 0020 6c312920 31312e33 2e312032 30323230  l1) 11.3.1 20220
 0030 37313200                             712.            
Contents of section .ARM.attributes:
 0000 41310000 00616561 62690001 27000000  A1...aeabi..'...
 0010 0537452d 4d00060d 074d0902 0a081204  .7E-M....M......
 0020 14011501 17031801 19011a01 1c011e02  ................
 0030 2201                                 ".              

Disassembly of section .text._ZN10RevEncoderC2Eh:

00000000 <_ZN10RevEncoderC1Eh>:
   0:	b510      	push	{r4, lr}
   2:	2300      	movs	r3, #0
   4:	4604      	mov	r4, r0
   6:	2200      	movs	r2, #0
   8:	4608      	mov	r0, r1
   a:	f8c4 30d0 	str.w	r3, [r4, #208]	; 0xd0
   e:	4619      	mov	r1, r3
  10:	f8a4 30dc 	strh.w	r3, [r4, #220]	; 0xdc
  14:	f8c4 20e8 	str.w	r2, [r4, #232]	; 0xe8
  18:	7020      	strb	r0, [r4, #0]
  1a:	f7ff fffe 	bl	0 <pinMode>
  1e:	4620      	mov	r0, r4
  20:	2206      	movs	r2, #6
  22:	f810 1b04 	ldrb.w	r1, [r0], #4
  26:	f7ff fffe 	bl	0 <_ZN16FreqMeasureMulti5beginEmh>
  2a:	4620      	mov	r0, r4
  2c:	bd10      	pop	{r4, pc}
  2e:	bf00      	nop

Disassembly of section .text._ZN10RevEncoder4readEv:

00000000 <_ZN10RevEncoder4readEv>:
   0:	b538      	push	{r3, r4, r5, lr}
   2:	4605      	mov	r5, r0
   4:	1d04      	adds	r4, r0, #4
   6:	e001      	b.n	c <_ZN10RevEncoder4readEv+0xc>
   8:	f7ff fffe 	bl	0 <_ZN16FreqMeasureMulti4readEv>
   c:	4620      	mov	r0, r4
   e:	f7ff fffe 	bl	0 <_ZN16FreqMeasureMulti9availableEv>
  12:	4603      	mov	r3, r0
  14:	4620      	mov	r0, r4
  16:	2b01      	cmp	r3, #1
  18:	d8f6      	bhi.n	8 <_ZN10RevEncoder4readEv+0x8>
  1a:	f7ff fffe 	bl	0 <_ZN16FreqMeasureMulti9availableEv>
  1e:	b900      	cbnz	r0, 22 <_ZN10RevEncoder4readEv+0x22>
  20:	bd38      	pop	{r3, r4, r5, pc}
  22:	4620      	mov	r0, r4
  24:	f7ff fffe 	bl	0 <_ZN16FreqMeasureMulti4readEv>
  28:	f7ff fffe 	bl	0 <_ZN16FreqMeasureMulti18countToNanosecondsEm>
  2c:	ed9f 7a12 	vldr	s14, [pc, #72]	; 78 <_ZN10RevEncoder4readEv+0x78>
  30:	eec0 7a07 	vdiv.f32	s15, s0, s14
  34:	ed9f 6b0e 	vldr	d6, [pc, #56]	; 70 <_ZN10RevEncoder4readEv+0x70>
  38:	fef8 7a67 	vrinta.f32	s15, s15
  3c:	eefd 7ae7 	vcvt.s32.f32	s15, s15
  40:	ee17 3a90 	vmov	r3, s15
  44:	425a      	negs	r2, r3
  46:	f3c3 0309 	ubfx	r3, r3, #0, #10
  4a:	f3c2 0209 	ubfx	r2, r2, #0, #10
  4e:	bf58      	it	pl
  50:	4253      	negpl	r3, r2
  52:	ee07 3a10 	vmov	s14, r3
  56:	eeba 7bcb 	vcvt.f64.s32	d7, d7, #10
  5a:	f8c5 30e0 	str.w	r3, [r5, #224]	; 0xe0
  5e:	ee27 7b06 	vmul.f64	d7, d7, d6
  62:	ee37 7b07 	vadd.f64	d7, d7, d7
  66:	eeb7 7bc7 	vcvt.f32.f64	s14, d7
  6a:	ed85 7a39 	vstr	s14, [r5, #228]	; 0xe4
  6e:	bd38      	pop	{r3, r4, r5, pc}
  70:	54442d18 	.word	0x54442d18
  74:	400921fb 	.word	0x400921fb
  78:	447a0000 	.word	0x447a0000

Disassembly of section .text._ZN10RevEncoder4initEhb:

00000000 <_ZN10RevEncoder4initEhb>:
   0:	e92d 41f0 	stmdb	sp!, {r4, r5, r6, r7, r8, lr}
   4:	460b      	mov	r3, r1
   6:	4604      	mov	r4, r0
   8:	2100      	movs	r1, #0
   a:	4615      	mov	r5, r2
   c:	4618      	mov	r0, r3
   e:	7023      	strb	r3, [r4, #0]
  10:	f7ff fffe 	bl	0 <pinMode>
  14:	4620      	mov	r0, r4
  16:	2206      	movs	r2, #6
  18:	f810 1b04 	ldrb.w	r1, [r0], #4
  1c:	f7ff fffe 	bl	0 <_ZN16FreqMeasureMulti5beginEmh>
  20:	b1cd      	cbz	r5, 56 <_ZN10RevEncoder4initEhb+0x56>
  22:	f44f 78fa 	mov.w	r8, #500	; 0x1f4
  26:	4e0d      	ldr	r6, [pc, #52]	; (5c <_ZN10RevEncoder4initEhb+0x5c>)
  28:	4f0d      	ldr	r7, [pc, #52]	; (60 <_ZN10RevEncoder4initEhb+0x60>)
  2a:	4d0e      	ldr	r5, [pc, #56]	; (64 <_ZN10RevEncoder4initEhb+0x64>)
  2c:	4620      	mov	r0, r4
  2e:	f7ff fffe 	bl	0 <_ZN10RevEncoder4initEhb>
  32:	6879      	ldr	r1, [r7, #4]
  34:	6832      	ldr	r2, [r6, #0]
  36:	fba5 3202 	umull	r3, r2, r5, r2
  3a:	0c92      	lsrs	r2, r2, #18
  3c:	eb02 0282 	add.w	r2, r2, r2, lsl #2
  40:	687b      	ldr	r3, [r7, #4]
  42:	1a5b      	subs	r3, r3, r1
  44:	429a      	cmp	r2, r3
  46:	d8fb      	bhi.n	40 <_ZN10RevEncoder4initEhb+0x40>
  48:	f1b8 0801 	subs.w	r8, r8, #1
  4c:	d1ee      	bne.n	2c <_ZN10RevEncoder4initEhb+0x2c>
  4e:	f8d4 30e4 	ldr.w	r3, [r4, #228]	; 0xe4
  52:	f8c4 30e8 	str.w	r3, [r4, #232]	; 0xe8
  56:	e8bd 81f0 	ldmia.w	sp!, {r4, r5, r6, r7, r8, pc}
  5a:	bf00      	nop
  5c:	00000000 	.word	0x00000000
  60:	e0001000 	.word	0xe0001000
  64:	431bde83 	.word	0x431bde83

Disassembly of section .text._ZN10RevEncoder15get_angle_ticksEv:

00000000 <_ZN10RevEncoder15get_angle_ticksEv>:
   0:	ed90 0a38 	vldr	s0, [r0, #224]	; 0xe0
   4:	eeb8 0ac0 	vcvt.f32.s32	s0, s0
   8:	4770      	bx	lr
   a:	bf00      	nop

Disassembly of section .text._ZN10RevEncoder17get_angle_radiansEv:

00000000 <_ZN10RevEncoder17get_angle_radiansEv>:
   0:	ed90 0a39 	vldr	s0, [r0, #228]	; 0xe4
   4:	edd0 7a3a 	vldr	s15, [r0, #232]	; 0xe8
   8:	ee30 0a67 	vsub.f32	s0, s0, s15
   c:	4770      	bx	lr
   e:	bf00      	nop
